

Microchip MPLAB XC8 Assembler V2.41 build 20230208172133 
                                                                                               Sun Dec  7 11:21:07 2025

Microchip MPLAB XC8 C Compiler v2.41 (Free license) build 20230208172133 Og1 
     1                           	processor	18F4550
     2                           	fnconf	rparam,??,?,0
     3                           	pagewidth 120
     4                           	opt	flic
     5                           	psect	idataCOMRAM,global,class=CODE,delta=1,noexec
     6                           	psect	idataBANK0,global,class=CODE,delta=1,noexec
     7                           	psect	mediumconst,global,reloc=2,class=MEDIUMCONST,delta=1,noexec
     8                           	psect	cinit,global,reloc=2,class=CODE,delta=1
     9                           	psect	bssCOMRAM,global,class=COMRAM,space=1,delta=1,lowdata,noexec
    10                           	psect	dataCOMRAM,global,class=COMRAM,space=1,delta=1,lowdata,noexec
    11                           	psect	bssBANK0,global,class=BANK0,space=1,delta=1,lowdata,noexec
    12                           	psect	dataBANK0,global,class=BANK0,space=1,delta=1,lowdata,noexec
    13                           	psect	cstackCOMRAM,global,class=COMRAM,space=1,delta=1,lowdata,noexec
    14                           	psect	text0,global,reloc=2,class=CODE,delta=1
    15                           	psect	text1,global,reloc=2,class=CODE,delta=1
    16                           	psect	text2,global,reloc=2,class=CODE,delta=1
    17                           	psect	text3,global,reloc=2,class=CODE,delta=1
    18                           	psect	text4,global,reloc=2,class=CODE,delta=1,group=3
    19                           	psect	text5,global,reloc=2,class=CODE,delta=1,group=1
    20                           	psect	text6,global,reloc=2,class=CODE,delta=1,group=1
    21                           	psect	text7,global,reloc=2,class=CODE,delta=1,group=1
    22                           	psect	text8,global,reloc=2,class=CODE,delta=1,group=1
    23                           	psect	text9,global,reloc=2,class=CODE,delta=1,group=3
    24                           	psect	text10,global,reloc=2,class=CODE,delta=1,group=3
    25                           	psect	text11,global,reloc=2,class=CODE,delta=1,group=3
    26                           	psect	text12,global,reloc=2,class=CODE,delta=1
    27                           	psect	text13,global,reloc=2,class=CODE,delta=1
    28                           	psect	text14,global,reloc=2,class=CODE,delta=1
    29                           	psect	text15,global,reloc=2,class=CODE,delta=1
    30                           	psect	text16,global,reloc=2,class=CODE,delta=1
    31                           	psect	text17,global,reloc=2,class=CODE,delta=1
    32                           	psect	text18,global,reloc=2,class=CODE,delta=1
    33                           	psect	text19,global,reloc=2,class=CODE,delta=1
    34                           	psect	text20,global,reloc=2,class=CODE,delta=1
    35                           	psect	text21,global,reloc=2,class=CODE,delta=1
    36                           	psect	text22,global,reloc=2,class=CODE,delta=1
    37                           	psect	text23,global,reloc=2,class=CODE,delta=1
    38                           	psect	text24,global,reloc=2,class=CODE,delta=1
    39                           	psect	text25,global,reloc=2,class=CODE,delta=1
    40                           	psect	text26,global,reloc=2,class=CODE,delta=1
    41                           	psect	text27,global,reloc=2,class=CODE,delta=1
    42                           	psect	text28,global,reloc=2,class=CODE,delta=1
    43                           	psect	text29,global,reloc=2,class=CODE,delta=1
    44                           	psect	text30,global,reloc=2,class=CODE,delta=1
    45                           	psect	text31,global,reloc=2,class=CODE,delta=1
    46                           	psect	text32,global,reloc=2,class=CODE,delta=1
    47                           	psect	text33,global,reloc=2,class=CODE,delta=1
    48                           	psect	intsave_regs,global,class=BIGRAM,space=1,delta=1,noexec
    49                           	psect	rparam,global,class=COMRAM,space=1,delta=1,noexec
    50                           	psect	config,global,abs,ovrld,class=CONFIG,space=4,delta=1,noexec
    51   000000                     
    52                           ; Generated 23/03/2023 GMT
    53                           ; 
    54                           ; Copyright © 2023, Microchip Technology Inc. and its subsidiaries ("Microchip")
    55                           ; All rights reserved.
    56                           ; 
    57                           ; This software is developed by Microchip Technology Inc. and its subsidiaries ("Microch
      +                          ip").
    58                           ; 
    59                           ; Redistribution and use in source and binary forms, with or without modification, are
    60                           ; permitted provided that the following conditions are met:
    61                           ; 
    62                           ;     1. Redistributions of source code must retain the above copyright notice, this lis
      +                          t of
    63                           ;        conditions and the following disclaimer.
    64                           ; 
    65                           ;     2. Redistributions in binary form must reproduce the above copyright notice, this 
      +                          list
    66                           ;        of conditions and the following disclaimer in the documentation and/or other
    67                           ;        materials provided with the distribution. Publication is not required when
    68                           ;        this file is used in an embedded application.
    69                           ; 
    70                           ;     3. Microchip's name may not be used to endorse or promote products derived from th
      +                          is
    71                           ;        software without specific prior written permission.
    72                           ; 
    73                           ; THIS SOFTWARE IS PROVIDED BY MICROCHIP "AS IS" AND ANY EXPRESS OR IMPLIED WARRANTIES,
    74                           ; INCLUDING, BUT NOT LIMITED TO, THE IMPLIED WARRANTIES OF MERCHANTABILITY AND FITNESS F
      +                          OR
    75                           ; PURPOSE ARE DISCLAIMED.  IN NO EVENT SHALL MICROCHIP BE LIABLE FOR ANY DIRECT, INDIREC
      +                          T,
    76                           ; INCIDENTAL, SPECIAL, EXEMPLARY, OR CONSEQUENTIAL DAMAGES (INCLUDING BUT NOT LIMITED TO
    77                           ; PROCUREMENT OF SUBSTITUTE GOODS OR SERVICES; LOSS OF USE, DATA OR PROFITS; OR BUSINESS
    78                           ; INTERRUPTION) HOWSOEVER CAUSED AND ON ANY THEORY OF LIABILITY, WHETHER IN CONTRACT, ST
      +                          RICT
    79                           ; LIABILITY, OR TORT (INCLUDING NEGLIGENCE OR OTHERWISE) ARISING IN ANY WAY OUT OF THE U
      +                          SE OF
    80                           ; THIS SOFTWARE, EVEN IF ADVISED OF THE POSSIBILITY OF SUCH DAMAGE.
    81                           ; 
    82                           ; 
    83                           ; Code-generator required, PIC18F4550 Definitions
    84                           ; 
    85                           ; SFR Addresses
    86   000000                     
    87                           	psect	idataCOMRAM
    88   006A83                     __pidataCOMRAM:
    89                           	callstack 0
    90                           
    91                           ;initializer for _AM_PM
    92   006A83  05                 	db	5
    93                           
    94                           ;initializer for _Clock_type
    95   006A84  06                 	db	6
    96                           
    97                           	psect	idataBANK0
    98   006A85                     __pidataBANK0:
    99                           	callstack 0
   100                           
   101                           ;initializer for _days
   102   006A85  30                 	db	48
   103   006A86  31                 	db	49
   104   006A87  32                 	db	50
   105   006A88  33                 	db	51
   106   006A89  34                 	db	52
   107   006A8A  35                 	db	53
   108   006A8B  36                 	db	54
   109   000000                     _SSPCON1	set	4038
   110   000000                     _SSPSTAT	set	4039
   111   000000                     _TRISB	set	3987
   112   000000                     _PORTCbits	set	3970
   113   000000                     _LATB3	set	31827
   114   000000                     _LATB2	set	31826
   115   000000                     _ACKEN	set	32300
   116   000000                     _ACKDT	set	32301
   117   000000                     _R_W	set	32314
   118   000000                     _RSEN	set	32297
   119   000000                     _SEN	set	32296
   120   000000                     _RCEN	set	32299
   121   000000                     _BF	set	32312
   122   000000                     _PEN	set	32298
   123   000000                     _LATD0	set	31840
   124   000000                     _LATD1	set	31841
   125   000000                     _LATD2	set	31842
   126   000000                     _PORTC	set	3970
   127   000000                     _TRISC	set	3988
   128   000000                     _TRISD	set	3989
   129   000000                     _OSCCON	set	4051
   130   000000                     _SSPCON2bits	set	4037
   131   000000                     _LATB	set	3978
   132   000000                     _LATD3	set	31843
   133   000000                     _TRISBbits	set	3987
   134   000000                     _SSPBUF	set	4041
   135   000000                     _SSPADD	set	4040
   136                           
   137                           	psect	mediumconst
   138   007E7C                     __pmediumconst:
   139                           	callstack 0
   140   007E7C  00                 	db	0
   141   007E7D                     STR_7:
   142   007E7D  53                 	db	83	;'S'
   143   007E7E  74                 	db	116	;'t'
   144   007E7F  61                 	db	97	;'a'
   145   007E80  74                 	db	116	;'t'
   146   007E81  75                 	db	117	;'u'
   147   007E82  73                 	db	115	;'s'
   148   007E83  3A                 	db	58	;':'
   149   007E84  20                 	db	32
   150   007E85  46                 	db	70	;'F'
   151   007E86  61                 	db	97	;'a'
   152   007E87  6C                 	db	108	;'l'
   153   007E88  68                 	db	104	;'h'
   154   007E89  61                 	db	97	;'a'
   155   007E8A  20                 	db	32
   156   007E8B  20                 	db	32
   157   007E8C  20                 	db	32
   158   007E8D  20                 	db	32
   159   007E8E  20                 	db	32
   160   007E8F  20                 	db	32
   161   007E90  20                 	db	32
   162   007E91  20                 	db	32
   163   007E92  00                 	db	0
   164   007E93                     STR_2:
   165   007E93  53                 	db	83	;'S'
   166   007E94  74                 	db	116	;'t'
   167   007E95  61                 	db	97	;'a'
   168   007E96  74                 	db	116	;'t'
   169   007E97  75                 	db	117	;'u'
   170   007E98  73                 	db	115	;'s'
   171   007E99  3A                 	db	58	;':'
   172   007E9A  20                 	db	32
   173   007E9B  50                 	db	80	;'P'
   174   007E9C  72                 	db	114	;'r'
   175   007E9D  6F                 	db	111	;'o'
   176   007E9E  6E                 	db	110	;'n'
   177   007E9F  74                 	db	116	;'t'
   178   007EA0  6F                 	db	111	;'o'
   179   007EA1  20                 	db	32
   180   007EA2  20                 	db	32
   181   007EA3  20                 	db	32
   182   007EA4  20                 	db	32
   183   007EA5  20                 	db	32
   184   007EA6  20                 	db	32
   185   007EA7  20                 	db	32
   186   007EA8  00                 	db	0
   187   007EA9                     STR_5:
   188   007EA9  53                 	db	83	;'S'
   189   007EAA  74                 	db	116	;'t'
   190   007EAB  61                 	db	97	;'a'
   191   007EAC  74                 	db	116	;'t'
   192   007EAD  75                 	db	117	;'u'
   193   007EAE  73                 	db	115	;'s'
   194   007EAF  3A                 	db	58	;':'
   195   007EB0  20                 	db	32
   196   007EB1  50                 	db	80	;'P'
   197   007EB2  61                 	db	97	;'a'
   198   007EB3  72                 	db	114	;'r'
   199   007EB4  61                 	db	97	;'a'
   200   007EB5  6E                 	db	110	;'n'
   201   007EB6  64                 	db	100	;'d'
   202   007EB7  6F                 	db	111	;'o'
   203   007EB8  20                 	db	32
   204   007EB9  20                 	db	32
   205   007EBA  20                 	db	32
   206   007EBB  20                 	db	32
   207   007EBC  20                 	db	32
   208   007EBD  20                 	db	32
   209   007EBE  00                 	db	0
   210   007EBF                     STR_3:
   211   007EBF  53                 	db	83	;'S'
   212   007EC0  74                 	db	116	;'t'
   213   007EC1  61                 	db	97	;'a'
   214   007EC2  74                 	db	116	;'t'
   215   007EC3  75                 	db	117	;'u'
   216   007EC4  73                 	db	115	;'s'
   217   007EC5  3A                 	db	58	;':'
   218   007EC6  20                 	db	32
   219   007EC7  50                 	db	80	;'P'
   220   007EC8  61                 	db	97	;'a'
   221   007EC9  72                 	db	114	;'r'
   222   007ECA  74                 	db	116	;'t'
   223   007ECB  69                 	db	105	;'i'
   224   007ECC  6E                 	db	110	;'n'
   225   007ECD  64                 	db	100	;'d'
   226   007ECE  6F                 	db	111	;'o'
   227   007ECF  20                 	db	32
   228   007ED0  20                 	db	32
   229   007ED1  20                 	db	32
   230   007ED2  20                 	db	32
   231   007ED3  20                 	db	32
   232   007ED4  00                 	db	0
   233   007ED5                     STR_6:
   234   007ED5  53                 	db	83	;'S'
   235   007ED6  74                 	db	116	;'t'
   236   007ED7  61                 	db	97	;'a'
   237   007ED8  74                 	db	116	;'t'
   238   007ED9  75                 	db	117	;'u'
   239   007EDA  73                 	db	115	;'s'
   240   007EDB  3A                 	db	58	;':'
   241   007EDC  20                 	db	32
   242   007EDD  42                 	db	66	;'B'
   243   007EDE  6C                 	db	108	;'l'
   244   007EDF  6F                 	db	111	;'o'
   245   007EE0  71                 	db	113	;'q'
   246   007EE1  75                 	db	117	;'u'
   247   007EE2  65                 	db	101	;'e'
   248   007EE3  61                 	db	97	;'a'
   249   007EE4  64                 	db	100	;'d'
   250   007EE5  6F                 	db	111	;'o'
   251   007EE6  20                 	db	32
   252   007EE7  20                 	db	32
   253   007EE8  20                 	db	32
   254   007EE9  20                 	db	32
   255   007EEA  00                 	db	0
   256   007EEB                     STR_4:
   257   007EEB  53                 	db	83	;'S'
   258   007EEC  74                 	db	116	;'t'
   259   007EED  61                 	db	97	;'a'
   260   007EEE  74                 	db	116	;'t'
   261   007EEF  75                 	db	117	;'u'
   262   007EF0  73                 	db	115	;'s'
   263   007EF1  3A                 	db	58	;':'
   264   007EF2  20                 	db	32
   265   007EF3  46                 	db	70	;'F'
   266   007EF4  75                 	db	117	;'u'
   267   007EF5  6E                 	db	110	;'n'
   268   007EF6  63                 	db	99	;'c'
   269   007EF7  69                 	db	105	;'i'
   270   007EF8  6F                 	db	111	;'o'
   271   007EF9  6E                 	db	110	;'n'
   272   007EFA  61                 	db	97	;'a'
   273   007EFB  6E                 	db	110	;'n'
   274   007EFC  64                 	db	100	;'d'
   275   007EFD  6F                 	db	111	;'o'
   276   007EFE  20                 	db	32
   277   007EFF  20                 	db	32
   278   007F00  00                 	db	0
   279   007F01                     STR_8:
   280   007F01  53                 	db	83	;'S'
   281   007F02  74                 	db	116	;'t'
   282   007F03  61                 	db	97	;'a'
   283   007F04  74                 	db	116	;'t'
   284   007F05  75                 	db	117	;'u'
   285   007F06  73                 	db	115	;'s'
   286   007F07  3A                 	db	58	;':'
   287   007F08  20                 	db	32
   288   007F09  44                 	db	68	;'D'
   289   007F0A  65                 	db	101	;'e'
   290   007F0B  73                 	db	115	;'s'
   291   007F0C  63                 	db	99	;'c'
   292   007F0D  6F                 	db	111	;'o'
   293   007F0E  6E                 	db	110	;'n'
   294   007F0F  68                 	db	104	;'h'
   295   007F10  65                 	db	101	;'e'
   296   007F11  63                 	db	99	;'c'
   297   007F12  69                 	db	105	;'i'
   298   007F13  64                 	db	100	;'d'
   299   007F14  6F                 	db	111	;'o'
   300   007F15  20                 	db	32
   301   007F16  00                 	db	0
   302   007F17                     STR_1:
   303   007F17  53                 	db	83	;'S'
   304   007F18  74                 	db	116	;'t'
   305   007F19  61                 	db	97	;'a'
   306   007F1A  74                 	db	116	;'t'
   307   007F1B  75                 	db	117	;'u'
   308   007F1C  73                 	db	115	;'s'
   309   007F1D  3A                 	db	58	;':'
   310   007F1E  20                 	db	32
   311   007F1F  49                 	db	73	;'I'
   312   007F20  6E                 	db	110	;'n'
   313   007F21  69                 	db	105	;'i'
   314   007F22  63                 	db	99	;'c'
   315   007F23  69                 	db	105	;'i'
   316   007F24  61                 	db	97	;'a'
   317   007F25  6C                 	db	108	;'l'
   318   007F26  69                 	db	105	;'i'
   319   007F27  7A                 	db	122	;'z'
   320   007F28  61                 	db	97	;'a'
   321   007F29  6E                 	db	110	;'n'
   322   007F2A  64                 	db	100	;'d'
   323   007F2B  6F                 	db	111	;'o'
   324   007F2C  00                 	db	0
   325   007F2D                     STR_10:
   326   007F2D  45                 	db	69	;'E'
   327   007F2E  6E                 	db	110	;'n'
   328   007F2F  67                 	db	103	;'g'
   329   007F30  65                 	db	101	;'e'
   330   007F31  6E                 	db	110	;'n'
   331   007F32  68                 	db	104	;'h'
   332   007F33  61                 	db	97	;'a'
   333   007F34  72                 	db	114	;'r'
   334   007F35  69                 	db	105	;'i'
   335   007F36  61                 	db	97	;'a'
   336   007F37  20                 	db	32
   337   007F38  45                 	db	69	;'E'
   338   007F39  6C                 	db	108	;'l'
   339   007F3A  65                 	db	101	;'e'
   340   007F3B  74                 	db	116	;'t'
   341   007F3C  72                 	db	114	;'r'
   342   007F3D  69                 	db	105	;'i'
   343   007F3E  63                 	db	99	;'c'
   344   007F3F  61                 	db	97	;'a'
   345   007F40  00                 	db	0
   346   007F41                     STR_13:
   347   007F41  57                 	db	87	;'W'
   348   007F42  65                 	db	101	;'e'
   349   007F43  6C                 	db	108	;'l'
   350   007F44  69                 	db	105	;'i'
   351   007F45  6E                 	db	110	;'n'
   352   007F46  67                 	db	103	;'g'
   353   007F47  74                 	db	116	;'t'
   354   007F48  6F                 	db	111	;'o'
   355   007F49  6E                 	db	110	;'n'
   356   007F4A  20                 	db	32
   357   007F4B  43                 	db	67	;'C'
   358   007F4C  6F                 	db	111	;'o'
   359   007F4D  72                 	db	114	;'r'
   360   007F4E  72                 	db	114	;'r'
   361   007F4F  65                 	db	101	;'e'
   362   007F50  69                 	db	105	;'i'
   363   007F51  61                 	db	97	;'a'
   364   007F52  00                 	db	0
   365   007F53                     STR_15:
   366   007F53  53                 	db	83	;'S'
   367   007F54  65                 	db	101	;'e'
   368   007F55  71                 	db	113	;'q'
   369   007F56  2E                 	db	46
   370   007F57  45                 	db	69	;'E'
   371   007F58  6C                 	db	108	;'l'
   372   007F59  65                 	db	101	;'e'
   373   007F5A  74                 	db	116	;'t'
   374   007F5B  72                 	db	114	;'r'
   375   007F5C  2E                 	db	46
   376   007F5D  4C                 	db	76	;'L'
   377   007F5E  69                 	db	105	;'i'
   378   007F5F  6D                 	db	109	;'m'
   379   007F60  70                 	db	112	;'p'
   380   007F61  65                 	db	101	;'e'
   381   007F62  7A                 	db	122	;'z'
   382   007F63  61                 	db	97	;'a'
   383   007F64  00                 	db	0
   384   007F65                     STR_11:
   385   007F65  50                 	db	80	;'P'
   386   007F66  72                 	db	114	;'r'
   387   007F67  6F                 	db	111	;'o'
   388   007F68  6A                 	db	106	;'j'
   389   007F69  65                 	db	101	;'e'
   390   007F6A  74                 	db	116	;'t'
   391   007F6B  6F                 	db	111	;'o'
   392   007F6C  20                 	db	32
   393   007F6D  49                 	db	73	;'I'
   394   007F6E  6E                 	db	110	;'n'
   395   007F6F  74                 	db	116	;'t'
   396   007F70  65                 	db	101	;'e'
   397   007F71  67                 	db	103	;'g'
   398   007F72  72                 	db	114	;'r'
   399   007F73  61                 	db	97	;'a'
   400   007F74  64                 	db	100	;'d'
   401   007F75  6F                 	db	111	;'o'
   402   007F76  00                 	db	0
   403   007F77                     STR_17:
   404   007F77  53                 	db	83	;'S'
   405   007F78  65                 	db	101	;'e'
   406   007F79  6A                 	db	106	;'j'
   407   007F7A  61                 	db	97	;'a'
   408   007F7B  20                 	db	32
   409   007F7C  42                 	db	66	;'B'
   410   007F7D  65                 	db	101	;'e'
   411   007F7E  6D                 	db	109	;'m'
   412   007F7F  20                 	db	32
   413   007F80  56                 	db	86	;'V'
   414   007F81  69                 	db	105	;'i'
   415   007F82  6E                 	db	110	;'n'
   416   007F83  64                 	db	100	;'d'
   417   007F84  6F                 	db	111	;'o'
   418   007F85  21                 	db	33
   419   007F86  00                 	db	0
   420   007F87                     STR_16:
   421   007F87  46                 	db	70	;'F'
   422   007F88  69                 	db	105	;'i'
   423   007F89  6C                 	db	108	;'l'
   424   007F8A  74                 	db	116	;'t'
   425   007F8B  72                 	db	114	;'r'
   426   007F8C  6F                 	db	111	;'o'
   427   007F8D  20                 	db	32
   428   007F8E  64                 	db	100	;'d'
   429   007F8F  65                 	db	101	;'e'
   430   007F90  20                 	db	32
   431   007F91  4D                 	db	77	;'M'
   432   007F92  61                 	db	97	;'a'
   433   007F93  6E                 	db	110	;'n'
   434   007F94  67                 	db	103	;'g'
   435   007F95  61                 	db	97	;'a'
   436   007F96  00                 	db	0
   437   007F97                     STR_12:
   438   007F97  45                 	db	69	;'E'
   439   007F98  6D                 	db	109	;'m'
   440   007F99  20                 	db	32
   441   007F9A  45                 	db	69	;'E'
   442   007F9B  6C                 	db	108	;'l'
   443   007F9C  65                 	db	101	;'e'
   444   007F9D  74                 	db	116	;'t'
   445   007F9E  72                 	db	114	;'r'
   446   007F9F  69                 	db	105	;'i'
   447   007FA0  63                 	db	99	;'c'
   448   007FA1  61                 	db	97	;'a'
   449   007FA2  20                 	db	32
   450   007FA3  49                 	db	73	;'I'
   451   007FA4  49                 	db	73	;'I'
   452   007FA5  00                 	db	0
   453   007FA6                     STR_14:
   454   007FA6  52                 	db	82	;'R'
   455   007FA7  41                 	db	65	;'A'
   456   007FA8  20                 	db	32
   457   007FA9  3A                 	db	58	;':'
   458   007FAA  20                 	db	32
   459   007FAB  31                 	db	49	;'1'
   460   007FAC  30                 	db	48	;'0'
   461   007FAD  36                 	db	54	;'6'
   462   007FAE  33                 	db	51	;'3'
   463   007FAF  36                 	db	54	;'6'
   464   007FB0  37                 	db	55	;'7'
   465   007FB1  37                 	db	55	;'7'
   466   007FB2  00                 	db	0
   467   007FB3                     STR_18:
   468   007FB3  46                 	db	70	;'F'
   469   007FB4  69                 	db	105	;'i'
   470   007FB5  6C                 	db	108	;'l'
   471   007FB6  74                 	db	116	;'t'
   472   007FB7  72                 	db	114	;'r'
   473   007FB8  6F                 	db	111	;'o'
   474   007FB9  20                 	db	32
   475   007FBA  4D                 	db	77	;'M'
   476   007FBB  61                 	db	97	;'a'
   477   007FBC  6E                 	db	110	;'n'
   478   007FBD  67                 	db	103	;'g'
   479   007FBE  61                 	db	97	;'a'
   480   007FBF  00                 	db	0
   481   007FC0                     STR_27:
   482   007FC0  44                 	db	68	;'D'
   483   007FC1  61                 	db	97	;'a'
   484   007FC2  74                 	db	116	;'t'
   485   007FC3  61                 	db	97	;'a'
   486   007FC4  20                 	db	32
   487   007FC5  25                 	db	37
   488   007FC6  78                 	db	120	;'x'
   489   007FC7  2D                 	db	45
   490   007FC8  00                 	db	0
   491   007FC9                     STR_23:
   492   007FC9  48                 	db	72	;'H'
   493   007FCA  6F                 	db	111	;'o'
   494   007FCB  72                 	db	114	;'r'
   495   007FCC  61                 	db	97	;'a'
   496   007FCD  3A                 	db	58	;':'
   497   007FCE  25                 	db	37
   498   007FCF  78                 	db	120	;'x'
   499   007FD0  3A                 	db	58	;':'
   500   007FD1  00                 	db	0
   501   007FD2                     STR_9:
   502   007FD2  55                 	db	85	;'U'
   503   007FD3  4E                 	db	78	;'N'
   504   007FD4  49                 	db	73	;'I'
   505   007FD5  55                 	db	85	;'U'
   506   007FD6  42                 	db	66	;'B'
   507   007FD7  45                 	db	69	;'E'
   508   007FD8  00                 	db	0
   509   007FD9                     STR_21:
   510   007FD9  25                 	db	37
   511   007FDA  78                 	db	120	;'x'
   512   007FDB  20                 	db	32
   513   007FDC  00                 	db	0
   514   007FDD                     STR_33:
   515   007FDD  51                 	db	81	;'Q'
   516   007FDE  75                 	db	117	;'u'
   517   007FDF  61                 	db	97	;'a'
   518   007FE0  00                 	db	0
   519   007FE1                     STR_36:
   520   007FE1  53                 	db	83	;'S'
   521   007FE2  61                 	db	97	;'a'
   522   007FE3  62                 	db	98	;'b'
   523   007FE4  00                 	db	0
   524   007FE5                     STR_32:
   525   007FE5  54                 	db	84	;'T'
   526   007FE6  65                 	db	101	;'e'
   527   007FE7  63                 	db	99	;'c'
   528   007FE8  00                 	db	0
   529   007FE9                     STR_31:
   530   007FE9  53                 	db	83	;'S'
   531   007FEA  65                 	db	101	;'e'
   532   007FEB  67                 	db	103	;'g'
   533   007FEC  00                 	db	0
   534   007FED                     STR_34:
   535   007FED  51                 	db	81	;'Q'
   536   007FEE  75                 	db	117	;'u'
   537   007FEF  69                 	db	105	;'i'
   538   007FF0  00                 	db	0
   539   007FF1                     STR_30:
   540   007FF1  44                 	db	68	;'D'
   541   007FF2  6F                 	db	111	;'o'
   542   007FF3  6D                 	db	109	;'m'
   543   007FF4  00                 	db	0
   544   007FF5                     STR_35:
   545   007FF5  53                 	db	83	;'S'
   546   007FF6  65                 	db	101	;'e'
   547   007FF7  78                 	db	120	;'x'
   548   007FF8  00                 	db	0
   549   007FF9                     STR_20:
   550   007FF9  41                 	db	65	;'A'
   551   007FFA  4D                 	db	77	;'M'
   552   007FFB  00                 	db	0
   553   007FFC                     STR_19:
   554   007FFC  50                 	db	80	;'P'
   555   007FFD  4D                 	db	77	;'M'
   556   007FFE  00                 	db	0
   557   007FFF  00                 	db	0	; dummy byte at the end
   558   000000                     
   559                           ; #config settings
   560                           
   561                           	psect	cinit
   562   006E5C                     __pcinit:
   563                           	callstack 0
   564   006E5C                     start_initialization:
   565                           	callstack 0
   566   006E5C                     __initialization:
   567                           	callstack 0
   568                           
   569                           ; Initialize objects allocated to BANK0 (7 bytes)
   570                           ; load TBLPTR registers with __pidataBANK0
   571   006E5C  0E85               	movlw	low __pidataBANK0
   572   006E5E  6EF6               	movwf	tblptrl,c
   573   006E60  0E6A               	movlw	high __pidataBANK0
   574   006E62  6EF7               	movwf	tblptrh,c
   575   006E64  0E00               	movlw	low (__pidataBANK0 shr (0+16))
   576   006E66  6EF8               	movwf	tblptru,c
   577   006E68  EE00  F0DC         	lfsr	0,__pdataBANK0
   578   006E6C  EE10 F007          	lfsr	1,7
   579   006E70                     copy_data0:
   580   006E70  0009               	tblrd		*+
   581   006E72  CFF5 FFEE          	movff	tablat,postinc0
   582   006E76  50E5               	movf	postdec1,w,c
   583   006E78  50E1               	movf	fsr1l,w,c
   584   006E7A  E1FA               	bnz	copy_data0
   585                           
   586                           ; Initialize objects allocated to COMRAM (2 bytes)
   587                           ; load TBLPTR registers with __pidataCOMRAM
   588   006E7C  0E83               	movlw	low __pidataCOMRAM
   589   006E7E  6EF6               	movwf	tblptrl,c
   590   006E80  0E6A               	movlw	high __pidataCOMRAM
   591   006E82  6EF7               	movwf	tblptrh,c
   592   006E84  0E00               	movlw	low (__pidataCOMRAM shr (0+16))
   593   006E86  6EF8               	movwf	tblptru,c
   594   006E88  0009               	tblrd		*+	;fetch initializer
   595   006E8A  CFF5 F05E          	movff	tablat,__pdataCOMRAM
   596   006E8E  0009               	tblrd		*+	;fetch initializer
   597   006E90  CFF5 F05F          	movff	tablat,__pdataCOMRAM+1
   598                           
   599                           ; Clear objects allocated to BANK0 (124 bytes)
   600   006E94  EE00  F060         	lfsr	0,__pbssBANK0
   601   006E98  0E7C               	movlw	124
   602   006E9A                     clear_0:
   603   006E9A  6AEE               	clrf	postinc0,c
   604   006E9C  06E8               	decf	wreg,f,c
   605   006E9E  E1FD               	bnz	clear_0
   606                           
   607                           ; Clear objects allocated to COMRAM (2 bytes)
   608   006EA0  6A5D               	clrf	(__pbssCOMRAM+1)& (0+255),c
   609   006EA2  6A5C               	clrf	__pbssCOMRAM& (0+255),c
   610   006EA4                     end_of_initialization:
   611                           	callstack 0
   612   006EA4                     __end_of__initialization:
   613                           	callstack 0
   614   006EA4  0E00               	movlw	low (__Lmediumconst shr (0+16))
   615   006EA6  6EF8               	movwf	tblptru,c
   616   006EA8  0100               	movlb	0
   617   006EAA  EFF7  F038         	goto	_main	;jump to C main() function
   618                           
   619                           	psect	bssCOMRAM
   620   00005C                     __pbssCOMRAM:
   621                           	callstack 0
   622   00005C                     _hour:
   623                           	callstack 0
   624   00005C                     	ds	2
   625                           
   626                           	psect	dataCOMRAM
   627   00005E                     __pdataCOMRAM:
   628                           	callstack 0
   629   00005E                     _AM_PM:
   630                           	callstack 0
   631   00005E                     	ds	1
   632   00005F                     _Clock_type:
   633                           	callstack 0
   634   00005F                     	ds	1
   635                           
   636                           	psect	bssBANK0
   637   000060                     __pbssBANK0:
   638                           	callstack 0
   639   000060                     _width:
   640                           	callstack 0
   641   000060                     	ds	2
   642   000062                     _prec:
   643                           	callstack 0
   644   000062                     	ds	2
   645   000064                     FSM_UpdateDisplay@display_counter:
   646                           	callstack 0
   647   000064                     	ds	2
   648   000066                     _Year:
   649                           	callstack 0
   650   000066                     	ds	2
   651   000068                     _Month:
   652                           	callstack 0
   653   000068                     	ds	2
   654   00006A                     _Date:
   655                           	callstack 0
   656   00006A                     	ds	2
   657   00006C                     _Day:
   658                           	callstack 0
   659   00006C                     	ds	2
   660   00006E                     _min:
   661                           	callstack 0
   662   00006E                     	ds	2
   663   000070                     _sec:
   664                           	callstack 0
   665   000070                     	ds	2
   666   000072                     _flags:
   667                           	callstack 0
   668   000072                     	ds	1
   669   000073                     _dbuf:
   670                           	callstack 0
   671   000073                     	ds	32
   672   000093                     _system_fsm:
   673                           	callstack 0
   674   000093                     	ds	13
   675   0000A0                     _year:
   676                           	callstack 0
   677   0000A0                     	ds	10
   678   0000AA                     _month:
   679                           	callstack 0
   680   0000AA                     	ds	10
   681   0000B4                     _date:
   682                           	callstack 0
   683   0000B4                     	ds	10
   684   0000BE                     _hours:
   685                           	callstack 0
   686   0000BE                     	ds	10
   687   0000C8                     _mins:
   688                           	callstack 0
   689   0000C8                     	ds	10
   690   0000D2                     _secs:
   691                           	callstack 0
   692   0000D2                     	ds	10
   693                           
   694                           	psect	dataBANK0
   695   0000DC                     __pdataBANK0:
   696                           	callstack 0
   697   0000DC                     _days:
   698                           	callstack 0
   699   0000DC                     	ds	7
   700                           
   701                           	psect	cstackCOMRAM
   702   000001                     __pcstackCOMRAM:
   703                           	callstack 0
   704   000001                     I2C_Write@v_i2cData_u8:
   705                           	callstack 0
   706   000001                     I2C_Read@v_ackOption_u8:
   707                           	callstack 0
   708   000001                     FSM_Init@fsm:
   709                           	callstack 0
   710   000001                     FSM_CheckTransitions@fsm:
   711                           	callstack 0
   712   000001                     FSM_ExecuteState@fsm:
   713                           	callstack 0
   714   000001                     MSdelay@val:
   715                           	callstack 0
   716   000001                     fputc@c:
   717                           	callstack 0
   718                           
   719                           ; 2 bytes @ 0x0
   720   000001                     	ds	1
   721   000002                     I2C_Read@v_i2cData_u8:
   722                           	callstack 0
   723                           
   724                           ; 1 bytes @ 0x1
   725   000002                     	ds	1
   726   000003                     ??_RTC_Read_Clock:
   727   000003                     ??_FSM_CheckTransitions:
   728   000003                     ??_FSM_ExecuteState:
   729   000003                     ??_RTC_Read_Calendar:
   730   000003                     MSdelay@i:
   731                           	callstack 0
   732   000003                     fputc@fp:
   733                           	callstack 0
   734                           
   735                           ; 2 bytes @ 0x2
   736   000003                     	ds	1
   737   000004                     RTC_Read_Clock@read_clock_address:
   738                           	callstack 0
   739   000004                     RTC_Read_Calendar@read_calendar_address:
   740                           	callstack 0
   741                           
   742                           ; 1 bytes @ 0x3
   743   000004                     	ds	1
   744   000005                     ??_fputc:
   745   000005                     FSM_CheckTransitions@liga_pressed:
   746                           	callstack 0
   747   000005                     MSdelay@j:
   748                           	callstack 0
   749                           
   750                           ; 2 bytes @ 0x4
   751   000005                     	ds	1
   752   000006                     _FSM_CheckTransitions$289:
   753                           	callstack 0
   754                           
   755                           ; 1 bytes @ 0x5
   756   000006                     	ds	1
   757   000007                     ??_LCD_Command:
   758   000007                     ??_LCD_Char:
   759   000007                     _FSM_CheckTransitions$291:
   760                           	callstack 0
   761   000007                     Beep@val:
   762                           	callstack 0
   763                           
   764                           ; 2 bytes @ 0x6
   765   000007                     	ds	1
   766   000008                     _FSM_CheckTransitions$293:
   767                           	callstack 0
   768   000008                     LCD_Command@cmd:
   769                           	callstack 0
   770   000008                     LCD_Char@dat:
   771                           	callstack 0
   772                           
   773                           ; 1 bytes @ 0x7
   774   000008                     	ds	1
   775   000009                     FSM_CheckTransitions@desliga_pressed:
   776                           	callstack 0
   777   000009                     Beep@i:
   778                           	callstack 0
   779   000009                     LCD_String@msg:
   780                           	callstack 0
   781                           
   782                           ; 2 bytes @ 0x8
   783   000009                     	ds	1
   784   00000A                     FSM_CheckTransitions@current_interlock:
   785                           	callstack 0
   786   00000A                     fputs@s:
   787                           	callstack 0
   788                           
   789                           ; 2 bytes @ 0x9
   790   00000A                     	ds	1
   791   00000B                     LCD_String_xy@pos:
   792                           	callstack 0
   793                           
   794                           ; 1 bytes @ 0xA
   795   00000B                     	ds	1
   796   00000C                     LCD_String_xy@msg:
   797                           	callstack 0
   798   00000C                     fputs@fp:
   799                           	callstack 0
   800                           
   801                           ; 2 bytes @ 0xB
   802   00000C                     	ds	2
   803   00000E                     LCD_String_xy@row:
   804                           	callstack 0
   805   00000E                     fputs@c:
   806                           	callstack 0
   807                           
   808                           ; 1 bytes @ 0xD
   809   00000E                     	ds	1
   810   00000F                     LCD_String_xy@location:
   811                           	callstack 0
   812   00000F                     fputs@i:
   813                           	callstack 0
   814                           
   815                           ; 2 bytes @ 0xE
   816   00000F                     	ds	1
   817   000010                     FSM_UpdateDisplay@fsm:
   818                           	callstack 0
   819                           
   820                           ; 2 bytes @ 0xF
   821   000010                     	ds	1
   822   000011                     pad@fp:
   823                           	callstack 0
   824                           
   825                           ; 2 bytes @ 0x10
   826   000011                     	ds	1
   827   000012                     ??_FSM_UpdateDisplay:
   828                           
   829                           ; 1 bytes @ 0x11
   830   000012                     	ds	1
   831   000013                     pad@buf:
   832                           	callstack 0
   833                           
   834                           ; 2 bytes @ 0x12
   835   000013                     	ds	1
   836   000014                     FSM_Update@fsm:
   837                           	callstack 0
   838                           
   839                           ; 2 bytes @ 0x13
   840   000014                     	ds	1
   841   000015                     pad@p:
   842                           	callstack 0
   843                           
   844                           ; 2 bytes @ 0x14
   845   000015                     	ds	1
   846   000016                     
   847                           ; 1 bytes @ 0x15
   848   000016                     	ds	1
   849   000017                     ??_pad:
   850                           
   851                           ; 1 bytes @ 0x16
   852   000017                     	ds	1
   853   000018                     pad@i:
   854                           	callstack 0
   855                           
   856                           ; 2 bytes @ 0x17
   857   000018                     	ds	2
   858   00001A                     pad@w:
   859                           	callstack 0
   860                           
   861                           ; 2 bytes @ 0x19
   862   00001A                     	ds	2
   863   00001C                     xtoa@fp:
   864                           	callstack 0
   865                           
   866                           ; 2 bytes @ 0x1B
   867   00001C                     	ds	2
   868   00001E                     xtoa@d:
   869                           	callstack 0
   870                           
   871                           ; 2 bytes @ 0x1D
   872   00001E                     	ds	2
   873   000020                     ??_xtoa:
   874                           
   875                           ; 1 bytes @ 0x1F
   876   000020                     	ds	3
   877   000023                     xtoa@w:
   878                           	callstack 0
   879                           
   880                           ; 2 bytes @ 0x22
   881   000023                     	ds	2
   882   000025                     _xtoa$1021:
   883                           	callstack 0
   884                           
   885                           ; 2 bytes @ 0x24
   886   000025                     	ds	2
   887   000027                     xtoa@p:
   888                           	callstack 0
   889                           
   890                           ; 2 bytes @ 0x26
   891   000027                     	ds	2
   892   000029                     xtoa@i:
   893                           	callstack 0
   894                           
   895                           ; 2 bytes @ 0x28
   896   000029                     	ds	2
   897   00002B                     xtoa@c:
   898                           	callstack 0
   899                           
   900                           ; 1 bytes @ 0x2A
   901   00002B                     	ds	1
   902   00002C                     vfpfcnvrt@fp:
   903                           	callstack 0
   904                           
   905                           ; 2 bytes @ 0x2B
   906   00002C                     	ds	2
   907   00002E                     vfpfcnvrt@fmt:
   908                           	callstack 0
   909                           
   910                           ; 2 bytes @ 0x2D
   911   00002E                     	ds	2
   912   000030                     vfpfcnvrt@ap:
   913                           	callstack 0
   914                           
   915                           ; 2 bytes @ 0x2F
   916   000030                     	ds	2
   917   000032                     ??_vfpfcnvrt:
   918                           
   919                           ; 1 bytes @ 0x31
   920   000032                     	ds	2
   921   000034                     vfpfcnvrt@convarg:
   922                           	callstack 0
   923                           
   924                           ; 4 bytes @ 0x33
   925   000034                     	ds	4
   926   000038                     vfpfcnvrt@cp:
   927                           	callstack 0
   928                           
   929                           ; 2 bytes @ 0x37
   930   000038                     	ds	2
   931   00003A                     ?_vfprintf:
   932                           	callstack 0
   933   00003A                     vfprintf@fp:
   934                           	callstack 0
   935                           
   936                           ; 2 bytes @ 0x39
   937   00003A                     	ds	2
   938   00003C                     vfprintf@fmt:
   939                           	callstack 0
   940                           
   941                           ; 2 bytes @ 0x3B
   942   00003C                     	ds	2
   943   00003E                     vfprintf@ap:
   944                           	callstack 0
   945                           
   946                           ; 2 bytes @ 0x3D
   947   00003E                     	ds	2
   948   000040                     vfprintf@cfmt:
   949                           	callstack 0
   950                           
   951                           ; 2 bytes @ 0x3F
   952   000040                     	ds	2
   953   000042                     ?_sprintf:
   954                           	callstack 0
   955   000042                     sprintf@s:
   956                           	callstack 0
   957                           
   958                           ; 2 bytes @ 0x41
   959   000042                     	ds	2
   960   000044                     sprintf@fmt:
   961                           	callstack 0
   962                           
   963                           ; 2 bytes @ 0x43
   964   000044                     	ds	4
   965   000048                     sprintf@ap:
   966                           	callstack 0
   967                           
   968                           ; 2 bytes @ 0x47
   969   000048                     	ds	2
   970   00004A                     sprintf@f:
   971                           	callstack 0
   972                           
   973                           ; 12 bytes @ 0x49
   974   00004A                     	ds	12
   975   000056                     ??_atualiza_data:
   976                           
   977                           ; 1 bytes @ 0x55
   978   000056                     	ds	2
   979   000058                     Message@msg:
   980                           	callstack 0
   981                           
   982                           ; 2 bytes @ 0x57
   983   000058                     	ds	2
   984   00005A                     ??_Message:
   985                           
   986                           ; 1 bytes @ 0x59
   987   00005A                     	ds	2
   988   00005C                     
   989                           ; 1 bytes @ 0x5B
   990 ;;
   991 ;;Main: autosize = 0, tempsize = 0, incstack = 0, save=0
   992 ;;
   993 ;; *************** function _main *****************
   994 ;; Defined at:
   995 ;;		line 96 in file "main_piee2.c"
   996 ;; Parameters:    Size  Location     Type
   997 ;;		None
   998 ;; Auto vars:     Size  Location     Type
   999 ;;		None
  1000 ;; Return value:  Size  Location     Type
  1001 ;;                  2   96[None  ] int 
  1002 ;; Registers used:
  1003 ;;		wreg, fsr1l, fsr1h, fsr2l, fsr2h, status,2, status,0, tblptrl, tblptrh, tblptru, cstack
  1004 ;; Tracked objects:
  1005 ;;		On entry : 0/0
  1006 ;;		On exit  : 0/0
  1007 ;;		Unchanged: 0/0
  1008 ;; Data sizes:     COMRAM   BANK0   BANK1   BANK2   BANK3   BANK4   BANK5   BANK6   BANK7
  1009 ;;      Params:         0       0       0       0       0       0       0       0       0
  1010 ;;      Locals:         0       0       0       0       0       0       0       0       0
  1011 ;;      Temps:          0       0       0       0       0       0       0       0       0
  1012 ;;      Totals:         0       0       0       0       0       0       0       0       0
  1013 ;;Total ram usage:        0 bytes
  1014 ;; Hardware stack levels required when called: 10
  1015 ;; This function calls:
  1016 ;;		_Beep
  1017 ;;		_FSM_Init
  1018 ;;		_FSM_Update
  1019 ;;		_I2C_Init
  1020 ;;		_I2C_Stop
  1021 ;;		_LCD_Init
  1022 ;;		_MSdelay
  1023 ;;		_Message
  1024 ;;		_RTC_Read_Clock
  1025 ;; This function is called by:
  1026 ;;		Startup code after reset
  1027 ;; This function uses a non-reentrant model
  1028 ;;
  1029                           
  1030                           	psect	text0
  1031   0071EE                     __ptext0:
  1032                           	callstack 0
  1033   0071EE                     _main:
  1034                           	callstack 21
  1035   0071EE                     
  1036                           ;main_piee2.c: 99:     OSCCON = 0x72;
  1037   0071EE  0E72               	movlw	114
  1038   0071F0  6ED3               	movwf	211,c	;volatile
  1039   0071F2                     
  1040                           ;main_piee2.c: 102:     LCD_Init();
  1041   0071F2  EC8C  F035         	call	_LCD_Init	;wreg free
  1042   0071F6                     
  1043                           ;main_piee2.c: 103:     I2C_Init();
  1044   0071F6  EC46  F035         	call	_I2C_Init	;wreg free
  1045   0071FA                     
  1046                           ;main_piee2.c: 104:     TRISD = 0x00;
  1047   0071FA  0E00               	movlw	0
  1048   0071FC  6E95               	movwf	149,c	;volatile
  1049   0071FE                     
  1050                           ;main_piee2.c: 105:     TRISC = 0x00;
  1051   0071FE  0E00               	movlw	0
  1052   007200  6E94               	movwf	148,c	;volatile
  1053   007202                     
  1054                           ;main_piee2.c: 106:     PORTC = 0x00;
  1055   007202  0E00               	movlw	0
  1056   007204  6E82               	movwf	130,c	;volatile
  1057   007206                     
  1058                           ;main_piee2.c: 112:     FSM_Init(&system_fsm);
  1059   007206  0E93               	movlw	low _system_fsm
  1060   007208  6E01               	movwf	FSM_Init@fsm^0,c
  1061   00720A  0E00               	movlw	high _system_fsm
  1062   00720C  6E02               	movwf	(FSM_Init@fsm+1)^0,c
  1063   00720E  EC4A  F038         	call	_FSM_Init	;wreg free
  1064   007212                     
  1065                           ;main_piee2.c: 115:     Beep(2);
  1066   007212  0E00               	movlw	0
  1067   007214  6E08               	movwf	(Beep@val+1)^0,c
  1068   007216  0E02               	movlw	2
  1069   007218  6E07               	movwf	Beep@val^0,c
  1070   00721A  ECDF  F035         	call	_Beep	;wreg free
  1071   00721E                     
  1072                           ;main_piee2.c: 116:     Message(1);
  1073   00721E  0E00               	movlw	0
  1074   007220  6E59               	movwf	(Message@msg+1)^0,c
  1075   007222  0E01               	movlw	1
  1076   007224  6E58               	movwf	Message@msg^0,c
  1077   007226  ECBF  F039         	call	_Message	;wreg free
  1078   00722A                     
  1079                           ;main_piee2.c: 117:     MSdelay(3000);
  1080   00722A  0E0B               	movlw	11
  1081   00722C  6E02               	movwf	(MSdelay@val+1)^0,c
  1082   00722E  0EB8               	movlw	184
  1083   007230  6E01               	movwf	MSdelay@val^0,c
  1084   007232  EC47  F036         	call	_MSdelay	;wreg free
  1085   007236                     
  1086                           ;main_piee2.c: 118:     Message(2);
  1087   007236  0E00               	movlw	0
  1088   007238  6E59               	movwf	(Message@msg+1)^0,c
  1089   00723A  0E02               	movlw	2
  1090   00723C  6E58               	movwf	Message@msg^0,c
  1091   00723E  ECBF  F039         	call	_Message	;wreg free
  1092   007242                     
  1093                           ;main_piee2.c: 119:     MSdelay(3000);
  1094   007242  0E0B               	movlw	11
  1095   007244  6E02               	movwf	(MSdelay@val+1)^0,c
  1096   007246  0EB8               	movlw	184
  1097   007248  6E01               	movwf	MSdelay@val^0,c
  1098   00724A  EC47  F036         	call	_MSdelay	;wreg free
  1099   00724E                     
  1100                           ;main_piee2.c: 120:     Message(3);
  1101   00724E  0E00               	movlw	0
  1102   007250  6E59               	movwf	(Message@msg+1)^0,c
  1103   007252  0E03               	movlw	3
  1104   007254  6E58               	movwf	Message@msg^0,c
  1105   007256  ECBF  F039         	call	_Message	;wreg free
  1106   00725A                     
  1107                           ;main_piee2.c: 121:     MSdelay(3000);
  1108   00725A  0E0B               	movlw	11
  1109   00725C  6E02               	movwf	(MSdelay@val+1)^0,c
  1110   00725E  0EB8               	movlw	184
  1111   007260  6E01               	movwf	MSdelay@val^0,c
  1112   007262  EC47  F036         	call	_MSdelay	;wreg free
  1113   007266                     
  1114                           ;main_piee2.c: 122:     Message(4);
  1115   007266  0E00               	movlw	0
  1116   007268  6E59               	movwf	(Message@msg+1)^0,c
  1117   00726A  0E04               	movlw	4
  1118   00726C  6E58               	movwf	Message@msg^0,c
  1119   00726E  ECBF  F039         	call	_Message	;wreg free
  1120   007272                     
  1121                           ;main_piee2.c: 123:     Beep(1);
  1122   007272  0E00               	movlw	0
  1123   007274  6E08               	movwf	(Beep@val+1)^0,c
  1124   007276  0E01               	movlw	1
  1125   007278  6E07               	movwf	Beep@val^0,c
  1126   00727A  ECDF  F035         	call	_Beep	;wreg free
  1127   00727E                     
  1128                           ;main_piee2.c: 124:     MSdelay(3000);
  1129   00727E  0E0B               	movlw	11
  1130   007280  6E02               	movwf	(MSdelay@val+1)^0,c
  1131   007282  0EB8               	movlw	184
  1132   007284  6E01               	movwf	MSdelay@val^0,c
  1133   007286  EC47  F036         	call	_MSdelay	;wreg free
  1134   00728A                     l2386:
  1135                           
  1136                           ;main_piee2.c: 128:         RTC_Read_Clock(0);
  1137   00728A  0E00               	movlw	0
  1138   00728C  ECC1  F035         	call	_RTC_Read_Clock
  1139   007290                     
  1140                           ;main_piee2.c: 129:         I2C_Stop();
  1141   007290  EC58  F035         	call	_I2C_Stop	;wreg free
  1142   007294                     
  1143                           ;main_piee2.c: 132:         FSM_Update(&system_fsm);
  1144   007294  0E93               	movlw	low _system_fsm
  1145   007296  6E14               	movwf	FSM_Update@fsm^0,c
  1146   007298  0E00               	movlw	high _system_fsm
  1147   00729A  6E15               	movwf	(FSM_Update@fsm+1)^0,c
  1148   00729C  ECC3  F037         	call	_FSM_Update	;wreg free
  1149   0072A0                     
  1150                           ;main_piee2.c: 135:         MSdelay(10);
  1151   0072A0  0E00               	movlw	0
  1152   0072A2  6E02               	movwf	(MSdelay@val+1)^0,c
  1153   0072A4  0E0A               	movlw	10
  1154   0072A6  6E01               	movwf	MSdelay@val^0,c
  1155   0072A8  EC47  F036         	call	_MSdelay	;wreg free
  1156   0072AC  EF45  F039         	goto	l2386
  1157   0072B0  EF00  F000         	goto	start
  1158   0072B4                     __end_of_main:
  1159                           	callstack 0
  1160                           
  1161 ;; *************** function _RTC_Read_Clock *****************
  1162 ;; Defined at:
  1163 ;;		line 430 in file "main_piee2.c"
  1164 ;; Parameters:    Size  Location     Type
  1165 ;;  read_clock_a    1    wreg     unsigned char 
  1166 ;; Auto vars:     Size  Location     Type
  1167 ;;  read_clock_a    1    3[COMRAM] unsigned char 
  1168 ;; Return value:  Size  Location     Type
  1169 ;;                  1    wreg      void 
  1170 ;; Registers used:
  1171 ;;		wreg, status,2, status,0, cstack
  1172 ;; Tracked objects:
  1173 ;;		On entry : 0/0
  1174 ;;		On exit  : 0/0
  1175 ;;		Unchanged: 0/0
  1176 ;; Data sizes:     COMRAM   BANK0   BANK1   BANK2   BANK3   BANK4   BANK5   BANK6   BANK7
  1177 ;;      Params:         0       0       0       0       0       0       0       0       0
  1178 ;;      Locals:         1       0       0       0       0       0       0       0       0
  1179 ;;      Temps:          1       0       0       0       0       0       0       0       0
  1180 ;;      Totals:         2       0       0       0       0       0       0       0       0
  1181 ;;Total ram usage:        2 bytes
  1182 ;; Hardware stack levels used: 1
  1183 ;; Hardware stack levels required when called: 2
  1184 ;; This function calls:
  1185 ;;		_I2C_Read
  1186 ;;		_I2C_Start
  1187 ;;		_I2C_Write
  1188 ;; This function is called by:
  1189 ;;		_main
  1190 ;; This function uses a non-reentrant model
  1191 ;;
  1192                           
  1193                           	psect	text1
  1194   006B82                     __ptext1:
  1195                           	callstack 0
  1196   006B82                     _RTC_Read_Clock:
  1197                           	callstack 28
  1198                           
  1199                           ;incstack = 0
  1200                           ;RTC_Read_Clock@read_clock_address stored from wreg
  1201   006B82  6E04               	movwf	RTC_Read_Clock@read_clock_address^0,c
  1202   006B84                     
  1203                           ;main_piee2.c: 430: void RTC_Read_Clock(char read_clock_address);main_piee2.c: 431: {;ma
      +                          in_piee2.c: 433:     I2C_Start();
  1204   006B84  EC4F  F035         	call	_I2C_Start	;wreg free
  1205   006B88                     
  1206                           ;main_piee2.c: 434:     I2C_Write(read_clock_address);
  1207   006B88  5004               	movf	RTC_Read_Clock@read_clock_address^0,w,c
  1208   006B8A  EC7F  F035         	call	_I2C_Write
  1209   006B8E                     
  1210                           ;main_piee2.c: 436:     sec = I2C_Read(0);
  1211   006B8E  0E00               	movlw	0
  1212   006B90  ECA4  F035         	call	_I2C_Read
  1213   006B94  6E03               	movwf	??_RTC_Read_Clock^0,c
  1214   006B96  5003               	movf	??_RTC_Read_Clock^0,w,c
  1215   006B98  0100               	movlb	0	; () banked
  1216   006B9A  6F70               	movwf	_sec& (0+255),b
  1217   006B9C  6B71               	clrf	(_sec+1)& (0+255),b
  1218   006B9E                     
  1219                           ; BSR set to: 0
  1220                           ;main_piee2.c: 437:     min = I2C_Read(0);
  1221   006B9E  0E00               	movlw	0
  1222   006BA0  ECA4  F035         	call	_I2C_Read
  1223   006BA4  6E03               	movwf	??_RTC_Read_Clock^0,c
  1224   006BA6  5003               	movf	??_RTC_Read_Clock^0,w,c
  1225   006BA8  0100               	movlb	0	; () banked
  1226   006BAA  6F6E               	movwf	_min& (0+255),b
  1227   006BAC  6B6F               	clrf	(_min+1)& (0+255),b
  1228   006BAE                     
  1229                           ; BSR set to: 0
  1230                           ;main_piee2.c: 438:     hour= I2C_Read(1);
  1231   006BAE  0E01               	movlw	1
  1232   006BB0  ECA4  F035         	call	_I2C_Read
  1233   006BB4  6E03               	movwf	??_RTC_Read_Clock^0,c
  1234   006BB6  5003               	movf	??_RTC_Read_Clock^0,w,c
  1235   006BB8  6E5C               	movwf	_hour^0,c
  1236   006BBA  6A5D               	clrf	(_hour+1)^0,c
  1237   006BBC  0012               	return		;funcret
  1238   006BBE                     __end_of_RTC_Read_Clock:
  1239                           	callstack 0
  1240                           
  1241 ;; *************** function _Message *****************
  1242 ;; Defined at:
  1243 ;;		line 382 in file "main_piee2.c"
  1244 ;; Parameters:    Size  Location     Type
  1245 ;;  msg             2   87[COMRAM] unsigned int 
  1246 ;; Auto vars:     Size  Location     Type
  1247 ;;		None
  1248 ;; Return value:  Size  Location     Type
  1249 ;;                  1    wreg      void 
  1250 ;; Registers used:
  1251 ;;		wreg, fsr1l, fsr1h, fsr2l, fsr2h, status,2, status,0, tblptrl, tblptrh, tblptru, cstack
  1252 ;; Tracked objects:
  1253 ;;		On entry : 0/0
  1254 ;;		On exit  : 0/0
  1255 ;;		Unchanged: 0/0
  1256 ;; Data sizes:     COMRAM   BANK0   BANK1   BANK2   BANK3   BANK4   BANK5   BANK6   BANK7
  1257 ;;      Params:         2       0       0       0       0       0       0       0       0
  1258 ;;      Locals:         0       0       0       0       0       0       0       0       0
  1259 ;;      Temps:          2       0       0       0       0       0       0       0       0
  1260 ;;      Totals:         4       0       0       0       0       0       0       0       0
  1261 ;;Total ram usage:        4 bytes
  1262 ;; Hardware stack levels used: 1
  1263 ;; Hardware stack levels required when called: 9
  1264 ;; This function calls:
  1265 ;;		_LCD_Clear
  1266 ;;		_LCD_String_xy
  1267 ;;		_atualiza_data
  1268 ;; This function is called by:
  1269 ;;		_main
  1270 ;; This function uses a non-reentrant model
  1271 ;;
  1272                           
  1273                           	psect	text2
  1274   00737E                     __ptext2:
  1275                           	callstack 0
  1276   00737E                     _Message:
  1277                           	callstack 21
  1278   00737E                     
  1279                           ;main_piee2.c: 383:     LCD_Clear();
  1280   00737E  EC61  F035         	call	_LCD_Clear	;wreg free
  1281                           
  1282                           ;main_piee2.c: 384:     switch(msg){
  1283   007382  EF29  F03A         	goto	l2320
  1284   007386                     l2306:
  1285                           
  1286                           ;main_piee2.c: 386:             LCD_String_xy(1,7,"UNIUBE");
  1287   007386  0E07               	movlw	7
  1288   007388  6E0B               	movwf	LCD_String_xy@pos^0,c
  1289   00738A  0ED2               	movlw	low STR_9
  1290   00738C  6E0C               	movwf	LCD_String_xy@msg^0,c
  1291   00738E  0E7F               	movlw	high STR_9
  1292   007390  6E0D               	movwf	(LCD_String_xy@msg+1)^0,c
  1293   007392  0E01               	movlw	1
  1294   007394  EC03  F038         	call	_LCD_String_xy
  1295                           
  1296                           ;main_piee2.c: 387:             LCD_String_xy(2,0,"Engenharia Eletrica");
  1297   007398  0E00               	movlw	0
  1298   00739A  6E0B               	movwf	LCD_String_xy@pos^0,c
  1299   00739C  0E2D               	movlw	low STR_10
  1300   00739E  6E0C               	movwf	LCD_String_xy@msg^0,c
  1301   0073A0  0E7F               	movlw	high STR_10
  1302   0073A2  6E0D               	movwf	(LCD_String_xy@msg+1)^0,c
  1303   0073A4  0E02               	movlw	2
  1304   0073A6  EC03  F038         	call	_LCD_String_xy
  1305                           
  1306                           ;main_piee2.c: 388:             LCD_String_xy(3,2,"Projeto Integrado");
  1307   0073AA  0E02               	movlw	2
  1308   0073AC  6E0B               	movwf	LCD_String_xy@pos^0,c
  1309   0073AE  0E65               	movlw	low STR_11
  1310   0073B0  6E0C               	movwf	LCD_String_xy@msg^0,c
  1311   0073B2  0E7F               	movlw	high STR_11
  1312   0073B4  6E0D               	movwf	(LCD_String_xy@msg+1)^0,c
  1313   0073B6  0E03               	movlw	3
  1314   0073B8  EC03  F038         	call	_LCD_String_xy
  1315                           
  1316                           ;main_piee2.c: 389:             LCD_String_xy(4,3,"Em Eletrica II");
  1317   0073BC  0E03               	movlw	3
  1318   0073BE  6E0B               	movwf	LCD_String_xy@pos^0,c
  1319   0073C0  0E97               	movlw	low STR_12
  1320   0073C2  6E0C               	movwf	LCD_String_xy@msg^0,c
  1321   0073C4  0E7F               	movlw	high STR_12
  1322   0073C6  6E0D               	movwf	(LCD_String_xy@msg+1)^0,c
  1323   0073C8  0E04               	movlw	4
  1324   0073CA  EC03  F038         	call	_LCD_String_xy
  1325                           
  1326                           ;main_piee2.c: 390:             break;
  1327   0073CE  EF47  F03A         	goto	l183
  1328   0073D2                     l2308:
  1329                           
  1330                           ;main_piee2.c: 392:             LCD_String_xy(1,2,"Welington Correia");
  1331   0073D2  0E02               	movlw	2
  1332   0073D4  6E0B               	movwf	LCD_String_xy@pos^0,c
  1333   0073D6  0E41               	movlw	low STR_13
  1334   0073D8  6E0C               	movwf	LCD_String_xy@msg^0,c
  1335   0073DA  0E7F               	movlw	high STR_13
  1336   0073DC  6E0D               	movwf	(LCD_String_xy@msg+1)^0,c
  1337   0073DE  0E01               	movlw	1
  1338   0073E0  EC03  F038         	call	_LCD_String_xy
  1339                           
  1340                           ;main_piee2.c: 393:             LCD_String_xy(2,4,"RA : 1063677");
  1341   0073E4  0E04               	movlw	4
  1342   0073E6  6E0B               	movwf	LCD_String_xy@pos^0,c
  1343   0073E8  0EA6               	movlw	low STR_14
  1344   0073EA  6E0C               	movwf	LCD_String_xy@msg^0,c
  1345   0073EC  0E7F               	movlw	high STR_14
  1346   0073EE  6E0D               	movwf	(LCD_String_xy@msg+1)^0,c
  1347   0073F0  0E02               	movlw	2
  1348   0073F2  EC03  F038         	call	_LCD_String_xy
  1349                           
  1350                           ;main_piee2.c: 394:             LCD_String_xy(3,1,"Seq.Eletr.Limpeza");
  1351   0073F6  0E01               	movlw	1
  1352   0073F8  6E0B               	movwf	LCD_String_xy@pos^0,c
  1353   0073FA  0E53               	movlw	low STR_15
  1354   0073FC  6E0C               	movwf	LCD_String_xy@msg^0,c
  1355   0073FE  0E7F               	movlw	high STR_15
  1356   007400  6E0D               	movwf	(LCD_String_xy@msg+1)^0,c
  1357   007402  0E03               	movlw	3
  1358   007404  EC03  F038         	call	_LCD_String_xy
  1359                           
  1360                           ;main_piee2.c: 395:             LCD_String_xy(4,3,"Filtro de Manga");
  1361   007408  0E03               	movlw	3
  1362   00740A  6E0B               	movwf	LCD_String_xy@pos^0,c
  1363   00740C  0E87               	movlw	low STR_16
  1364   00740E  6E0C               	movwf	LCD_String_xy@msg^0,c
  1365   007410  0E7F               	movlw	high STR_16
  1366   007412  6E0D               	movwf	(LCD_String_xy@msg+1)^0,c
  1367   007414  0E04               	movlw	4
  1368   007416  EC03  F038         	call	_LCD_String_xy
  1369                           
  1370                           ;main_piee2.c: 396:             break;
  1371   00741A  EF47  F03A         	goto	l183
  1372   00741E                     l2310:
  1373                           
  1374                           ;main_piee2.c: 398:             LCD_String_xy(4,2,"Seja Bem Vindo!");
  1375   00741E  0E02               	movlw	2
  1376   007420  6E0B               	movwf	LCD_String_xy@pos^0,c
  1377   007422  0E77               	movlw	low STR_17
  1378   007424  6E0C               	movwf	LCD_String_xy@msg^0,c
  1379   007426  0E7F               	movlw	high STR_17
  1380   007428  6E0D               	movwf	(LCD_String_xy@msg+1)^0,c
  1381   00742A  0E04               	movlw	4
  1382   00742C  EC03  F038         	call	_LCD_String_xy
  1383   007430                     
  1384                           ;main_piee2.c: 399:             atualiza_data();
  1385   007430  EC0D  F03C         	call	_atualiza_data	;wreg free
  1386                           
  1387                           ;main_piee2.c: 401:             break;
  1388   007434  EF47  F03A         	goto	l183
  1389   007438                     l2314:
  1390                           
  1391                           ;main_piee2.c: 407:               atualiza_data();
  1392   007438  EC0D  F03C         	call	_atualiza_data	;wreg free
  1393   00743C                     
  1394                           ;main_piee2.c: 408:               LCD_String_xy(4,2,"Filtro Manga");
  1395   00743C  0E02               	movlw	2
  1396   00743E  6E0B               	movwf	LCD_String_xy@pos^0,c
  1397   007440  0EB3               	movlw	low STR_18
  1398   007442  6E0C               	movwf	LCD_String_xy@msg^0,c
  1399   007444  0E7F               	movlw	high STR_18
  1400   007446  6E0D               	movwf	(LCD_String_xy@msg+1)^0,c
  1401   007448  0E04               	movlw	4
  1402   00744A  EC03  F038         	call	_LCD_String_xy
  1403                           
  1404                           ;main_piee2.c: 409:             break;
  1405   00744E  EF47  F03A         	goto	l183
  1406   007452                     l2320:
  1407   007452  C058  F05A         	movff	Message@msg,??_Message
  1408   007456  C059  F05B         	movff	Message@msg+1,??_Message+1
  1409                           
  1410                           ; Switch on 2 bytes has been partitioned into a top level switch of size 1, and 1 sub-sw
      +                          itches
  1411                           ; Switch size 1, requested type "simple"
  1412                           ; Number of cases is 1, Range of values is 0 to 0
  1413                           ; switch strategies available:
  1414                           ; Name         Instructions Cycles
  1415                           ; simple_byte            4     3 (average)
  1416                           ;	Chosen strategy is simple_byte
  1417   00745A  505B               	movf	(??_Message+1)^0,w,c
  1418   00745C  0A00               	xorlw	0	; case 0
  1419   00745E  B4D8               	btfsc	status,2,c
  1420   007460  EF34  F03A         	goto	l2514
  1421   007464  EF47  F03A         	goto	l183
  1422   007468                     l2514:
  1423                           
  1424                           ; Switch size 1, requested type "simple"
  1425                           ; Number of cases is 4, Range of values is 1 to 4
  1426                           ; switch strategies available:
  1427                           ; Name         Instructions Cycles
  1428                           ; simple_byte           13     7 (average)
  1429                           ;	Chosen strategy is simple_byte
  1430   007468  505A               	movf	??_Message^0,w,c
  1431   00746A  0A01               	xorlw	1	; case 1
  1432   00746C  B4D8               	btfsc	status,2,c
  1433   00746E  EFC3  F039         	goto	l2306
  1434   007472  0A03               	xorlw	3	; case 2
  1435   007474  B4D8               	btfsc	status,2,c
  1436   007476  EFE9  F039         	goto	l2308
  1437   00747A  0A01               	xorlw	1	; case 3
  1438   00747C  B4D8               	btfsc	status,2,c
  1439   00747E  EF0F  F03A         	goto	l2310
  1440   007482  0A07               	xorlw	7	; case 4
  1441   007484  B4D8               	btfsc	status,2,c
  1442   007486  EF1C  F03A         	goto	l2314
  1443   00748A  EF47  F03A         	goto	l183
  1444   00748E                     l183:
  1445   00748E  0012               	return		;funcret
  1446   007490                     __end_of_Message:
  1447                           	callstack 0
  1448                           
  1449 ;; *************** function _atualiza_data *****************
  1450 ;; Defined at:
  1451 ;;		line 455 in file "main_piee2.c"
  1452 ;; Parameters:    Size  Location     Type
  1453 ;;		None
  1454 ;; Auto vars:     Size  Location     Type
  1455 ;;		None
  1456 ;; Return value:  Size  Location     Type
  1457 ;;                  1    wreg      void 
  1458 ;; Registers used:
  1459 ;;		wreg, fsr1l, fsr1h, fsr2l, fsr2h, status,2, status,0, tblptrl, tblptrh, tblptru, cstack
  1460 ;; Tracked objects:
  1461 ;;		On entry : 0/0
  1462 ;;		On exit  : 0/0
  1463 ;;		Unchanged: 0/0
  1464 ;; Data sizes:     COMRAM   BANK0   BANK1   BANK2   BANK3   BANK4   BANK5   BANK6   BANK7
  1465 ;;      Params:         0       0       0       0       0       0       0       0       0
  1466 ;;      Locals:         0       0       0       0       0       0       0       0       0
  1467 ;;      Temps:          2       0       0       0       0       0       0       0       0
  1468 ;;      Totals:         2       0       0       0       0       0       0       0       0
  1469 ;;Total ram usage:        2 bytes
  1470 ;; Hardware stack levels used: 1
  1471 ;; Hardware stack levels required when called: 8
  1472 ;; This function calls:
  1473 ;;		_I2C_Stop
  1474 ;;		_LCD_String
  1475 ;;		_LCD_String_xy
  1476 ;;		_RTC_Read_Calendar
  1477 ;;		_sprintf
  1478 ;; This function is called by:
  1479 ;;		_Message
  1480 ;; This function uses a non-reentrant model
  1481 ;;
  1482                           
  1483                           	psect	text3
  1484   00781A                     __ptext3:
  1485                           	callstack 0
  1486   00781A                     _atualiza_data:
  1487                           	callstack 21
  1488   00781A                     
  1489                           ;main_piee2.c: 456:     if(hour & (1<<Clock_type)){
  1490   00781A  AC5C               	btfss	_hour^0,6,c
  1491   00781C  EF12  F03C         	goto	u1261
  1492   007820  EF14  F03C         	goto	u1260
  1493   007824                     u1261:
  1494   007824  EF74  F03C         	goto	l2206
  1495   007828                     u1260:
  1496   007828                     
  1497                           ;main_piee2.c: 458:          if(hour & (1<<AM_PM)){
  1498   007828  AA5C               	btfss	_hour^0,5,c
  1499   00782A  EF19  F03C         	goto	u1271
  1500   00782E  EF1B  F03C         	goto	u1270
  1501   007832                     u1271:
  1502   007832  EF26  F03C         	goto	l2190
  1503   007836                     u1270:
  1504   007836                     
  1505                           ;main_piee2.c: 459:              LCD_String_xy(1,17,"PM");
  1506   007836  0E11               	movlw	17
  1507   007838  6E0B               	movwf	LCD_String_xy@pos^0,c
  1508   00783A  0EFC               	movlw	low STR_19
  1509   00783C  6E0C               	movwf	LCD_String_xy@msg^0,c
  1510   00783E  0E7F               	movlw	high STR_19
  1511   007840  6E0D               	movwf	(LCD_String_xy@msg+1)^0,c
  1512   007842  0E01               	movlw	1
  1513   007844  EC03  F038         	call	_LCD_String_xy
  1514                           
  1515                           ;main_piee2.c: 460:          }
  1516   007848  EF2F  F03C         	goto	l2192
  1517   00784C                     l2190:
  1518                           
  1519                           ;main_piee2.c: 462:              LCD_String_xy(1,17,"AM");
  1520   00784C  0E11               	movlw	17
  1521   00784E  6E0B               	movwf	LCD_String_xy@pos^0,c
  1522   007850  0EF9               	movlw	low STR_20
  1523   007852  6E0C               	movwf	LCD_String_xy@msg^0,c
  1524   007854  0E7F               	movlw	high STR_20
  1525   007856  6E0D               	movwf	(LCD_String_xy@msg+1)^0,c
  1526   007858  0E01               	movlw	1
  1527   00785A  EC03  F038         	call	_LCD_String_xy
  1528   00785E                     l2192:
  1529                           
  1530                           ;main_piee2.c: 465:          hour = hour & (0x1f);
  1531   00785E  0E1F               	movlw	31
  1532   007860  145C               	andwf	_hour^0,w,c
  1533   007862  6E5C               	movwf	_hour^0,c
  1534   007864  6A5D               	clrf	(_hour+1)^0,c
  1535   007866                     
  1536                           ;main_piee2.c: 466:          sprintf(secs,"%x ",sec);
  1537   007866  0ED2               	movlw	low _secs
  1538   007868  6E42               	movwf	sprintf@s^0,c
  1539   00786A  0E00               	movlw	high _secs
  1540   00786C  6E43               	movwf	(sprintf@s+1)^0,c
  1541   00786E  0ED9               	movlw	low STR_21
  1542   007870  6E44               	movwf	sprintf@fmt^0,c
  1543   007872  0E7F               	movlw	high STR_21
  1544   007874  6E45               	movwf	(sprintf@fmt+1)^0,c
  1545   007876  C070  F046         	movff	_sec,?_sprintf+4
  1546   00787A  C071  F047         	movff	_sec+1,?_sprintf+5
  1547   00787E  ECB8  F036         	call	_sprintf	;wreg free
  1548   007882                     
  1549                           ;main_piee2.c: 467:          sprintf(mins,"%x:",min);
  1550   007882  0EC8               	movlw	low _mins
  1551   007884  6E42               	movwf	sprintf@s^0,c
  1552   007886  0E00               	movlw	high _mins
  1553   007888  6E43               	movwf	(sprintf@s+1)^0,c
  1554   00788A  0ECE               	movlw	low (STR_23+5)
  1555   00788C  6E44               	movwf	sprintf@fmt^0,c
  1556   00788E  0E7F               	movlw	high (STR_23+5)
  1557   007890  6E45               	movwf	(sprintf@fmt+1)^0,c
  1558   007892  C06E  F046         	movff	_min,?_sprintf+4
  1559   007896  C06F  F047         	movff	_min+1,?_sprintf+5
  1560   00789A  ECB8  F036         	call	_sprintf	;wreg free
  1561   00789E                     
  1562                           ;main_piee2.c: 468:          sprintf(hours,"Hora:%x:",hour);
  1563   00789E  0EBE               	movlw	low _hours
  1564   0078A0  6E42               	movwf	sprintf@s^0,c
  1565   0078A2  0E00               	movlw	high _hours
  1566   0078A4  6E43               	movwf	(sprintf@s+1)^0,c
  1567   0078A6  0EC9               	movlw	low STR_23
  1568   0078A8  6E44               	movwf	sprintf@fmt^0,c
  1569   0078AA  0E7F               	movlw	high STR_23
  1570   0078AC  6E45               	movwf	(sprintf@fmt+1)^0,c
  1571   0078AE  C05C  F046         	movff	_hour,?_sprintf+4
  1572   0078B2  C05D  F047         	movff	_hour+1,?_sprintf+5
  1573   0078B6  ECB8  F036         	call	_sprintf	;wreg free
  1574   0078BA                     
  1575                           ;main_piee2.c: 469:          LCD_String_xy(1,0,hours);
  1576   0078BA  0E00               	movlw	0
  1577   0078BC  6E0B               	movwf	LCD_String_xy@pos^0,c
  1578   0078BE  0EBE               	movlw	low _hours
  1579   0078C0  6E0C               	movwf	LCD_String_xy@msg^0,c
  1580   0078C2  0E00               	movlw	high _hours
  1581   0078C4  6E0D               	movwf	(LCD_String_xy@msg+1)^0,c
  1582   0078C6  0E01               	movlw	1
  1583   0078C8  EC03  F038         	call	_LCD_String_xy
  1584   0078CC                     l2202:
  1585                           
  1586                           ;main_piee2.c: 470:          LCD_String(mins);
  1587   0078CC  0EC8               	movlw	low _mins
  1588   0078CE  6E09               	movwf	LCD_String@msg^0,c
  1589   0078D0  0E00               	movlw	high _mins
  1590   0078D2  6E0A               	movwf	(LCD_String@msg+1)^0,c
  1591   0078D4  EC57  F037         	call	_LCD_String	;wreg free
  1592   0078D8                     
  1593                           ;main_piee2.c: 471:          LCD_String(secs);
  1594   0078D8  0ED2               	movlw	low _secs
  1595   0078DA  6E09               	movwf	LCD_String@msg^0,c
  1596   0078DC  0E00               	movlw	high _secs
  1597   0078DE  6E0A               	movwf	(LCD_String@msg+1)^0,c
  1598   0078E0  EC57  F037         	call	_LCD_String	;wreg free
  1599                           
  1600                           ;main_piee2.c: 472:   }
  1601   0078E4  EFAD  F03C         	goto	l2220
  1602   0078E8                     l2206:
  1603                           
  1604                           ;main_piee2.c: 475:      hour = hour & (0x3f);
  1605   0078E8  0E3F               	movlw	63
  1606   0078EA  145C               	andwf	_hour^0,w,c
  1607   0078EC  6E5C               	movwf	_hour^0,c
  1608   0078EE  6A5D               	clrf	(_hour+1)^0,c
  1609   0078F0                     
  1610                           ;main_piee2.c: 476:      sprintf(secs,"%x ",sec);
  1611   0078F0  0ED2               	movlw	low _secs
  1612   0078F2  6E42               	movwf	sprintf@s^0,c
  1613   0078F4  0E00               	movlw	high _secs
  1614   0078F6  6E43               	movwf	(sprintf@s+1)^0,c
  1615   0078F8  0ED9               	movlw	low STR_21
  1616   0078FA  6E44               	movwf	sprintf@fmt^0,c
  1617   0078FC  0E7F               	movlw	high STR_21
  1618   0078FE  6E45               	movwf	(sprintf@fmt+1)^0,c
  1619   007900  C070  F046         	movff	_sec,?_sprintf+4
  1620   007904  C071  F047         	movff	_sec+1,?_sprintf+5
  1621   007908  ECB8  F036         	call	_sprintf	;wreg free
  1622   00790C                     
  1623                           ;main_piee2.c: 477:      sprintf(mins,"%x:",min);
  1624   00790C  0EC8               	movlw	low _mins
  1625   00790E  6E42               	movwf	sprintf@s^0,c
  1626   007910  0E00               	movlw	high _mins
  1627   007912  6E43               	movwf	(sprintf@s+1)^0,c
  1628   007914  0ECE               	movlw	low (STR_23+5)
  1629   007916  6E44               	movwf	sprintf@fmt^0,c
  1630   007918  0E7F               	movlw	high (STR_23+5)
  1631   00791A  6E45               	movwf	(sprintf@fmt+1)^0,c
  1632   00791C  C06E  F046         	movff	_min,?_sprintf+4
  1633   007920  C06F  F047         	movff	_min+1,?_sprintf+5
  1634   007924  ECB8  F036         	call	_sprintf	;wreg free
  1635   007928                     
  1636                           ;main_piee2.c: 478:      sprintf(hours,"Hora:%x:",hour);
  1637   007928  0EBE               	movlw	low _hours
  1638   00792A  6E42               	movwf	sprintf@s^0,c
  1639   00792C  0E00               	movlw	high _hours
  1640   00792E  6E43               	movwf	(sprintf@s+1)^0,c
  1641   007930  0EC9               	movlw	low STR_23
  1642   007932  6E44               	movwf	sprintf@fmt^0,c
  1643   007934  0E7F               	movlw	high STR_23
  1644   007936  6E45               	movwf	(sprintf@fmt+1)^0,c
  1645   007938  C05C  F046         	movff	_hour,?_sprintf+4
  1646   00793C  C05D  F047         	movff	_hour+1,?_sprintf+5
  1647   007940  ECB8  F036         	call	_sprintf	;wreg free
  1648   007944                     
  1649                           ;main_piee2.c: 479:      LCD_String_xy(1,0,hours);
  1650   007944  0E00               	movlw	0
  1651   007946  6E0B               	movwf	LCD_String_xy@pos^0,c
  1652   007948  0EBE               	movlw	low _hours
  1653   00794A  6E0C               	movwf	LCD_String_xy@msg^0,c
  1654   00794C  0E00               	movlw	high _hours
  1655   00794E  6E0D               	movwf	(LCD_String_xy@msg+1)^0,c
  1656   007950  0E01               	movlw	1
  1657   007952  EC03  F038         	call	_LCD_String_xy
  1658   007956  EF66  F03C         	goto	l2202
  1659   00795A                     l2220:
  1660                           
  1661                           ;main_piee2.c: 484:      RTC_Read_Calendar(3);
  1662   00795A  0E03               	movlw	3
  1663   00795C  EC05  F037         	call	_RTC_Read_Calendar
  1664   007960                     
  1665                           ;main_piee2.c: 485:      I2C_Stop();
  1666   007960  EC58  F035         	call	_I2C_Stop	;wreg free
  1667   007964                     
  1668                           ;main_piee2.c: 486:      sprintf(date,"Data %x-",Date);
  1669   007964  0EB4               	movlw	low _date
  1670   007966  6E42               	movwf	sprintf@s^0,c
  1671   007968  0E00               	movlw	high _date
  1672   00796A  6E43               	movwf	(sprintf@s+1)^0,c
  1673   00796C  0EC0               	movlw	low STR_27
  1674   00796E  6E44               	movwf	sprintf@fmt^0,c
  1675   007970  0E7F               	movlw	high STR_27
  1676   007972  6E45               	movwf	(sprintf@fmt+1)^0,c
  1677   007974  C06A  F046         	movff	_Date,?_sprintf+4
  1678   007978  C06B  F047         	movff	_Date+1,?_sprintf+5
  1679   00797C  ECB8  F036         	call	_sprintf	;wreg free
  1680   007980                     
  1681                           ;main_piee2.c: 487:      sprintf(month,"%x-",Month);
  1682   007980  0EAA               	movlw	low _month
  1683   007982  6E42               	movwf	sprintf@s^0,c
  1684   007984  0E00               	movlw	high _month
  1685   007986  6E43               	movwf	(sprintf@s+1)^0,c
  1686   007988  0EC5               	movlw	low (STR_27+5)
  1687   00798A  6E44               	movwf	sprintf@fmt^0,c
  1688   00798C  0E7F               	movlw	high (STR_27+5)
  1689   00798E  6E45               	movwf	(sprintf@fmt+1)^0,c
  1690   007990  C068  F046         	movff	_Month,?_sprintf+4
  1691   007994  C069  F047         	movff	_Month+1,?_sprintf+5
  1692   007998  ECB8  F036         	call	_sprintf	;wreg free
  1693   00799C                     
  1694                           ;main_piee2.c: 488:      sprintf(year,"%x ",Year);
  1695   00799C  0EA0               	movlw	low _year
  1696   00799E  6E42               	movwf	sprintf@s^0,c
  1697   0079A0  0E00               	movlw	high _year
  1698   0079A2  6E43               	movwf	(sprintf@s+1)^0,c
  1699   0079A4  0ED9               	movlw	low STR_21
  1700   0079A6  6E44               	movwf	sprintf@fmt^0,c
  1701   0079A8  0E7F               	movlw	high STR_21
  1702   0079AA  6E45               	movwf	(sprintf@fmt+1)^0,c
  1703   0079AC  C066  F046         	movff	_Year,?_sprintf+4
  1704   0079B0  C067  F047         	movff	_Year+1,?_sprintf+5
  1705   0079B4  ECB8  F036         	call	_sprintf	;wreg free
  1706                           
  1707                           ;main_piee2.c: 489:      LCD_String_xy(2,0,date);
  1708   0079B8  0E00               	movlw	0
  1709   0079BA  6E0B               	movwf	LCD_String_xy@pos^0,c
  1710   0079BC  0EB4               	movlw	low _date
  1711   0079BE  6E0C               	movwf	LCD_String_xy@msg^0,c
  1712   0079C0  0E00               	movlw	high _date
  1713   0079C2  6E0D               	movwf	(LCD_String_xy@msg+1)^0,c
  1714   0079C4  0E02               	movlw	2
  1715   0079C6  EC03  F038         	call	_LCD_String_xy
  1716                           
  1717                           ;main_piee2.c: 490:      LCD_String(month);
  1718   0079CA  0EAA               	movlw	low _month
  1719   0079CC  6E09               	movwf	LCD_String@msg^0,c
  1720   0079CE  0E00               	movlw	high _month
  1721   0079D0  6E0A               	movwf	(LCD_String@msg+1)^0,c
  1722   0079D2  EC57  F037         	call	_LCD_String	;wreg free
  1723                           
  1724                           ;main_piee2.c: 491:      LCD_String(year);
  1725   0079D6  0EA0               	movlw	low _year
  1726   0079D8  6E09               	movwf	LCD_String@msg^0,c
  1727   0079DA  0E00               	movlw	high _year
  1728   0079DC  6E0A               	movwf	(LCD_String@msg+1)^0,c
  1729   0079DE  EC57  F037         	call	_LCD_String	;wreg free
  1730                           
  1731                           ;main_piee2.c: 494:      switch(days[Day])
  1732   0079E2  EF2B  F03D         	goto	l2246
  1733   0079E6                     l2230:
  1734                           
  1735                           ; BSR set to: 0
  1736                           ;main_piee2.c: 497:                      LCD_String("Dom");
  1737   0079E6  0EF1               	movlw	low STR_30
  1738   0079E8  6E09               	movwf	LCD_String@msg^0,c
  1739   0079EA  0E7F               	movlw	high STR_30
  1740   0079EC  6E0A               	movwf	(LCD_String@msg+1)^0,c
  1741   0079EE  EC57  F037         	call	_LCD_String	;wreg free
  1742                           
  1743                           ;main_piee2.c: 498:                      break;
  1744   0079F2  EF5B  F03D         	goto	l212
  1745   0079F6                     l2232:
  1746                           
  1747                           ; BSR set to: 0
  1748                           ;main_piee2.c: 500:                      LCD_String("Seg");
  1749   0079F6  0EE9               	movlw	low STR_31
  1750   0079F8  6E09               	movwf	LCD_String@msg^0,c
  1751   0079FA  0E7F               	movlw	high STR_31
  1752   0079FC  6E0A               	movwf	(LCD_String@msg+1)^0,c
  1753   0079FE  EC57  F037         	call	_LCD_String	;wreg free
  1754                           
  1755                           ;main_piee2.c: 501:                      break;
  1756   007A02  EF5B  F03D         	goto	l212
  1757   007A06                     l2234:
  1758                           
  1759                           ; BSR set to: 0
  1760                           ;main_piee2.c: 503:                      LCD_String("Tec");
  1761   007A06  0EE5               	movlw	low STR_32
  1762   007A08  6E09               	movwf	LCD_String@msg^0,c
  1763   007A0A  0E7F               	movlw	high STR_32
  1764   007A0C  6E0A               	movwf	(LCD_String@msg+1)^0,c
  1765   007A0E  EC57  F037         	call	_LCD_String	;wreg free
  1766                           
  1767                           ;main_piee2.c: 504:                      break;
  1768   007A12  EF5B  F03D         	goto	l212
  1769   007A16                     l2236:
  1770                           
  1771                           ; BSR set to: 0
  1772                           ;main_piee2.c: 506:                      LCD_String("Qua");
  1773   007A16  0EDD               	movlw	low STR_33
  1774   007A18  6E09               	movwf	LCD_String@msg^0,c
  1775   007A1A  0E7F               	movlw	high STR_33
  1776   007A1C  6E0A               	movwf	(LCD_String@msg+1)^0,c
  1777   007A1E  EC57  F037         	call	_LCD_String	;wreg free
  1778                           
  1779                           ;main_piee2.c: 507:                      break;
  1780   007A22  EF5B  F03D         	goto	l212
  1781   007A26                     l2238:
  1782                           
  1783                           ; BSR set to: 0
  1784                           ;main_piee2.c: 509:                      LCD_String("Qui");
  1785   007A26  0EED               	movlw	low STR_34
  1786   007A28  6E09               	movwf	LCD_String@msg^0,c
  1787   007A2A  0E7F               	movlw	high STR_34
  1788   007A2C  6E0A               	movwf	(LCD_String@msg+1)^0,c
  1789   007A2E  EC57  F037         	call	_LCD_String	;wreg free
  1790                           
  1791                           ;main_piee2.c: 510:                      break;
  1792   007A32  EF5B  F03D         	goto	l212
  1793   007A36                     l2240:
  1794                           
  1795                           ; BSR set to: 0
  1796                           ;main_piee2.c: 512:                      LCD_String("Sex");
  1797   007A36  0EF5               	movlw	low STR_35
  1798   007A38  6E09               	movwf	LCD_String@msg^0,c
  1799   007A3A  0E7F               	movlw	high STR_35
  1800   007A3C  6E0A               	movwf	(LCD_String@msg+1)^0,c
  1801   007A3E  EC57  F037         	call	_LCD_String	;wreg free
  1802                           
  1803                           ;main_piee2.c: 513:                      break;
  1804   007A42  EF5B  F03D         	goto	l212
  1805   007A46                     l2242:
  1806                           
  1807                           ; BSR set to: 0
  1808                           ;main_piee2.c: 515:                      LCD_String("Sab");
  1809   007A46  0EE1               	movlw	low STR_36
  1810   007A48  6E09               	movwf	LCD_String@msg^0,c
  1811   007A4A  0E7F               	movlw	high STR_36
  1812   007A4C  6E0A               	movwf	(LCD_String@msg+1)^0,c
  1813   007A4E  EC57  F037         	call	_LCD_String	;wreg free
  1814                           
  1815                           ;main_piee2.c: 516:                      break;
  1816   007A52  EF5B  F03D         	goto	l212
  1817   007A56                     l2246:
  1818   007A56  0EDC               	movlw	low _days
  1819   007A58  0100               	movlb	0	; () banked
  1820   007A5A  256C               	addwf	_Day& (0+255),w,b
  1821   007A5C  6ED9               	movwf	fsr2l,c
  1822   007A5E  0E00               	movlw	high _days
  1823   007A60  216D               	addwfc	(_Day+1)& (0+255),w,b
  1824   007A62  6EDA               	movwf	fsr2h,c
  1825   007A64  50DF               	movf	indf2,w,c
  1826   007A66  6E56               	movwf	??_atualiza_data^0,c
  1827   007A68  6A57               	clrf	(??_atualiza_data+1)^0,c
  1828                           
  1829                           ; Switch on 2 bytes has been partitioned into a top level switch of size 1, and 1 sub-sw
      +                          itches
  1830                           ; Switch size 1, requested type "simple"
  1831                           ; Number of cases is 1, Range of values is 0 to 0
  1832                           ; switch strategies available:
  1833                           ; Name         Instructions Cycles
  1834                           ; simple_byte            4     3 (average)
  1835                           ;	Chosen strategy is simple_byte
  1836   007A6A  5057               	movf	(??_atualiza_data+1)^0,w,c
  1837   007A6C  0A00               	xorlw	0	; case 0
  1838   007A6E  B4D8               	btfsc	status,2,c
  1839   007A70  EF3C  F03D         	goto	l2516
  1840   007A74  EF5B  F03D         	goto	l212
  1841   007A78                     l2516:
  1842                           
  1843                           ; BSR set to: 0
  1844                           ; Switch size 1, requested type "simple"
  1845                           ; Number of cases is 7, Range of values is 48 to 54
  1846                           ; switch strategies available:
  1847                           ; Name         Instructions Cycles
  1848                           ; simple_byte           22    12 (average)
  1849                           ;	Chosen strategy is simple_byte
  1850   007A78  5056               	movf	??_atualiza_data^0,w,c
  1851   007A7A  0A30               	xorlw	48	; case 48
  1852   007A7C  B4D8               	btfsc	status,2,c
  1853   007A7E  EFF3  F03C         	goto	l2230
  1854   007A82  0A01               	xorlw	1	; case 49
  1855   007A84  B4D8               	btfsc	status,2,c
  1856   007A86  EFFB  F03C         	goto	l2232
  1857   007A8A  0A03               	xorlw	3	; case 50
  1858   007A8C  B4D8               	btfsc	status,2,c
  1859   007A8E  EF03  F03D         	goto	l2234
  1860   007A92  0A01               	xorlw	1	; case 51
  1861   007A94  B4D8               	btfsc	status,2,c
  1862   007A96  EF0B  F03D         	goto	l2236
  1863   007A9A  0A07               	xorlw	7	; case 52
  1864   007A9C  B4D8               	btfsc	status,2,c
  1865   007A9E  EF13  F03D         	goto	l2238
  1866   007AA2  0A01               	xorlw	1	; case 53
  1867   007AA4  B4D8               	btfsc	status,2,c
  1868   007AA6  EF1B  F03D         	goto	l2240
  1869   007AAA  0A03               	xorlw	3	; case 54
  1870   007AAC  B4D8               	btfsc	status,2,c
  1871   007AAE  EF23  F03D         	goto	l2242
  1872   007AB2  EF5B  F03D         	goto	l212
  1873   007AB6                     l212:
  1874   007AB6  0012               	return		;funcret
  1875   007AB8                     __end_of_atualiza_data:
  1876                           	callstack 0
  1877                           
  1878 ;; *************** function _sprintf *****************
  1879 ;; Defined at:
  1880 ;;		line 9 in file "/Applications/microchip/xc8/v2.41/pic/sources/c99/common/nf_sprintf.c"
  1881 ;; Parameters:    Size  Location     Type
  1882 ;;  s               2   65[COMRAM] PTR unsigned char 
  1883 ;;		 -> year(10), month(10), date(10), hours(10), 
  1884 ;;		 -> mins(10), secs(10), 
  1885 ;;  fmt             2   67[COMRAM] PTR const unsigned char 
  1886 ;;		 -> STR_29(4), STR_28(4), STR_27(9), STR_26(9), 
  1887 ;;		 -> STR_25(4), STR_24(4), STR_23(9), STR_22(4), 
  1888 ;;		 -> STR_21(4), 
  1889 ;; Auto vars:     Size  Location     Type
  1890 ;;  f              12   73[COMRAM] struct _IO_FILE
  1891 ;;  ap              2   71[COMRAM] PTR void [1]
  1892 ;;		 -> ?_sprintf(2), 
  1893 ;;  ret             2    0        int 
  1894 ;; Return value:  Size  Location     Type
  1895 ;;                  2   65[COMRAM] int 
  1896 ;; Registers used:
  1897 ;;		wreg, fsr1l, fsr1h, fsr2l, fsr2h, status,2, status,0, tblptrl, tblptrh, tblptru, cstack
  1898 ;; Tracked objects:
  1899 ;;		On entry : 0/0
  1900 ;;		On exit  : 0/0
  1901 ;;		Unchanged: 0/0
  1902 ;; Data sizes:     COMRAM   BANK0   BANK1   BANK2   BANK3   BANK4   BANK5   BANK6   BANK7
  1903 ;;      Params:         6       0       0       0       0       0       0       0       0
  1904 ;;      Locals:        14       0       0       0       0       0       0       0       0
  1905 ;;      Temps:          0       0       0       0       0       0       0       0       0
  1906 ;;      Totals:        20       0       0       0       0       0       0       0       0
  1907 ;;Total ram usage:       20 bytes
  1908 ;; Hardware stack levels used: 1
  1909 ;; Hardware stack levels required when called: 7
  1910 ;; This function calls:
  1911 ;;		_vfprintf
  1912 ;; This function is called by:
  1913 ;;		_atualiza_data
  1914 ;; This function uses a non-reentrant model
  1915 ;;
  1916                           
  1917                           	psect	text4
  1918   006D70                     __ptext4:
  1919                           	callstack 0
  1920   006D70                     _sprintf:
  1921                           	callstack 21
  1922   006D70  0E46               	movlw	low (?_sprintf+4)
  1923   006D72  6E48               	movwf	sprintf@ap^0,c
  1924   006D74  0E00               	movlw	high (?_sprintf+4)
  1925   006D76  6E49               	movwf	(sprintf@ap+1)^0,c
  1926   006D78  C042  F04A         	movff	sprintf@s,sprintf@f
  1927   006D7C  C043  F04B         	movff	sprintf@s+1,sprintf@f+1
  1928   006D80  0E00               	movlw	0
  1929   006D82  6E4E               	movwf	(sprintf@f+4)^0,c
  1930   006D84  0E00               	movlw	0
  1931   006D86  6E4D               	movwf	(sprintf@f+3)^0,c
  1932   006D88  0E00               	movlw	0
  1933   006D8A  6E55               	movwf	(sprintf@f+11)^0,c
  1934   006D8C  0E00               	movlw	0
  1935   006D8E  6E54               	movwf	(sprintf@f+10)^0,c
  1936   006D90  0E4A               	movlw	low sprintf@f
  1937   006D92  6E3A               	movwf	vfprintf@fp^0,c
  1938   006D94  0E00               	movlw	high sprintf@f
  1939   006D96  6E3B               	movwf	(vfprintf@fp+1)^0,c
  1940   006D98  C044  F03C         	movff	sprintf@fmt,vfprintf@fmt
  1941   006D9C  C045  F03D         	movff	sprintf@fmt+1,vfprintf@fmt+1
  1942   006DA0  0E48               	movlw	low sprintf@ap
  1943   006DA2  6E3E               	movwf	vfprintf@ap^0,c
  1944   006DA4  0E00               	movlw	high sprintf@ap
  1945   006DA6  6E3F               	movwf	(vfprintf@ap+1)^0,c
  1946   006DA8  ECDE  F036         	call	_vfprintf	;wreg free
  1947   006DAC  504D               	movf	(sprintf@f+3)^0,w,c
  1948   006DAE  2442               	addwf	sprintf@s^0,w,c
  1949   006DB0  6ED9               	movwf	fsr2l,c
  1950   006DB2  504E               	movf	(sprintf@f+4)^0,w,c
  1951   006DB4  2043               	addwfc	(sprintf@s+1)^0,w,c
  1952   006DB6  6EDA               	movwf	fsr2h,c
  1953   006DB8  6ADF               	clrf	indf2,c
  1954   006DBA  0012               	return		;funcret
  1955   006DBC                     __end_of_sprintf:
  1956                           	callstack 0
  1957                           
  1958 ;; *************** function _vfprintf *****************
  1959 ;; Defined at:
  1960 ;;		line 1546 in file "/Applications/microchip/xc8/v2.41/pic/sources/c99/common/doprnt.c"
  1961 ;; Parameters:    Size  Location     Type
  1962 ;;  fp              2   57[COMRAM] PTR struct _IO_FILE
  1963 ;;		 -> sprintf@f(12), 
  1964 ;;  fmt             2   59[COMRAM] PTR const unsigned char 
  1965 ;;		 -> STR_29(4), STR_28(4), STR_27(9), STR_26(9), 
  1966 ;;		 -> STR_25(4), STR_24(4), STR_23(9), STR_22(4), 
  1967 ;;		 -> STR_21(4), 
  1968 ;;  ap              2   61[COMRAM] PTR PTR void 
  1969 ;;		 -> sprintf@ap(2), 
  1970 ;; Auto vars:     Size  Location     Type
  1971 ;;  cfmt            2   63[COMRAM] PTR unsigned char 
  1972 ;;		 -> STR_29(4), STR_28(4), STR_27(9), STR_26(9), 
  1973 ;;		 -> STR_25(4), STR_24(4), STR_23(9), STR_22(4), 
  1974 ;;		 -> STR_21(4), 
  1975 ;; Return value:  Size  Location     Type
  1976 ;;                  2   57[COMRAM] int 
  1977 ;; Registers used:
  1978 ;;		wreg, fsr1l, fsr1h, fsr2l, fsr2h, status,2, status,0, tblptrl, tblptrh, tblptru, cstack
  1979 ;; Tracked objects:
  1980 ;;		On entry : 0/0
  1981 ;;		On exit  : 0/0
  1982 ;;		Unchanged: 0/0
  1983 ;; Data sizes:     COMRAM   BANK0   BANK1   BANK2   BANK3   BANK4   BANK5   BANK6   BANK7
  1984 ;;      Params:         6       0       0       0       0       0       0       0       0
  1985 ;;      Locals:         2       0       0       0       0       0       0       0       0
  1986 ;;      Temps:          0       0       0       0       0       0       0       0       0
  1987 ;;      Totals:         8       0       0       0       0       0       0       0       0
  1988 ;;Total ram usage:        8 bytes
  1989 ;; Hardware stack levels used: 1
  1990 ;; Hardware stack levels required when called: 6
  1991 ;; This function calls:
  1992 ;;		_vfpfcnvrt
  1993 ;; This function is called by:
  1994 ;;		_sprintf
  1995 ;; This function uses a non-reentrant model
  1996 ;;
  1997                           
  1998                           	psect	text5
  1999   006DBC                     __ptext5:
  2000                           	callstack 0
  2001   006DBC                     _vfprintf:
  2002                           	callstack 21
  2003   006DBC                     
  2004                           ;/Applications/microchip/xc8/v2.41/pic/sources/c99/common/doprnt.c: 1546: int vfprintf(F
      +                          ILE *fp, const char *fmt, va_list ap);/Applications/microchip/xc8/v2.41/pic/sources/c99/
      +                          common/doprnt.c: 1547: {;/Applications/microchip/xc8/v2.41/pic/sources/c99/common/doprnt
      +                          .c: 1549:     char *cfmt;;/Applications/microchip/xc8/v2.41/pic/sources/c99/common/doprn
      +                          t.c: 1551:     cfmt = (char *)fmt;
  2005   006DBC  C03C  F040         	movff	vfprintf@fmt,vfprintf@cfmt
  2006   006DC0  C03D  F041         	movff	vfprintf@fmt+1,vfprintf@cfmt+1
  2007                           
  2008                           ;/Applications/microchip/xc8/v2.41/pic/sources/c99/common/doprnt.c: 1555:     while (*cf
      +                          mt) {
  2009   006DC4  EFF2  F036         	goto	l1980
  2010   006DC8                     l1978:
  2011                           
  2012                           ;/Applications/microchip/xc8/v2.41/pic/sources/c99/common/doprnt.c: 1559:    vfpfcnvrt(f
      +                          p, &cfmt, ap);
  2013   006DC8  C03A  F02C         	movff	vfprintf@fp,vfpfcnvrt@fp
  2014   006DCC  C03B  F02D         	movff	vfprintf@fp+1,vfpfcnvrt@fp+1
  2015   006DD0  0E40               	movlw	low vfprintf@cfmt
  2016   006DD2  6E2E               	movwf	vfpfcnvrt@fmt^0,c
  2017   006DD4  0E00               	movlw	high vfprintf@cfmt
  2018   006DD6  6E2F               	movwf	(vfpfcnvrt@fmt+1)^0,c
  2019   006DD8  C03E  F030         	movff	vfprintf@ap,vfpfcnvrt@ap
  2020   006DDC  C03F  F031         	movff	vfprintf@ap+1,vfpfcnvrt@ap+1
  2021   006DE0  EC71  F03B         	call	_vfpfcnvrt	;wreg free
  2022   006DE4                     l1980:
  2023                           
  2024                           ;/Applications/microchip/xc8/v2.41/pic/sources/c99/common/doprnt.c: 1555:     while (*cf
      +                          mt) {
  2025   006DE4  C040  FFF6         	movff	vfprintf@cfmt,tblptrl
  2026   006DE8  C041  FFF7         	movff	vfprintf@cfmt+1,tblptrh
  2027   006DEC                     	if	0	;tblptru may be non-zero
  2028   006DEC                     	endif
  2029   006DEC                     	if	0	;tblptru may be non-zero
  2030   006DEC                     	endif
  2031   006DEC  0008               	tblrd		*
  2032   006DEE  50F5               	movf	tablat,w,c
  2033   006DF0  0900               	iorlw	0
  2034   006DF2  A4D8               	btfss	status,2,c
  2035   006DF4  EFFE  F036         	goto	u981
  2036   006DF8  EF00  F037         	goto	u980
  2037   006DFC                     u981:
  2038   006DFC  EFE4  F036         	goto	l1978
  2039   006E00                     u980:
  2040   006E00                     
  2041                           ;/Applications/microchip/xc8/v2.41/pic/sources/c99/common/doprnt.c: 1564:  return 0;
  2042   006E00  0E00               	movlw	0
  2043   006E02  6E3B               	movwf	(?_vfprintf+1)^0,c
  2044   006E04  0E00               	movlw	0
  2045   006E06  6E3A               	movwf	?_vfprintf^0,c
  2046   006E08  0012               	return		;funcret
  2047   006E0A                     __end_of_vfprintf:
  2048                           	callstack 0
  2049                           
  2050 ;; *************** function _vfpfcnvrt *****************
  2051 ;; Defined at:
  2052 ;;		line 1048 in file "/Applications/microchip/xc8/v2.41/pic/sources/c99/common/doprnt.c"
  2053 ;; Parameters:    Size  Location     Type
  2054 ;;  fp              2   43[COMRAM] PTR struct _IO_FILE
  2055 ;;		 -> sprintf@f(12), 
  2056 ;;  fmt             2   45[COMRAM] PTR PTR unsigned char 
  2057 ;;		 -> vfprintf@cfmt(2), 
  2058 ;;  ap              2   47[COMRAM] PTR PTR void 
  2059 ;;		 -> sprintf@ap(2), 
  2060 ;; Auto vars:     Size  Location     Type
  2061 ;;  convarg         4   51[COMRAM] struct .
  2062 ;;  cp              2   55[COMRAM] PTR unsigned char 
  2063 ;;		 -> STR_29(4), STR_28(4), STR_27(9), STR_26(9), 
  2064 ;;		 -> STR_25(4), STR_24(4), STR_23(9), STR_22(4), 
  2065 ;;		 -> STR_21(4), 
  2066 ;;  i               2    0        int 
  2067 ;;  done            2    0        int 
  2068 ;;  c               1    0        unsigned char 
  2069 ;; Return value:  Size  Location     Type
  2070 ;;                  1    wreg      void 
  2071 ;; Registers used:
  2072 ;;		wreg, fsr1l, fsr1h, fsr2l, fsr2h, status,2, status,0, tblptrl, tblptrh, tblptru, cstack
  2073 ;; Tracked objects:
  2074 ;;		On entry : 0/0
  2075 ;;		On exit  : 0/0
  2076 ;;		Unchanged: 0/0
  2077 ;; Data sizes:     COMRAM   BANK0   BANK1   BANK2   BANK3   BANK4   BANK5   BANK6   BANK7
  2078 ;;      Params:         6       0       0       0       0       0       0       0       0
  2079 ;;      Locals:         6       0       0       0       0       0       0       0       0
  2080 ;;      Temps:          2       0       0       0       0       0       0       0       0
  2081 ;;      Totals:        14       0       0       0       0       0       0       0       0
  2082 ;;Total ram usage:       14 bytes
  2083 ;; Hardware stack levels used: 1
  2084 ;; Hardware stack levels required when called: 5
  2085 ;; This function calls:
  2086 ;;		_fputc
  2087 ;;		_xtoa
  2088 ;; This function is called by:
  2089 ;;		_vfprintf
  2090 ;; This function uses a non-reentrant model
  2091 ;;
  2092                           
  2093                           	psect	text6
  2094   0076E2                     __ptext6:
  2095                           	callstack 0
  2096   0076E2                     _vfpfcnvrt:
  2097                           	callstack 21
  2098   0076E2                     
  2099                           ;/Applications/microchip/xc8/v2.41/pic/sources/c99/common/doprnt.c: 1048: vfpfcnvrt(FILE
      +                           *fp, char *fmt[], va_list ap);/Applications/microchip/xc8/v2.41/pic/sources/c99/common/
      +                          doprnt.c: 1049: {;/Applications/microchip/xc8/v2.41/pic/sources/c99/common/doprnt.c: 105
      +                          0:     char c, *cp;;/Applications/microchip/xc8/v2.41/pic/sources/c99/common/doprnt.c: 1
      +                          051:     int done, i;;/Applications/microchip/xc8/v2.41/pic/sources/c99/common/doprnt.c:
      +                           1059:  } convarg;;/Applications/microchip/xc8/v2.41/pic/sources/c99/common/doprnt.c: 10
      +                          62:     if ((*fmt)[0] == '%') {
  2100   0076E2  C02E  FFD9         	movff	vfpfcnvrt@fmt,fsr2l
  2101   0076E6  C02F  FFDA         	movff	vfpfcnvrt@fmt+1,fsr2h
  2102   0076EA  CFDE FFF6          	movff	postinc2,tblptrl
  2103   0076EE  CFDD FFF7          	movff	postdec2,tblptrh
  2104   0076F2                     	if	0	;tblptru may be non-zero
  2105   0076F2                     	endif
  2106   0076F2                     	if	0	;tblptru may be non-zero
  2107   0076F2                     	endif
  2108   0076F2  0008               	tblrd		*
  2109   0076F4  50F5               	movf	tablat,w,c
  2110   0076F6  0A25               	xorlw	37
  2111   0076F8  A4D8               	btfss	status,2,c
  2112   0076FA  EF81  F03B         	goto	u881
  2113   0076FE  EF83  F03B         	goto	u880
  2114   007702                     u881:
  2115   007702  EFF8  F03B         	goto	l1914
  2116   007706                     u880:
  2117   007706                     
  2118                           ;/Applications/microchip/xc8/v2.41/pic/sources/c99/common/doprnt.c: 1063:         ++*fmt
      +                          ;
  2119   007706  C02E  FFD9         	movff	vfpfcnvrt@fmt,fsr2l
  2120   00770A  C02F  FFDA         	movff	vfpfcnvrt@fmt+1,fsr2h
  2121   00770E  2ADE               	incf	postinc2,f,c
  2122   007710  0E00               	movlw	0
  2123   007712  22DD               	addwfc	postdec2,f,c
  2124   007714                     
  2125                           ;/Applications/microchip/xc8/v2.41/pic/sources/c99/common/doprnt.c: 1065:         flags 
      +                          = width = 0;
  2126   007714  0E00               	movlw	0
  2127   007716  0100               	movlb	0	; () banked
  2128   007718  6F61               	movwf	(_width+1)& (0+255),b
  2129   00771A  0E00               	movlw	0
  2130   00771C  6F60               	movwf	_width& (0+255),b
  2131   00771E  C060  F072         	movff	_width,_flags
  2132   007722                     
  2133                           ; BSR set to: 0
  2134                           ;/Applications/microchip/xc8/v2.41/pic/sources/c99/common/doprnt.c: 1066:         prec =
      +                           -1;
  2135   007722  6962               	setf	_prec& (0+255),b
  2136   007724  6963               	setf	(_prec+1)& (0+255),b
  2137   007726                     
  2138                           ; BSR set to: 0
  2139                           ;/Applications/microchip/xc8/v2.41/pic/sources/c99/common/doprnt.c: 1265:   if (0
  2140   007726  C02E  FFD9         	movff	vfpfcnvrt@fmt,fsr2l
  2141   00772A  C02F  FFDA         	movff	vfpfcnvrt@fmt+1,fsr2h
  2142   00772E  CFDE F038          	movff	postinc2,vfpfcnvrt@cp
  2143   007732  CFDD F039          	movff	postdec2,vfpfcnvrt@cp+1
  2144   007736                     
  2145                           ; BSR set to: 0
  2146   007736  C038  FFF6         	movff	vfpfcnvrt@cp,tblptrl
  2147   00773A  C039  FFF7         	movff	vfpfcnvrt@cp+1,tblptrh
  2148   00773E                     	if	0	;tblptru may be non-zero
  2149   00773E                     	endif
  2150   00773E                     	if	0	;tblptru may be non-zero
  2151   00773E                     	endif
  2152   00773E  0008               	tblrd		*
  2153   007740  50F5               	movf	tablat,w,c
  2154   007742  0A78               	xorlw	120
  2155   007744  A4D8               	btfss	status,2,c
  2156   007746  EFA7  F03B         	goto	u891
  2157   00774A  EFA9  F03B         	goto	u890
  2158   00774E                     u891:
  2159   00774E  EFEF  F03B         	goto	l1910
  2160   007752                     u890:
  2161   007752                     
  2162                           ; BSR set to: 0
  2163                           ;/Applications/microchip/xc8/v2.41/pic/sources/c99/common/doprnt.c: 1278:     ) {;/Appli
      +                          cations/microchip/xc8/v2.41/pic/sources/c99/common/doprnt.c: 1321:    convarg.uint = (vf
      +                          pf_uint_t)(unsigned int)(*(unsigned int *)__va_arg(*(unsigned int **)ap, (unsigned int)0
      +                          ));
  2164   007752  C030  FFD9         	movff	vfpfcnvrt@ap,fsr2l
  2165   007756  C031  FFDA         	movff	vfpfcnvrt@ap+1,fsr2h
  2166   00775A  CFDF F032          	movff	indf2,??_vfpfcnvrt
  2167   00775E  0E02               	movlw	2
  2168   007760  26DE               	addwf	postinc2,f,c
  2169   007762  CFDF F033          	movff	indf2,??_vfpfcnvrt+1
  2170   007766  0E00               	movlw	0
  2171   007768  22DD               	addwfc	postdec2,f,c
  2172   00776A  C032  FFD9         	movff	??_vfpfcnvrt,fsr2l
  2173   00776E  C033  FFDA         	movff	??_vfpfcnvrt+1,fsr2h
  2174   007772  CFDE F034          	movff	postinc2,vfpfcnvrt@convarg
  2175   007776  CFDD F035          	movff	postdec2,vfpfcnvrt@convarg+1
  2176                           
  2177                           ;/Applications/microchip/xc8/v2.41/pic/sources/c99/common/doprnt.c: 1323:    *fmt = cp+1
      +                          ;
  2178   00777A  0E01               	movlw	1
  2179   00777C  2438               	addwf	vfpfcnvrt@cp^0,w,c
  2180   00777E  6E32               	movwf	??_vfpfcnvrt^0,c
  2181   007780  0E00               	movlw	0
  2182   007782  2039               	addwfc	(vfpfcnvrt@cp+1)^0,w,c
  2183   007784  6E33               	movwf	(??_vfpfcnvrt+1)^0,c
  2184   007786  C02E  FFD9         	movff	vfpfcnvrt@fmt,fsr2l
  2185   00778A  C02F  FFDA         	movff	vfpfcnvrt@fmt+1,fsr2h
  2186   00778E  C032  FFDE         	movff	??_vfpfcnvrt,postinc2
  2187   007792  C033  FFDD         	movff	??_vfpfcnvrt+1,postdec2
  2188                           
  2189                           ;/Applications/microchip/xc8/v2.41/pic/sources/c99/common/doprnt.c: 1324:    switch (*cp
      +                          ) {
  2190   007796  EFD9  F03B         	goto	l1908
  2191   00779A                     l1902:
  2192                           
  2193                           ; BSR set to: 0
  2194                           ;/Applications/microchip/xc8/v2.41/pic/sources/c99/common/doprnt.c: 1340:      return (v
      +                          oid) xtoa(fp,convarg.uint);;	Return value of _vfpfcnvrt is never used
  2195   00779A  C02C  F01C         	movff	vfpfcnvrt@fp,xtoa@fp
  2196   00779E  C02D  F01D         	movff	vfpfcnvrt@fp+1,xtoa@fp+1
  2197   0077A2  C034  F01E         	movff	vfpfcnvrt@convarg,xtoa@d
  2198   0077A6  C035  F01F         	movff	vfpfcnvrt@convarg+1,xtoa@d+1
  2199   0077AA  EC48  F03A         	call	_xtoa	;wreg free
  2200   0077AE  EF0C  F03C         	goto	l1076
  2201   0077B2                     l1908:
  2202                           
  2203                           ; BSR set to: 0
  2204   0077B2  C038  FFF6         	movff	vfpfcnvrt@cp,tblptrl
  2205   0077B6  C039  FFF7         	movff	vfpfcnvrt@cp+1,tblptrh
  2206   0077BA                     	if	0	;tblptru may be non-zero
  2207   0077BA                     	endif
  2208   0077BA                     	if	0	;tblptru may be non-zero
  2209   0077BA                     	endif
  2210   0077BA  0008               	tblrd		*
  2211   0077BC  50F5               	movf	tablat,w,c
  2212   0077BE  6E32               	movwf	??_vfpfcnvrt^0,c
  2213   0077C0  6A33               	clrf	(??_vfpfcnvrt+1)^0,c
  2214                           
  2215                           ; Switch on 2 bytes has been partitioned into a top level switch of size 1, and 1 sub-sw
      +                          itches
  2216                           ; Switch size 1, requested type "simple"
  2217                           ; Number of cases is 1, Range of values is 0 to 0
  2218                           ; switch strategies available:
  2219                           ; Name         Instructions Cycles
  2220                           ; simple_byte            4     3 (average)
  2221                           ;	Chosen strategy is simple_byte
  2222   0077C2  5033               	movf	(??_vfpfcnvrt+1)^0,w,c
  2223   0077C4  0A00               	xorlw	0	; case 0
  2224   0077C6  B4D8               	btfsc	status,2,c
  2225   0077C8  EFE8  F03B         	goto	l2518
  2226   0077CC  EFEF  F03B         	goto	l1910
  2227   0077D0                     l2518:
  2228                           
  2229                           ; BSR set to: 0
  2230                           ; Switch size 1, requested type "simple"
  2231                           ; Number of cases is 1, Range of values is 120 to 120
  2232                           ; switch strategies available:
  2233                           ; Name         Instructions Cycles
  2234                           ; simple_byte            4     3 (average)
  2235                           ;	Chosen strategy is simple_byte
  2236   0077D0  5032               	movf	??_vfpfcnvrt^0,w,c
  2237   0077D2  0A78               	xorlw	120	; case 120
  2238   0077D4  B4D8               	btfsc	status,2,c
  2239   0077D6  EFCD  F03B         	goto	l1902
  2240   0077DA  EFEF  F03B         	goto	l1910
  2241   0077DE                     l1910:
  2242                           
  2243                           ;/Applications/microchip/xc8/v2.41/pic/sources/c99/common/doprnt.c: 1535:         ++*fmt
      +                          ;
  2244   0077DE  C02E  FFD9         	movff	vfpfcnvrt@fmt,fsr2l
  2245   0077E2  C02F  FFDA         	movff	vfpfcnvrt@fmt+1,fsr2h
  2246   0077E6  2ADE               	incf	postinc2,f,c
  2247   0077E8  0E00               	movlw	0
  2248   0077EA  22DD               	addwfc	postdec2,f,c
  2249   0077EC  EF0C  F03C         	goto	l1076
  2250   0077F0                     l1914:
  2251                           
  2252                           ;/Applications/microchip/xc8/v2.41/pic/sources/c99/common/doprnt.c: 1540:     fputc((int
      +                          )(*fmt)[0], fp);
  2253   0077F0  C02E  FFD9         	movff	vfpfcnvrt@fmt,fsr2l
  2254   0077F4  C02F  FFDA         	movff	vfpfcnvrt@fmt+1,fsr2h
  2255   0077F8  CFDE FFF6          	movff	postinc2,tblptrl
  2256   0077FC  CFDD FFF7          	movff	postdec2,tblptrh
  2257   007800                     	if	0	;tblptru may be non-zero
  2258   007800                     	endif
  2259   007800                     	if	0	;tblptru may be non-zero
  2260   007800                     	endif
  2261   007800  0008               	tblrd		*
  2262   007802  50F5               	movf	tablat,w,c
  2263   007804  6E01               	movwf	fputc@c^0,c
  2264   007806  6A02               	clrf	(fputc@c+1)^0,c
  2265   007808  C02C  F003         	movff	vfpfcnvrt@fp,fputc@fp
  2266   00780C  C02D  F004         	movff	vfpfcnvrt@fp+1,fputc@fp+1
  2267   007810  EC5A  F039         	call	_fputc	;wreg free
  2268   007814  EFEF  F03B         	goto	l1910
  2269   007818                     l1076:
  2270   007818  0012               	return		;funcret
  2271   00781A                     __end_of_vfpfcnvrt:
  2272                           	callstack 0
  2273                           
  2274 ;; *************** function _xtoa *****************
  2275 ;; Defined at:
  2276 ;;		line 955 in file "/Applications/microchip/xc8/v2.41/pic/sources/c99/common/doprnt.c"
  2277 ;; Parameters:    Size  Location     Type
  2278 ;;  fp              2   27[COMRAM] PTR struct _IO_FILE
  2279 ;;		 -> sprintf@f(12), 
  2280 ;;  d               2   29[COMRAM] unsigned int 
  2281 ;; Auto vars:     Size  Location     Type
  2282 ;;  i               2   40[COMRAM] int 
  2283 ;;  p               2   38[COMRAM] int 
  2284 ;;  w               2   34[COMRAM] int 
  2285 ;;  c               1   42[COMRAM] unsigned char 
  2286 ;; Return value:  Size  Location     Type
  2287 ;;                  1    wreg      void 
  2288 ;; Registers used:
  2289 ;;		wreg, fsr1l, fsr1h, fsr2l, fsr2h, status,2, status,0, cstack
  2290 ;; Tracked objects:
  2291 ;;		On entry : 0/0
  2292 ;;		On exit  : 0/0
  2293 ;;		Unchanged: 0/0
  2294 ;; Data sizes:     COMRAM   BANK0   BANK1   BANK2   BANK3   BANK4   BANK5   BANK6   BANK7
  2295 ;;      Params:         4       0       0       0       0       0       0       0       0
  2296 ;;      Locals:         9       0       0       0       0       0       0       0       0
  2297 ;;      Temps:          3       0       0       0       0       0       0       0       0
  2298 ;;      Totals:        16       0       0       0       0       0       0       0       0
  2299 ;;Total ram usage:       16 bytes
  2300 ;; Hardware stack levels used: 1
  2301 ;; Hardware stack levels required when called: 4
  2302 ;; This function calls:
  2303 ;;		_pad
  2304 ;; This function is called by:
  2305 ;;		_vfpfcnvrt
  2306 ;; This function uses a non-reentrant model
  2307 ;;
  2308                           
  2309                           	psect	text7
  2310   007490                     __ptext7:
  2311                           	callstack 0
  2312   007490                     _xtoa:
  2313                           	callstack 21
  2314   007490                     
  2315                           ;/Applications/microchip/xc8/v2.41/pic/sources/c99/common/doprnt.c: 955: static void xto
      +                          a(FILE *fp, vfpf_uint_t d);/Applications/microchip/xc8/v2.41/pic/sources/c99/common/dopr
      +                          nt.c: 958: {;/Applications/microchip/xc8/v2.41/pic/sources/c99/common/doprnt.c: 959:  ch
      +                          ar c;;/Applications/microchip/xc8/v2.41/pic/sources/c99/common/doprnt.c: 960:     int i,
      +                           p, w;;/Applications/microchip/xc8/v2.41/pic/sources/c99/common/doprnt.c: 971:     p = (
      +                          0 <= prec) ? prec : 1;
  2316   007490  0100               	movlb	0	; () banked
  2317   007492  BF63               	btfsc	(_prec+1)& (0+255),7,b
  2318   007494  EF50  F03A         	goto	u750
  2319   007498  EF4E  F03A         	goto	u751
  2320   00749C                     u751:
  2321   00749C  EF56  F03A         	goto	l1055
  2322   0074A0                     u750:
  2323   0074A0                     
  2324                           ; BSR set to: 0
  2325   0074A0  0E00               	movlw	0
  2326   0074A2  6E28               	movwf	(xtoa@p+1)^0,c
  2327   0074A4  0E01               	movlw	1
  2328   0074A6  6E27               	movwf	xtoa@p^0,c
  2329   0074A8  EF5A  F03A         	goto	l1057
  2330   0074AC                     l1055:
  2331                           
  2332                           ; BSR set to: 0
  2333   0074AC  C062  F027         	movff	_prec,xtoa@p
  2334   0074B0  C063  F028         	movff	_prec+1,xtoa@p+1
  2335   0074B4                     l1057:
  2336                           
  2337                           ; BSR set to: 0
  2338                           ;/Applications/microchip/xc8/v2.41/pic/sources/c99/common/doprnt.c: 972:     w = width;
  2339   0074B4  C060  F023         	movff	_width,xtoa@w
  2340   0074B8  C061  F024         	movff	_width+1,xtoa@w+1
  2341   0074BC                     
  2342                           ; BSR set to: 0
  2343                           ;/Applications/microchip/xc8/v2.41/pic/sources/c99/common/doprnt.c: 981:     i = sizeof(
      +                          dbuf) - 1;
  2344   0074BC  0E00               	movlw	0
  2345   0074BE  6E2A               	movwf	(xtoa@i+1)^0,c
  2346   0074C0  0E1F               	movlw	31
  2347   0074C2  6E29               	movwf	xtoa@i^0,c
  2348   0074C4                     
  2349                           ; BSR set to: 0
  2350                           ;/Applications/microchip/xc8/v2.41/pic/sources/c99/common/doprnt.c: 982:     dbuf[i] = '
      +                          \0';
  2351   0074C4  0E00               	movlw	0
  2352   0074C6  6F92               	movwf	(_dbuf+31)& (0+255),b
  2353                           
  2354                           ;/Applications/microchip/xc8/v2.41/pic/sources/c99/common/doprnt.c: 983:     while (!(i 
      +                          < 2) && (d || (0 < p)
  2355   0074C8  EFA2  F03A         	goto	l1844
  2356   0074CC                     l1824:
  2357                           
  2358                           ;/Applications/microchip/xc8/v2.41/pic/sources/c99/common/doprnt.c: 987:     )) {;/Appli
      +                          cations/microchip/xc8/v2.41/pic/sources/c99/common/doprnt.c: 988:         --i;
  2359   0074CC  0629               	decf	xtoa@i^0,f,c
  2360   0074CE  A0D8               	btfss	status,0,c
  2361   0074D0  062A               	decf	(xtoa@i+1)^0,f,c
  2362   0074D2                     
  2363                           ;/Applications/microchip/xc8/v2.41/pic/sources/c99/common/doprnt.c: 989:         c = d &
      +                           0x0f;
  2364   0074D2  501E               	movf	xtoa@d^0,w,c
  2365   0074D4  0B0F               	andlw	15
  2366   0074D6  6E2B               	movwf	xtoa@c^0,c
  2367   0074D8                     
  2368                           ;/Applications/microchip/xc8/v2.41/pic/sources/c99/common/doprnt.c: 991:         c = (c 
      +                          < 10) ? (int)'0' + c : (int)'a' + (c - 10);
  2369   0074D8  0E09               	movlw	9
  2370   0074DA  642B               	cpfsgt	xtoa@c^0,c
  2371   0074DC  EF72  F03A         	goto	u761
  2372   0074E0  EF74  F03A         	goto	u760
  2373   0074E4                     u761:
  2374   0074E4  EF7C  F03A         	goto	l1832
  2375   0074E8                     u760:
  2376   0074E8  0E57               	movlw	87
  2377   0074EA  242B               	addwf	xtoa@c^0,w,c
  2378   0074EC  6E25               	movwf	_xtoa$1021^0,c
  2379   0074EE  6A26               	clrf	(_xtoa$1021+1)^0,c
  2380   0074F0  0E00               	movlw	0
  2381   0074F2  2226               	addwfc	(_xtoa$1021+1)^0,f,c
  2382   0074F4  EF82  F03A         	goto	l1834
  2383   0074F8                     l1832:
  2384   0074F8  0E30               	movlw	48
  2385   0074FA  242B               	addwf	xtoa@c^0,w,c
  2386   0074FC  6E25               	movwf	_xtoa$1021^0,c
  2387   0074FE  6A26               	clrf	(_xtoa$1021+1)^0,c
  2388   007500  0E00               	movlw	0
  2389   007502  2226               	addwfc	(_xtoa$1021+1)^0,f,c
  2390   007504                     l1834:
  2391   007504  C025  F02B         	movff	_xtoa$1021,xtoa@c
  2392   007508                     
  2393                           ;/Applications/microchip/xc8/v2.41/pic/sources/c99/common/doprnt.c: 1000:         dbuf[i
      +                          ] = (char)c;
  2394   007508  0E73               	movlw	low _dbuf
  2395   00750A  2429               	addwf	xtoa@i^0,w,c
  2396   00750C  6ED9               	movwf	fsr2l,c
  2397   00750E  0E00               	movlw	high _dbuf
  2398   007510  202A               	addwfc	(xtoa@i+1)^0,w,c
  2399   007512  6EDA               	movwf	fsr2h,c
  2400   007514  C02B  FFDF         	movff	xtoa@c,indf2
  2401   007518                     
  2402                           ;/Applications/microchip/xc8/v2.41/pic/sources/c99/common/doprnt.c: 1001:         --p;
  2403   007518  0627               	decf	xtoa@p^0,f,c
  2404   00751A  A0D8               	btfss	status,0,c
  2405   00751C  0628               	decf	(xtoa@p+1)^0,f,c
  2406   00751E                     
  2407                           ;/Applications/microchip/xc8/v2.41/pic/sources/c99/common/doprnt.c: 1002:         --w;
  2408   00751E  0623               	decf	xtoa@w^0,f,c
  2409   007520  A0D8               	btfss	status,0,c
  2410   007522  0624               	decf	(xtoa@w+1)^0,f,c
  2411   007524                     
  2412                           ;/Applications/microchip/xc8/v2.41/pic/sources/c99/common/doprnt.c: 1003:         d = d 
      +                          >> 4;
  2413   007524  C01E  F020         	movff	xtoa@d,??_xtoa
  2414   007528  C01F  F021         	movff	xtoa@d+1,??_xtoa+1
  2415   00752C  0E04               	movlw	4
  2416   00752E  6E22               	movwf	(??_xtoa+2)^0,c
  2417   007530                     u775:
  2418   007530  90D8               	bcf	status,0,c
  2419   007532  3221               	rrcf	(??_xtoa+1)^0,f,c
  2420   007534  3220               	rrcf	??_xtoa^0,f,c
  2421   007536  2E22               	decfsz	(??_xtoa+2)^0,f,c
  2422   007538  EF98  F03A         	goto	u775
  2423   00753C  C020  F01E         	movff	??_xtoa,xtoa@d
  2424   007540  C021  F01F         	movff	??_xtoa+1,xtoa@d+1
  2425   007544                     l1844:
  2426                           
  2427                           ;/Applications/microchip/xc8/v2.41/pic/sources/c99/common/doprnt.c: 983:     while (!(i 
      +                          < 2) && (d || (0 < p)
  2428   007544  BE2A               	btfsc	(xtoa@i+1)^0,7,c
  2429   007546  EFAE  F03A         	goto	u781
  2430   00754A  502A               	movf	(xtoa@i+1)^0,w,c
  2431   00754C  E109               	bnz	u780
  2432   00754E  0E02               	movlw	2
  2433   007550  5C29               	subwf	xtoa@i^0,w,c
  2434   007552  A0D8               	btfss	status,0,c
  2435   007554  EFAE  F03A         	goto	u781
  2436   007558  EFB0  F03A         	goto	u780
  2437   00755C                     u781:
  2438   00755C  EFC6  F03A         	goto	l1850
  2439   007560                     u780:
  2440   007560  501E               	movf	xtoa@d^0,w,c
  2441   007562  101F               	iorwf	(xtoa@d+1)^0,w,c
  2442   007564  A4D8               	btfss	status,2,c
  2443   007566  EFB7  F03A         	goto	u791
  2444   00756A  EFB9  F03A         	goto	u790
  2445   00756E                     u791:
  2446   00756E  EF66  F03A         	goto	l1824
  2447   007572                     u790:
  2448   007572  BE28               	btfsc	(xtoa@p+1)^0,7,c
  2449   007574  EFC6  F03A         	goto	u800
  2450   007578  5028               	movf	(xtoa@p+1)^0,w,c
  2451   00757A  E106               	bnz	u801
  2452   00757C  0427               	decf	xtoa@p^0,w,c
  2453   00757E  B0D8               	btfsc	status,0,c
  2454   007580  EFC4  F03A         	goto	u801
  2455   007584  EFC6  F03A         	goto	u800
  2456   007588                     u801:
  2457   007588  EF66  F03A         	goto	l1824
  2458   00758C                     u800:
  2459   00758C                     l1850:
  2460                           
  2461                           ;/Applications/microchip/xc8/v2.41/pic/sources/c99/common/doprnt.c: 1023:     return (vo
      +                          id) pad(fp, &dbuf[i], w);
  2462   00758C  C01C  F011         	movff	xtoa@fp,pad@fp
  2463   007590  C01D  F012         	movff	xtoa@fp+1,pad@fp+1
  2464   007594  0E73               	movlw	low _dbuf
  2465   007596  2429               	addwf	xtoa@i^0,w,c
  2466   007598  6E13               	movwf	pad@buf^0,c
  2467   00759A  0E00               	movlw	high _dbuf
  2468   00759C  202A               	addwfc	(xtoa@i+1)^0,w,c
  2469   00759E  6E14               	movwf	(pad@buf+1)^0,c
  2470   0075A0  C023  F015         	movff	xtoa@w,pad@p
  2471   0075A4  C024  F016         	movff	xtoa@w+1,pad@p+1
  2472   0075A8  EC86  F037         	call	_pad	;wreg free
  2473   0075AC  0012               	return		;funcret
  2474   0075AE                     __end_of_xtoa:
  2475                           	callstack 0
  2476                           
  2477 ;; *************** function _pad *****************
  2478 ;; Defined at:
  2479 ;;		line 152 in file "/Applications/microchip/xc8/v2.41/pic/sources/c99/common/doprnt.c"
  2480 ;; Parameters:    Size  Location     Type
  2481 ;;  fp              2   16[COMRAM] PTR struct _IO_FILE
  2482 ;;		 -> sprintf@f(12), 
  2483 ;;  buf             2   18[COMRAM] PTR unsigned char 
  2484 ;;		 -> dbuf(32), 
  2485 ;;  p               2   20[COMRAM] int 
  2486 ;; Auto vars:     Size  Location     Type
  2487 ;;  w               2   25[COMRAM] int 
  2488 ;;  i               2   23[COMRAM] int 
  2489 ;; Return value:  Size  Location     Type
  2490 ;;                  1    wreg      void 
  2491 ;; Registers used:
  2492 ;;		wreg, fsr1l, fsr1h, fsr2l, fsr2h, status,2, status,0, cstack
  2493 ;; Tracked objects:
  2494 ;;		On entry : 0/0
  2495 ;;		On exit  : 0/0
  2496 ;;		Unchanged: 0/0
  2497 ;; Data sizes:     COMRAM   BANK0   BANK1   BANK2   BANK3   BANK4   BANK5   BANK6   BANK7
  2498 ;;      Params:         6       0       0       0       0       0       0       0       0
  2499 ;;      Locals:         4       0       0       0       0       0       0       0       0
  2500 ;;      Temps:          1       0       0       0       0       0       0       0       0
  2501 ;;      Totals:        11       0       0       0       0       0       0       0       0
  2502 ;;Total ram usage:       11 bytes
  2503 ;; Hardware stack levels used: 1
  2504 ;; Hardware stack levels required when called: 3
  2505 ;; This function calls:
  2506 ;;		_fputc
  2507 ;;		_fputs
  2508 ;; This function is called by:
  2509 ;;		_xtoa
  2510 ;; This function uses a non-reentrant model
  2511 ;;
  2512                           
  2513                           	psect	text8
  2514   006F0C                     __ptext8:
  2515                           	callstack 0
  2516   006F0C                     _pad:
  2517                           	callstack 21
  2518   006F0C                     
  2519                           ;/Applications/microchip/xc8/v2.41/pic/sources/c99/common/doprnt.c: 152: static void pad
      +                          (FILE *fp, char *buf, int p);/Applications/microchip/xc8/v2.41/pic/sources/c99/common/do
      +                          prnt.c: 153: {;/Applications/microchip/xc8/v2.41/pic/sources/c99/common/doprnt.c: 154:  
      +                             int i, w;;/Applications/microchip/xc8/v2.41/pic/sources/c99/common/doprnt.c: 164:    
      +                           w = (p < 0) ? 0 : p;
  2520   006F0C  BE16               	btfsc	(pad@p+1)^0,7,c
  2521   006F0E  EF8B  F037         	goto	u711
  2522   006F12  EF8D  F037         	goto	u710
  2523   006F16                     u711:
  2524   006F16  EF93  F037         	goto	l1790
  2525   006F1A                     u710:
  2526   006F1A  C015  F01A         	movff	pad@p,pad@w
  2527   006F1E  C016  F01B         	movff	pad@p+1,pad@w+1
  2528   006F22  EF97  F037         	goto	l1047
  2529   006F26                     l1790:
  2530   006F26  0E00               	movlw	0
  2531   006F28  6E1B               	movwf	(pad@w+1)^0,c
  2532   006F2A  0E00               	movlw	0
  2533   006F2C  6E1A               	movwf	pad@w^0,c
  2534   006F2E                     l1047:
  2535                           
  2536                           ;/Applications/microchip/xc8/v2.41/pic/sources/c99/common/doprnt.c: 165:     i = 0;
  2537   006F2E  0E00               	movlw	0
  2538   006F30  6E19               	movwf	(pad@i+1)^0,c
  2539   006F32  0E00               	movlw	0
  2540   006F34  6E18               	movwf	pad@i^0,c
  2541                           
  2542                           ;/Applications/microchip/xc8/v2.41/pic/sources/c99/common/doprnt.c: 166:     while (i < 
      +                          w) {
  2543   006F36  EFA9  F037         	goto	l1796
  2544   006F3A                     l1792:
  2545                           
  2546                           ;/Applications/microchip/xc8/v2.41/pic/sources/c99/common/doprnt.c: 167:         fputc('
      +                           ', fp);
  2547   006F3A  0E00               	movlw	0
  2548   006F3C  6E02               	movwf	(fputc@c+1)^0,c
  2549   006F3E  0E20               	movlw	32
  2550   006F40  6E01               	movwf	fputc@c^0,c
  2551   006F42  C011  F003         	movff	pad@fp,fputc@fp
  2552   006F46  C012  F004         	movff	pad@fp+1,fputc@fp+1
  2553   006F4A  EC5A  F039         	call	_fputc	;wreg free
  2554   006F4E                     
  2555                           ;/Applications/microchip/xc8/v2.41/pic/sources/c99/common/doprnt.c: 168:         ++i;
  2556   006F4E  4A18               	infsnz	pad@i^0,f,c
  2557   006F50  2A19               	incf	(pad@i+1)^0,f,c
  2558   006F52                     l1796:
  2559                           
  2560                           ;/Applications/microchip/xc8/v2.41/pic/sources/c99/common/doprnt.c: 166:     while (i < 
      +                          w) {
  2561   006F52  501A               	movf	pad@w^0,w,c
  2562   006F54  5C18               	subwf	pad@i^0,w,c
  2563   006F56  5019               	movf	(pad@i+1)^0,w,c
  2564   006F58  0A80               	xorlw	128
  2565   006F5A  6E17               	movwf	??_pad^0,c
  2566   006F5C  501B               	movf	(pad@w+1)^0,w,c
  2567   006F5E  0A80               	xorlw	128
  2568   006F60  5817               	subwfb	??_pad^0,w,c
  2569   006F62  A0D8               	btfss	status,0,c
  2570   006F64  EFB6  F037         	goto	u721
  2571   006F68  EFB8  F037         	goto	u720
  2572   006F6C                     u721:
  2573   006F6C  EF9D  F037         	goto	l1792
  2574   006F70                     u720:
  2575   006F70                     
  2576                           ;/Applications/microchip/xc8/v2.41/pic/sources/c99/common/doprnt.c: 175:         fputs((
      +                          const char *)buf, fp);
  2577   006F70  C013  F00A         	movff	pad@buf,fputs@s
  2578   006F74  C014  F00B         	movff	pad@buf+1,fputs@s+1
  2579   006F78  C011  F00C         	movff	pad@fp,fputs@fp
  2580   006F7C  C012  F00D         	movff	pad@fp+1,fputs@fp+1
  2581   006F80  EC01  F036         	call	_fputs	;wreg free
  2582   006F84  0012               	return		;funcret
  2583   006F86                     __end_of_pad:
  2584                           	callstack 0
  2585                           
  2586 ;; *************** function _fputs *****************
  2587 ;; Defined at:
  2588 ;;		line 8 in file "/Applications/microchip/xc8/v2.41/pic/sources/c99/common/nf_fputs.c"
  2589 ;; Parameters:    Size  Location     Type
  2590 ;;  s               2    9[COMRAM] PTR const unsigned char 
  2591 ;;		 -> dbuf(32), 
  2592 ;;  fp              2   11[COMRAM] PTR struct _IO_FILE
  2593 ;;		 -> sprintf@f(12), 
  2594 ;; Auto vars:     Size  Location     Type
  2595 ;;  i               2   14[COMRAM] int 
  2596 ;;  c               1   13[COMRAM] unsigned char 
  2597 ;; Return value:  Size  Location     Type
  2598 ;;                  2    9[COMRAM] int 
  2599 ;; Registers used:
  2600 ;;		wreg, fsr1l, fsr1h, fsr2l, fsr2h, status,2, status,0, cstack
  2601 ;; Tracked objects:
  2602 ;;		On entry : 0/0
  2603 ;;		On exit  : 0/0
  2604 ;;		Unchanged: 0/0
  2605 ;; Data sizes:     COMRAM   BANK0   BANK1   BANK2   BANK3   BANK4   BANK5   BANK6   BANK7
  2606 ;;      Params:         4       0       0       0       0       0       0       0       0
  2607 ;;      Locals:         3       0       0       0       0       0       0       0       0
  2608 ;;      Temps:          0       0       0       0       0       0       0       0       0
  2609 ;;      Totals:         7       0       0       0       0       0       0       0       0
  2610 ;;Total ram usage:        7 bytes
  2611 ;; Hardware stack levels used: 1
  2612 ;; Hardware stack levels required when called: 2
  2613 ;; This function calls:
  2614 ;;		_fputc
  2615 ;; This function is called by:
  2616 ;;		_pad
  2617 ;; This function uses a non-reentrant model
  2618 ;;
  2619                           
  2620                           	psect	text9
  2621   006C02                     __ptext9:
  2622                           	callstack 0
  2623   006C02                     _fputs:
  2624                           	callstack 21
  2625   006C02  0E00               	movlw	0
  2626   006C04  6E10               	movwf	(fputs@i+1)^0,c
  2627   006C06  0E00               	movlw	0
  2628   006C08  6E0F               	movwf	fputs@i^0,c
  2629   006C0A  EF12  F036         	goto	l1784
  2630   006C0E                     l1780:
  2631   006C0E  C00E  F001         	movff	fputs@c,fputc@c
  2632   006C12  6A02               	clrf	(fputc@c+1)^0,c
  2633   006C14  C00C  F003         	movff	fputs@fp,fputc@fp
  2634   006C18  C00D  F004         	movff	fputs@fp+1,fputc@fp+1
  2635   006C1C  EC5A  F039         	call	_fputc	;wreg free
  2636   006C20  4A0F               	infsnz	fputs@i^0,f,c
  2637   006C22  2A10               	incf	(fputs@i+1)^0,f,c
  2638   006C24                     l1784:
  2639   006C24  500F               	movf	fputs@i^0,w,c
  2640   006C26  240A               	addwf	fputs@s^0,w,c
  2641   006C28  6ED9               	movwf	fsr2l,c
  2642   006C2A  5010               	movf	(fputs@i+1)^0,w,c
  2643   006C2C  200B               	addwfc	(fputs@s+1)^0,w,c
  2644   006C2E  6EDA               	movwf	fsr2h,c
  2645   006C30  50DF               	movf	indf2,w,c
  2646   006C32  6E0E               	movwf	fputs@c^0,c
  2647   006C34  500E               	movf	fputs@c^0,w,c
  2648   006C36  A4D8               	btfss	status,2,c
  2649   006C38  EF20  F036         	goto	u701
  2650   006C3C  EF22  F036         	goto	u700
  2651   006C40                     u701:
  2652   006C40  EF07  F036         	goto	l1780
  2653   006C44                     u700:
  2654   006C44  0012               	return		;funcret
  2655   006C46                     __end_of_fputs:
  2656                           	callstack 0
  2657                           
  2658 ;; *************** function _fputc *****************
  2659 ;; Defined at:
  2660 ;;		line 8 in file "/Applications/microchip/xc8/v2.41/pic/sources/c99/common/nf_fputc.c"
  2661 ;; Parameters:    Size  Location     Type
  2662 ;;  c               2    0[COMRAM] int 
  2663 ;;  fp              2    2[COMRAM] PTR struct _IO_FILE
  2664 ;;		 -> sprintf@f(12), 
  2665 ;; Auto vars:     Size  Location     Type
  2666 ;;		None
  2667 ;; Return value:  Size  Location     Type
  2668 ;;                  2    0[COMRAM] int 
  2669 ;; Registers used:
  2670 ;;		wreg, fsr1l, fsr1h, fsr2l, fsr2h, status,2, status,0, cstack
  2671 ;; Tracked objects:
  2672 ;;		On entry : 0/0
  2673 ;;		On exit  : 0/0
  2674 ;;		Unchanged: 0/0
  2675 ;; Data sizes:     COMRAM   BANK0   BANK1   BANK2   BANK3   BANK4   BANK5   BANK6   BANK7
  2676 ;;      Params:         4       0       0       0       0       0       0       0       0
  2677 ;;      Locals:         0       0       0       0       0       0       0       0       0
  2678 ;;      Temps:          5       0       0       0       0       0       0       0       0
  2679 ;;      Totals:         9       0       0       0       0       0       0       0       0
  2680 ;;Total ram usage:        9 bytes
  2681 ;; Hardware stack levels used: 1
  2682 ;; Hardware stack levels required when called: 1
  2683 ;; This function calls:
  2684 ;;		_putch
  2685 ;; This function is called by:
  2686 ;;		_pad
  2687 ;;		_vfpfcnvrt
  2688 ;;		_fputs
  2689 ;; This function uses a non-reentrant model
  2690 ;;
  2691                           
  2692                           	psect	text10
  2693   0072B4                     __ptext10:
  2694                           	callstack 0
  2695   0072B4                     _fputc:
  2696                           	callstack 21
  2697   0072B4  5003               	movf	fputc@fp^0,w,c
  2698   0072B6  1004               	iorwf	(fputc@fp+1)^0,w,c
  2699   0072B8  B4D8               	btfsc	status,2,c
  2700   0072BA  EF61  F039         	goto	u661
  2701   0072BE  EF63  F039         	goto	u660
  2702   0072C2                     u661:
  2703   0072C2  EF6C  F039         	goto	l1768
  2704   0072C6                     u660:
  2705   0072C6  5003               	movf	fputc@fp^0,w,c
  2706   0072C8  1004               	iorwf	(fputc@fp+1)^0,w,c
  2707   0072CA  A4D8               	btfss	status,2,c
  2708   0072CC  EF6A  F039         	goto	u671
  2709   0072D0  EF6C  F039         	goto	u670
  2710   0072D4                     u671:
  2711   0072D4  EF71  F039         	goto	l1770
  2712   0072D8                     u670:
  2713   0072D8                     l1768:
  2714   0072D8  5001               	movf	fputc@c^0,w,c
  2715   0072DA  EC40  F035         	call	_putch
  2716   0072DE  EFBE  F039         	goto	l1095
  2717   0072E2                     l1770:
  2718   0072E2  EE20 F00A          	lfsr	2,10
  2719   0072E6  5003               	movf	fputc@fp^0,w,c
  2720   0072E8  26D9               	addwf	fsr2l,f,c
  2721   0072EA  5004               	movf	(fputc@fp+1)^0,w,c
  2722   0072EC  22DA               	addwfc	fsr2h,f,c
  2723   0072EE  50DE               	movf	postinc2,w,c
  2724   0072F0  10DE               	iorwf	postinc2,w,c
  2725   0072F2  B4D8               	btfsc	status,2,c
  2726   0072F4  EF7E  F039         	goto	u681
  2727   0072F8  EF80  F039         	goto	u680
  2728   0072FC                     u681:
  2729   0072FC  EF9B  F039         	goto	l1774
  2730   007300                     u680:
  2731   007300  EE20 F00A          	lfsr	2,10
  2732   007304  5003               	movf	fputc@fp^0,w,c
  2733   007306  26D9               	addwf	fsr2l,f,c
  2734   007308  5004               	movf	(fputc@fp+1)^0,w,c
  2735   00730A  22DA               	addwfc	fsr2h,f,c
  2736   00730C  EE10 F003          	lfsr	1,3
  2737   007310  5003               	movf	fputc@fp^0,w,c
  2738   007312  26E1               	addwf	fsr1l,f,c
  2739   007314  5004               	movf	(fputc@fp+1)^0,w,c
  2740   007316  22E2               	addwfc	fsr1h,f,c
  2741   007318  50DE               	movf	postinc2,w,c
  2742   00731A  5CE6               	subwf	postinc1,w,c
  2743   00731C  50E6               	movf	postinc1,w,c
  2744   00731E  0A80               	xorlw	128
  2745   007320  6E09               	movwf	(??_fputc+4)^0,c
  2746   007322  50DE               	movf	postinc2,w,c
  2747   007324  0A80               	xorlw	128
  2748   007326  5809               	subwfb	(??_fputc+4)^0,w,c
  2749   007328  B0D8               	btfsc	status,0,c
  2750   00732A  EF99  F039         	goto	u691
  2751   00732E  EF9B  F039         	goto	u690
  2752   007332                     u691:
  2753   007332  EFBE  F039         	goto	l1095
  2754   007336                     u690:
  2755   007336                     l1774:
  2756   007336  EE20 F003          	lfsr	2,3
  2757   00733A  5003               	movf	fputc@fp^0,w,c
  2758   00733C  26D9               	addwf	fsr2l,f,c
  2759   00733E  5004               	movf	(fputc@fp+1)^0,w,c
  2760   007340  22DA               	addwfc	fsr2h,f,c
  2761   007342  CFDE F005          	movff	postinc2,??_fputc
  2762   007346  CFDD F006          	movff	postdec2,??_fputc+1
  2763   00734A  C003  FFD9         	movff	fputc@fp,fsr2l
  2764   00734E  C004  FFDA         	movff	fputc@fp+1,fsr2h
  2765   007352  CFDE F007          	movff	postinc2,??_fputc+2
  2766   007356  CFDD F008          	movff	postdec2,??_fputc+3
  2767   00735A  5005               	movf	??_fputc^0,w,c
  2768   00735C  2407               	addwf	(??_fputc+2)^0,w,c
  2769   00735E  6ED9               	movwf	fsr2l,c
  2770   007360  5006               	movf	(??_fputc+1)^0,w,c
  2771   007362  2008               	addwfc	(??_fputc+3)^0,w,c
  2772   007364  6EDA               	movwf	fsr2h,c
  2773   007366  C001  FFDF         	movff	fputc@c,indf2
  2774   00736A  EE20 F003          	lfsr	2,3
  2775   00736E  5003               	movf	fputc@fp^0,w,c
  2776   007370  26D9               	addwf	fsr2l,f,c
  2777   007372  5004               	movf	(fputc@fp+1)^0,w,c
  2778   007374  22DA               	addwfc	fsr2h,f,c
  2779   007376  2ADE               	incf	postinc2,f,c
  2780   007378  0E00               	movlw	0
  2781   00737A  22DD               	addwfc	postdec2,f,c
  2782   00737C                     l1095:
  2783   00737C  0012               	return		;funcret
  2784   00737E                     __end_of_fputc:
  2785                           	callstack 0
  2786                           
  2787 ;; *************** function _putch *****************
  2788 ;; Defined at:
  2789 ;;		line 7 in file "/Applications/microchip/xc8/v2.41/pic/sources/c99/common/putch.c"
  2790 ;; Parameters:    Size  Location     Type
  2791 ;;  c               1    wreg     unsigned char 
  2792 ;; Auto vars:     Size  Location     Type
  2793 ;;  c               1    0[COMRAM] unsigned char 
  2794 ;; Return value:  Size  Location     Type
  2795 ;;                  1    wreg      void 
  2796 ;; Registers used:
  2797 ;;		wreg
  2798 ;; Tracked objects:
  2799 ;;		On entry : 0/0
  2800 ;;		On exit  : 0/0
  2801 ;;		Unchanged: 0/0
  2802 ;; Data sizes:     COMRAM   BANK0   BANK1   BANK2   BANK3   BANK4   BANK5   BANK6   BANK7
  2803 ;;      Params:         0       0       0       0       0       0       0       0       0
  2804 ;;      Locals:         0       0       0       0       0       0       0       0       0
  2805 ;;      Temps:          0       0       0       0       0       0       0       0       0
  2806 ;;      Totals:         0       0       0       0       0       0       0       0       0
  2807 ;;Total ram usage:        0 bytes
  2808 ;; Hardware stack levels used: 1
  2809 ;; This function calls:
  2810 ;;		Nothing
  2811 ;; This function is called by:
  2812 ;;		_fputc
  2813 ;; This function uses a non-reentrant model
  2814 ;;
  2815                           
  2816                           	psect	text11
  2817   006A80                     __ptext11:
  2818                           	callstack 0
  2819   006A80                     _putch:
  2820                           	callstack 21
  2821   006A80  0012               	return		;funcret
  2822   006A82                     __end_of_putch:
  2823                           	callstack 0
  2824                           
  2825 ;; *************** function _RTC_Read_Calendar *****************
  2826 ;; Defined at:
  2827 ;;		line 442 in file "main_piee2.c"
  2828 ;; Parameters:    Size  Location     Type
  2829 ;;  read_calenda    1    wreg     unsigned char 
  2830 ;; Auto vars:     Size  Location     Type
  2831 ;;  read_calenda    1    3[COMRAM] unsigned char 
  2832 ;; Return value:  Size  Location     Type
  2833 ;;                  1    wreg      void 
  2834 ;; Registers used:
  2835 ;;		wreg, status,2, status,0, cstack
  2836 ;; Tracked objects:
  2837 ;;		On entry : 0/0
  2838 ;;		On exit  : 0/0
  2839 ;;		Unchanged: 0/0
  2840 ;; Data sizes:     COMRAM   BANK0   BANK1   BANK2   BANK3   BANK4   BANK5   BANK6   BANK7
  2841 ;;      Params:         0       0       0       0       0       0       0       0       0
  2842 ;;      Locals:         1       0       0       0       0       0       0       0       0
  2843 ;;      Temps:          1       0       0       0       0       0       0       0       0
  2844 ;;      Totals:         2       0       0       0       0       0       0       0       0
  2845 ;;Total ram usage:        2 bytes
  2846 ;; Hardware stack levels used: 1
  2847 ;; Hardware stack levels required when called: 2
  2848 ;; This function calls:
  2849 ;;		_I2C_Read
  2850 ;;		_I2C_Start
  2851 ;;		_I2C_Stop
  2852 ;;		_I2C_Write
  2853 ;; This function is called by:
  2854 ;;		_atualiza_data
  2855 ;; This function uses a non-reentrant model
  2856 ;;
  2857                           
  2858                           	psect	text12
  2859   006E0A                     __ptext12:
  2860                           	callstack 0
  2861   006E0A                     _RTC_Read_Calendar:
  2862                           	callstack 26
  2863                           
  2864                           ;incstack = 0
  2865                           ;RTC_Read_Calendar@read_calendar_address stored from wreg
  2866   006E0A  6E04               	movwf	RTC_Read_Calendar@read_calendar_address^0,c
  2867   006E0C                     
  2868                           ;main_piee2.c: 442: void RTC_Read_Calendar(char read_calendar_address);main_piee2.c: 443
      +                          : {;main_piee2.c: 445:     I2C_Start();
  2869   006E0C  EC4F  F035         	call	_I2C_Start	;wreg free
  2870   006E10                     
  2871                           ;main_piee2.c: 446:     I2C_Write(read_calendar_address);
  2872   006E10  5004               	movf	RTC_Read_Calendar@read_calendar_address^0,w,c
  2873   006E12  EC7F  F035         	call	_I2C_Write
  2874   006E16                     
  2875                           ;main_piee2.c: 448:     Day = I2C_Read(0);
  2876   006E16  0E00               	movlw	0
  2877   006E18  ECA4  F035         	call	_I2C_Read
  2878   006E1C  6E03               	movwf	??_RTC_Read_Calendar^0,c
  2879   006E1E  5003               	movf	??_RTC_Read_Calendar^0,w,c
  2880   006E20  0100               	movlb	0	; () banked
  2881   006E22  6F6C               	movwf	_Day& (0+255),b
  2882   006E24  6B6D               	clrf	(_Day+1)& (0+255),b
  2883   006E26                     
  2884                           ; BSR set to: 0
  2885                           ;main_piee2.c: 449:     Date = I2C_Read(0);
  2886   006E26  0E00               	movlw	0
  2887   006E28  ECA4  F035         	call	_I2C_Read
  2888   006E2C  6E03               	movwf	??_RTC_Read_Calendar^0,c
  2889   006E2E  5003               	movf	??_RTC_Read_Calendar^0,w,c
  2890   006E30  0100               	movlb	0	; () banked
  2891   006E32  6F6A               	movwf	_Date& (0+255),b
  2892   006E34  6B6B               	clrf	(_Date+1)& (0+255),b
  2893   006E36                     
  2894                           ; BSR set to: 0
  2895                           ;main_piee2.c: 450:     Month = I2C_Read(0);
  2896   006E36  0E00               	movlw	0
  2897   006E38  ECA4  F035         	call	_I2C_Read
  2898   006E3C  6E03               	movwf	??_RTC_Read_Calendar^0,c
  2899   006E3E  5003               	movf	??_RTC_Read_Calendar^0,w,c
  2900   006E40  0100               	movlb	0	; () banked
  2901   006E42  6F68               	movwf	_Month& (0+255),b
  2902   006E44  6B69               	clrf	(_Month+1)& (0+255),b
  2903   006E46                     
  2904                           ; BSR set to: 0
  2905                           ;main_piee2.c: 451:     Year = I2C_Read(1);
  2906   006E46  0E01               	movlw	1
  2907   006E48  ECA4  F035         	call	_I2C_Read
  2908   006E4C  6E03               	movwf	??_RTC_Read_Calendar^0,c
  2909   006E4E  5003               	movf	??_RTC_Read_Calendar^0,w,c
  2910   006E50  0100               	movlb	0	; () banked
  2911   006E52  6F66               	movwf	_Year& (0+255),b
  2912   006E54  6B67               	clrf	(_Year+1)& (0+255),b
  2913   006E56                     
  2914                           ; BSR set to: 0
  2915                           ;main_piee2.c: 452:     I2C_Stop();
  2916   006E56  EC58  F035         	call	_I2C_Stop	;wreg free
  2917   006E5A  0012               	return		;funcret
  2918   006E5C                     __end_of_RTC_Read_Calendar:
  2919                           	callstack 0
  2920                           
  2921 ;; *************** function _I2C_Write *****************
  2922 ;; Defined at:
  2923 ;;		line 120 in file "i2c.c"
  2924 ;; Parameters:    Size  Location     Type
  2925 ;;  v_i2cData_u8    1    wreg     unsigned char 
  2926 ;; Auto vars:     Size  Location     Type
  2927 ;;  v_i2cData_u8    1    0[COMRAM] unsigned char 
  2928 ;; Return value:  Size  Location     Type
  2929 ;;                  1    wreg      void 
  2930 ;; Registers used:
  2931 ;;		wreg, cstack
  2932 ;; Tracked objects:
  2933 ;;		On entry : 0/0
  2934 ;;		On exit  : 0/0
  2935 ;;		Unchanged: 0/0
  2936 ;; Data sizes:     COMRAM   BANK0   BANK1   BANK2   BANK3   BANK4   BANK5   BANK6   BANK7
  2937 ;;      Params:         0       0       0       0       0       0       0       0       0
  2938 ;;      Locals:         1       0       0       0       0       0       0       0       0
  2939 ;;      Temps:          0       0       0       0       0       0       0       0       0
  2940 ;;      Totals:         1       0       0       0       0       0       0       0       0
  2941 ;;Total ram usage:        1 bytes
  2942 ;; Hardware stack levels used: 1
  2943 ;; Hardware stack levels required when called: 1
  2944 ;; This function calls:
  2945 ;;		_i2c_WaitForIdle
  2946 ;; This function is called by:
  2947 ;;		_RTC_Read_Clock
  2948 ;;		_RTC_Read_Calendar
  2949 ;; This function uses a non-reentrant model
  2950 ;;
  2951                           
  2952                           	psect	text13
  2953   006AFE                     __ptext13:
  2954                           	callstack 0
  2955   006AFE                     _I2C_Write:
  2956                           	callstack 28
  2957                           
  2958                           ;incstack = 0
  2959                           ;I2C_Write@v_i2cData_u8 stored from wreg
  2960   006AFE  6E01               	movwf	I2C_Write@v_i2cData_u8^0,c
  2961   006B00                     
  2962                           ;i2c.c: 120: void I2C_Write(uint8_t v_i2cData_u8);i2c.c: 121: {;i2c.c: 124:     SSPBUF =
      +                           v_i2cData_u8;
  2963   006B00  C001  FFC9         	movff	I2C_Write@v_i2cData_u8,4041	;volatile
  2964   006B04                     l270:
  2965   006B04  B0C7               	btfsc	4039,0,c	;volatile
  2966   006B06  EF87  F035         	goto	u921
  2967   006B0A  EF89  F035         	goto	u920
  2968   006B0E                     u921:
  2969   006B0E  EF82  F035         	goto	l270
  2970   006B12                     u920:
  2971   006B12                     
  2972                           ;i2c.c: 126:     i2c_WaitForIdle();
  2973   006B12  EC23  F036         	call	_i2c_WaitForIdle	;wreg free
  2974   006B16  0012               	return		;funcret
  2975   006B18                     __end_of_I2C_Write:
  2976                           	callstack 0
  2977                           
  2978 ;; *************** function _I2C_Stop *****************
  2979 ;; Defined at:
  2980 ;;		line 96 in file "i2c.c"
  2981 ;; Parameters:    Size  Location     Type
  2982 ;;		None
  2983 ;; Auto vars:     Size  Location     Type
  2984 ;;		None
  2985 ;; Return value:  Size  Location     Type
  2986 ;;                  1    wreg      void 
  2987 ;; Registers used:
  2988 ;;		None
  2989 ;; Tracked objects:
  2990 ;;		On entry : 0/0
  2991 ;;		On exit  : 0/0
  2992 ;;		Unchanged: 0/0
  2993 ;; Data sizes:     COMRAM   BANK0   BANK1   BANK2   BANK3   BANK4   BANK5   BANK6   BANK7
  2994 ;;      Params:         0       0       0       0       0       0       0       0       0
  2995 ;;      Locals:         0       0       0       0       0       0       0       0       0
  2996 ;;      Temps:          0       0       0       0       0       0       0       0       0
  2997 ;;      Totals:         0       0       0       0       0       0       0       0       0
  2998 ;;Total ram usage:        0 bytes
  2999 ;; Hardware stack levels used: 1
  3000 ;; This function calls:
  3001 ;;		Nothing
  3002 ;; This function is called by:
  3003 ;;		_main
  3004 ;;		_RTC_Read_Calendar
  3005 ;;		_atualiza_data
  3006 ;; This function uses a non-reentrant model
  3007 ;;
  3008                           
  3009                           	psect	text14
  3010   006AB0                     __ptext14:
  3011                           	callstack 0
  3012   006AB0                     _I2C_Stop:
  3013                           	callstack 27
  3014   006AB0                     
  3015                           ;i2c.c: 98:  PEN = 1;
  3016   006AB0  84C5               	bsf	4037,2,c	;volatile
  3017   006AB2                     l264:
  3018   006AB2  B4C5               	btfsc	4037,2,c	;volatile
  3019   006AB4  EF5E  F035         	goto	u901
  3020   006AB8  EF60  F035         	goto	u900
  3021   006ABC                     u901:
  3022   006ABC  EF59  F035         	goto	l264
  3023   006AC0                     u900:
  3024   006AC0  0012               	return		;funcret
  3025   006AC2                     __end_of_I2C_Stop:
  3026                           	callstack 0
  3027                           
  3028 ;; *************** function _I2C_Start *****************
  3029 ;; Defined at:
  3030 ;;		line 72 in file "i2c.c"
  3031 ;; Parameters:    Size  Location     Type
  3032 ;;		None
  3033 ;; Auto vars:     Size  Location     Type
  3034 ;;		None
  3035 ;; Return value:  Size  Location     Type
  3036 ;;                  1    wreg      void 
  3037 ;; Registers used:
  3038 ;;		None
  3039 ;; Tracked objects:
  3040 ;;		On entry : 0/0
  3041 ;;		On exit  : 0/0
  3042 ;;		Unchanged: 0/0
  3043 ;; Data sizes:     COMRAM   BANK0   BANK1   BANK2   BANK3   BANK4   BANK5   BANK6   BANK7
  3044 ;;      Params:         0       0       0       0       0       0       0       0       0
  3045 ;;      Locals:         0       0       0       0       0       0       0       0       0
  3046 ;;      Temps:          0       0       0       0       0       0       0       0       0
  3047 ;;      Totals:         0       0       0       0       0       0       0       0       0
  3048 ;;Total ram usage:        0 bytes
  3049 ;; Hardware stack levels used: 1
  3050 ;; This function calls:
  3051 ;;		Nothing
  3052 ;; This function is called by:
  3053 ;;		_RTC_Read_Clock
  3054 ;;		_RTC_Read_Calendar
  3055 ;; This function uses a non-reentrant model
  3056 ;;
  3057                           
  3058                           	psect	text15
  3059   006A9E                     __ptext15:
  3060                           	callstack 0
  3061   006A9E                     _I2C_Start:
  3062                           	callstack 29
  3063   006A9E                     
  3064                           ;i2c.c: 74:  SSPCON2bits.SEN = 1;
  3065   006A9E  80C5               	bsf	197,0,c	;volatile
  3066   006AA0                     l258:
  3067   006AA0  B0C5               	btfsc	197,0,c	;volatile
  3068   006AA2  EF55  F035         	goto	u911
  3069   006AA6  EF57  F035         	goto	u910
  3070   006AAA                     u911:
  3071   006AAA  EF50  F035         	goto	l258
  3072   006AAE                     u910:
  3073   006AAE  0012               	return		;funcret
  3074   006AB0                     __end_of_I2C_Start:
  3075                           	callstack 0
  3076                           
  3077 ;; *************** function _I2C_Read *****************
  3078 ;; Defined at:
  3079 ;;		line 149 in file "i2c.c"
  3080 ;; Parameters:    Size  Location     Type
  3081 ;;  v_ackOption_    1    wreg     unsigned char 
  3082 ;; Auto vars:     Size  Location     Type
  3083 ;;  v_ackOption_    1    0[COMRAM] unsigned char 
  3084 ;;  v_i2cData_u8    1    1[COMRAM] unsigned char 
  3085 ;; Return value:  Size  Location     Type
  3086 ;;                  1    wreg      unsigned char 
  3087 ;; Registers used:
  3088 ;;		wreg, status,2, status,0, cstack
  3089 ;; Tracked objects:
  3090 ;;		On entry : 0/0
  3091 ;;		On exit  : 0/0
  3092 ;;		Unchanged: 0/0
  3093 ;; Data sizes:     COMRAM   BANK0   BANK1   BANK2   BANK3   BANK4   BANK5   BANK6   BANK7
  3094 ;;      Params:         0       0       0       0       0       0       0       0       0
  3095 ;;      Locals:         2       0       0       0       0       0       0       0       0
  3096 ;;      Temps:          0       0       0       0       0       0       0       0       0
  3097 ;;      Totals:         2       0       0       0       0       0       0       0       0
  3098 ;;Total ram usage:        2 bytes
  3099 ;; Hardware stack levels used: 1
  3100 ;; Hardware stack levels required when called: 1
  3101 ;; This function calls:
  3102 ;;		_i2c_Ack
  3103 ;;		_i2c_NoAck
  3104 ;;		_i2c_WaitForIdle
  3105 ;; This function is called by:
  3106 ;;		_RTC_Read_Clock
  3107 ;;		_RTC_Read_Calendar
  3108 ;; This function uses a non-reentrant model
  3109 ;;
  3110                           
  3111                           	psect	text16
  3112   006B48                     __ptext16:
  3113                           	callstack 0
  3114   006B48                     _I2C_Read:
  3115                           	callstack 28
  3116                           
  3117                           ;incstack = 0
  3118                           ;I2C_Read@v_ackOption_u8 stored from wreg
  3119   006B48  6E01               	movwf	I2C_Read@v_ackOption_u8^0,c
  3120   006B4A                     
  3121                           ;i2c.c: 153:  RCEN = 1;
  3122   006B4A  86C5               	bsf	4037,3,c	;volatile
  3123   006B4C                     l276:
  3124   006B4C  A0C7               	btfss	4039,0,c	;volatile
  3125   006B4E  EFAB  F035         	goto	u931
  3126   006B52  EFAD  F035         	goto	u930
  3127   006B56                     u931:
  3128   006B56  EFA6  F035         	goto	l276
  3129   006B5A                     u930:
  3130   006B5A                     
  3131                           ;i2c.c: 155:  v_i2cData_u8 = SSPBUF;
  3132   006B5A  CFC9 F002          	movff	4041,I2C_Read@v_i2cData_u8	;volatile
  3133   006B5E                     
  3134                           ;i2c.c: 156:  i2c_WaitForIdle();
  3135   006B5E  EC23  F036         	call	_i2c_WaitForIdle	;wreg free
  3136   006B62                     
  3137                           ;i2c.c: 158:  if(v_ackOption_u8==1)
  3138   006B62  0401               	decf	I2C_Read@v_ackOption_u8^0,w,c
  3139   006B64  A4D8               	btfss	status,2,c
  3140   006B66  EFB7  F035         	goto	u941
  3141   006B6A  EFB9  F035         	goto	u940
  3142   006B6E                     u941:
  3143   006B6E  EFBD  F035         	goto	l1942
  3144   006B72                     u940:
  3145   006B72                     
  3146                           ;i2c.c: 159:  {;i2c.c: 160:   i2c_Ack();
  3147   006B72  EC6B  F035         	call	_i2c_Ack	;wreg free
  3148                           
  3149                           ;i2c.c: 161:  }
  3150   006B76  EFBF  F035         	goto	l1944
  3151   006B7A                     l1942:
  3152                           
  3153                           ;i2c.c: 163:  {;i2c.c: 164:   i2c_NoAck();
  3154   006B7A  EC75  F035         	call	_i2c_NoAck	;wreg free
  3155   006B7E                     l1944:
  3156                           
  3157                           ;i2c.c: 167:  return v_i2cData_u8;
  3158   006B7E  5002               	movf	I2C_Read@v_i2cData_u8^0,w,c
  3159   006B80  0012               	return		;funcret
  3160   006B82                     __end_of_I2C_Read:
  3161                           	callstack 0
  3162                           
  3163 ;; *************** function _i2c_WaitForIdle *****************
  3164 ;; Defined at:
  3165 ;;		line 180 in file "i2c.c"
  3166 ;; Parameters:    Size  Location     Type
  3167 ;;		None
  3168 ;; Auto vars:     Size  Location     Type
  3169 ;;		None
  3170 ;; Return value:  Size  Location     Type
  3171 ;;                  1    wreg      void 
  3172 ;; Registers used:
  3173 ;;		None
  3174 ;; Tracked objects:
  3175 ;;		On entry : 0/0
  3176 ;;		On exit  : 0/0
  3177 ;;		Unchanged: 0/0
  3178 ;; Data sizes:     COMRAM   BANK0   BANK1   BANK2   BANK3   BANK4   BANK5   BANK6   BANK7
  3179 ;;      Params:         0       0       0       0       0       0       0       0       0
  3180 ;;      Locals:         0       0       0       0       0       0       0       0       0
  3181 ;;      Temps:          0       0       0       0       0       0       0       0       0
  3182 ;;      Totals:         0       0       0       0       0       0       0       0       0
  3183 ;;Total ram usage:        0 bytes
  3184 ;; Hardware stack levels used: 1
  3185 ;; This function calls:
  3186 ;;		Nothing
  3187 ;; This function is called by:
  3188 ;;		_I2C_Write
  3189 ;;		_I2C_Read
  3190 ;; This function uses a non-reentrant model
  3191 ;;
  3192                           
  3193                           	psect	text17
  3194   006C46                     __ptext17:
  3195                           	callstack 0
  3196   006C46                     _i2c_WaitForIdle:
  3197                           	callstack 28
  3198   006C46                     l284:
  3199   006C46  B0C5               	btfsc	4037,0,c	;volatile
  3200   006C48  EF28  F036         	goto	u811
  3201   006C4C  EF2A  F036         	goto	u810
  3202   006C50                     u811:
  3203   006C50  EF23  F036         	goto	l284
  3204   006C54                     u810:
  3205   006C54  B2C5               	btfsc	4037,1,c	;volatile
  3206   006C56  EF2F  F036         	goto	u821
  3207   006C5A  EF31  F036         	goto	u820
  3208   006C5E                     u821:
  3209   006C5E  EF23  F036         	goto	l284
  3210   006C62                     u820:
  3211   006C62  B4C5               	btfsc	4037,2,c	;volatile
  3212   006C64  EF36  F036         	goto	u831
  3213   006C68  EF38  F036         	goto	u830
  3214   006C6C                     u831:
  3215   006C6C  EF23  F036         	goto	l284
  3216   006C70                     u830:
  3217   006C70  B6C5               	btfsc	4037,3,c	;volatile
  3218   006C72  EF3D  F036         	goto	u841
  3219   006C76  EF3F  F036         	goto	u840
  3220   006C7A                     u841:
  3221   006C7A  EF23  F036         	goto	l284
  3222   006C7E                     u840:
  3223   006C7E  B4C7               	btfsc	4039,2,c	;volatile
  3224   006C80  EF44  F036         	goto	u851
  3225   006C84  EF46  F036         	goto	u850
  3226   006C88                     u851:
  3227   006C88  EF23  F036         	goto	l284
  3228   006C8C                     u850:
  3229   006C8C  0012               	return		;funcret
  3230   006C8E                     __end_of_i2c_WaitForIdle:
  3231                           	callstack 0
  3232                           
  3233 ;; *************** function _i2c_NoAck *****************
  3234 ;; Defined at:
  3235 ;;		line 212 in file "i2c.c"
  3236 ;; Parameters:    Size  Location     Type
  3237 ;;		None
  3238 ;; Auto vars:     Size  Location     Type
  3239 ;;		None
  3240 ;; Return value:  Size  Location     Type
  3241 ;;                  1    wreg      void 
  3242 ;; Registers used:
  3243 ;;		None
  3244 ;; Tracked objects:
  3245 ;;		On entry : 0/0
  3246 ;;		On exit  : 0/0
  3247 ;;		Unchanged: 0/0
  3248 ;; Data sizes:     COMRAM   BANK0   BANK1   BANK2   BANK3   BANK4   BANK5   BANK6   BANK7
  3249 ;;      Params:         0       0       0       0       0       0       0       0       0
  3250 ;;      Locals:         0       0       0       0       0       0       0       0       0
  3251 ;;      Temps:          0       0       0       0       0       0       0       0       0
  3252 ;;      Totals:         0       0       0       0       0       0       0       0       0
  3253 ;;Total ram usage:        0 bytes
  3254 ;; Hardware stack levels used: 1
  3255 ;; This function calls:
  3256 ;;		Nothing
  3257 ;; This function is called by:
  3258 ;;		_I2C_Read
  3259 ;; This function uses a non-reentrant model
  3260 ;;
  3261                           
  3262                           	psect	text18
  3263   006AEA                     __ptext18:
  3264                           	callstack 0
  3265   006AEA                     _i2c_NoAck:
  3266                           	callstack 28
  3267   006AEA                     
  3268                           ;i2c.c: 214:  ACKDT = 1;
  3269   006AEA  8AC5               	bsf	4037,5,c	;volatile
  3270                           
  3271                           ;i2c.c: 215:  ACKEN = 1;
  3272   006AEC  88C5               	bsf	4037,4,c	;volatile
  3273   006AEE                     l296:
  3274   006AEE  B8C5               	btfsc	4037,4,c	;volatile
  3275   006AF0  EF7C  F035         	goto	u871
  3276   006AF4  EF7E  F035         	goto	u870
  3277   006AF8                     u871:
  3278   006AF8  EF77  F035         	goto	l296
  3279   006AFC                     u870:
  3280   006AFC  0012               	return		;funcret
  3281   006AFE                     __end_of_i2c_NoAck:
  3282                           	callstack 0
  3283                           
  3284 ;; *************** function _i2c_Ack *****************
  3285 ;; Defined at:
  3286 ;;		line 197 in file "i2c.c"
  3287 ;; Parameters:    Size  Location     Type
  3288 ;;		None
  3289 ;; Auto vars:     Size  Location     Type
  3290 ;;		None
  3291 ;; Return value:  Size  Location     Type
  3292 ;;                  1    wreg      void 
  3293 ;; Registers used:
  3294 ;;		None
  3295 ;; Tracked objects:
  3296 ;;		On entry : 0/0
  3297 ;;		On exit  : 0/0
  3298 ;;		Unchanged: 0/0
  3299 ;; Data sizes:     COMRAM   BANK0   BANK1   BANK2   BANK3   BANK4   BANK5   BANK6   BANK7
  3300 ;;      Params:         0       0       0       0       0       0       0       0       0
  3301 ;;      Locals:         0       0       0       0       0       0       0       0       0
  3302 ;;      Temps:          0       0       0       0       0       0       0       0       0
  3303 ;;      Totals:         0       0       0       0       0       0       0       0       0
  3304 ;;Total ram usage:        0 bytes
  3305 ;; Hardware stack levels used: 1
  3306 ;; This function calls:
  3307 ;;		Nothing
  3308 ;; This function is called by:
  3309 ;;		_I2C_Read
  3310 ;; This function uses a non-reentrant model
  3311 ;;
  3312                           
  3313                           	psect	text19
  3314   006AD6                     __ptext19:
  3315                           	callstack 0
  3316   006AD6                     _i2c_Ack:
  3317                           	callstack 28
  3318   006AD6                     
  3319                           ;i2c.c: 199:  ACKDT = 0;
  3320   006AD6  9AC5               	bcf	4037,5,c	;volatile
  3321                           
  3322                           ;i2c.c: 200:  ACKEN = 1;
  3323   006AD8  88C5               	bsf	4037,4,c	;volatile
  3324   006ADA                     l290:
  3325   006ADA  B8C5               	btfsc	4037,4,c	;volatile
  3326   006ADC  EF72  F035         	goto	u861
  3327   006AE0  EF74  F035         	goto	u860
  3328   006AE4                     u861:
  3329   006AE4  EF6D  F035         	goto	l290
  3330   006AE8                     u860:
  3331   006AE8  0012               	return		;funcret
  3332   006AEA                     __end_of_i2c_Ack:
  3333                           	callstack 0
  3334                           
  3335 ;; *************** function _LCD_Clear *****************
  3336 ;; Defined at:
  3337 ;;		line 93 in file "lcd_4b.c"
  3338 ;; Parameters:    Size  Location     Type
  3339 ;;		None
  3340 ;; Auto vars:     Size  Location     Type
  3341 ;;		None
  3342 ;; Return value:  Size  Location     Type
  3343 ;;                  1    wreg      void 
  3344 ;; Registers used:
  3345 ;;		wreg, status,2, status,0, cstack
  3346 ;; Tracked objects:
  3347 ;;		On entry : 0/0
  3348 ;;		On exit  : 0/0
  3349 ;;		Unchanged: 0/0
  3350 ;; Data sizes:     COMRAM   BANK0   BANK1   BANK2   BANK3   BANK4   BANK5   BANK6   BANK7
  3351 ;;      Params:         0       0       0       0       0       0       0       0       0
  3352 ;;      Locals:         0       0       0       0       0       0       0       0       0
  3353 ;;      Temps:          0       0       0       0       0       0       0       0       0
  3354 ;;      Totals:         0       0       0       0       0       0       0       0       0
  3355 ;;Total ram usage:        0 bytes
  3356 ;; Hardware stack levels used: 1
  3357 ;; Hardware stack levels required when called: 2
  3358 ;; This function calls:
  3359 ;;		_LCD_Command
  3360 ;;		_MSdelay
  3361 ;; This function is called by:
  3362 ;;		_Message
  3363 ;; This function uses a non-reentrant model
  3364 ;;
  3365                           
  3366                           	psect	text20
  3367   006AC2                     __ptext20:
  3368                           	callstack 0
  3369   006AC2                     _LCD_Clear:
  3370                           	callstack 27
  3371   006AC2                     
  3372                           ;lcd_4b.c: 95:     LCD_Command(0x01);
  3373   006AC2  0E01               	movlw	1
  3374   006AC4  EC6C  F036         	call	_LCD_Command
  3375                           
  3376                           ;lcd_4b.c: 96:     MSdelay(3);
  3377   006AC8  0E00               	movlw	0
  3378   006ACA  6E02               	movwf	(MSdelay@val+1)^0,c
  3379   006ACC  0E03               	movlw	3
  3380   006ACE  6E01               	movwf	MSdelay@val^0,c
  3381   006AD0  EC47  F036         	call	_MSdelay	;wreg free
  3382   006AD4  0012               	return		;funcret
  3383   006AD6                     __end_of_LCD_Clear:
  3384                           	callstack 0
  3385                           
  3386 ;; *************** function _LCD_Init *****************
  3387 ;; Defined at:
  3388 ;;		line 14 in file "lcd_4b.c"
  3389 ;; Parameters:    Size  Location     Type
  3390 ;;		None
  3391 ;; Auto vars:     Size  Location     Type
  3392 ;;		None
  3393 ;; Return value:  Size  Location     Type
  3394 ;;                  1    wreg      void 
  3395 ;; Registers used:
  3396 ;;		wreg, status,2, status,0, cstack
  3397 ;; Tracked objects:
  3398 ;;		On entry : 0/0
  3399 ;;		On exit  : 0/0
  3400 ;;		Unchanged: 0/0
  3401 ;; Data sizes:     COMRAM   BANK0   BANK1   BANK2   BANK3   BANK4   BANK5   BANK6   BANK7
  3402 ;;      Params:         0       0       0       0       0       0       0       0       0
  3403 ;;      Locals:         0       0       0       0       0       0       0       0       0
  3404 ;;      Temps:          0       0       0       0       0       0       0       0       0
  3405 ;;      Totals:         0       0       0       0       0       0       0       0       0
  3406 ;;Total ram usage:        0 bytes
  3407 ;; Hardware stack levels used: 1
  3408 ;; Hardware stack levels required when called: 2
  3409 ;; This function calls:
  3410 ;;		_LCD_Command
  3411 ;;		_MSdelay
  3412 ;; This function is called by:
  3413 ;;		_main
  3414 ;; This function uses a non-reentrant model
  3415 ;;
  3416                           
  3417                           	psect	text21
  3418   006B18                     __ptext21:
  3419                           	callstack 0
  3420   006B18                     _LCD_Init:
  3421                           	callstack 28
  3422   006B18                     
  3423                           ;lcd_4b.c: 16:     TRISB = 0;
  3424   006B18  0E00               	movlw	0
  3425   006B1A  6E93               	movwf	147,c	;volatile
  3426   006B1C                     
  3427                           ;lcd_4b.c: 17:     MSdelay(15);
  3428   006B1C  0E00               	movlw	0
  3429   006B1E  6E02               	movwf	(MSdelay@val+1)^0,c
  3430   006B20  0E0F               	movlw	15
  3431   006B22  6E01               	movwf	MSdelay@val^0,c
  3432   006B24  EC47  F036         	call	_MSdelay	;wreg free
  3433   006B28                     
  3434                           ;lcd_4b.c: 18:     LCD_Command(0x02);
  3435   006B28  0E02               	movlw	2
  3436   006B2A  EC6C  F036         	call	_LCD_Command
  3437   006B2E                     
  3438                           ;lcd_4b.c: 19:     LCD_Command(0x28);
  3439   006B2E  0E28               	movlw	40
  3440   006B30  EC6C  F036         	call	_LCD_Command
  3441   006B34                     
  3442                           ;lcd_4b.c: 21:  LCD_Command(0x01);
  3443   006B34  0E01               	movlw	1
  3444   006B36  EC6C  F036         	call	_LCD_Command
  3445   006B3A                     
  3446                           ;lcd_4b.c: 22:     LCD_Command(0x0c);
  3447   006B3A  0E0C               	movlw	12
  3448   006B3C  EC6C  F036         	call	_LCD_Command
  3449   006B40                     
  3450                           ;lcd_4b.c: 23:  LCD_Command(0x06);
  3451   006B40  0E06               	movlw	6
  3452   006B42  EC6C  F036         	call	_LCD_Command
  3453   006B46  0012               	return		;funcret
  3454   006B48                     __end_of_LCD_Init:
  3455                           	callstack 0
  3456                           
  3457 ;; *************** function _I2C_Init *****************
  3458 ;; Defined at:
  3459 ;;		line 46 in file "i2c.c"
  3460 ;; Parameters:    Size  Location     Type
  3461 ;;		None
  3462 ;; Auto vars:     Size  Location     Type
  3463 ;;		None
  3464 ;; Return value:  Size  Location     Type
  3465 ;;                  1    wreg      void 
  3466 ;; Registers used:
  3467 ;;		wreg, status,2
  3468 ;; Tracked objects:
  3469 ;;		On entry : 0/0
  3470 ;;		On exit  : 0/0
  3471 ;;		Unchanged: 0/0
  3472 ;; Data sizes:     COMRAM   BANK0   BANK1   BANK2   BANK3   BANK4   BANK5   BANK6   BANK7
  3473 ;;      Params:         0       0       0       0       0       0       0       0       0
  3474 ;;      Locals:         0       0       0       0       0       0       0       0       0
  3475 ;;      Temps:          0       0       0       0       0       0       0       0       0
  3476 ;;      Totals:         0       0       0       0       0       0       0       0       0
  3477 ;;Total ram usage:        0 bytes
  3478 ;; Hardware stack levels used: 1
  3479 ;; This function calls:
  3480 ;;		Nothing
  3481 ;; This function is called by:
  3482 ;;		_main
  3483 ;; This function uses a non-reentrant model
  3484 ;;
  3485                           
  3486                           	psect	text22
  3487   006A8C                     __ptext22:
  3488                           	callstack 0
  3489   006A8C                     _I2C_Init:
  3490                           	callstack 30
  3491   006A8C                     
  3492                           ;i2c.c: 48:  (TRISBbits.TRISB1) = 1;
  3493   006A8C  8293               	bsf	147,1,c	;volatile
  3494                           
  3495                           ;i2c.c: 49:  (TRISBbits.TRISB0) = 1;
  3496   006A8E  8093               	bsf	147,0,c	;volatile
  3497   006A90                     
  3498                           ;i2c.c: 51:  SSPSTAT = 0x80;
  3499   006A90  0E80               	movlw	128
  3500   006A92  6EC7               	movwf	199,c	;volatile
  3501                           
  3502                           ;i2c.c: 52:  SSPCON1 = 0x28;
  3503   006A94  0E28               	movlw	40
  3504   006A96  6EC6               	movwf	198,c	;volatile
  3505                           
  3506                           ;i2c.c: 53:  SSPADD = 50;
  3507   006A98  0E32               	movlw	50
  3508   006A9A  6EC8               	movwf	200,c	;volatile
  3509   006A9C  0012               	return		;funcret
  3510   006A9E                     __end_of_I2C_Init:
  3511                           	callstack 0
  3512                           
  3513 ;; *************** function _FSM_Update *****************
  3514 ;; Defined at:
  3515 ;;		line 160 in file "main_piee2.c"
  3516 ;; Parameters:    Size  Location     Type
  3517 ;;  fsm             2   19[COMRAM] PTR struct .
  3518 ;;		 -> system_fsm(13), 
  3519 ;; Auto vars:     Size  Location     Type
  3520 ;;		None
  3521 ;; Return value:  Size  Location     Type
  3522 ;;                  1    wreg      void 
  3523 ;; Registers used:
  3524 ;;		wreg, fsr1l, fsr1h, fsr2l, fsr2h, status,2, status,0, tblptrl, tblptrh, tblptru, cstack
  3525 ;; Tracked objects:
  3526 ;;		On entry : 0/0
  3527 ;;		On exit  : 0/0
  3528 ;;		Unchanged: 0/0
  3529 ;; Data sizes:     COMRAM   BANK0   BANK1   BANK2   BANK3   BANK4   BANK5   BANK6   BANK7
  3530 ;;      Params:         2       0       0       0       0       0       0       0       0
  3531 ;;      Locals:         0       0       0       0       0       0       0       0       0
  3532 ;;      Temps:          2       0       0       0       0       0       0       0       0
  3533 ;;      Totals:         4       0       0       0       0       0       0       0       0
  3534 ;;Total ram usage:        4 bytes
  3535 ;; Hardware stack levels used: 1
  3536 ;; Hardware stack levels required when called: 5
  3537 ;; This function calls:
  3538 ;;		_FSM_CheckTransitions
  3539 ;;		_FSM_ExecuteState
  3540 ;;		_FSM_UpdateDisplay
  3541 ;; This function is called by:
  3542 ;;		_main
  3543 ;; This function uses a non-reentrant model
  3544 ;;
  3545                           
  3546                           	psect	text23
  3547   006F86                     __ptext23:
  3548                           	callstack 0
  3549   006F86                     _FSM_Update:
  3550                           	callstack 25
  3551   006F86                     
  3552                           ;main_piee2.c: 160: void FSM_Update(fsm_data_t *fsm);main_piee2.c: 161: {;main_piee2.c: 
      +                          163:     FSM_CheckTransitions(fsm);
  3553   006F86  C014  F001         	movff	FSM_Update@fsm,FSM_CheckTransitions@fsm
  3554   006F8A  C015  F002         	movff	FSM_Update@fsm+1,FSM_CheckTransitions@fsm+1
  3555   006F8E  EC5C  F03D         	call	_FSM_CheckTransitions	;wreg free
  3556   006F92                     
  3557                           ;main_piee2.c: 166:     FSM_ExecuteState(fsm);
  3558   006F92  C014  F001         	movff	FSM_Update@fsm,FSM_ExecuteState@fsm
  3559   006F96  C015  F002         	movff	FSM_Update@fsm+1,FSM_ExecuteState@fsm+1
  3560   006F9A  EC94  F038         	call	_FSM_ExecuteState	;wreg free
  3561   006F9E                     
  3562                           ;main_piee2.c: 169:     FSM_UpdateDisplay(fsm);
  3563   006F9E  C014  F010         	movff	FSM_Update@fsm,FSM_UpdateDisplay@fsm
  3564   006FA2  C015  F011         	movff	FSM_Update@fsm+1,FSM_UpdateDisplay@fsm+1
  3565   006FA6  ECD7  F03A         	call	_FSM_UpdateDisplay	;wreg free
  3566   006FAA                     
  3567                           ;main_piee2.c: 172:     fsm->timer_counter++;
  3568   006FAA  EE20 F002          	lfsr	2,2
  3569   006FAE  5014               	movf	FSM_Update@fsm^0,w,c
  3570   006FB0  26D9               	addwf	fsr2l,f,c
  3571   006FB2  5015               	movf	(FSM_Update@fsm+1)^0,w,c
  3572   006FB4  22DA               	addwfc	fsr2h,f,c
  3573   006FB6  2ADE               	incf	postinc2,f,c
  3574   006FB8  0E00               	movlw	0
  3575   006FBA  22DD               	addwfc	postdec2,f,c
  3576   006FBC                     
  3577                           ;main_piee2.c: 173:     fsm->blink_counter++;
  3578   006FBC  EE20 F006          	lfsr	2,6
  3579   006FC0  5014               	movf	FSM_Update@fsm^0,w,c
  3580   006FC2  26D9               	addwf	fsr2l,f,c
  3581   006FC4  5015               	movf	(FSM_Update@fsm+1)^0,w,c
  3582   006FC6  22DA               	addwfc	fsr2h,f,c
  3583   006FC8  2ADE               	incf	postinc2,f,c
  3584   006FCA  0E00               	movlw	0
  3585   006FCC  22DD               	addwfc	postdec2,f,c
  3586   006FCE                     
  3587                           ;main_piee2.c: 176:     if(fsm->blink_counter >= 50) {
  3588   006FCE  EE20 F006          	lfsr	2,6
  3589   006FD2  5014               	movf	FSM_Update@fsm^0,w,c
  3590   006FD4  26D9               	addwf	fsr2l,f,c
  3591   006FD6  5015               	movf	(FSM_Update@fsm+1)^0,w,c
  3592   006FD8  22DA               	addwfc	fsr2h,f,c
  3593   006FDA  0E01               	movlw	1
  3594   006FDC  50DB               	movf	plusw2,w,c
  3595   006FDE  E109               	bnz	u1290
  3596   006FE0  0E32               	movlw	50
  3597   006FE2  5CDE               	subwf	postinc2,w,c
  3598   006FE4  A0D8               	btfss	status,0,c
  3599   006FE6  EFF7  F037         	goto	u1291
  3600   006FEA  EFF9  F037         	goto	u1290
  3601   006FEE                     u1291:
  3602   006FEE  EF02  F038         	goto	l107
  3603   006FF2                     u1290:
  3604   006FF2                     
  3605                           ;main_piee2.c: 177:         fsm->blink_counter = 0;
  3606   006FF2  EE20 F006          	lfsr	2,6
  3607   006FF6  5014               	movf	FSM_Update@fsm^0,w,c
  3608   006FF8  26D9               	addwf	fsr2l,f,c
  3609   006FFA  5015               	movf	(FSM_Update@fsm+1)^0,w,c
  3610   006FFC  22DA               	addwfc	fsr2h,f,c
  3611   006FFE  6ADE               	clrf	postinc2,c
  3612   007000  6ADD               	clrf	postdec2,c
  3613   007002                     
  3614                           ;main_piee2.c: 178:         LATD1 ^= 1;
  3615   007002  728C               	btg	3980,1,c	;volatile
  3616   007004                     l107:
  3617   007004  0012               	return		;funcret
  3618   007006                     __end_of_FSM_Update:
  3619                           	callstack 0
  3620                           
  3621 ;; *************** function _FSM_UpdateDisplay *****************
  3622 ;; Defined at:
  3623 ;;		line 335 in file "main_piee2.c"
  3624 ;; Parameters:    Size  Location     Type
  3625 ;;  fsm             2   15[COMRAM] PTR struct .
  3626 ;;		 -> system_fsm(13), 
  3627 ;; Auto vars:     Size  Location     Type
  3628 ;;		None
  3629 ;; Return value:  Size  Location     Type
  3630 ;;                  1    wreg      void 
  3631 ;; Registers used:
  3632 ;;		wreg, fsr1l, fsr1h, fsr2l, fsr2h, status,2, status,0, tblptrl, tblptrh, tblptru, cstack
  3633 ;; Tracked objects:
  3634 ;;		On entry : 0/0
  3635 ;;		On exit  : 0/0
  3636 ;;		Unchanged: 0/0
  3637 ;; Data sizes:     COMRAM   BANK0   BANK1   BANK2   BANK3   BANK4   BANK5   BANK6   BANK7
  3638 ;;      Params:         2       0       0       0       0       0       0       0       0
  3639 ;;      Locals:         0       0       0       0       0       0       0       0       0
  3640 ;;      Temps:          2       0       0       0       0       0       0       0       0
  3641 ;;      Totals:         4       0       0       0       0       0       0       0       0
  3642 ;;Total ram usage:        4 bytes
  3643 ;; Hardware stack levels used: 1
  3644 ;; Hardware stack levels required when called: 4
  3645 ;; This function calls:
  3646 ;;		_LCD_String_xy
  3647 ;; This function is called by:
  3648 ;;		_FSM_Update
  3649 ;; This function uses a non-reentrant model
  3650 ;;
  3651                           
  3652                           	psect	text24
  3653   0075AE                     __ptext24:
  3654                           	callstack 0
  3655   0075AE                     _FSM_UpdateDisplay:
  3656                           	callstack 25
  3657   0075AE                     
  3658                           ;main_piee2.c: 335: void FSM_UpdateDisplay(fsm_data_t *fsm);main_piee2.c: 336: {;main_pi
      +                          ee2.c: 338:     static unsigned int display_counter = 0;;main_piee2.c: 339:     display_
      +                          counter++;
  3659   0075AE  0100               	movlb	0	; () banked
  3660   0075B0  4B64               	infsnz	FSM_UpdateDisplay@display_counter& (0+255),f,b
  3661   0075B2  2B65               	incf	(FSM_UpdateDisplay@display_counter+1)& (0+255),f,b
  3662   0075B4                     
  3663                           ; BSR set to: 0
  3664                           ;main_piee2.c: 341:     if(display_counter >= 10) {
  3665   0075B4  5165               	movf	(FSM_UpdateDisplay@display_counter+1)& (0+255),w,b
  3666   0075B6  E109               	bnz	u1250
  3667   0075B8  0E0A               	movlw	10
  3668   0075BA  5D64               	subwf	FSM_UpdateDisplay@display_counter& (0+255),w,b
  3669   0075BC  A0D8               	btfss	status,0,c
  3670   0075BE  EFE3  F03A         	goto	u1251
  3671   0075C2  EFE5  F03A         	goto	u1250
  3672   0075C6                     u1251:
  3673   0075C6  EF70  F03B         	goto	l174
  3674   0075CA                     u1250:
  3675   0075CA                     
  3676                           ; BSR set to: 0
  3677                           ;main_piee2.c: 342:         display_counter = 0;
  3678   0075CA  0E00               	movlw	0
  3679   0075CC  6F65               	movwf	(FSM_UpdateDisplay@display_counter+1)& (0+255),b
  3680   0075CE  0E00               	movlw	0
  3681   0075D0  6F64               	movwf	FSM_UpdateDisplay@display_counter& (0+255),b
  3682                           
  3683                           ;main_piee2.c: 344:         switch(fsm->current_state)
  3684   0075D2  EF43  F03B         	goto	l2176
  3685   0075D6                     l2158:
  3686                           
  3687                           ; BSR set to: 0
  3688                           ;main_piee2.c: 347:                 LCD_String_xy(2,1,"Status: Inicializando");
  3689   0075D6  0E01               	movlw	1
  3690   0075D8  6E0B               	movwf	LCD_String_xy@pos^0,c
  3691   0075DA  0E17               	movlw	low STR_1
  3692   0075DC  6E0C               	movwf	LCD_String_xy@msg^0,c
  3693   0075DE  0E7F               	movlw	high STR_1
  3694   0075E0  6E0D               	movwf	(LCD_String_xy@msg+1)^0,c
  3695   0075E2  0E02               	movlw	2
  3696   0075E4  EC03  F038         	call	_LCD_String_xy
  3697                           
  3698                           ;main_piee2.c: 348:                 break;
  3699   0075E8  EF70  F03B         	goto	l174
  3700   0075EC                     l2160:
  3701                           
  3702                           ; BSR set to: 0
  3703                           ;main_piee2.c: 351:                 LCD_String_xy(2,1,"Status: Pronto       ");
  3704   0075EC  0E01               	movlw	1
  3705   0075EE  6E0B               	movwf	LCD_String_xy@pos^0,c
  3706   0075F0  0E93               	movlw	low STR_2
  3707   0075F2  6E0C               	movwf	LCD_String_xy@msg^0,c
  3708   0075F4  0E7E               	movlw	high STR_2
  3709   0075F6  6E0D               	movwf	(LCD_String_xy@msg+1)^0,c
  3710   0075F8  0E02               	movlw	2
  3711   0075FA  EC03  F038         	call	_LCD_String_xy
  3712                           
  3713                           ;main_piee2.c: 352:                 break;
  3714   0075FE  EF70  F03B         	goto	l174
  3715   007602                     l2162:
  3716                           
  3717                           ; BSR set to: 0
  3718                           ;main_piee2.c: 355:                 LCD_String_xy(2,1,"Status: Partindo     ");
  3719   007602  0E01               	movlw	1
  3720   007604  6E0B               	movwf	LCD_String_xy@pos^0,c
  3721   007606  0EBF               	movlw	low STR_3
  3722   007608  6E0C               	movwf	LCD_String_xy@msg^0,c
  3723   00760A  0E7E               	movlw	high STR_3
  3724   00760C  6E0D               	movwf	(LCD_String_xy@msg+1)^0,c
  3725   00760E  0E02               	movlw	2
  3726   007610  EC03  F038         	call	_LCD_String_xy
  3727                           
  3728                           ;main_piee2.c: 356:                 break;
  3729   007614  EF70  F03B         	goto	l174
  3730   007618                     l2164:
  3731                           
  3732                           ; BSR set to: 0
  3733                           ;main_piee2.c: 359:                 LCD_String_xy(2,1,"Status: Funcionando  ");
  3734   007618  0E01               	movlw	1
  3735   00761A  6E0B               	movwf	LCD_String_xy@pos^0,c
  3736   00761C  0EEB               	movlw	low STR_4
  3737   00761E  6E0C               	movwf	LCD_String_xy@msg^0,c
  3738   007620  0E7E               	movlw	high STR_4
  3739   007622  6E0D               	movwf	(LCD_String_xy@msg+1)^0,c
  3740   007624  0E02               	movlw	2
  3741   007626  EC03  F038         	call	_LCD_String_xy
  3742                           
  3743                           ;main_piee2.c: 360:                 break;
  3744   00762A  EF70  F03B         	goto	l174
  3745   00762E                     l2166:
  3746                           
  3747                           ; BSR set to: 0
  3748                           ;main_piee2.c: 363:                 LCD_String_xy(2,1,"Status: Parando      ");
  3749   00762E  0E01               	movlw	1
  3750   007630  6E0B               	movwf	LCD_String_xy@pos^0,c
  3751   007632  0EA9               	movlw	low STR_5
  3752   007634  6E0C               	movwf	LCD_String_xy@msg^0,c
  3753   007636  0E7E               	movlw	high STR_5
  3754   007638  6E0D               	movwf	(LCD_String_xy@msg+1)^0,c
  3755   00763A  0E02               	movlw	2
  3756   00763C  EC03  F038         	call	_LCD_String_xy
  3757                           
  3758                           ;main_piee2.c: 364:                 break;
  3759   007640  EF70  F03B         	goto	l174
  3760   007644                     l2168:
  3761                           
  3762                           ; BSR set to: 0
  3763                           ;main_piee2.c: 367:                 LCD_String_xy(2,1,"Status: Bloqueado    ");
  3764   007644  0E01               	movlw	1
  3765   007646  6E0B               	movwf	LCD_String_xy@pos^0,c
  3766   007648  0ED5               	movlw	low STR_6
  3767   00764A  6E0C               	movwf	LCD_String_xy@msg^0,c
  3768   00764C  0E7E               	movlw	high STR_6
  3769   00764E  6E0D               	movwf	(LCD_String_xy@msg+1)^0,c
  3770   007650  0E02               	movlw	2
  3771   007652  EC03  F038         	call	_LCD_String_xy
  3772                           
  3773                           ;main_piee2.c: 368:                 break;
  3774   007656  EF70  F03B         	goto	l174
  3775   00765A                     l2170:
  3776                           
  3777                           ; BSR set to: 0
  3778                           ;main_piee2.c: 371:                 LCD_String_xy(2,1,"Status: Falha        ");
  3779   00765A  0E01               	movlw	1
  3780   00765C  6E0B               	movwf	LCD_String_xy@pos^0,c
  3781   00765E  0E7D               	movlw	low STR_7
  3782   007660  6E0C               	movwf	LCD_String_xy@msg^0,c
  3783   007662  0E7E               	movlw	high STR_7
  3784   007664  6E0D               	movwf	(LCD_String_xy@msg+1)^0,c
  3785   007666  0E02               	movlw	2
  3786   007668  EC03  F038         	call	_LCD_String_xy
  3787                           
  3788                           ;main_piee2.c: 372:                 break;
  3789   00766C  EF70  F03B         	goto	l174
  3790   007670                     l2172:
  3791                           
  3792                           ; BSR set to: 0
  3793                           ;main_piee2.c: 375:                 LCD_String_xy(2,1,"Status: Desconhecido ");
  3794   007670  0E01               	movlw	1
  3795   007672  6E0B               	movwf	LCD_String_xy@pos^0,c
  3796   007674  0E01               	movlw	low STR_8
  3797   007676  6E0C               	movwf	LCD_String_xy@msg^0,c
  3798   007678  0E7F               	movlw	high STR_8
  3799   00767A  6E0D               	movwf	(LCD_String_xy@msg+1)^0,c
  3800   00767C  0E02               	movlw	2
  3801   00767E  EC03  F038         	call	_LCD_String_xy
  3802                           
  3803                           ;main_piee2.c: 376:                 break;
  3804   007682  EF70  F03B         	goto	l174
  3805   007686                     l2176:
  3806                           
  3807                           ; BSR set to: 0
  3808   007686  C010  FFD9         	movff	FSM_UpdateDisplay@fsm,fsr2l
  3809   00768A  C011  FFDA         	movff	FSM_UpdateDisplay@fsm+1,fsr2h
  3810   00768E  50DF               	movf	indf2,w,c
  3811   007690  6E12               	movwf	??_FSM_UpdateDisplay^0,c
  3812   007692  6A13               	clrf	(??_FSM_UpdateDisplay+1)^0,c
  3813                           
  3814                           ; Switch on 2 bytes has been partitioned into a top level switch of size 1, and 1 sub-sw
      +                          itches
  3815                           ; Switch size 1, requested type "simple"
  3816                           ; Number of cases is 1, Range of values is 0 to 0
  3817                           ; switch strategies available:
  3818                           ; Name         Instructions Cycles
  3819                           ; simple_byte            4     3 (average)
  3820                           ;	Chosen strategy is simple_byte
  3821   007694  5013               	movf	(??_FSM_UpdateDisplay+1)^0,w,c
  3822   007696  0A00               	xorlw	0	; case 0
  3823   007698  B4D8               	btfsc	status,2,c
  3824   00769A  EF51  F03B         	goto	l2520
  3825   00769E  EF38  F03B         	goto	l2172
  3826   0076A2                     l2520:
  3827                           
  3828                           ; BSR set to: 0
  3829                           ; Switch size 1, requested type "simple"
  3830                           ; Number of cases is 7, Range of values is 1 to 7
  3831                           ; switch strategies available:
  3832                           ; Name         Instructions Cycles
  3833                           ; simple_byte           22    12 (average)
  3834                           ;	Chosen strategy is simple_byte
  3835   0076A2  5012               	movf	??_FSM_UpdateDisplay^0,w,c
  3836   0076A4  0A01               	xorlw	1	; case 1
  3837   0076A6  B4D8               	btfsc	status,2,c
  3838   0076A8  EFEB  F03A         	goto	l2158
  3839   0076AC  0A03               	xorlw	3	; case 2
  3840   0076AE  B4D8               	btfsc	status,2,c
  3841   0076B0  EFF6  F03A         	goto	l2160
  3842   0076B4  0A01               	xorlw	1	; case 3
  3843   0076B6  B4D8               	btfsc	status,2,c
  3844   0076B8  EF01  F03B         	goto	l2162
  3845   0076BC  0A07               	xorlw	7	; case 4
  3846   0076BE  B4D8               	btfsc	status,2,c
  3847   0076C0  EF0C  F03B         	goto	l2164
  3848   0076C4  0A01               	xorlw	1	; case 5
  3849   0076C6  B4D8               	btfsc	status,2,c
  3850   0076C8  EF17  F03B         	goto	l2166
  3851   0076CC  0A03               	xorlw	3	; case 6
  3852   0076CE  B4D8               	btfsc	status,2,c
  3853   0076D0  EF22  F03B         	goto	l2168
  3854   0076D4  0A01               	xorlw	1	; case 7
  3855   0076D6  B4D8               	btfsc	status,2,c
  3856   0076D8  EF2D  F03B         	goto	l2170
  3857   0076DC  EF38  F03B         	goto	l2172
  3858   0076E0                     l174:
  3859   0076E0  0012               	return		;funcret
  3860   0076E2                     __end_of_FSM_UpdateDisplay:
  3861                           	callstack 0
  3862                           
  3863 ;; *************** function _LCD_String_xy *****************
  3864 ;; Defined at:
  3865 ;;		line 66 in file "lcd_4b.c"
  3866 ;; Parameters:    Size  Location     Type
  3867 ;;  row             1    wreg     unsigned char 
  3868 ;;  pos             1   10[COMRAM] unsigned char 
  3869 ;;  msg             2   11[COMRAM] PTR const unsigned char 
  3870 ;;		 -> date(10), hours(10), STR_20(3), STR_19(3), 
  3871 ;;		 -> STR_18(13), STR_17(16), STR_16(16), STR_15(18), 
  3872 ;;		 -> STR_14(13), STR_13(18), STR_12(15), STR_11(18), 
  3873 ;;		 -> STR_10(20), STR_9(7), STR_8(22), STR_7(22), 
  3874 ;;		 -> STR_6(22), STR_5(22), STR_4(22), STR_3(22), 
  3875 ;;		 -> STR_2(22), STR_1(22), 
  3876 ;; Auto vars:     Size  Location     Type
  3877 ;;  row             1   13[COMRAM] unsigned char 
  3878 ;;  location        1   14[COMRAM] unsigned char 
  3879 ;; Return value:  Size  Location     Type
  3880 ;;                  1    wreg      void 
  3881 ;; Registers used:
  3882 ;;		wreg, fsr1l, fsr1h, status,2, status,0, tblptrl, tblptrh, tblptru, cstack
  3883 ;; Tracked objects:
  3884 ;;		On entry : 0/0
  3885 ;;		On exit  : 0/0
  3886 ;;		Unchanged: 0/0
  3887 ;; Data sizes:     COMRAM   BANK0   BANK1   BANK2   BANK3   BANK4   BANK5   BANK6   BANK7
  3888 ;;      Params:         3       0       0       0       0       0       0       0       0
  3889 ;;      Locals:         2       0       0       0       0       0       0       0       0
  3890 ;;      Temps:          0       0       0       0       0       0       0       0       0
  3891 ;;      Totals:         5       0       0       0       0       0       0       0       0
  3892 ;;Total ram usage:        5 bytes
  3893 ;; Hardware stack levels used: 1
  3894 ;; Hardware stack levels required when called: 3
  3895 ;; This function calls:
  3896 ;;		_LCD_Command
  3897 ;;		_LCD_String
  3898 ;; This function is called by:
  3899 ;;		_FSM_UpdateDisplay
  3900 ;;		_Message
  3901 ;;		_atualiza_data
  3902 ;; This function uses a non-reentrant model
  3903 ;;
  3904                           
  3905                           	psect	text25
  3906   007006                     __ptext25:
  3907                           	callstack 0
  3908   007006                     _LCD_String_xy:
  3909                           	callstack 25
  3910                           
  3911                           ;incstack = 0
  3912                           ;LCD_String_xy@row stored from wreg
  3913   007006  6E0E               	movwf	LCD_String_xy@row^0,c
  3914   007008                     
  3915                           ;lcd_4b.c: 69:     if(row==1)
  3916   007008  040E               	decf	LCD_String_xy@row^0,w,c
  3917   00700A  A4D8               	btfss	status,2,c
  3918   00700C  EF0A  F038         	goto	u991
  3919   007010  EF0C  F038         	goto	u990
  3920   007014                     u991:
  3921   007014  EF13  F038         	goto	l1994
  3922   007018                     u990:
  3923   007018                     
  3924                           ;lcd_4b.c: 70:     {;lcd_4b.c: 71:         location=(0x80) | ((pos) & 0x0f);
  3925   007018  500B               	movf	LCD_String_xy@pos^0,w,c
  3926   00701A  0B0F               	andlw	15
  3927   00701C  0980               	iorlw	128
  3928   00701E  6E0F               	movwf	LCD_String_xy@location^0,c
  3929   007020                     
  3930                           ;lcd_4b.c: 72:         LCD_Command(location);
  3931   007020  500F               	movf	LCD_String_xy@location^0,w,c
  3932   007022  EC6C  F036         	call	_LCD_Command
  3933   007026                     l1994:
  3934                           
  3935                           ;lcd_4b.c: 74:     if(row==2)
  3936   007026  0E02               	movlw	2
  3937   007028  180E               	xorwf	LCD_String_xy@row^0,w,c
  3938   00702A  A4D8               	btfss	status,2,c
  3939   00702C  EF1A  F038         	goto	u1001
  3940   007030  EF1C  F038         	goto	u1000
  3941   007034                     u1001:
  3942   007034  EF23  F038         	goto	l2000
  3943   007038                     u1000:
  3944   007038                     
  3945                           ;lcd_4b.c: 75:     {;lcd_4b.c: 76:         location=(0xC0) | ((pos) & 0x0f);
  3946   007038  500B               	movf	LCD_String_xy@pos^0,w,c
  3947   00703A  0B0F               	andlw	15
  3948   00703C  09C0               	iorlw	192
  3949   00703E  6E0F               	movwf	LCD_String_xy@location^0,c
  3950   007040                     
  3951                           ;lcd_4b.c: 77:         LCD_Command(location);
  3952   007040  500F               	movf	LCD_String_xy@location^0,w,c
  3953   007042  EC6C  F036         	call	_LCD_Command
  3954   007046                     l2000:
  3955                           
  3956                           ;lcd_4b.c: 79:     if(row==3)
  3957   007046  0E03               	movlw	3
  3958   007048  180E               	xorwf	LCD_String_xy@row^0,w,c
  3959   00704A  A4D8               	btfss	status,2,c
  3960   00704C  EF2A  F038         	goto	u1011
  3961   007050  EF2C  F038         	goto	u1010
  3962   007054                     u1011:
  3963   007054  EF33  F038         	goto	l2006
  3964   007058                     u1010:
  3965   007058                     
  3966                           ;lcd_4b.c: 80:     {;lcd_4b.c: 81:         location=(0x94) | ((pos) & 0x0f);
  3967   007058  500B               	movf	LCD_String_xy@pos^0,w,c
  3968   00705A  0B0F               	andlw	15
  3969   00705C  0994               	iorlw	148
  3970   00705E  6E0F               	movwf	LCD_String_xy@location^0,c
  3971   007060                     
  3972                           ;lcd_4b.c: 82:         LCD_Command(location);
  3973   007060  500F               	movf	LCD_String_xy@location^0,w,c
  3974   007062  EC6C  F036         	call	_LCD_Command
  3975   007066                     l2006:
  3976                           
  3977                           ;lcd_4b.c: 84:     if(row==4)
  3978   007066  0E04               	movlw	4
  3979   007068  180E               	xorwf	LCD_String_xy@row^0,w,c
  3980   00706A  A4D8               	btfss	status,2,c
  3981   00706C  EF3A  F038         	goto	u1021
  3982   007070  EF3C  F038         	goto	u1020
  3983   007074                     u1021:
  3984   007074  EF43  F038         	goto	l2012
  3985   007078                     u1020:
  3986   007078                     
  3987                           ;lcd_4b.c: 85:     {;lcd_4b.c: 86:         location=(0xD4) | ((pos) & 0x0f);
  3988   007078  500B               	movf	LCD_String_xy@pos^0,w,c
  3989   00707A  0B0F               	andlw	15
  3990   00707C  09D4               	iorlw	212
  3991   00707E  6E0F               	movwf	LCD_String_xy@location^0,c
  3992   007080                     
  3993                           ;lcd_4b.c: 87:         LCD_Command(location);
  3994   007080  500F               	movf	LCD_String_xy@location^0,w,c
  3995   007082  EC6C  F036         	call	_LCD_Command
  3996   007086                     l2012:
  3997                           
  3998                           ;lcd_4b.c: 90:     LCD_String(msg);
  3999   007086  C00C  F009         	movff	LCD_String_xy@msg,LCD_String@msg
  4000   00708A  C00D  F00A         	movff	LCD_String_xy@msg+1,LCD_String@msg+1
  4001   00708E  EC57  F037         	call	_LCD_String	;wreg free
  4002   007092  0012               	return		;funcret
  4003   007094                     __end_of_LCD_String_xy:
  4004                           	callstack 0
  4005                           
  4006 ;; *************** function _LCD_String *****************
  4007 ;; Defined at:
  4008 ;;		line 57 in file "lcd_4b.c"
  4009 ;; Parameters:    Size  Location     Type
  4010 ;;  msg             2    8[COMRAM] PTR const unsigned char 
  4011 ;;		 -> STR_36(4), STR_35(4), STR_34(4), STR_33(4), 
  4012 ;;		 -> STR_32(4), STR_31(4), STR_30(4), year(10), 
  4013 ;;		 -> month(10), date(10), hours(10), mins(10), 
  4014 ;;		 -> secs(10), STR_20(3), STR_19(3), STR_18(13), 
  4015 ;;		 -> STR_17(16), STR_16(16), STR_15(18), STR_14(13), 
  4016 ;;		 -> STR_13(18), STR_12(15), STR_11(18), STR_10(20), 
  4017 ;;		 -> STR_9(7), STR_8(22), STR_7(22), STR_6(22), 
  4018 ;;		 -> STR_5(22), STR_4(22), STR_3(22), STR_2(22), 
  4019 ;;		 -> STR_1(22), 
  4020 ;; Auto vars:     Size  Location     Type
  4021 ;;		None
  4022 ;; Return value:  Size  Location     Type
  4023 ;;                  1    wreg      void 
  4024 ;; Registers used:
  4025 ;;		wreg, fsr1l, fsr1h, status,2, status,0, tblptrl, tblptrh, tblptru, cstack
  4026 ;; Tracked objects:
  4027 ;;		On entry : 0/0
  4028 ;;		On exit  : 0/0
  4029 ;;		Unchanged: 0/0
  4030 ;; Data sizes:     COMRAM   BANK0   BANK1   BANK2   BANK3   BANK4   BANK5   BANK6   BANK7
  4031 ;;      Params:         2       0       0       0       0       0       0       0       0
  4032 ;;      Locals:         0       0       0       0       0       0       0       0       0
  4033 ;;      Temps:          0       0       0       0       0       0       0       0       0
  4034 ;;      Totals:         2       0       0       0       0       0       0       0       0
  4035 ;;Total ram usage:        2 bytes
  4036 ;; Hardware stack levels used: 1
  4037 ;; Hardware stack levels required when called: 2
  4038 ;; This function calls:
  4039 ;;		_LCD_Char
  4040 ;; This function is called by:
  4041 ;;		_atualiza_data
  4042 ;;		_LCD_String_xy
  4043 ;; This function uses a non-reentrant model
  4044 ;;
  4045                           
  4046                           	psect	text26
  4047   006EAE                     __ptext26:
  4048                           	callstack 0
  4049   006EAE                     _LCD_String:
  4050                           	callstack 25
  4051   006EAE                     
  4052                           ;lcd_4b.c: 57: void LCD_String(const char *msg);lcd_4b.c: 58: {;lcd_4b.c: 59:  while((*m
      +                          sg)!=0)
  4053   006EAE  EF6D  F037         	goto	l1954
  4054   006EB2                     l1950:
  4055                           
  4056                           ;lcd_4b.c: 60:  {;lcd_4b.c: 61:    LCD_Char(*msg);
  4057   006EB2  C009  FFF6         	movff	LCD_String@msg,tblptrl
  4058   006EB6  C00A  FFF7         	movff	LCD_String@msg+1,tblptrh
  4059   006EBA  6AF8               	clrf	tblptru,c
  4060   006EBC  0E07               	movlw	(high __ramtop+-1)
  4061   006EBE  64F7               	cpfsgt	tblptrh,c
  4062   006EC0  D003               	bra	u957
  4063   006EC2  0008               	tblrd		*
  4064   006EC4  50F5               	movf	tablat,w,c
  4065   006EC6  D005               	bra	u950
  4066   006EC8                     u957:
  4067   006EC8  CFF6 FFE1          	movff	tblptrl,fsr1l
  4068   006ECC  CFF7 FFE2          	movff	tblptrh,fsr1h
  4069   006ED0  50E7               	movf	indf1,w,c
  4070   006ED2                     u950:
  4071   006ED2  EC92  F036         	call	_LCD_Char
  4072   006ED6                     
  4073                           ;lcd_4b.c: 62:    msg++;
  4074   006ED6  4A09               	infsnz	LCD_String@msg^0,f,c
  4075   006ED8  2A0A               	incf	(LCD_String@msg+1)^0,f,c
  4076   006EDA                     l1954:
  4077                           
  4078                           ;lcd_4b.c: 59:  while((*msg)!=0)
  4079   006EDA  C009  FFF6         	movff	LCD_String@msg,tblptrl
  4080   006EDE  C00A  FFF7         	movff	LCD_String@msg+1,tblptrh
  4081   006EE2  6AF8               	clrf	tblptru,c
  4082   006EE4  0E07               	movlw	(high __ramtop+-1)
  4083   006EE6  64F7               	cpfsgt	tblptrh,c
  4084   006EE8  D003               	bra	u967
  4085   006EEA  0008               	tblrd		*
  4086   006EEC  50F5               	movf	tablat,w,c
  4087   006EEE  D005               	bra	u960
  4088   006EF0                     u967:
  4089   006EF0  CFF6 FFE1          	movff	tblptrl,fsr1l
  4090   006EF4  CFF7 FFE2          	movff	tblptrh,fsr1h
  4091   006EF8  50E7               	movf	indf1,w,c
  4092   006EFA                     u960:
  4093   006EFA  0900               	iorlw	0
  4094   006EFC  A4D8               	btfss	status,2,c
  4095   006EFE  EF83  F037         	goto	u971
  4096   006F02  EF85  F037         	goto	u970
  4097   006F06                     u971:
  4098   006F06  EF59  F037         	goto	l1950
  4099   006F0A                     u970:
  4100   006F0A  0012               	return		;funcret
  4101   006F0C                     __end_of_LCD_String:
  4102                           	callstack 0
  4103                           
  4104 ;; *************** function _LCD_Char *****************
  4105 ;; Defined at:
  4106 ;;		line 42 in file "lcd_4b.c"
  4107 ;; Parameters:    Size  Location     Type
  4108 ;;  dat             1    wreg     unsigned char 
  4109 ;; Auto vars:     Size  Location     Type
  4110 ;;  dat             1    7[COMRAM] unsigned char 
  4111 ;; Return value:  Size  Location     Type
  4112 ;;                  1    wreg      void 
  4113 ;; Registers used:
  4114 ;;		wreg, status,2, status,0, cstack
  4115 ;; Tracked objects:
  4116 ;;		On entry : 0/0
  4117 ;;		On exit  : 0/0
  4118 ;;		Unchanged: 0/0
  4119 ;; Data sizes:     COMRAM   BANK0   BANK1   BANK2   BANK3   BANK4   BANK5   BANK6   BANK7
  4120 ;;      Params:         0       0       0       0       0       0       0       0       0
  4121 ;;      Locals:         1       0       0       0       0       0       0       0       0
  4122 ;;      Temps:          1       0       0       0       0       0       0       0       0
  4123 ;;      Totals:         2       0       0       0       0       0       0       0       0
  4124 ;;Total ram usage:        2 bytes
  4125 ;; Hardware stack levels used: 1
  4126 ;; Hardware stack levels required when called: 1
  4127 ;; This function calls:
  4128 ;;		_MSdelay
  4129 ;; This function is called by:
  4130 ;;		_LCD_String
  4131 ;; This function uses a non-reentrant model
  4132 ;;
  4133                           
  4134                           	psect	text27
  4135   006D24                     __ptext27:
  4136                           	callstack 0
  4137   006D24                     _LCD_Char:
  4138                           	callstack 25
  4139                           
  4140                           ;incstack = 0
  4141                           ;LCD_Char@dat stored from wreg
  4142   006D24  6E08               	movwf	LCD_Char@dat^0,c
  4143   006D26                     
  4144                           ;lcd_4b.c: 42: void LCD_Char(unsigned char dat);lcd_4b.c: 43: {;lcd_4b.c: 44:  LATB = (L
      +                          ATB & 0x0f) | (0xF0 & dat);
  4145   006D26  C008  F007         	movff	LCD_Char@dat,??_LCD_Char
  4146   006D2A  0EF0               	movlw	240
  4147   006D2C  1607               	andwf	??_LCD_Char^0,f,c
  4148   006D2E  508A               	movf	138,w,c	;volatile
  4149   006D30  0B0F               	andlw	15
  4150   006D32  1007               	iorwf	??_LCD_Char^0,w,c
  4151   006D34  6E8A               	movwf	138,c	;volatile
  4152   006D36                     
  4153                           ;lcd_4b.c: 45:  LATB2 = 1;
  4154   006D36  848A               	bsf	3978,2,c	;volatile
  4155   006D38                     
  4156                           ;lcd_4b.c: 46:  LATB3 = 1;
  4157   006D38  868A               	bsf	3978,3,c	;volatile
  4158   006D3A                     
  4159                           ;lcd_4b.c: 47:  __nop();
  4160   006D3A  F000               	nop	
  4161   006D3C                     
  4162                           ;lcd_4b.c: 48:  LATB3 = 0;
  4163   006D3C  968A               	bcf	3978,3,c	;volatile
  4164   006D3E                     
  4165                           ;lcd_4b.c: 49:  MSdelay(1);
  4166   006D3E  0E00               	movlw	0
  4167   006D40  6E02               	movwf	(MSdelay@val+1)^0,c
  4168   006D42  0E01               	movlw	1
  4169   006D44  6E01               	movwf	MSdelay@val^0,c
  4170   006D46  EC47  F036         	call	_MSdelay	;wreg free
  4171   006D4A                     
  4172                           ;lcd_4b.c: 50:     LATB = (LATB & 0x0f) | (dat<<4);
  4173   006D4A  C008  F007         	movff	LCD_Char@dat,??_LCD_Char
  4174   006D4E  3A07               	swapf	??_LCD_Char^0,f,c
  4175   006D50  0EF0               	movlw	240
  4176   006D52  1607               	andwf	??_LCD_Char^0,f,c
  4177   006D54  508A               	movf	138,w,c	;volatile
  4178   006D56  0B0F               	andlw	15
  4179   006D58  1007               	iorwf	??_LCD_Char^0,w,c
  4180   006D5A  6E8A               	movwf	138,c	;volatile
  4181   006D5C                     
  4182                           ;lcd_4b.c: 51:  LATB3 = 1;
  4183   006D5C  868A               	bsf	3978,3,c	;volatile
  4184   006D5E                     
  4185                           ;lcd_4b.c: 52:  __nop();
  4186   006D5E  F000               	nop	
  4187   006D60                     
  4188                           ;lcd_4b.c: 53:  LATB3 = 0;
  4189   006D60  968A               	bcf	3978,3,c	;volatile
  4190                           
  4191                           ;lcd_4b.c: 54:  MSdelay(3);
  4192   006D62  0E00               	movlw	0
  4193   006D64  6E02               	movwf	(MSdelay@val+1)^0,c
  4194   006D66  0E03               	movlw	3
  4195   006D68  6E01               	movwf	MSdelay@val^0,c
  4196   006D6A  EC47  F036         	call	_MSdelay	;wreg free
  4197   006D6E  0012               	return		;funcret
  4198   006D70                     __end_of_LCD_Char:
  4199                           	callstack 0
  4200                           
  4201 ;; *************** function _LCD_Command *****************
  4202 ;; Defined at:
  4203 ;;		line 26 in file "lcd_4b.c"
  4204 ;; Parameters:    Size  Location     Type
  4205 ;;  cmd             1    wreg     unsigned char 
  4206 ;; Auto vars:     Size  Location     Type
  4207 ;;  cmd             1    7[COMRAM] unsigned char 
  4208 ;; Return value:  Size  Location     Type
  4209 ;;                  1    wreg      void 
  4210 ;; Registers used:
  4211 ;;		wreg, status,2, status,0, cstack
  4212 ;; Tracked objects:
  4213 ;;		On entry : 0/0
  4214 ;;		On exit  : 0/0
  4215 ;;		Unchanged: 0/0
  4216 ;; Data sizes:     COMRAM   BANK0   BANK1   BANK2   BANK3   BANK4   BANK5   BANK6   BANK7
  4217 ;;      Params:         0       0       0       0       0       0       0       0       0
  4218 ;;      Locals:         1       0       0       0       0       0       0       0       0
  4219 ;;      Temps:          1       0       0       0       0       0       0       0       0
  4220 ;;      Totals:         2       0       0       0       0       0       0       0       0
  4221 ;;Total ram usage:        2 bytes
  4222 ;; Hardware stack levels used: 1
  4223 ;; Hardware stack levels required when called: 1
  4224 ;; This function calls:
  4225 ;;		_MSdelay
  4226 ;; This function is called by:
  4227 ;;		_LCD_Init
  4228 ;;		_LCD_String_xy
  4229 ;;		_LCD_Clear
  4230 ;; This function uses a non-reentrant model
  4231 ;;
  4232                           
  4233                           	psect	text28
  4234   006CD8                     __ptext28:
  4235                           	callstack 0
  4236   006CD8                     _LCD_Command:
  4237                           	callstack 26
  4238                           
  4239                           ;incstack = 0
  4240                           ;LCD_Command@cmd stored from wreg
  4241   006CD8  6E08               	movwf	LCD_Command@cmd^0,c
  4242   006CDA                     
  4243                           ;lcd_4b.c: 26: void LCD_Command(unsigned char cmd );lcd_4b.c: 27: {;lcd_4b.c: 28:  LATB 
      +                          = (LATB & 0x0f) |(0xF0 & cmd);
  4244   006CDA  C008  F007         	movff	LCD_Command@cmd,??_LCD_Command
  4245   006CDE  0EF0               	movlw	240
  4246   006CE0  1607               	andwf	??_LCD_Command^0,f,c
  4247   006CE2  508A               	movf	138,w,c	;volatile
  4248   006CE4  0B0F               	andlw	15
  4249   006CE6  1007               	iorwf	??_LCD_Command^0,w,c
  4250   006CE8  6E8A               	movwf	138,c	;volatile
  4251   006CEA                     
  4252                           ;lcd_4b.c: 29:  LATB2 = 0;
  4253   006CEA  948A               	bcf	3978,2,c	;volatile
  4254   006CEC                     
  4255                           ;lcd_4b.c: 30:  LATB3 = 1;
  4256   006CEC  868A               	bsf	3978,3,c	;volatile
  4257   006CEE                     
  4258                           ;lcd_4b.c: 31:  __nop();
  4259   006CEE  F000               	nop	
  4260   006CF0                     
  4261                           ;lcd_4b.c: 32:  LATB3 = 0;
  4262   006CF0  968A               	bcf	3978,3,c	;volatile
  4263   006CF2                     
  4264                           ;lcd_4b.c: 33:  MSdelay(1);
  4265   006CF2  0E00               	movlw	0
  4266   006CF4  6E02               	movwf	(MSdelay@val+1)^0,c
  4267   006CF6  0E01               	movlw	1
  4268   006CF8  6E01               	movwf	MSdelay@val^0,c
  4269   006CFA  EC47  F036         	call	_MSdelay	;wreg free
  4270   006CFE                     
  4271                           ;lcd_4b.c: 34:     LATB = (LATB & 0x0f) | (cmd<<4);
  4272   006CFE  C008  F007         	movff	LCD_Command@cmd,??_LCD_Command
  4273   006D02  3A07               	swapf	??_LCD_Command^0,f,c
  4274   006D04  0EF0               	movlw	240
  4275   006D06  1607               	andwf	??_LCD_Command^0,f,c
  4276   006D08  508A               	movf	138,w,c	;volatile
  4277   006D0A  0B0F               	andlw	15
  4278   006D0C  1007               	iorwf	??_LCD_Command^0,w,c
  4279   006D0E  6E8A               	movwf	138,c	;volatile
  4280   006D10                     
  4281                           ;lcd_4b.c: 35:  LATB3 = 1;
  4282   006D10  868A               	bsf	3978,3,c	;volatile
  4283   006D12                     
  4284                           ;lcd_4b.c: 36:  __nop();
  4285   006D12  F000               	nop	
  4286   006D14                     
  4287                           ;lcd_4b.c: 37:  LATB3 = 0;
  4288   006D14  968A               	bcf	3978,3,c	;volatile
  4289                           
  4290                           ;lcd_4b.c: 38:  MSdelay(3);
  4291   006D16  0E00               	movlw	0
  4292   006D18  6E02               	movwf	(MSdelay@val+1)^0,c
  4293   006D1A  0E03               	movlw	3
  4294   006D1C  6E01               	movwf	MSdelay@val^0,c
  4295   006D1E  EC47  F036         	call	_MSdelay	;wreg free
  4296   006D22  0012               	return		;funcret
  4297   006D24                     __end_of_LCD_Command:
  4298                           	callstack 0
  4299                           
  4300 ;; *************** function _FSM_ExecuteState *****************
  4301 ;; Defined at:
  4302 ;;		line 271 in file "main_piee2.c"
  4303 ;; Parameters:    Size  Location     Type
  4304 ;;  fsm             2    0[COMRAM] PTR struct .
  4305 ;;		 -> system_fsm(13), 
  4306 ;; Auto vars:     Size  Location     Type
  4307 ;;		None
  4308 ;; Return value:  Size  Location     Type
  4309 ;;                  1    wreg      void 
  4310 ;; Registers used:
  4311 ;;		wreg, fsr2l, fsr2h, status,2, status,0
  4312 ;; Tracked objects:
  4313 ;;		On entry : 0/0
  4314 ;;		On exit  : 0/0
  4315 ;;		Unchanged: 0/0
  4316 ;; Data sizes:     COMRAM   BANK0   BANK1   BANK2   BANK3   BANK4   BANK5   BANK6   BANK7
  4317 ;;      Params:         2       0       0       0       0       0       0       0       0
  4318 ;;      Locals:         0       0       0       0       0       0       0       0       0
  4319 ;;      Temps:          2       0       0       0       0       0       0       0       0
  4320 ;;      Totals:         4       0       0       0       0       0       0       0       0
  4321 ;;Total ram usage:        4 bytes
  4322 ;; Hardware stack levels used: 1
  4323 ;; This function calls:
  4324 ;;		Nothing
  4325 ;; This function is called by:
  4326 ;;		_FSM_Update
  4327 ;; This function uses a non-reentrant model
  4328 ;;
  4329                           
  4330                           	psect	text29
  4331   007128                     __ptext29:
  4332                           	callstack 0
  4333   007128                     _FSM_ExecuteState:
  4334                           	callstack 29
  4335   007128                     
  4336                           ;main_piee2.c: 271: void FSM_ExecuteState(fsm_data_t *fsm);main_piee2.c: 272: {;main_pie
      +                          e2.c: 273:     switch(fsm->current_state)
  4337   007128  EFC5  F038         	goto	l2146
  4338   00712C                     l150:
  4339                           
  4340                           ;main_piee2.c: 281:             LATD3 = 0;
  4341   00712C  968C               	bcf	3980,3,c	;volatile
  4342                           
  4343                           ;main_piee2.c: 282:             break;
  4344   00712E  EFF6  F038         	goto	l158
  4345   007132                     l152:
  4346                           
  4347                           ;main_piee2.c: 294:             LATD3 = 0;
  4348   007132  968C               	bcf	3980,3,c	;volatile
  4349   007134                     
  4350                           ;main_piee2.c: 297:             if(fsm->timer_counter >= 100) {
  4351   007134  EE20 F002          	lfsr	2,2
  4352   007138  5001               	movf	FSM_ExecuteState@fsm^0,w,c
  4353   00713A  26D9               	addwf	fsr2l,f,c
  4354   00713C  5002               	movf	(FSM_ExecuteState@fsm+1)^0,w,c
  4355   00713E  22DA               	addwfc	fsr2h,f,c
  4356   007140  0E01               	movlw	1
  4357   007142  50DB               	movf	plusw2,w,c
  4358   007144  E109               	bnz	u1240
  4359   007146  0E64               	movlw	100
  4360   007148  5CDE               	subwf	postinc2,w,c
  4361   00714A  A0D8               	btfss	status,0,c
  4362   00714C  EFAA  F038         	goto	u1241
  4363   007150  EFAC  F038         	goto	u1240
  4364   007154                     u1241:
  4365   007154  EFF6  F038         	goto	l158
  4366   007158                     u1240:
  4367   007158                     
  4368                           ;main_piee2.c: 298:                 fsm->timer_counter = 0;
  4369   007158  EE20 F002          	lfsr	2,2
  4370   00715C  5001               	movf	FSM_ExecuteState@fsm^0,w,c
  4371   00715E  26D9               	addwf	fsr2l,f,c
  4372   007160  5002               	movf	(FSM_ExecuteState@fsm+1)^0,w,c
  4373   007162  22DA               	addwfc	fsr2h,f,c
  4374   007164  6ADE               	clrf	postinc2,c
  4375   007166  6ADD               	clrf	postdec2,c
  4376                           
  4377                           ;main_piee2.c: 299:                 fsm->start_timer++;
  4378   007168  EE20 F004          	lfsr	2,4
  4379   00716C  5001               	movf	FSM_ExecuteState@fsm^0,w,c
  4380   00716E  26D9               	addwf	fsr2l,f,c
  4381   007170  5002               	movf	(FSM_ExecuteState@fsm+1)^0,w,c
  4382   007172  22DA               	addwfc	fsr2h,f,c
  4383   007174  2ADE               	incf	postinc2,f,c
  4384   007176  0E00               	movlw	0
  4385   007178  22DD               	addwfc	postdec2,f,c
  4386   00717A  EFF6  F038         	goto	l158
  4387   00717E                     l156:
  4388                           
  4389                           ;main_piee2.c: 323:             LATD3 = 1;
  4390   00717E  868C               	bsf	3980,3,c	;volatile
  4391                           
  4392                           ;main_piee2.c: 324:             break;
  4393   007180  EFF6  F038         	goto	l158
  4394   007184                     l157:
  4395                           
  4396                           ;main_piee2.c: 331:             LATD2 = 1;
  4397   007184  848C               	bsf	3980,2,c	;volatile
  4398                           
  4399                           ;main_piee2.c: 332:             break;
  4400   007186  EFF6  F038         	goto	l158
  4401   00718A                     l2146:
  4402   00718A  C001  FFD9         	movff	FSM_ExecuteState@fsm,fsr2l
  4403   00718E  C002  FFDA         	movff	FSM_ExecuteState@fsm+1,fsr2h
  4404   007192  50DF               	movf	indf2,w,c
  4405   007194  6E03               	movwf	??_FSM_ExecuteState^0,c
  4406   007196  6A04               	clrf	(??_FSM_ExecuteState+1)^0,c
  4407                           
  4408                           ; Switch on 2 bytes has been partitioned into a top level switch of size 1, and 1 sub-sw
      +                          itches
  4409                           ; Switch size 1, requested type "simple"
  4410                           ; Number of cases is 1, Range of values is 0 to 0
  4411                           ; switch strategies available:
  4412                           ; Name         Instructions Cycles
  4413                           ; simple_byte            4     3 (average)
  4414                           ;	Chosen strategy is simple_byte
  4415   007198  5004               	movf	(??_FSM_ExecuteState+1)^0,w,c
  4416   00719A  0A00               	xorlw	0	; case 0
  4417   00719C  B4D8               	btfsc	status,2,c
  4418   00719E  EFD3  F038         	goto	l2522
  4419   0071A2  EFF6  F038         	goto	l158
  4420   0071A6                     l2522:
  4421                           
  4422                           ; Switch size 1, requested type "simple"
  4423                           ; Number of cases is 8, Range of values is 0 to 7
  4424                           ; switch strategies available:
  4425                           ; Name         Instructions Cycles
  4426                           ; simple_byte           25    13 (average)
  4427                           ;	Chosen strategy is simple_byte
  4428   0071A6  5003               	movf	??_FSM_ExecuteState^0,w,c
  4429   0071A8  0A00               	xorlw	0	; case 0
  4430   0071AA  B4D8               	btfsc	status,2,c
  4431   0071AC  EFF6  F038         	goto	l158
  4432   0071B0  0A01               	xorlw	1	; case 1
  4433   0071B2  B4D8               	btfsc	status,2,c
  4434   0071B4  EF96  F038         	goto	l150
  4435   0071B8  0A03               	xorlw	3	; case 2
  4436   0071BA  B4D8               	btfsc	status,2,c
  4437   0071BC  EF96  F038         	goto	l150
  4438   0071C0  0A01               	xorlw	1	; case 3
  4439   0071C2  B4D8               	btfsc	status,2,c
  4440   0071C4  EF99  F038         	goto	l152
  4441   0071C8  0A07               	xorlw	7	; case 4
  4442   0071CA  B4D8               	btfsc	status,2,c
  4443   0071CC  EF96  F038         	goto	l150
  4444   0071D0  0A01               	xorlw	1	; case 5
  4445   0071D2  B4D8               	btfsc	status,2,c
  4446   0071D4  EFF6  F038         	goto	l158
  4447   0071D8  0A03               	xorlw	3	; case 6
  4448   0071DA  B4D8               	btfsc	status,2,c
  4449   0071DC  EFBF  F038         	goto	l156
  4450   0071E0  0A01               	xorlw	1	; case 7
  4451   0071E2  B4D8               	btfsc	status,2,c
  4452   0071E4  EFC2  F038         	goto	l157
  4453   0071E8  EFF6  F038         	goto	l158
  4454   0071EC                     l158:
  4455   0071EC  0012               	return		;funcret
  4456   0071EE                     __end_of_FSM_ExecuteState:
  4457                           	callstack 0
  4458                           
  4459 ;; *************** function _FSM_CheckTransitions *****************
  4460 ;; Defined at:
  4461 ;;		line 181 in file "main_piee2.c"
  4462 ;; Parameters:    Size  Location     Type
  4463 ;;  fsm             2    0[COMRAM] PTR struct .
  4464 ;;		 -> system_fsm(13), 
  4465 ;; Auto vars:     Size  Location     Type
  4466 ;;  current_inte    1    9[COMRAM] unsigned char 
  4467 ;;  desliga_pres    1    8[COMRAM] unsigned char 
  4468 ;;  liga_pressed    1    4[COMRAM] unsigned char 
  4469 ;;  interlock_pr    1    0        unsigned char 
  4470 ;; Return value:  Size  Location     Type
  4471 ;;                  1    wreg      void 
  4472 ;; Registers used:
  4473 ;;		wreg, fsr1l, fsr1h, fsr2l, fsr2h, status,2, status,0
  4474 ;; Tracked objects:
  4475 ;;		On entry : 0/0
  4476 ;;		On exit  : 0/0
  4477 ;;		Unchanged: 0/0
  4478 ;; Data sizes:     COMRAM   BANK0   BANK1   BANK2   BANK3   BANK4   BANK5   BANK6   BANK7
  4479 ;;      Params:         2       0       0       0       0       0       0       0       0
  4480 ;;      Locals:         6       0       0       0       0       0       0       0       0
  4481 ;;      Temps:          2       0       0       0       0       0       0       0       0
  4482 ;;      Totals:        10       0       0       0       0       0       0       0       0
  4483 ;;Total ram usage:       10 bytes
  4484 ;; Hardware stack levels used: 1
  4485 ;; This function calls:
  4486 ;;		Nothing
  4487 ;; This function is called by:
  4488 ;;		_FSM_Update
  4489 ;; This function uses a non-reentrant model
  4490 ;;
  4491                           
  4492                           	psect	text30
  4493   007AB8                     __ptext30:
  4494                           	callstack 0
  4495   007AB8                     _FSM_CheckTransitions:
  4496                           	callstack 29
  4497   007AB8                     
  4498                           ;main_piee2.c: 181: void FSM_CheckTransitions(fsm_data_t *fsm);main_piee2.c: 182: {;main
      +                          _piee2.c: 183:     unsigned char current_interlock = PORTCbits.RC2;
  4499   007AB8  0E00               	movlw	0
  4500   007ABA  B482               	btfsc	130,2,c	;volatile
  4501   007ABC  0E01               	movlw	1
  4502   007ABE  6E0A               	movwf	FSM_CheckTransitions@current_interlock^0,c
  4503   007AC0                     
  4504                           ;main_piee2.c: 186:     unsigned char interlock_pressed = (fsm->last_interlock_state == 
      +                          1 && current_interlock == 0);
  4505   007AC0  0E00               	movlw	0
  4506   007AC2  6E06               	movwf	_FSM_CheckTransitions$289^0,c
  4507   007AC4  EE20 F00C          	lfsr	2,12
  4508   007AC8  5001               	movf	FSM_CheckTransitions@fsm^0,w,c
  4509   007ACA  26D9               	addwf	fsr2l,f,c
  4510   007ACC  5002               	movf	(FSM_CheckTransitions@fsm+1)^0,w,c
  4511   007ACE  22DA               	addwfc	fsr2h,f,c
  4512   007AD0  04DE               	decf	postinc2,w,c
  4513   007AD2  A4D8               	btfss	status,2,c
  4514   007AD4  EF6E  F03D         	goto	u1031
  4515   007AD8  EF70  F03D         	goto	u1030
  4516   007ADC                     u1031:
  4517   007ADC  EF7A  F03D         	goto	l2050
  4518   007AE0                     u1030:
  4519   007AE0  500A               	movf	FSM_CheckTransitions@current_interlock^0,w,c
  4520   007AE2  A4D8               	btfss	status,2,c
  4521   007AE4  EF76  F03D         	goto	u1041
  4522   007AE8  EF78  F03D         	goto	u1040
  4523   007AEC                     u1041:
  4524   007AEC  EF7A  F03D         	goto	l2050
  4525   007AF0                     u1040:
  4526   007AF0  0E01               	movlw	1
  4527   007AF2  6E06               	movwf	_FSM_CheckTransitions$289^0,c
  4528   007AF4                     l2050:
  4529   007AF4                     
  4530                           ;main_piee2.c: 187:     fsm->last_interlock_state = current_interlock;
  4531   007AF4  EE20 F00C          	lfsr	2,12
  4532   007AF8  5001               	movf	FSM_CheckTransitions@fsm^0,w,c
  4533   007AFA  26D9               	addwf	fsr2l,f,c
  4534   007AFC  5002               	movf	(FSM_CheckTransitions@fsm+1)^0,w,c
  4535   007AFE  22DA               	addwfc	fsr2h,f,c
  4536   007B00  C00A  FFDF         	movff	FSM_CheckTransitions@current_interlock,indf2
  4537   007B04                     
  4538                           ;main_piee2.c: 190:     unsigned char liga_pressed = (fsm->last_liga_state == 1 && PORTC
      +                          bits.RC0 == 0);
  4539   007B04  0E00               	movlw	0
  4540   007B06  6E07               	movwf	_FSM_CheckTransitions$291^0,c
  4541   007B08  EE20 F00A          	lfsr	2,10
  4542   007B0C  5001               	movf	FSM_CheckTransitions@fsm^0,w,c
  4543   007B0E  26D9               	addwf	fsr2l,f,c
  4544   007B10  5002               	movf	(FSM_CheckTransitions@fsm+1)^0,w,c
  4545   007B12  22DA               	addwfc	fsr2h,f,c
  4546   007B14  04DE               	decf	postinc2,w,c
  4547   007B16  A4D8               	btfss	status,2,c
  4548   007B18  EF90  F03D         	goto	u1051
  4549   007B1C  EF92  F03D         	goto	u1050
  4550   007B20                     u1051:
  4551   007B20  EF9B  F03D         	goto	l2060
  4552   007B24                     u1050:
  4553   007B24  B082               	btfsc	130,0,c	;volatile
  4554   007B26  EF97  F03D         	goto	u1061
  4555   007B2A  EF99  F03D         	goto	u1060
  4556   007B2E                     u1061:
  4557   007B2E  EF9B  F03D         	goto	l2060
  4558   007B32                     u1060:
  4559   007B32  0E01               	movlw	1
  4560   007B34  6E07               	movwf	_FSM_CheckTransitions$291^0,c
  4561   007B36                     l2060:
  4562   007B36  C007  F005         	movff	_FSM_CheckTransitions$291,FSM_CheckTransitions@liga_pressed
  4563   007B3A                     
  4564                           ;main_piee2.c: 191:     fsm->last_liga_state = PORTCbits.RC0;
  4565   007B3A  EE20 F00A          	lfsr	2,10
  4566   007B3E  5001               	movf	FSM_CheckTransitions@fsm^0,w,c
  4567   007B40  26D9               	addwf	fsr2l,f,c
  4568   007B42  5002               	movf	(FSM_CheckTransitions@fsm+1)^0,w,c
  4569   007B44  22DA               	addwfc	fsr2h,f,c
  4570   007B46  B082               	btfsc	130,0,c	;volatile
  4571   007B48  EFA8  F03D         	goto	u1071
  4572   007B4C  EFAB  F03D         	goto	u1070
  4573   007B50                     u1071:
  4574   007B50  0E01               	movlw	1
  4575   007B52  EFAC  F03D         	goto	u1076
  4576   007B56                     u1070:
  4577   007B56  0E00               	movlw	0
  4578   007B58                     u1076:
  4579   007B58  6EDF               	movwf	indf2,c
  4580   007B5A                     
  4581                           ;main_piee2.c: 194:     unsigned char desliga_pressed = (fsm->last_desliga_state == 1 &&
      +                           PORTCbits.RC1 == 0);
  4582   007B5A  0E00               	movlw	0
  4583   007B5C  6E08               	movwf	_FSM_CheckTransitions$293^0,c
  4584   007B5E  EE20 F00B          	lfsr	2,11
  4585   007B62  5001               	movf	FSM_CheckTransitions@fsm^0,w,c
  4586   007B64  26D9               	addwf	fsr2l,f,c
  4587   007B66  5002               	movf	(FSM_CheckTransitions@fsm+1)^0,w,c
  4588   007B68  22DA               	addwfc	fsr2h,f,c
  4589   007B6A  04DE               	decf	postinc2,w,c
  4590   007B6C  A4D8               	btfss	status,2,c
  4591   007B6E  EFBB  F03D         	goto	u1081
  4592   007B72  EFBD  F03D         	goto	u1080
  4593   007B76                     u1081:
  4594   007B76  EFC6  F03D         	goto	l2070
  4595   007B7A                     u1080:
  4596   007B7A  B282               	btfsc	130,1,c	;volatile
  4597   007B7C  EFC2  F03D         	goto	u1091
  4598   007B80  EFC4  F03D         	goto	u1090
  4599   007B84                     u1091:
  4600   007B84  EFC6  F03D         	goto	l2070
  4601   007B88                     u1090:
  4602   007B88  0E01               	movlw	1
  4603   007B8A  6E08               	movwf	_FSM_CheckTransitions$293^0,c
  4604   007B8C                     l2070:
  4605   007B8C  C008  F009         	movff	_FSM_CheckTransitions$293,FSM_CheckTransitions@desliga_pressed
  4606   007B90                     
  4607                           ;main_piee2.c: 195:     fsm->last_desliga_state = PORTCbits.RC1;
  4608   007B90  EE20 F00B          	lfsr	2,11
  4609   007B94  5001               	movf	FSM_CheckTransitions@fsm^0,w,c
  4610   007B96  26D9               	addwf	fsr2l,f,c
  4611   007B98  5002               	movf	(FSM_CheckTransitions@fsm+1)^0,w,c
  4612   007B9A  22DA               	addwfc	fsr2h,f,c
  4613   007B9C  B282               	btfsc	130,1,c	;volatile
  4614   007B9E  EFD3  F03D         	goto	u1101
  4615   007BA2  EFD6  F03D         	goto	u1100
  4616   007BA6                     u1101:
  4617   007BA6  0E01               	movlw	1
  4618   007BA8  EFD7  F03D         	goto	u1106
  4619   007BAC                     u1100:
  4620   007BAC  0E00               	movlw	0
  4621   007BAE                     u1106:
  4622   007BAE  6EDF               	movwf	indf2,c
  4623                           
  4624                           ;main_piee2.c: 198:     switch(fsm->current_state)
  4625   007BB0  EFE9  F03E         	goto	l2126
  4626   007BB4                     l2074:
  4627                           
  4628                           ;main_piee2.c: 201:             if(fsm->timer_counter > 300) {
  4629   007BB4  EE20 F002          	lfsr	2,2
  4630   007BB8  5001               	movf	FSM_CheckTransitions@fsm^0,w,c
  4631   007BBA  26D9               	addwf	fsr2l,f,c
  4632   007BBC  5002               	movf	(FSM_CheckTransitions@fsm+1)^0,w,c
  4633   007BBE  22DA               	addwfc	fsr2h,f,c
  4634   007BC0  0E2D               	movlw	45
  4635   007BC2  5CDE               	subwf	postinc2,w,c
  4636   007BC4  0E01               	movlw	1
  4637   007BC6  58DE               	subwfb	postinc2,w,c
  4638   007BC8  A0D8               	btfss	status,0,c
  4639   007BCA  EFE9  F03D         	goto	u1111
  4640   007BCE  EFEB  F03D         	goto	u1110
  4641   007BD2                     u1111:
  4642   007BD2  EF16  F03F         	goto	l2128
  4643   007BD6                     u1110:
  4644   007BD6                     
  4645                           ;main_piee2.c: 202:                 fsm->next_state = STATE_READY;
  4646   007BD6  EE20 F001          	lfsr	2,1
  4647   007BDA  5001               	movf	FSM_CheckTransitions@fsm^0,w,c
  4648   007BDC  26D9               	addwf	fsr2l,f,c
  4649   007BDE  5002               	movf	(FSM_CheckTransitions@fsm+1)^0,w,c
  4650   007BE0  22DA               	addwfc	fsr2h,f,c
  4651   007BE2  0E02               	movlw	2
  4652   007BE4  6EDF               	movwf	indf2,c
  4653   007BE6  EF16  F03F         	goto	l2128
  4654   007BEA                     l2078:
  4655                           
  4656                           ;main_piee2.c: 207:             if(current_interlock == 0) {
  4657   007BEA  500A               	movf	FSM_CheckTransitions@current_interlock^0,w,c
  4658   007BEC  A4D8               	btfss	status,2,c
  4659   007BEE  EFFB  F03D         	goto	u1121
  4660   007BF2  EFFD  F03D         	goto	u1120
  4661   007BF6                     u1121:
  4662   007BF6  EF07  F03E         	goto	l2082
  4663   007BFA                     u1120:
  4664   007BFA                     
  4665                           ;main_piee2.c: 208:                 fsm->next_state = STATE_BLOCKED;
  4666   007BFA  EE20 F001          	lfsr	2,1
  4667   007BFE  5001               	movf	FSM_CheckTransitions@fsm^0,w,c
  4668   007C00  26D9               	addwf	fsr2l,f,c
  4669   007C02  5002               	movf	(FSM_CheckTransitions@fsm+1)^0,w,c
  4670   007C04  22DA               	addwfc	fsr2h,f,c
  4671   007C06  0E06               	movlw	6
  4672   007C08  6EDF               	movwf	indf2,c
  4673                           
  4674                           ;main_piee2.c: 209:             }
  4675   007C0A  EF16  F03F         	goto	l2128
  4676   007C0E                     l2082:
  4677   007C0E  5005               	movf	FSM_CheckTransitions@liga_pressed^0,w,c
  4678   007C10  B4D8               	btfsc	status,2,c
  4679   007C12  EF0D  F03E         	goto	u1131
  4680   007C16  EF0F  F03E         	goto	u1130
  4681   007C1A                     u1131:
  4682   007C1A  EF16  F03F         	goto	l2128
  4683   007C1E                     u1130:
  4684   007C1E                     
  4685                           ;main_piee2.c: 211:                 fsm->next_state = STATE_STARTING;
  4686   007C1E  EE20 F001          	lfsr	2,1
  4687   007C22  5001               	movf	FSM_CheckTransitions@fsm^0,w,c
  4688   007C24  26D9               	addwf	fsr2l,f,c
  4689   007C26  5002               	movf	(FSM_CheckTransitions@fsm+1)^0,w,c
  4690   007C28  22DA               	addwfc	fsr2h,f,c
  4691   007C2A  0E03               	movlw	3
  4692   007C2C  6EDF               	movwf	indf2,c
  4693                           
  4694                           ;main_piee2.c: 212:                 fsm->start_timer = 0;
  4695   007C2E  EE20 F004          	lfsr	2,4
  4696   007C32  5001               	movf	FSM_CheckTransitions@fsm^0,w,c
  4697   007C34  26D9               	addwf	fsr2l,f,c
  4698   007C36  5002               	movf	(FSM_CheckTransitions@fsm+1)^0,w,c
  4699   007C38  22DA               	addwfc	fsr2h,f,c
  4700   007C3A  6ADE               	clrf	postinc2,c
  4701   007C3C  6ADD               	clrf	postdec2,c
  4702   007C3E  EF16  F03F         	goto	l2128
  4703   007C42                     l2086:
  4704                           
  4705                           ;main_piee2.c: 217:             if(current_interlock == 0) {
  4706   007C42  500A               	movf	FSM_CheckTransitions@current_interlock^0,w,c
  4707   007C44  A4D8               	btfss	status,2,c
  4708   007C46  EF27  F03E         	goto	u1141
  4709   007C4A  EF29  F03E         	goto	u1140
  4710   007C4E                     u1141:
  4711   007C4E  EF33  F03E         	goto	l2090
  4712   007C52                     u1140:
  4713   007C52                     
  4714                           ;main_piee2.c: 218:                 fsm->next_state = STATE_STOPPING;
  4715   007C52  EE20 F001          	lfsr	2,1
  4716   007C56  5001               	movf	FSM_CheckTransitions@fsm^0,w,c
  4717   007C58  26D9               	addwf	fsr2l,f,c
  4718   007C5A  5002               	movf	(FSM_CheckTransitions@fsm+1)^0,w,c
  4719   007C5C  22DA               	addwfc	fsr2h,f,c
  4720   007C5E  0E05               	movlw	5
  4721   007C60  6EDF               	movwf	indf2,c
  4722                           
  4723                           ;main_piee2.c: 219:             }
  4724   007C62  EF16  F03F         	goto	l2128
  4725   007C66                     l2090:
  4726   007C66  EE20 F004          	lfsr	2,4
  4727   007C6A  5001               	movf	FSM_CheckTransitions@fsm^0,w,c
  4728   007C6C  26D9               	addwf	fsr2l,f,c
  4729   007C6E  5002               	movf	(FSM_CheckTransitions@fsm+1)^0,w,c
  4730   007C70  22DA               	addwfc	fsr2h,f,c
  4731   007C72  0E01               	movlw	1
  4732   007C74  50DB               	movf	plusw2,w,c
  4733   007C76  E109               	bnz	u1150
  4734   007C78  0E1E               	movlw	30
  4735   007C7A  5CDE               	subwf	postinc2,w,c
  4736   007C7C  A0D8               	btfss	status,0,c
  4737   007C7E  EF43  F03E         	goto	u1151
  4738   007C82  EF45  F03E         	goto	u1150
  4739   007C86                     u1151:
  4740   007C86  EF4F  F03E         	goto	l2094
  4741   007C8A                     u1150:
  4742   007C8A                     
  4743                           ;main_piee2.c: 221:                 fsm->next_state = STATE_RUNNING;
  4744   007C8A  EE20 F001          	lfsr	2,1
  4745   007C8E  5001               	movf	FSM_CheckTransitions@fsm^0,w,c
  4746   007C90  26D9               	addwf	fsr2l,f,c
  4747   007C92  5002               	movf	(FSM_CheckTransitions@fsm+1)^0,w,c
  4748   007C94  22DA               	addwfc	fsr2h,f,c
  4749   007C96  0E04               	movlw	4
  4750   007C98  6EDF               	movwf	indf2,c
  4751                           
  4752                           ;main_piee2.c: 222:             }
  4753   007C9A  EF16  F03F         	goto	l2128
  4754   007C9E                     l2094:
  4755   007C9E  5009               	movf	FSM_CheckTransitions@desliga_pressed^0,w,c
  4756   007CA0  B4D8               	btfsc	status,2,c
  4757   007CA2  EF55  F03E         	goto	u1161
  4758   007CA6  EF57  F03E         	goto	u1160
  4759   007CAA                     u1161:
  4760   007CAA  EF16  F03F         	goto	l2128
  4761   007CAE                     u1160:
  4762   007CAE                     
  4763                           ;main_piee2.c: 224:                 fsm->next_state = STATE_STOPPING;
  4764   007CAE  EE20 F001          	lfsr	2,1
  4765   007CB2  5001               	movf	FSM_CheckTransitions@fsm^0,w,c
  4766   007CB4  26D9               	addwf	fsr2l,f,c
  4767   007CB6  5002               	movf	(FSM_CheckTransitions@fsm+1)^0,w,c
  4768   007CB8  22DA               	addwfc	fsr2h,f,c
  4769   007CBA  0E05               	movlw	5
  4770   007CBC  6EDF               	movwf	indf2,c
  4771   007CBE  EF16  F03F         	goto	l2128
  4772   007CC2                     l2098:
  4773                           
  4774                           ;main_piee2.c: 229:             if(current_interlock == 0) {
  4775   007CC2  500A               	movf	FSM_CheckTransitions@current_interlock^0,w,c
  4776   007CC4  A4D8               	btfss	status,2,c
  4777   007CC6  EF67  F03E         	goto	u1171
  4778   007CCA  EF69  F03E         	goto	u1170
  4779   007CCE                     u1171:
  4780   007CCE  EF73  F03E         	goto	l2102
  4781   007CD2                     u1170:
  4782   007CD2                     
  4783                           ;main_piee2.c: 230:                 fsm->next_state = STATE_STOPPING;
  4784   007CD2  EE20 F001          	lfsr	2,1
  4785   007CD6  5001               	movf	FSM_CheckTransitions@fsm^0,w,c
  4786   007CD8  26D9               	addwf	fsr2l,f,c
  4787   007CDA  5002               	movf	(FSM_CheckTransitions@fsm+1)^0,w,c
  4788   007CDC  22DA               	addwfc	fsr2h,f,c
  4789   007CDE  0E05               	movlw	5
  4790   007CE0  6EDF               	movwf	indf2,c
  4791                           
  4792                           ;main_piee2.c: 231:             }
  4793   007CE2  EF16  F03F         	goto	l2128
  4794   007CE6                     l2102:
  4795   007CE6  5009               	movf	FSM_CheckTransitions@desliga_pressed^0,w,c
  4796   007CE8  B4D8               	btfsc	status,2,c
  4797   007CEA  EF79  F03E         	goto	u1181
  4798   007CEE  EF7B  F03E         	goto	u1180
  4799   007CF2                     u1181:
  4800   007CF2  EF16  F03F         	goto	l2128
  4801   007CF6                     u1180:
  4802   007CF6                     
  4803                           ;main_piee2.c: 233:                 fsm->next_state = STATE_STOPPING;
  4804   007CF6  EE20 F001          	lfsr	2,1
  4805   007CFA  5001               	movf	FSM_CheckTransitions@fsm^0,w,c
  4806   007CFC  26D9               	addwf	fsr2l,f,c
  4807   007CFE  5002               	movf	(FSM_CheckTransitions@fsm+1)^0,w,c
  4808   007D00  22DA               	addwfc	fsr2h,f,c
  4809   007D02  0E05               	movlw	5
  4810   007D04  6EDF               	movwf	indf2,c
  4811   007D06  EF16  F03F         	goto	l2128
  4812   007D0A                     l2106:
  4813                           
  4814                           ;main_piee2.c: 238:             if(fsm->timer_counter > 50) {
  4815   007D0A  EE20 F002          	lfsr	2,2
  4816   007D0E  5001               	movf	FSM_CheckTransitions@fsm^0,w,c
  4817   007D10  26D9               	addwf	fsr2l,f,c
  4818   007D12  5002               	movf	(FSM_CheckTransitions@fsm+1)^0,w,c
  4819   007D14  22DA               	addwfc	fsr2h,f,c
  4820   007D16  0E01               	movlw	1
  4821   007D18  50DB               	movf	plusw2,w,c
  4822   007D1A  E109               	bnz	u1190
  4823   007D1C  0E33               	movlw	51
  4824   007D1E  5CDE               	subwf	postinc2,w,c
  4825   007D20  A0D8               	btfss	status,0,c
  4826   007D22  EF95  F03E         	goto	u1191
  4827   007D26  EF97  F03E         	goto	u1190
  4828   007D2A                     u1191:
  4829   007D2A  EF16  F03F         	goto	l2128
  4830   007D2E                     u1190:
  4831   007D2E                     
  4832                           ;main_piee2.c: 239:                 if(current_interlock == 0) {
  4833   007D2E  500A               	movf	FSM_CheckTransitions@current_interlock^0,w,c
  4834   007D30  A4D8               	btfss	status,2,c
  4835   007D32  EF9D  F03E         	goto	u1201
  4836   007D36  EF9F  F03E         	goto	u1200
  4837   007D3A                     u1201:
  4838   007D3A  EFA9  F03E         	goto	l2112
  4839   007D3E                     u1200:
  4840   007D3E                     
  4841                           ;main_piee2.c: 240:                     fsm->next_state = STATE_BLOCKED;
  4842   007D3E  EE20 F001          	lfsr	2,1
  4843   007D42  5001               	movf	FSM_CheckTransitions@fsm^0,w,c
  4844   007D44  26D9               	addwf	fsr2l,f,c
  4845   007D46  5002               	movf	(FSM_CheckTransitions@fsm+1)^0,w,c
  4846   007D48  22DA               	addwfc	fsr2h,f,c
  4847   007D4A  0E06               	movlw	6
  4848   007D4C  6EDF               	movwf	indf2,c
  4849                           
  4850                           ;main_piee2.c: 241:                 }
  4851   007D4E  EF16  F03F         	goto	l2128
  4852   007D52                     l2112:
  4853                           
  4854                           ;main_piee2.c: 243:                     fsm->next_state = STATE_READY;
  4855   007D52  EE20 F001          	lfsr	2,1
  4856   007D56  5001               	movf	FSM_CheckTransitions@fsm^0,w,c
  4857   007D58  26D9               	addwf	fsr2l,f,c
  4858   007D5A  5002               	movf	(FSM_CheckTransitions@fsm+1)^0,w,c
  4859   007D5C  22DA               	addwfc	fsr2h,f,c
  4860   007D5E  0E02               	movlw	2
  4861   007D60  6EDF               	movwf	indf2,c
  4862   007D62  EF16  F03F         	goto	l2128
  4863   007D66                     l2114:
  4864                           
  4865                           ;main_piee2.c: 249:             if(current_interlock == 1) {
  4866   007D66  040A               	decf	FSM_CheckTransitions@current_interlock^0,w,c
  4867   007D68  A4D8               	btfss	status,2,c
  4868   007D6A  EFB9  F03E         	goto	u1211
  4869   007D6E  EFBB  F03E         	goto	u1210
  4870   007D72                     u1211:
  4871   007D72  EF16  F03F         	goto	l2128
  4872   007D76                     u1210:
  4873   007D76                     
  4874                           ;main_piee2.c: 250:                 fsm->next_state = STATE_READY;
  4875   007D76  EE20 F001          	lfsr	2,1
  4876   007D7A  5001               	movf	FSM_CheckTransitions@fsm^0,w,c
  4877   007D7C  26D9               	addwf	fsr2l,f,c
  4878   007D7E  5002               	movf	(FSM_CheckTransitions@fsm+1)^0,w,c
  4879   007D80  22DA               	addwfc	fsr2h,f,c
  4880   007D82  0E02               	movlw	2
  4881   007D84  6EDF               	movwf	indf2,c
  4882   007D86  EF16  F03F         	goto	l2128
  4883   007D8A                     l2118:
  4884                           
  4885                           ;main_piee2.c: 256:             if(fsm->timer_counter > 1000) {
  4886   007D8A  EE20 F002          	lfsr	2,2
  4887   007D8E  5001               	movf	FSM_CheckTransitions@fsm^0,w,c
  4888   007D90  26D9               	addwf	fsr2l,f,c
  4889   007D92  5002               	movf	(FSM_CheckTransitions@fsm+1)^0,w,c
  4890   007D94  22DA               	addwfc	fsr2h,f,c
  4891   007D96  0EE9               	movlw	233
  4892   007D98  5CDE               	subwf	postinc2,w,c
  4893   007D9A  0E03               	movlw	3
  4894   007D9C  58DE               	subwfb	postinc2,w,c
  4895   007D9E  A0D8               	btfss	status,0,c
  4896   007DA0  EFD4  F03E         	goto	u1221
  4897   007DA4  EFD6  F03E         	goto	u1220
  4898   007DA8                     u1221:
  4899   007DA8  EF16  F03F         	goto	l2128
  4900   007DAC                     u1220:
  4901   007DAC                     
  4902                           ;main_piee2.c: 257:                 fsm->next_state = STATE_READY;
  4903   007DAC  EE20 F001          	lfsr	2,1
  4904   007DB0  5001               	movf	FSM_CheckTransitions@fsm^0,w,c
  4905   007DB2  26D9               	addwf	fsr2l,f,c
  4906   007DB4  5002               	movf	(FSM_CheckTransitions@fsm+1)^0,w,c
  4907   007DB6  22DA               	addwfc	fsr2h,f,c
  4908   007DB8  0E02               	movlw	2
  4909   007DBA  6EDF               	movwf	indf2,c
  4910   007DBC  EF16  F03F         	goto	l2128
  4911   007DC0                     l2122:
  4912                           
  4913                           ;main_piee2.c: 262:             fsm->next_state = STATE_IDLE;
  4914   007DC0  EE20 F001          	lfsr	2,1
  4915   007DC4  5001               	movf	FSM_CheckTransitions@fsm^0,w,c
  4916   007DC6  26D9               	addwf	fsr2l,f,c
  4917   007DC8  5002               	movf	(FSM_CheckTransitions@fsm+1)^0,w,c
  4918   007DCA  22DA               	addwfc	fsr2h,f,c
  4919   007DCC  6ADF               	clrf	indf2,c
  4920                           
  4921                           ;main_piee2.c: 263:             break;
  4922   007DCE  EF16  F03F         	goto	l2128
  4923   007DD2                     l2126:
  4924   007DD2  C001  FFD9         	movff	FSM_CheckTransitions@fsm,fsr2l
  4925   007DD6  C002  FFDA         	movff	FSM_CheckTransitions@fsm+1,fsr2h
  4926   007DDA  50DF               	movf	indf2,w,c
  4927   007DDC  6E03               	movwf	??_FSM_CheckTransitions^0,c
  4928   007DDE  6A04               	clrf	(??_FSM_CheckTransitions+1)^0,c
  4929                           
  4930                           ; Switch on 2 bytes has been partitioned into a top level switch of size 1, and 1 sub-sw
      +                          itches
  4931                           ; Switch size 1, requested type "simple"
  4932                           ; Number of cases is 1, Range of values is 0 to 0
  4933                           ; switch strategies available:
  4934                           ; Name         Instructions Cycles
  4935                           ; simple_byte            4     3 (average)
  4936                           ;	Chosen strategy is simple_byte
  4937   007DE0  5004               	movf	(??_FSM_CheckTransitions+1)^0,w,c
  4938   007DE2  0A00               	xorlw	0	; case 0
  4939   007DE4  B4D8               	btfsc	status,2,c
  4940   007DE6  EFF7  F03E         	goto	l2524
  4941   007DEA  EFE0  F03E         	goto	l2122
  4942   007DEE                     l2524:
  4943                           
  4944                           ; Switch size 1, requested type "simple"
  4945                           ; Number of cases is 7, Range of values is 1 to 7
  4946                           ; switch strategies available:
  4947                           ; Name         Instructions Cycles
  4948                           ; simple_byte           22    12 (average)
  4949                           ;	Chosen strategy is simple_byte
  4950   007DEE  5003               	movf	??_FSM_CheckTransitions^0,w,c
  4951   007DF0  0A01               	xorlw	1	; case 1
  4952   007DF2  B4D8               	btfsc	status,2,c
  4953   007DF4  EFDA  F03D         	goto	l2074
  4954   007DF8  0A03               	xorlw	3	; case 2
  4955   007DFA  B4D8               	btfsc	status,2,c
  4956   007DFC  EFF5  F03D         	goto	l2078
  4957   007E00  0A01               	xorlw	1	; case 3
  4958   007E02  B4D8               	btfsc	status,2,c
  4959   007E04  EF21  F03E         	goto	l2086
  4960   007E08  0A07               	xorlw	7	; case 4
  4961   007E0A  B4D8               	btfsc	status,2,c
  4962   007E0C  EF61  F03E         	goto	l2098
  4963   007E10  0A01               	xorlw	1	; case 5
  4964   007E12  B4D8               	btfsc	status,2,c
  4965   007E14  EF85  F03E         	goto	l2106
  4966   007E18  0A03               	xorlw	3	; case 6
  4967   007E1A  B4D8               	btfsc	status,2,c
  4968   007E1C  EFB3  F03E         	goto	l2114
  4969   007E20  0A01               	xorlw	1	; case 7
  4970   007E22  B4D8               	btfsc	status,2,c
  4971   007E24  EFC5  F03E         	goto	l2118
  4972   007E28  EFE0  F03E         	goto	l2122
  4973   007E2C                     l2128:
  4974                           
  4975                           ;main_piee2.c: 266:     if(fsm->current_state != fsm->next_state) {
  4976   007E2C  EE20 F001          	lfsr	2,1
  4977   007E30  5001               	movf	FSM_CheckTransitions@fsm^0,w,c
  4978   007E32  26D9               	addwf	fsr2l,f,c
  4979   007E34  5002               	movf	(FSM_CheckTransitions@fsm+1)^0,w,c
  4980   007E36  22DA               	addwfc	fsr2h,f,c
  4981   007E38  C001  FFE1         	movff	FSM_CheckTransitions@fsm,fsr1l
  4982   007E3C  C002  FFE2         	movff	FSM_CheckTransitions@fsm+1,fsr1h
  4983   007E40  50DE               	movf	postinc2,w,c
  4984   007E42  18E6               	xorwf	postinc1,w,c
  4985   007E44  B4D8               	btfsc	status,2,c
  4986   007E46  EF27  F03F         	goto	u1231
  4987   007E4A  EF29  F03F         	goto	u1230
  4988   007E4E                     u1231:
  4989   007E4E  EF3D  F03F         	goto	l144
  4990   007E52                     u1230:
  4991   007E52                     
  4992                           ;main_piee2.c: 267:         fsm->current_state = fsm->next_state;
  4993   007E52  EE20 F001          	lfsr	2,1
  4994   007E56  5001               	movf	FSM_CheckTransitions@fsm^0,w,c
  4995   007E58  26D9               	addwf	fsr2l,f,c
  4996   007E5A  5002               	movf	(FSM_CheckTransitions@fsm+1)^0,w,c
  4997   007E5C  22DA               	addwfc	fsr2h,f,c
  4998   007E5E  C001  FFE1         	movff	FSM_CheckTransitions@fsm,fsr1l
  4999   007E62  C002  FFE2         	movff	FSM_CheckTransitions@fsm+1,fsr1h
  5000   007E66  CFDF FFE7          	movff	indf2,indf1
  5001   007E6A                     
  5002                           ;main_piee2.c: 268:         fsm->timer_counter = 0;
  5003   007E6A  EE20 F002          	lfsr	2,2
  5004   007E6E  5001               	movf	FSM_CheckTransitions@fsm^0,w,c
  5005   007E70  26D9               	addwf	fsr2l,f,c
  5006   007E72  5002               	movf	(FSM_CheckTransitions@fsm+1)^0,w,c
  5007   007E74  22DA               	addwfc	fsr2h,f,c
  5008   007E76  6ADE               	clrf	postinc2,c
  5009   007E78  6ADD               	clrf	postdec2,c
  5010   007E7A                     l144:
  5011   007E7A  0012               	return		;funcret
  5012   007E7C                     __end_of_FSM_CheckTransitions:
  5013                           	callstack 0
  5014                           
  5015 ;; *************** function _FSM_Init *****************
  5016 ;; Defined at:
  5017 ;;		line 141 in file "main_piee2.c"
  5018 ;; Parameters:    Size  Location     Type
  5019 ;;  fsm             2    0[COMRAM] PTR struct .
  5020 ;;		 -> system_fsm(13), 
  5021 ;; Auto vars:     Size  Location     Type
  5022 ;;		None
  5023 ;; Return value:  Size  Location     Type
  5024 ;;                  1    wreg      void 
  5025 ;; Registers used:
  5026 ;;		wreg, fsr2l, fsr2h, status,2, status,0
  5027 ;; Tracked objects:
  5028 ;;		On entry : 0/0
  5029 ;;		On exit  : 0/0
  5030 ;;		Unchanged: 0/0
  5031 ;; Data sizes:     COMRAM   BANK0   BANK1   BANK2   BANK3   BANK4   BANK5   BANK6   BANK7
  5032 ;;      Params:         2       0       0       0       0       0       0       0       0
  5033 ;;      Locals:         0       0       0       0       0       0       0       0       0
  5034 ;;      Temps:          0       0       0       0       0       0       0       0       0
  5035 ;;      Totals:         2       0       0       0       0       0       0       0       0
  5036 ;;Total ram usage:        2 bytes
  5037 ;; Hardware stack levels used: 1
  5038 ;; This function calls:
  5039 ;;		Nothing
  5040 ;; This function is called by:
  5041 ;;		_main
  5042 ;; This function uses a non-reentrant model
  5043 ;;
  5044                           
  5045                           	psect	text31
  5046   007094                     __ptext31:
  5047                           	callstack 0
  5048   007094                     _FSM_Init:
  5049                           	callstack 30
  5050   007094                     
  5051                           ;main_piee2.c: 141: void FSM_Init(fsm_data_t *fsm);main_piee2.c: 142: {;main_piee2.c: 14
      +                          3:     fsm->current_state = STATE_INIT;
  5052   007094  C001  FFD9         	movff	FSM_Init@fsm,fsr2l
  5053   007098  C002  FFDA         	movff	FSM_Init@fsm+1,fsr2h
  5054   00709C  0E01               	movlw	1
  5055   00709E  6EDF               	movwf	indf2,c
  5056   0070A0                     
  5057                           ;main_piee2.c: 144:     fsm->next_state = STATE_INIT;
  5058   0070A0  EE20 F001          	lfsr	2,1
  5059   0070A4  5001               	movf	FSM_Init@fsm^0,w,c
  5060   0070A6  26D9               	addwf	fsr2l,f,c
  5061   0070A8  5002               	movf	(FSM_Init@fsm+1)^0,w,c
  5062   0070AA  22DA               	addwfc	fsr2h,f,c
  5063   0070AC  0E01               	movlw	1
  5064   0070AE  6EDF               	movwf	indf2,c
  5065   0070B0                     
  5066                           ;main_piee2.c: 145:     fsm->timer_counter = 0;
  5067   0070B0  EE20 F002          	lfsr	2,2
  5068   0070B4  5001               	movf	FSM_Init@fsm^0,w,c
  5069   0070B6  26D9               	addwf	fsr2l,f,c
  5070   0070B8  5002               	movf	(FSM_Init@fsm+1)^0,w,c
  5071   0070BA  22DA               	addwfc	fsr2h,f,c
  5072   0070BC  6ADE               	clrf	postinc2,c
  5073   0070BE  6ADD               	clrf	postdec2,c
  5074   0070C0                     
  5075                           ;main_piee2.c: 146:     fsm->start_timer = 0;
  5076   0070C0  EE20 F004          	lfsr	2,4
  5077   0070C4  5001               	movf	FSM_Init@fsm^0,w,c
  5078   0070C6  26D9               	addwf	fsr2l,f,c
  5079   0070C8  5002               	movf	(FSM_Init@fsm+1)^0,w,c
  5080   0070CA  22DA               	addwfc	fsr2h,f,c
  5081   0070CC  6ADE               	clrf	postinc2,c
  5082   0070CE  6ADD               	clrf	postdec2,c
  5083   0070D0                     
  5084                           ;main_piee2.c: 147:     fsm->blink_counter = 0;
  5085   0070D0  EE20 F006          	lfsr	2,6
  5086   0070D4  5001               	movf	FSM_Init@fsm^0,w,c
  5087   0070D6  26D9               	addwf	fsr2l,f,c
  5088   0070D8  5002               	movf	(FSM_Init@fsm+1)^0,w,c
  5089   0070DA  22DA               	addwfc	fsr2h,f,c
  5090   0070DC  6ADE               	clrf	postinc2,c
  5091   0070DE  6ADD               	clrf	postdec2,c
  5092   0070E0                     
  5093                           ;main_piee2.c: 148:     fsm->beep_counter = 0;
  5094   0070E0  EE20 F008          	lfsr	2,8
  5095   0070E4  5001               	movf	FSM_Init@fsm^0,w,c
  5096   0070E6  26D9               	addwf	fsr2l,f,c
  5097   0070E8  5002               	movf	(FSM_Init@fsm+1)^0,w,c
  5098   0070EA  22DA               	addwfc	fsr2h,f,c
  5099   0070EC  6ADE               	clrf	postinc2,c
  5100   0070EE  6ADD               	clrf	postdec2,c
  5101   0070F0                     
  5102                           ;main_piee2.c: 149:     fsm->last_liga_state = 1;
  5103   0070F0  EE20 F00A          	lfsr	2,10
  5104   0070F4  5001               	movf	FSM_Init@fsm^0,w,c
  5105   0070F6  26D9               	addwf	fsr2l,f,c
  5106   0070F8  5002               	movf	(FSM_Init@fsm+1)^0,w,c
  5107   0070FA  22DA               	addwfc	fsr2h,f,c
  5108   0070FC  0E01               	movlw	1
  5109   0070FE  6EDF               	movwf	indf2,c
  5110   007100                     
  5111                           ;main_piee2.c: 150:     fsm->last_desliga_state = 1;
  5112   007100  EE20 F00B          	lfsr	2,11
  5113   007104  5001               	movf	FSM_Init@fsm^0,w,c
  5114   007106  26D9               	addwf	fsr2l,f,c
  5115   007108  5002               	movf	(FSM_Init@fsm+1)^0,w,c
  5116   00710A  22DA               	addwfc	fsr2h,f,c
  5117   00710C  0E01               	movlw	1
  5118   00710E  6EDF               	movwf	indf2,c
  5119   007110                     
  5120                           ;main_piee2.c: 151:     fsm->last_interlock_state = 1;
  5121   007110  EE20 F00C          	lfsr	2,12
  5122   007114  5001               	movf	FSM_Init@fsm^0,w,c
  5123   007116  26D9               	addwf	fsr2l,f,c
  5124   007118  5002               	movf	(FSM_Init@fsm+1)^0,w,c
  5125   00711A  22DA               	addwfc	fsr2h,f,c
  5126   00711C  0E01               	movlw	1
  5127   00711E  6EDF               	movwf	indf2,c
  5128   007120                     
  5129                           ;main_piee2.c: 155:     LATD3 = 0;
  5130   007120  968C               	bcf	3980,3,c	;volatile
  5131   007122                     
  5132                           ;main_piee2.c: 156:     LATD2 = 0;
  5133   007122  948C               	bcf	3980,2,c	;volatile
  5134   007124                     
  5135                           ;main_piee2.c: 157:     LATD1 = 0;
  5136   007124  928C               	bcf	3980,1,c	;volatile
  5137   007126  0012               	return		;funcret
  5138   007128                     __end_of_FSM_Init:
  5139                           	callstack 0
  5140                           
  5141 ;; *************** function _Beep *****************
  5142 ;; Defined at:
  5143 ;;		line 415 in file "main_piee2.c"
  5144 ;; Parameters:    Size  Location     Type
  5145 ;;  val             2    6[COMRAM] unsigned int 
  5146 ;; Auto vars:     Size  Location     Type
  5147 ;;  i               2    8[COMRAM] unsigned int 
  5148 ;; Return value:  Size  Location     Type
  5149 ;;                  1    wreg      void 
  5150 ;; Registers used:
  5151 ;;		wreg, status,2, status,0, cstack
  5152 ;; Tracked objects:
  5153 ;;		On entry : 0/0
  5154 ;;		On exit  : 0/0
  5155 ;;		Unchanged: 0/0
  5156 ;; Data sizes:     COMRAM   BANK0   BANK1   BANK2   BANK3   BANK4   BANK5   BANK6   BANK7
  5157 ;;      Params:         2       0       0       0       0       0       0       0       0
  5158 ;;      Locals:         2       0       0       0       0       0       0       0       0
  5159 ;;      Temps:          0       0       0       0       0       0       0       0       0
  5160 ;;      Totals:         4       0       0       0       0       0       0       0       0
  5161 ;;Total ram usage:        4 bytes
  5162 ;; Hardware stack levels used: 1
  5163 ;; Hardware stack levels required when called: 1
  5164 ;; This function calls:
  5165 ;;		_MSdelay
  5166 ;; This function is called by:
  5167 ;;		_main
  5168 ;; This function uses a non-reentrant model
  5169 ;;
  5170                           
  5171                           	psect	text32
  5172   006BBE                     __ptext32:
  5173                           	callstack 0
  5174   006BBE                     _Beep:
  5175                           	callstack 29
  5176   006BBE                     
  5177                           ;main_piee2.c: 416:  unsigned int i;;main_piee2.c: 417:  for(i=0;i<val;i++)
  5178   006BBE  0E00               	movlw	0
  5179   006BC0  6E0A               	movwf	(Beep@i+1)^0,c
  5180   006BC2  0E00               	movlw	0
  5181   006BC4  6E09               	movwf	Beep@i^0,c
  5182   006BC6  EFF5  F035         	goto	l2302
  5183   006BCA                     l187:
  5184                           
  5185                           ;main_piee2.c: 418:     {;main_piee2.c: 419:      LATD0 = 1;
  5186   006BCA  808C               	bsf	3980,0,c	;volatile
  5187   006BCC                     
  5188                           ;main_piee2.c: 420:      MSdelay(500);
  5189   006BCC  0E01               	movlw	1
  5190   006BCE  6E02               	movwf	(MSdelay@val+1)^0,c
  5191   006BD0  0EF4               	movlw	244
  5192   006BD2  6E01               	movwf	MSdelay@val^0,c
  5193   006BD4  EC47  F036         	call	_MSdelay	;wreg free
  5194   006BD8                     
  5195                           ;main_piee2.c: 421:      LATD0 = 0;
  5196   006BD8  908C               	bcf	3980,0,c	;volatile
  5197                           
  5198                           ;main_piee2.c: 422:      MSdelay(500);
  5199   006BDA  0E01               	movlw	1
  5200   006BDC  6E02               	movwf	(MSdelay@val+1)^0,c
  5201   006BDE  0EF4               	movlw	244
  5202   006BE0  6E01               	movwf	MSdelay@val^0,c
  5203   006BE2  EC47  F036         	call	_MSdelay	;wreg free
  5204   006BE6                     
  5205                           ;main_piee2.c: 423:     }
  5206   006BE6  4A09               	infsnz	Beep@i^0,f,c
  5207   006BE8  2A0A               	incf	(Beep@i+1)^0,f,c
  5208   006BEA                     l2302:
  5209   006BEA  5007               	movf	Beep@val^0,w,c
  5210   006BEC  5C09               	subwf	Beep@i^0,w,c
  5211   006BEE  5008               	movf	(Beep@val+1)^0,w,c
  5212   006BF0  580A               	subwfb	(Beep@i+1)^0,w,c
  5213   006BF2  A0D8               	btfss	status,0,c
  5214   006BF4  EFFE  F035         	goto	u1281
  5215   006BF8  EF00  F036         	goto	u1280
  5216   006BFC                     u1281:
  5217   006BFC  EFE5  F035         	goto	l187
  5218   006C00                     u1280:
  5219   006C00  0012               	return		;funcret
  5220   006C02                     __end_of_Beep:
  5221                           	callstack 0
  5222                           
  5223 ;; *************** function _MSdelay *****************
  5224 ;; Defined at:
  5225 ;;		line 14 in file "msdelay.c"
  5226 ;; Parameters:    Size  Location     Type
  5227 ;;  val             2    0[COMRAM] unsigned int 
  5228 ;; Auto vars:     Size  Location     Type
  5229 ;;  j               2    4[COMRAM] unsigned int 
  5230 ;;  i               2    2[COMRAM] unsigned int 
  5231 ;; Return value:  Size  Location     Type
  5232 ;;                  1    wreg      void 
  5233 ;; Registers used:
  5234 ;;		wreg, status,2, status,0
  5235 ;; Tracked objects:
  5236 ;;		On entry : 0/0
  5237 ;;		On exit  : 0/0
  5238 ;;		Unchanged: 0/0
  5239 ;; Data sizes:     COMRAM   BANK0   BANK1   BANK2   BANK3   BANK4   BANK5   BANK6   BANK7
  5240 ;;      Params:         2       0       0       0       0       0       0       0       0
  5241 ;;      Locals:         4       0       0       0       0       0       0       0       0
  5242 ;;      Temps:          0       0       0       0       0       0       0       0       0
  5243 ;;      Totals:         6       0       0       0       0       0       0       0       0
  5244 ;;Total ram usage:        6 bytes
  5245 ;; Hardware stack levels used: 1
  5246 ;; This function calls:
  5247 ;;		Nothing
  5248 ;; This function is called by:
  5249 ;;		_main
  5250 ;;		_Beep
  5251 ;;		_LCD_Init
  5252 ;;		_LCD_Command
  5253 ;;		_LCD_Char
  5254 ;;		_LCD_Clear
  5255 ;; This function uses a non-reentrant model
  5256 ;;
  5257                           
  5258                           	psect	text33
  5259   006C8E                     __ptext33:
  5260                           	callstack 0
  5261   006C8E                     _MSdelay:
  5262                           	callstack 25
  5263   006C8E                     
  5264                           ;msdelay.c: 14: void MSdelay(unsigned int val);msdelay.c: 15: {;msdelay.c: 16:  unsigned
      +                           int i,j;;msdelay.c: 17:  for(i=0;i<val;i++)
  5265   006C8E  0E00               	movlw	0
  5266   006C90  6E04               	movwf	(MSdelay@i+1)^0,c
  5267   006C92  0E00               	movlw	0
  5268   006C94  6E03               	movwf	MSdelay@i^0,c
  5269   006C96  EF60  F036         	goto	l1814
  5270   006C9A                     l1802:
  5271                           
  5272                           ;msdelay.c: 18:      for(j=0;j<165;j++);
  5273   006C9A  0E00               	movlw	0
  5274   006C9C  6E06               	movwf	(MSdelay@j+1)^0,c
  5275   006C9E  0E00               	movlw	0
  5276   006CA0  6E05               	movwf	MSdelay@j^0,c
  5277   006CA2                     l1808:
  5278   006CA2  4A05               	infsnz	MSdelay@j^0,f,c
  5279   006CA4  2A06               	incf	(MSdelay@j+1)^0,f,c
  5280   006CA6  5006               	movf	(MSdelay@j+1)^0,w,c
  5281   006CA8  E109               	bnz	u730
  5282   006CAA  0EA5               	movlw	165
  5283   006CAC  5C05               	subwf	MSdelay@j^0,w,c
  5284   006CAE  A0D8               	btfss	status,0,c
  5285   006CB0  EF5C  F036         	goto	u731
  5286   006CB4  EF5E  F036         	goto	u730
  5287   006CB8                     u731:
  5288   006CB8  EF51  F036         	goto	l1808
  5289   006CBC                     u730:
  5290   006CBC  4A03               	infsnz	MSdelay@i^0,f,c
  5291   006CBE  2A04               	incf	(MSdelay@i+1)^0,f,c
  5292   006CC0                     l1814:
  5293   006CC0  5001               	movf	MSdelay@val^0,w,c
  5294   006CC2  5C03               	subwf	MSdelay@i^0,w,c
  5295   006CC4  5002               	movf	(MSdelay@val+1)^0,w,c
  5296   006CC6  5804               	subwfb	(MSdelay@i+1)^0,w,c
  5297   006CC8  A0D8               	btfss	status,0,c
  5298   006CCA  EF69  F036         	goto	u741
  5299   006CCE  EF6B  F036         	goto	u740
  5300   006CD2                     u741:
  5301   006CD2  EF4D  F036         	goto	l1802
  5302   006CD6                     u740:
  5303   006CD6  0012               	return		;funcret
  5304   006CD8                     __end_of_MSdelay:
  5305                           	callstack 0
  5306                           
  5307                           	psect	rparam
  5308   000000                     
  5309                           	psect	config
  5310                           
  5311                           ;Config register CONFIG1L @ 0x300000
  5312                           ;	PLL Prescaler Selection bits
  5313                           ;	PLLDIV = 1, No prescale (4 MHz oscillator input drives PLL directly)
  5314                           ;	System Clock Postscaler Selection bits
  5315                           ;	CPUDIV = OSC1_PLL2, [Primary Oscillator Src: /1][96 MHz PLL Src: /2]
  5316                           ;	USB Clock Selection bit (used in Full-Speed USB mode only; UCFG:FSEN = 1)
  5317                           ;	USBDIV = 1, USB clock source comes directly from the primary oscillator block with no 
      +                          postscale
  5318   300000                     	org	3145728
  5319   300000  00                 	db	0
  5320                           
  5321                           ;Config register CONFIG1H @ 0x300001
  5322                           ;	Oscillator Selection bits
  5323                           ;	FOSC = INTOSC_EC, Internal oscillator, CLKO function on RA6, EC used by USB (INTCKO)
  5324                           ;	Fail-Safe Clock Monitor Enable bit
  5325                           ;	FCMEN = OFF, Fail-Safe Clock Monitor disabled
  5326                           ;	Internal/External Oscillator Switchover bit
  5327                           ;	IESO = OFF, Oscillator Switchover mode disabled
  5328   300001                     	org	3145729
  5329   300001  09                 	db	9
  5330                           
  5331                           ;Config register CONFIG2L @ 0x300002
  5332                           ;	Power-up Timer Enable bit
  5333                           ;	PWRT = OFF, PWRT disabled
  5334                           ;	Brown-out Reset Enable bits
  5335                           ;	BOR = OFF, Brown-out Reset disabled in hardware and software
  5336                           ;	Brown-out Reset Voltage bits
  5337                           ;	BORV = 3, Minimum setting 2.05V
  5338                           ;	USB Voltage Regulator Enable bit
  5339                           ;	VREGEN = OFF, USB voltage regulator disabled
  5340   300002                     	org	3145730
  5341   300002  19                 	db	25
  5342                           
  5343                           ;Config register CONFIG2H @ 0x300003
  5344                           ;	Watchdog Timer Enable bit
  5345                           ;	WDT = OFF, WDT disabled (control is placed on the SWDTEN bit)
  5346                           ;	Watchdog Timer Postscale Select bits
  5347                           ;	WDTPS = 32768, 1:32768
  5348   300003                     	org	3145731
  5349   300003  1E                 	db	30
  5350                           
  5351                           ; Padding undefined space
  5352   300004                     	org	3145732
  5353   300004  FF                 	db	255
  5354                           
  5355                           ;Config register CONFIG3H @ 0x300005
  5356                           ;	CCP2 MUX bit
  5357                           ;	CCP2MX = ON, CCP2 input/output is multiplexed with RC1
  5358                           ;	PORTB A/D Enable bit
  5359                           ;	PBADEN = OFF, PORTB<4:0> pins are configured as digital I/O on Reset
  5360                           ;	Low-Power Timer 1 Oscillator Enable bit
  5361                           ;	LPT1OSC = OFF, Timer1 configured for higher power operation
  5362                           ;	MCLR Pin Enable bit
  5363                           ;	MCLRE = OFF, RE3 input pin enabled; MCLR pin disabled
  5364   300005                     	org	3145733
  5365   300005  01                 	db	1
  5366                           
  5367                           ;Config register CONFIG4L @ 0x300006
  5368                           ;	Stack Full/Underflow Reset Enable bit
  5369                           ;	STVREN = ON, Stack full/underflow will cause Reset
  5370                           ;	Single-Supply ICSP Enable bit
  5371                           ;	LVP = OFF, Single-Supply ICSP disabled
  5372                           ;	Dedicated In-Circuit Debug/Programming Port (ICPORT) Enable bit
  5373                           ;	ICPRT = OFF, ICPORT disabled
  5374                           ;	Extended Instruction Set Enable bit
  5375                           ;	XINST = OFF, Instruction set extension and Indexed Addressing mode disabled (Legacy mo
      +                          de)
  5376                           ;	Background Debugger Enable bit
  5377                           ;	DEBUG = 0x1, unprogrammed default
  5378   300006                     	org	3145734
  5379   300006  81                 	db	129
  5380                           
  5381                           ; Padding undefined space
  5382   300007                     	org	3145735
  5383   300007  FF                 	db	255
  5384                           
  5385                           ;Config register CONFIG5L @ 0x300008
  5386                           ;	Code Protection bit
  5387                           ;	CP0 = OFF, Block 0 (000800-001FFFh) is not code-protected
  5388                           ;	Code Protection bit
  5389                           ;	CP1 = OFF, Block 1 (002000-003FFFh) is not code-protected
  5390                           ;	Code Protection bit
  5391                           ;	CP2 = OFF, Block 2 (004000-005FFFh) is not code-protected
  5392                           ;	Code Protection bit
  5393                           ;	CP3 = OFF, Block 3 (006000-007FFFh) is not code-protected
  5394   300008                     	org	3145736
  5395   300008  0F                 	db	15
  5396                           
  5397                           ;Config register CONFIG5H @ 0x300009
  5398                           ;	Boot Block Code Protection bit
  5399                           ;	CPB = OFF, Boot block (000000-0007FFh) is not code-protected
  5400                           ;	Data EEPROM Code Protection bit
  5401                           ;	CPD = OFF, Data EEPROM is not code-protected
  5402   300009                     	org	3145737
  5403   300009  C0                 	db	192
  5404                           
  5405                           ;Config register CONFIG6L @ 0x30000A
  5406                           ;	Write Protection bit
  5407                           ;	WRT0 = OFF, Block 0 (000800-001FFFh) is not write-protected
  5408                           ;	Write Protection bit
  5409                           ;	WRT1 = OFF, Block 1 (002000-003FFFh) is not write-protected
  5410                           ;	Write Protection bit
  5411                           ;	WRT2 = OFF, Block 2 (004000-005FFFh) is not write-protected
  5412                           ;	Write Protection bit
  5413                           ;	WRT3 = OFF, Block 3 (006000-007FFFh) is not write-protected
  5414   30000A                     	org	3145738
  5415   30000A  0F                 	db	15
  5416                           
  5417                           ;Config register CONFIG6H @ 0x30000B
  5418                           ;	Configuration Register Write Protection bit
  5419                           ;	WRTC = OFF, Configuration registers (300000-3000FFh) are not write-protected
  5420                           ;	Boot Block Write Protection bit
  5421                           ;	WRTB = OFF, Boot block (000000-0007FFh) is not write-protected
  5422                           ;	Data EEPROM Write Protection bit
  5423                           ;	WRTD = OFF, Data EEPROM is not write-protected
  5424   30000B                     	org	3145739
  5425   30000B  E0                 	db	224
  5426                           
  5427                           ;Config register CONFIG7L @ 0x30000C
  5428                           ;	Table Read Protection bit
  5429                           ;	EBTR0 = OFF, Block 0 (000800-001FFFh) is not protected from table reads executed in ot
      +                          her blocks
  5430                           ;	Table Read Protection bit
  5431                           ;	EBTR1 = OFF, Block 1 (002000-003FFFh) is not protected from table reads executed in ot
      +                          her blocks
  5432                           ;	Table Read Protection bit
  5433                           ;	EBTR2 = OFF, Block 2 (004000-005FFFh) is not protected from table reads executed in ot
      +                          her blocks
  5434                           ;	Table Read Protection bit
  5435                           ;	EBTR3 = OFF, Block 3 (006000-007FFFh) is not protected from table reads executed in ot
      +                          her blocks
  5436   30000C                     	org	3145740
  5437   30000C  0F                 	db	15
  5438                           
  5439                           ;Config register CONFIG7H @ 0x30000D
  5440                           ;	Boot Block Table Read Protection bit
  5441                           ;	EBTRB = OFF, Boot block (000000-0007FFh) is not protected from table reads executed in
      +                           other blocks
  5442   30000D                     	org	3145741
  5443   30000D  40                 	db	64
  5444                           tosu	equ	0xFFF
  5445                           tosh	equ	0xFFE
  5446                           tosl	equ	0xFFD
  5447                           stkptr	equ	0xFFC
  5448                           pclatu	equ	0xFFB
  5449                           pclath	equ	0xFFA
  5450                           pcl	equ	0xFF9
  5451                           tblptru	equ	0xFF8
  5452                           tblptrh	equ	0xFF7
  5453                           tblptrl	equ	0xFF6
  5454                           tablat	equ	0xFF5
  5455                           prodh	equ	0xFF4
  5456                           prodl	equ	0xFF3
  5457                           indf0	equ	0xFEF
  5458                           postinc0	equ	0xFEE
  5459                           postdec0	equ	0xFED
  5460                           preinc0	equ	0xFEC
  5461                           plusw0	equ	0xFEB
  5462                           fsr0h	equ	0xFEA
  5463                           fsr0l	equ	0xFE9
  5464                           wreg	equ	0xFE8
  5465                           indf1	equ	0xFE7
  5466                           postinc1	equ	0xFE6
  5467                           postdec1	equ	0xFE5
  5468                           preinc1	equ	0xFE4
  5469                           plusw1	equ	0xFE3
  5470                           fsr1h	equ	0xFE2
  5471                           fsr1l	equ	0xFE1
  5472                           bsr	equ	0xFE0
  5473                           indf2	equ	0xFDF
  5474                           postinc2	equ	0xFDE
  5475                           postdec2	equ	0xFDD
  5476                           preinc2	equ	0xFDC
  5477                           plusw2	equ	0xFDB
  5478                           fsr2h	equ	0xFDA
  5479                           fsr2l	equ	0xFD9
  5480                           status	equ	0xFD8

Data Sizes:
    Strings     386
    Constant    0
    Data        9
    BSS         126
    Persistent  0
    Stack       0

Auto Spaces:
    Space          Size  Autos    Used
    COMRAM           95     91      95
    BANK0           160      0     131
    BANK1           256      0       0
    BANK2           256      0       0
    BANK3           256      0       0
    BANK4           256      0       0
    BANK5           256      0       0
    BANK6           256      0       0
    BANK7           256      0       0

Pointer List with Targets:

    fputs@s	PTR const unsigned char  size(2) Largest target is 32
		 -> dbuf(BANK0[32]), 

    fputs@fp	PTR struct _IO_FILE size(2) Largest target is 12
		 -> sprintf@f(COMRAM[12]), 

    fputc@fp...source	PTR const unsigned char  size(2) Largest target is 0

    fputc@fp...buffer	PTR unsigned char  size(2) Largest target is 0

    fputc@fp	PTR struct _IO_FILE size(2) Largest target is 12
		 -> sprintf@f(COMRAM[12]), 

    vfprintf@ap	PTR PTR void  size(2) Largest target is 2
		 -> sprintf@ap(COMRAM[2]), 

    vfprintf@fp	PTR struct _IO_FILE size(2) Largest target is 12
		 -> sprintf@f(COMRAM[12]), 

    vfprintf@fmt	PTR const unsigned char  size(2) Largest target is 9
		 -> STR_29(CODE[4]), STR_28(CODE[4]), STR_27(CODE[9]), STR_26(CODE[9]), 
		 -> STR_25(CODE[4]), STR_24(CODE[4]), STR_23(CODE[9]), STR_22(CODE[4]), 
		 -> STR_21(CODE[4]), 

    vfprintf@cfmt	PTR unsigned char  size(2) Largest target is 9
		 -> STR_29(CODE[4]), STR_28(CODE[4]), STR_27(CODE[9]), STR_26(CODE[9]), 
		 -> STR_25(CODE[4]), STR_24(CODE[4]), STR_23(CODE[9]), STR_22(CODE[4]), 
		 -> STR_21(CODE[4]), 

    vfpfcnvrt@fp	PTR struct _IO_FILE size(2) Largest target is 12
		 -> sprintf@f(COMRAM[12]), 

    vfpfcnvrt@ap	PTR PTR void  size(2) Largest target is 2
		 -> sprintf@ap(COMRAM[2]), 

    vfpfcnvrt@cp	PTR unsigned char  size(2) Largest target is 9
		 -> STR_29(CODE[4]), STR_28(CODE[4]), STR_27(CODE[9]), STR_26(CODE[9]), 
		 -> STR_25(CODE[4]), STR_24(CODE[4]), STR_23(CODE[9]), STR_22(CODE[4]), 
		 -> STR_21(CODE[4]), 

    vfpfcnvrt@fmt	PTR PTR unsigned char  size(2) Largest target is 2
		 -> vfprintf@cfmt(COMRAM[2]), 

    S994$vp	PTR void  size(2) Largest target is 0

    convarg.vp	PTR void  size(2) Largest target is 0

    xtoa@fp	PTR struct _IO_FILE size(2) Largest target is 12
		 -> sprintf@f(COMRAM[12]), 

    pad@buf	PTR unsigned char  size(2) Largest target is 32
		 -> dbuf(BANK0[32]), 

    pad@fp	PTR struct _IO_FILE size(2) Largest target is 12
		 -> sprintf@f(COMRAM[12]), 

    sprintf@fmt	PTR const unsigned char  size(2) Largest target is 9
		 -> STR_29(CODE[4]), STR_28(CODE[4]), STR_27(CODE[9]), STR_26(CODE[9]), 
		 -> STR_25(CODE[4]), STR_24(CODE[4]), STR_23(CODE[9]), STR_22(CODE[4]), 
		 -> STR_21(CODE[4]), 

    sprintf@s	PTR unsigned char  size(2) Largest target is 10
		 -> year(BANK0[10]), month(BANK0[10]), date(BANK0[10]), hours(BANK0[10]), 
		 -> mins(BANK0[10]), secs(BANK0[10]), 

    sprintf@ap	PTR void [1] size(2) Largest target is 2
		 -> ?_sprintf(COMRAM[2]), 

    S946$source	PTR const unsigned char  size(2) Largest target is 0

    f...source	PTR const unsigned char  size(2) Largest target is 0

    S946$buffer	PTR unsigned char  size(2) Largest target is 0

    f...buffer	PTR unsigned char  size(2) Largest target is 0

    LCD_String_xy@msg	PTR const unsigned char  size(2) Largest target is 22
		 -> date(BANK0[10]), hours(BANK0[10]), STR_20(CODE[3]), STR_19(CODE[3]), 
		 -> STR_18(CODE[13]), STR_17(CODE[16]), STR_16(CODE[16]), STR_15(CODE[18]), 
		 -> STR_14(CODE[13]), STR_13(CODE[18]), STR_12(CODE[15]), STR_11(CODE[18]), 
		 -> STR_10(CODE[20]), STR_9(CODE[7]), STR_8(CODE[22]), STR_7(CODE[22]), 
		 -> STR_6(CODE[22]), STR_5(CODE[22]), STR_4(CODE[22]), STR_3(CODE[22]), 
		 -> STR_2(CODE[22]), STR_1(CODE[22]), 

    LCD_String@msg	PTR const unsigned char  size(2) Largest target is 22
		 -> STR_36(CODE[4]), STR_35(CODE[4]), STR_34(CODE[4]), STR_33(CODE[4]), 
		 -> STR_32(CODE[4]), STR_31(CODE[4]), STR_30(CODE[4]), year(BANK0[10]), 
		 -> month(BANK0[10]), date(BANK0[10]), hours(BANK0[10]), mins(BANK0[10]), 
		 -> secs(BANK0[10]), STR_20(CODE[3]), STR_19(CODE[3]), STR_18(CODE[13]), 
		 -> STR_17(CODE[16]), STR_16(CODE[16]), STR_15(CODE[18]), STR_14(CODE[13]), 
		 -> STR_13(CODE[18]), STR_12(CODE[15]), STR_11(CODE[18]), STR_10(CODE[20]), 
		 -> STR_9(CODE[7]), STR_8(CODE[22]), STR_7(CODE[22]), STR_6(CODE[22]), 
		 -> STR_5(CODE[22]), STR_4(CODE[22]), STR_3(CODE[22]), STR_2(CODE[22]), 
		 -> STR_1(CODE[22]), 

    FSM_UpdateDisplay@fsm	PTR struct . size(2) Largest target is 13
		 -> system_fsm(BANK0[13]), 

    FSM_ExecuteState@fsm	PTR struct . size(2) Largest target is 13
		 -> system_fsm(BANK0[13]), 

    FSM_CheckTransitions@fsm	PTR struct . size(2) Largest target is 13
		 -> system_fsm(BANK0[13]), 

    FSM_Update@fsm	PTR struct . size(2) Largest target is 13
		 -> system_fsm(BANK0[13]), 

    FSM_Init@fsm	PTR struct . size(2) Largest target is 13
		 -> system_fsm(BANK0[13]), 


Critical Paths under _main in COMRAM

    _main->_Message
    _RTC_Read_Clock->_I2C_Read
    _Message->_atualiza_data
    _atualiza_data->_sprintf
    _sprintf->_vfprintf
    _vfprintf->_vfpfcnvrt
    _vfpfcnvrt->_xtoa
    _xtoa->_pad
    _pad->_fputs
    _fputs->_fputc
    _RTC_Read_Calendar->_I2C_Read
    _LCD_Clear->_LCD_Command
    _LCD_Init->_LCD_Command
    _FSM_Update->_FSM_UpdateDisplay
    _FSM_UpdateDisplay->_LCD_String_xy
    _LCD_String_xy->_LCD_String
    _LCD_String->_LCD_Char
    _LCD_Char->_MSdelay
    _LCD_Command->_MSdelay
    _Beep->_MSdelay

Critical Paths under _main in BANK0

    None.

Critical Paths under _main in BANK1

    None.

Critical Paths under _main in BANK2

    None.

Critical Paths under _main in BANK3

    None.

Critical Paths under _main in BANK4

    None.

Critical Paths under _main in BANK5

    None.

Critical Paths under _main in BANK6

    None.

Critical Paths under _main in BANK7

    None.

Call Graph Tables:

 ---------------------------------------------------------------------------------
 (Depth) Function   	        Calls       Base Space   Used Autos Params    Refs
 ---------------------------------------------------------------------------------
 (0) _main                                                 0     0      0   38365
                               _Beep
                           _FSM_Init
                         _FSM_Update
                           _I2C_Init
                           _I2C_Stop
                           _LCD_Init
                            _MSdelay
                            _Message
                     _RTC_Read_Clock
 ---------------------------------------------------------------------------------
 (1) _RTC_Read_Clock                                       2     2      0      90
                                              2 COMRAM     2     2      0
                           _I2C_Read
                          _I2C_Start
                          _I2C_Write
 ---------------------------------------------------------------------------------
 (1) _Message                                              4     2      2   24771
                                             87 COMRAM     4     2      2
                          _LCD_Clear
                      _LCD_String_xy
                      _atualiza_data
 ---------------------------------------------------------------------------------
 (2) _atualiza_data                                        2     2      0   15097
                                             85 COMRAM     2     2      0
                           _I2C_Stop
                         _LCD_String
                      _LCD_String_xy
                  _RTC_Read_Calendar
                            _sprintf
 ---------------------------------------------------------------------------------
 (3) _sprintf                                             22    16      6    5630
                                             65 COMRAM    20    14      6
                           _vfprintf
 ---------------------------------------------------------------------------------
 (4) _vfprintf                                             8     2      6    4063
                                             57 COMRAM     8     2      6
                          _vfpfcnvrt
 ---------------------------------------------------------------------------------
 (5) _vfpfcnvrt                                           19    13      6    3713
                                             43 COMRAM    14     8      6
                              _fputc
                               _xtoa
 ---------------------------------------------------------------------------------
 (6) _xtoa                                                16    12      4    2493
                                             27 COMRAM    16    12      4
                                _pad
 ---------------------------------------------------------------------------------
 (7) _pad                                                 11     5      6    1999
                                             16 COMRAM    11     5      6
                              _fputc
                              _fputs
 ---------------------------------------------------------------------------------
 (8) _fputs                                                7     3      4     931
                                              9 COMRAM     7     3      4
                              _fputc
 ---------------------------------------------------------------------------------
 (9) _fputc                                                9     5      4     682
                                              0 COMRAM     9     5      4
                              _putch
 ---------------------------------------------------------------------------------
 (10) _putch                                               1     1      0       0
 ---------------------------------------------------------------------------------
 (3) _RTC_Read_Calendar                                    2     2      0      90
                                              2 COMRAM     2     2      0
                           _I2C_Read
                          _I2C_Start
                           _I2C_Stop
                          _I2C_Write
 ---------------------------------------------------------------------------------
 (2) _I2C_Write                                            1     1      0      22
                                              0 COMRAM     1     1      0
                    _i2c_WaitForIdle
 ---------------------------------------------------------------------------------
 (4) _I2C_Stop                                             0     0      0       0
 ---------------------------------------------------------------------------------
 (2) _I2C_Start                                            0     0      0       0
 ---------------------------------------------------------------------------------
 (2) _I2C_Read                                             2     2      0      46
                                              0 COMRAM     2     2      0
                            _i2c_Ack
                          _i2c_NoAck
                    _i2c_WaitForIdle
 ---------------------------------------------------------------------------------
 (3) _i2c_WaitForIdle                                      0     0      0       0
 ---------------------------------------------------------------------------------
 (3) _i2c_NoAck                                            0     0      0       0
 ---------------------------------------------------------------------------------
 (3) _i2c_Ack                                              0     0      0       0
 ---------------------------------------------------------------------------------
 (2) _LCD_Clear                                            0     0      0    2204
                        _LCD_Command
                            _MSdelay
 ---------------------------------------------------------------------------------
 (1) _LCD_Init                                             0     0      0    2204
                        _LCD_Command
                            _MSdelay
 ---------------------------------------------------------------------------------
 (1) _I2C_Init                                             0     0      0       0
 ---------------------------------------------------------------------------------
 (1) _FSM_Update                                           4     2      2    8668
                                             19 COMRAM     4     2      2
               _FSM_CheckTransitions
                   _FSM_ExecuteState
                  _FSM_UpdateDisplay
 ---------------------------------------------------------------------------------
 (2) _FSM_UpdateDisplay                                    4     2      2    7242
                                             15 COMRAM     4     2      2
                      _LCD_String_xy
 ---------------------------------------------------------------------------------
 (3) _LCD_String_xy                                        5     2      3    7144
                                             10 COMRAM     5     2      3
                        _LCD_Command
                         _LCD_String
 ---------------------------------------------------------------------------------
 (4) _LCD_String                                           2     0      2    2233
                                              8 COMRAM     2     0      2
                           _LCD_Char
 ---------------------------------------------------------------------------------
 (5) _LCD_Char                                             2     2      0    1124
                                              6 COMRAM     2     2      0
                            _MSdelay
 ---------------------------------------------------------------------------------
 (4) _LCD_Command                                          2     2      0    1124
                                              6 COMRAM     2     2      0
                            _MSdelay
 ---------------------------------------------------------------------------------
 (2) _FSM_ExecuteState                                     4     2      2     164
                                              0 COMRAM     4     2      2
 ---------------------------------------------------------------------------------
 (2) _FSM_CheckTransitions                                11     9      2    1032
                                              0 COMRAM    10     8      2
 ---------------------------------------------------------------------------------
 (1) _FSM_Init                                             2     0      2     274
                                              0 COMRAM     2     0      2
 ---------------------------------------------------------------------------------
 (1) _Beep                                                 4     2      2    1278
                                              6 COMRAM     4     2      2
                            _MSdelay
 ---------------------------------------------------------------------------------
 (6) _MSdelay                                              6     4      2    1080
                                              0 COMRAM     6     4      2
 ---------------------------------------------------------------------------------
 Estimated maximum stack depth 10
 ---------------------------------------------------------------------------------

 Call Graph Graphs:

 _main (ROOT)
   _Beep
     _MSdelay
   _FSM_Init
   _FSM_Update
     _FSM_CheckTransitions
     _FSM_ExecuteState
     _FSM_UpdateDisplay
       _LCD_String_xy
         _LCD_Command
           _MSdelay
         _LCD_String
           _LCD_Char
             _MSdelay
   _I2C_Init
   _I2C_Stop
   _LCD_Init
     _LCD_Command
     _MSdelay
   _MSdelay
   _Message
     _LCD_Clear
       _LCD_Command
       _MSdelay
     _LCD_String_xy
     _atualiza_data
       _I2C_Stop
       _LCD_String
       _LCD_String_xy
       _RTC_Read_Calendar
         _I2C_Read
           _i2c_Ack
           _i2c_NoAck
           _i2c_WaitForIdle
         _I2C_Start
         _I2C_Stop
         _I2C_Write
           _i2c_WaitForIdle
       _sprintf
         _vfprintf
           _vfpfcnvrt
             _fputc
               _putch
             _xtoa
               _pad
                 _fputc
                 _fputs
                   _fputc
   _RTC_Read_Clock
     _I2C_Read
     _I2C_Start
     _I2C_Write

 Address spaces:
Name               Size   Autos  Total    Cost      Usage
BIGRAM             7FF      0       0      28        0.0%
EEDATA             100      0       0       0        0.0%
BITBANK7           100      0       0      18        0.0%
BANK7              100      0       0      19        0.0%
BITBANK6           100      0       0      16        0.0%
BANK6              100      0       0      17        0.0%
BITBANK5           100      0       0      14        0.0%
BANK5              100      0       0      15        0.0%
BITBANK4           100      0       0      12        0.0%
BANK4              100      0       0      13        0.0%
BITBANK3           100      0       0      10        0.0%
BANK3              100      0       0      11        0.0%
BITBANK2           100      0       0       8        0.0%
BANK2              100      0       0       9        0.0%
BITBANK1           100      0       0       6        0.0%
BANK1              100      0       0       7        0.0%
BITBANK0            A0      0       0       4        0.0%
BANK0               A0      0      83       5       81.9%
BITCOMRAM           5F      0       0       0        0.0%
COMRAM              5F     5B      5F       1      100.0%
BITBIGSFRlhl        2F      0       0      22        0.0%
BITBIGSFRh          2C      0       0      20        0.0%
BITBIGSFRlll        22      0       0      26        0.0%
BITBIGSFRlhhh        9      0       0      21        0.0%
BITBIGSFRllhll       7      0       0      25        0.0%
BITBIGSFRllhh        6      0       0      23        0.0%
BITBIGSFRllhlh       1      0       0      24        0.0%
BIGSFR               0      0       0     200        0.0%
BITSFR               0      0       0     200        0.0%
SFR                  0      0       0     200        0.0%
STACK                0      0       0       2        0.0%
NULL                 0      0       0       0        0.0%
ABS                  0      0      E2      27        0.0%
DATA                 0      0      E2       3        0.0%
CODE                 0      0       0       0        0.0%


Microchip Technology PIC18 Macro Assembler V2.41 build 20230208172133 
Symbol Table                                                                                   Sun Dec  7 11:21:07 2025

                      ?_i2c_WaitForIdle 0001                            ?_LCD_Command 0001  
                                    _BF 7E38                _FSM_CheckTransitions$291 0007  
              _FSM_CheckTransitions$293 0008                _FSM_CheckTransitions$289 0006  
                           ?_LCD_String 0009  RTC_Read_Calendar@read_calendar_address 0004  
                                   l103 7126                                     l107 7004  
                                   l212 7AB6                                     l150 712C  
                                   l144 7E7A                                     l152 7132  
                                   l322 6D6E                                     l156 717E  
                                   l316 6B46                                     l157 7184  
                                   l261 6AAE                                     l158 71EC  
                                   l174 76E0                                     l270 6B04  
                                   l319 6D22                                     l335 7092  
                                   l255 6A9C                                     l183 748E  
                                   l328 6F0A                                     l264 6AB2  
                                   l192 6BBC                                     l281 6B80  
                                   l273 6B16                                     l346 6CD6  
                                   l338 6AD4                                     l290 6ADA  
                                   l258 6AA0                                     l187 6BCA  
                                   l267 6AC0                                     l195 6E5A  
                                   l284 6C46                                     l276 6B4C  
                                   l189 6C00                                     l293 6AE8  
                                   l278 6B5A                                     l287 6C8C  
                                   l296 6AEE                                     l299 6AFC  
                                   _PEN 7E2A                                     u700 6C44  
                                   u701 6C40                                     u710 6F1A  
                                   u711 6F16                                     u720 6F70  
                                   u800 758C                                     u721 6F6C  
                                   u801 7588                                     u730 6CBC  
                                   u810 6C54                                     u731 6CB8  
                                   u811 6C50                                     u740 6CD6  
                                   u820 6C62                                     u900 6AC0  
                                   u660 72C6                                     _SEN 7E28  
                                   u741 6CD2                                     u821 6C5E  
                                   u901 6ABC                                     u661 72C2  
                                   u830 6C70                                     u910 6AAE  
                                   u670 72D8                                     u750 74A0  
                                   u831 6C6C                                     u911 6AAA  
                                   u671 72D4                                     u751 749C  
                                   u840 6C7E                                     u920 6B12  
                                   u680 7300                                     u760 74E8  
                                   u841 6C7A                                     u921 6B0E  
                                   u681 72FC                                     u761 74E4  
                                   u850 6C8C                                     u930 6B5A  
                                   u690 7336                                     u851 6C88  
                                   u931 6B56                                     u691 7332  
                                   u860 6AE8                                     u940 6B72  
                                   u780 7560                                     u861 6AE4  
                                   u941 6B6E                                     u781 755C  
                                   u950 6ED2                                     u870 6AFC  
                                   u790 7572                                     u871 6AF8  
                                   u791 756E                                     u775 7530  
                                   u960 6EFA                                     u880 7706  
                                   u881 7702                                     u970 6F0A  
                                   u890 7752                                     u971 6F06  
                                   u891 774E                                     u980 6E00  
                                   u957 6EC8                                     u981 6DFC  
                                   u990 7018                                     u967 6EF0  
                                   u991 7014                                     _Day 006C  
                                   _R_W 7E3A                                     _pad 6F0C  
                                   _min 006E                                     _sec 0070  
                                   wreg 0FE8                             LCD_Char@dat 0008  
                                  l1103 6C44                                    l2000 7046  
                                  l2010 7080                                    l2002 7058  
                                  l1106 6A80                                    l1051 6F84  
                                  l1027 6DBA                                    l2100 7CD2  
                                  l2012 7086                                    l2004 7060  
                                  l2020 6E26                                    l2110 7D3E  
                                  l2102 7CE6                                    l2006 7066  
                                  l2022 6E36                                    l2014 6E0C  
                                  l2030 6D80                                    l1047 6F2E  
                                  l1055 74AC                                    l2120 7DAC  
                                  l2112 7D52                                    l2104 7CF6  
                                  l2040 7AB8                                    l2008 7078  
                                  l2024 6E46                                    l2016 6E10  
                                  l2032 6D88                                    l2200 78BA  
                                  l1057 74B4                                    l2130 7E52  
                                  l2122 7DC0                                    l2114 7D66  
                                  l2106 7D0A                                    l2050 7AF4  
                                  l2042 7AC0                                    l2026 6E56  
                                  l2018 6E16                                    l2034 6D90  
                                  l2210 790C                                    l2202 78CC  
                                  l1067 75AC                                    l1083 6E08  
                                  l2300 6BE6                                    l2132 7E6A  
                                  l2116 7D76                                    l2108 7D2E  
                                  l2060 7B36                                    l2052 7AF4  
                                  l2044 7AC4                                    l2140 7134  
                                  l1076 7818                                    l2036 6DAC  
                                  l2028 6D70                                    l2212 7928  
                                  l2220 795A                                    l2204 78D8  
                                  l2302 6BEA                                    l2118 7D8A  
                                  l2126 7DD2                                    l2070 7B8C  
                                  l2062 7B3A                                    l2054 7B04  
                                  l2046 7AE0                                    l2142 7158  
                                  l2230 79E6                                    l2222 7960  
                                  l2214 7944                                    l2206 78E8  
                                  l2310 741E                                    l1095 737C  
                                  l2080 7BFA                                    l2128 7E2C  
                                  l2072 7B90                                    l2064 7B5A  
                                  l2056 7B24                                    l2048 7AF0  
                                  l2160 75EC                                    l2152 75AE  
                                  l2240 7A36                                    l2232 79F6  
                                  l2224 7964                                    l2208 78F0  
                                  l2312 7430                                    l2320 7452  
                                  l2304 737E                                    l2090 7C66  
                                  l2082 7C0E                                    l2074 7BB4  
                                  l2066 7B7A                                    l2058 7B32  
                                  l2146 718A                                    l2138 7128  
                                  l2170 765A                                    l2162 7602  
                                  l2154 75B4                                    l2242 7A46  
                                  l2234 7A06                                    l2226 7980  
                                  l2314 7438                                    l2306 7386  
                                  l2330 6B8E                                    l2092 7C8A  
                                  l2084 7C1E                                    l2076 7BD6  
                                  l2068 7B88                                    l2172 7670  
                                  l2164 7618                                    l2156 75CA  
                                  l2340 6F9E                                    l2260 6B34  
                                  l2252 6B18                                    l2236 7A16  
                                  l2228 799C                                    l2316 743C  
                                  l2308 73D2                                    l2332 6B9E  
                                  l2270 7094                                    l2094 7C9E  
                                  l2086 7C42                                    l2078 7BEA  
                                  l2166 762E                                    l2158 75D6  
                                  l2350 7002                                    l2342 6FAA  
                                  l2262 6B3A                                    l2254 6B1C  
                                  l2182 6AC2                                    l2238 7A26  
                                  l2246 7A56                                    l2190 784C  
                                  l2334 6BAE                                    l2326 6B84  
                                  l1800 6C8E                                    l2280 70E0  
                                  l2272 70A0                                    l2096 7CAE  
                                  l2088 7C52                                    l2520 76A2  
                                  l2168 7644                                    l2176 7686  
                                  l2344 6FBC                                    l2336 6F86  
                                  l2264 6B40                                    l2256 6B28  
                                  l2192 785E                                    l2184 781A  
                                  l2328 6B88                                    l2360 71FE  
                                  l2352 71EE                                    l1810 6CA6  
                                  l1802 6C9A                                    l2290 7122  
                                  l2282 70F0                                    l2274 70B0  
                                  l2098 7CC2                                    l2522 71A6  
                                  l2346 6FCE                                    l2338 6F92  
                                  l2266 6A8C                                    l2258 6B2E  
                                  l2194 7866                                    l2186 7828  
                                  l2514 7468                                    l2370 722A  
                                  l2362 7202                                    l2354 71F2  
                                  l1812 6CBC                                    l2292 7124  
                                  l2284 7100                                    l2276 70C0  
                                  l2524 7DEE                                    l2348 6FF2  
                                  l2268 6A90                                    l1820 74BC  
                                  l1900 7752                                    l2516 7A78  
                                  l2196 7882                                    l2188 7836  
                                  l2380 7266                                    l2372 7236  
                                  l2364 7206                                    l2356 71F6  
                                  l1814 6CC0                                    l2294 6BBE  
                                  l2286 7110                                    l2278 70D0  
                                  l1830 74E8                                    l1822 74C4  
                                  l2518 77D0                                    l1902 779A  
                                  l1910 77DE                                    l2198 789E  
                                  l2390 7294                                    l2382 7272  
                                  l2374 7242                                    l2366 7212  
                                  l2358 71FA                                    l1808 6CA2  
                                  l2296 6BCC                                    l2288 7120  
                                  l1840 751E                                    l1832 74F8  
                                  l1824 74CC                                    l1816 7490  
                                  l2392 72A0                                    l2384 727E  
                                  l2376 724E                                    l2368 721E  
                                  l2298 6BD8                                    l1930 6B12  
                                  l1770 72E2                                    l1850 758C  
                                  l1842 7524                                    l1834 7504  
                                  l1826 74D2                                    l1818 74A0  
                                  l1914 77F0                                    l2386 728A  
                                  l2378 725A                                    l1860 6C70  
                                  l1940 6B72                                    l1932 6B4A  
                                  l1924 6AB0                                    l1772 7300  
                                  l1764 72B4                                    l1780 6C0E  
                                  l1836 7508                                    l1828 74D8  
                                  l1844 7544                                    l1908 77B2  
                                  l2388 7290                                    l1870 6D36  
                                  l1950 6EB2                                    l1862 6C7E  
                                  l1854 6C46                                    l1942 6B7A  
                                  l1934 6B4A                                    l1926 6A9E  
                                  l1774 7336                                    l1766 72C6  
                                  l1782 6C20                                    l1790 6F26  
                                  l1846 7560                                    l1838 7518  
                                  l1960 6CEC                                    l1880 6D4A  
                                  l1872 6D38                                    l1952 6ED6  
                                  l1864 6AD6                                    l1856 6C54  
                                  l1944 6B7E                                    l1936 6B5E  
                                  l1928 6B00                                    l1768 72D8  
                                  l1784 6C24                                    l1792 6F3A  
                                  l1848 7572                                    l1970 6D10  
                                  l1962 6CEE                                    l1882 6D5C  
                                  l1874 6D3A                                    l1954 6EDA  
                                  l1866 6AEA                                    l1858 6C62  
                                  l1938 6B62                                    l1778 6C02  
                                  l1794 6F4E                                    l1786 6F0C  
                                  l1890 7706                                    l1972 6D12  
                                  l1964 6CF0                                    l1956 6CDA  
                                  l1884 6D5E                                    l1876 6D3C  
                                  l1868 6D26                                    l1948 6EAE  
                                  l1796 6F52                                    l1788 6F1A  
                                  l1892 7714                                    l1980 6DE4  
                                  l1974 6D14                                    l1966 6CF2  
                                  l1958 6CEA                                    l1886 6D60  
                                  l1878 6D3E                                    l1990 7018  
                                  l1798 6F70                                    l1894 7722  
                                  l1982 6E00                                    ?_pad 0011  
                                  l1968 6CFE                                    l1992 7020  
                                  l1896 7726                                    l1888 76E2  
                                  l1976 6DBC                                    l1994 7026  
                                  l1986 7008                                    l1898 7736  
                                  l1978 6DC8                                    l1996 7038  
                                  l1988 7008                                    l1998 7040  
                                  STR_1 7F17                                    STR_2 7E93  
                                  STR_3 7EBF                                    STR_4 7EEB  
                                  STR_5 7EA9                                    STR_6 7ED5  
                                  STR_7 7E7D                                    STR_8 7F01  
                                  STR_9 7FD2                                    u1000 7038  
                                  u1001 7034                                    u1010 7058  
                                  u1011 7054                                    u1100 7BAC  
                                  u1020 7078                                    u1101 7BA6  
                                  u1021 7074                                    u1110 7BD6  
                                  u1030 7AE0                                    u1111 7BD2  
                                  u1031 7ADC                                    u1200 7D3E  
                                  u1120 7BFA                                    u1040 7AF0  
                                  u1201 7D3A                                    u1121 7BF6  
                                  u1041 7AEC                                    u1210 7D76  
                                  u1130 7C1E                                    u1106 7BAE  
                                  u1050 7B24                                    u1211 7D72  
                                  u1131 7C1A                                    u1051 7B20  
                                  u1220 7DAC                                    u1140 7C52  
                                  u1060 7B32                                    u1221 7DA8  
                                  u1141 7C4E                                    u1061 7B2E  
                                  u1230 7E52                                    u1150 7C8A  
                                  u1070 7B56                                    u1231 7E4E  
                                  u1151 7C86                                    u1071 7B50  
                                  u1160 7CAE                                    u1080 7B7A  
                                  u1240 7158                                    u1161 7CAA  
                                  u1081 7B76                                    u1241 7154  
                                  u1170 7CD2                                    u1090 7B88  
                                  u1250 75CA                                    u1171 7CCE  
                                  u1091 7B84                                    u1251 75C6  
                                  u1180 7CF6                                    u1076 7B58  
                                  u1260 7828                                    u1181 7CF2  
                                  u1261 7824                                    u1190 7D2E  
                                  u1270 7836                                    _LATB 0F8A  
                                  u1191 7D2A                                    u1271 7832  
                                  u1280 6C00                                    u1281 6BFC  
                                  u1290 6FF2                                    u1291 6FEE  
                                  _RCEN 7E2B                                    _RSEN 7E29  
                                  _Beep 6BBE                                    _Date 006A  
                           ?_FSM_Update 0014                                    _Year 0066  
                                  _date 00B4                                    _dbuf 0073  
                                  _days 00DC                                    _main 71EE  
                       ?_RTC_Read_Clock 0001                                    _hour 005C  
                                  _mins 00C8                                    _secs 00D2  
                                  _prec 0062                        __end_of_I2C_Init 6A9E  
                      __end_of_I2C_Read 6B82                                    _year 00A0  
                                  pad@i 0018                                    pad@p 0015  
                                  fsr1h 0FE2                                    fsr2h 0FDA  
                                  indf1 0FE7                                    indf2 0FDF  
                                  fsr1l 0FE1                                    pad@w 001A  
                                  fsr2l 0FD9                                    _xtoa 7490  
                      __end_of_I2C_Stop 6AC2                                    start 0000  
                       __end_of_MSdelay 6CD8                           _LCD_String_xy 7006  
                          ___param_bank 0000                         __end_of_i2c_Ack 6AEA  
                         _atualiza_data 781A                         __end_of_Message 7490  
      RTC_Read_Clock@read_clock_address 0004                                   ??_pad 0017  
                      __end_of_LCD_Char 6D70                        __end_of_LCD_Init 6B48  
                                 ?_Beep 0007                              _Clock_type 005F  
                                 ?_main 0001                                   _ACKEN 7E2C  
                                 _ACKDT 7E2D                                   STR_10 7F2D  
                                 STR_11 7F65                                   STR_20 7FF9  
                                 STR_12 7F97                                   STR_21 7FD9  
                                 STR_13 7F41                                   STR_22 7FCE  
                                 STR_30 7FF1                                   STR_14 7FA6  
                                 STR_31 7FE9                                   STR_23 7FC9  
                                 STR_15 7F53                                   STR_24 7FD9  
                                 STR_32 7FE5                                   STR_16 7F87  
                                 STR_25 7FCE                                   STR_33 7FDD  
                                 STR_17 7F77                                   STR_26 7FC9  
                                 STR_34 7FED                                   STR_18 7FB3  
                                 STR_19 7FFC                                   STR_35 7FF5  
                                 STR_27 7FC0                                   STR_28 7FC5  
                                 STR_36 7FE1                                   STR_29 7FD9  
                                 Beep@i 0009                        __end_of_FSM_Init 7128  
                                 ?_xtoa 001C                                   _LATB2 7C52  
                                 _LATB3 7C53                                   _LATD0 7C60  
                                 _LATD1 7C61                                   _LATD2 7C62  
                                 _LATD3 7C63                                   _AM_PM 005E  
                          vfpfcnvrt@fmt 002E                                   _PORTC 0F82  
                                 _TRISB 0F93                                   _TRISC 0F94  
                                 _TRISD 0F95                              Message@msg 0058  
                                 _Month 0068                                   _flags 0072  
                                 _fputc 72B4                                   _fputs 6C02  
                                 _hours 00BE                                   _month 00AA  
                                 pad@fp 0011                                   _width 0060  
                                 _putch 6A80                       __end_of_I2C_Start 6AB0  
                     __end_of_I2C_Write 6B18                                   tablat 0FF5  
                                 plusw2 0FDB                                   status 0FD8  
                       __end_of_sprintf 6DBC                                   xtoa@c 002B  
                                 xtoa@d 001E                                   xtoa@i 0029  
                                 xtoa@p 0027                                   xtoa@w 0023  
                        ?_LCD_String_xy 000B                            __end_of_Beep 6C02  
                       __initialization 6E5C                          ?_atualiza_data 0001  
                          __end_of_main 72B4                            __end_of_xtoa 75AE  
                                ??_Beep 0009                                  ??_main 005C  
                                ??_xtoa 0020                       __end_of_LCD_Clear 6AD6  
                         __activetblptr 0002        FSM_CheckTransitions@liga_pressed 0005  
                                ?_fputc 0001                                  ?_fputs 000A  
                                ?_putch 0001                        LCD_String_xy@msg 000C  
                      LCD_String_xy@pos 000B                        LCD_String_xy@row 000E  
                             ??_MSdelay 0003                                  _OSCCON 0FD3  
                                _SSPADD 0FC8                                  _SSPBUF 0FC9  
                             ??_i2c_Ack 0001                               ??_Message 005A  
                          vfprintf@cfmt 0040                   I2C_Write@v_i2cData_u8 0001  
                           FSM_Init@fsm 0001                                  clear_0 6E9A  
                                isa$std 0001                                  pad@buf 0013  
                                fputc@c 0001                                  fputs@c 000E  
                                fputs@i 000F                            __pdataCOMRAM 005E  
                                fputs@s 000A                               ?_I2C_Init 0001  
                             ?_I2C_Read 0001                               ?_I2C_Stop 0001  
                          __mediumconst 7E7C                                  tblptrh 0FF7  
                                tblptrl 0FF6                                  tblptru 0FF8  
                                putch@c 0001                        __end_of_vfprintf 6E0A  
                             ??_sprintf 0048                                  xtoa@fp 001C  
                             ?_LCD_Char 0001                              __accesstop 0060  
               __end_of__initialization 6EA4                               ?_LCD_Init 0001  
                       ??_LCD_String_xy 000E                           ___rparam_used 0001  
                             ?_FSM_Init 0001                         ??_atualiza_data 0056  
                        __pcstackCOMRAM 0001                            __pidataBANK0 6A85  
                     __end_of_i2c_NoAck 6AFE                           __end_of_fputc 737E  
                         __end_of_fputs 6C46                           __end_of_putch 6A82  
                          ??_LCD_String 000B                        _FSM_ExecuteState 7128  
                            ??_I2C_Init 0001                              ??_I2C_Read 0001  
                            ??_I2C_Stop 0001                        ??_RTC_Read_Clock 0003  
                     _FSM_UpdateDisplay 75AE                                 ??_fputc 0005  
                               ??_fputs 000E                                 ??_putch 0001  
                            __pbssBANK0 0060                      ?_FSM_UpdateDisplay 0010  
                          ??_FSM_Update 0016                              ??_LCD_Char 0007  
                            ??_LCD_Init 0009                      __end_of_LCD_String 6F0C  
                            ??_FSM_Init 0003                     ??_FSM_UpdateDisplay 0012  
   FSM_CheckTransitions@desliga_pressed 0009                                 Beep@val 0007  
                    __end_of_FSM_Update 7006               __end_of_FSM_UpdateDisplay 76E2  
                               _SSPCON1 0FC6                                 _SSPSTAT 0FC7  
                               _MSdelay 6C8E                                 _i2c_Ack 6AD6  
                             _I2C_Start 6A9E                               _I2C_Write 6AFE  
                         LCD_String@msg 0009            __end_of_FSM_CheckTransitions 7E7C  
                               _Message 737E                                 __Hparam 0000  
                               __Lparam 0000                       _RTC_Read_Calendar 6E0A  
                             ?_vfprintf 003A                      ?_RTC_Read_Calendar 0001  
                               __pcinit 6E5C                                 __ramtop 0800  
                               __ptext0 71EE                                 __ptext1 6B82  
                               __ptext2 737E                                 __ptext3 781A  
                               __ptext4 6D70                                 __ptext5 6DBC  
                               __ptext6 76E2                                 __ptext7 7490  
                               __ptext8 6F0C                                 __ptext9 6C02  
                   ??_RTC_Read_Calendar 0003                               _LCD_Clear 6AC2  
                               _sprintf 6D70                    end_of_initialization 6EA4  
                I2C_Read@v_ackOption_u8 0001                                 fputc@fp 0003  
                        LCD_Command@cmd 0008                           __Lmediumconst 7E7C  
                               fputs@fp 000C                              ?_I2C_Start 0001  
                            ?_I2C_Write 0001               __end_of_RTC_Read_Calendar 6E5C  
                     __end_of_vfpfcnvrt 781A                    FSM_UpdateDisplay@fsm 0010  
                               postdec1 0FE5                                 postdec2 0FDD  
                               postinc0 0FEE                                 postinc1 0FE6  
                               postinc2 0FDE                        vfpfcnvrt@convarg 0034  
                            ??_vfprintf 0040                               _PORTCbits 0F82  
                             _TRISBbits 0F93                              ?_LCD_Clear 0001  
                     ??_i2c_WaitForIdle 0001                __end_of_FSM_ExecuteState 71EE  
                         ??_LCD_Command 0007                             vfpfcnvrt@ap 0030  
                           vfpfcnvrt@cp 0038                             vfpfcnvrt@fp 002C  
                         __pidataCOMRAM 6A83                               _i2c_NoAck 6AEA  
                   start_initialization 6E5C                    _FSM_CheckTransitions 7AB8  
                            _system_fsm 0093                             __end_of_pad 6F86  
               FSM_CheckTransitions@fsm 0001        FSM_UpdateDisplay@display_counter 0064  
                           ??_I2C_Start 0001                             ??_I2C_Write 0001  
                 __end_of_LCD_String_xy 7094                             vfprintf@fmt 003C  
                 __end_of_atualiza_data 7AB8                             __pdataBANK0 00DC  
                            ?_i2c_NoAck 0001                     __end_of_LCD_Command 6D24  
                 ?_FSM_CheckTransitions 0001                             __pbssCOMRAM 005C  
                           ??_LCD_Clear 0009                                ?_MSdelay 0001  
                              ?_i2c_Ack 0001                                ?_Message 0058  
                         __pmediumconst 7E7C                    I2C_Read@v_i2cData_u8 0002  
                              _I2C_Init 6A8C                                _I2C_Read 6B48  
                              _I2C_Stop 6AB0                   LCD_String_xy@location 000F  
                              ?_sprintf 0042                                MSdelay@i 0003  
                              MSdelay@j 0005                                _LCD_Char 6D24  
                              _LCD_Init 6B18                                _FSM_Init 7094  
                           _LCD_Command 6CD8                               _vfpfcnvrt 76E2  
                             _xtoa$1021 0025                             ??_i2c_NoAck 0001  
                ??_FSM_CheckTransitions 0003                         _i2c_WaitForIdle 6C46  
                             copy_data0 6E70                                __Hrparam 0000  
                     ?_FSM_ExecuteState 0001                              vfprintf@ap 003E  
                              __Lrparam 0000                              vfprintf@fp 003A  
                    ??_FSM_ExecuteState 0003                              ?_vfpfcnvrt 002C  
                            sprintf@fmt 0044                                __ptext10 72B4  
                              __ptext11 6A80                                __ptext20 6AC2  
                              __ptext12 6E0A                                __ptext21 6B18  
                              __ptext13 6AFE                                __ptext30 7AB8  
                              __ptext22 6A8C                                __ptext14 6AB0  
                              __ptext31 7094                                __ptext23 6F86  
                              __ptext15 6A9E                                __ptext32 6BBE  
                              __ptext24 75AE                                __ptext16 6B48  
                              __ptext33 6C8E                                __ptext25 7006  
                              __ptext17 6C46                                __ptext26 6EAE  
                              __ptext18 6AEA                                __ptext27 6D24  
                              __ptext19 6AD6                                __ptext28 6CD8  
                              __ptext29 7128                              MSdelay@val 0001  
                              isa$xinst 0000                 __end_of_i2c_WaitForIdle 6C8E  
                              _vfprintf 6DBC                              _LCD_String 6EAE  
                             sprintf@ap 0048                              _FSM_Update 6F86  
                        _RTC_Read_Clock 6B82                           FSM_Update@fsm 0014  
 FSM_CheckTransitions@current_interlock 000A                             ??_vfpfcnvrt 0032  
                              sprintf@f 004A                                sprintf@s 0042  
                   FSM_ExecuteState@fsm 0001                             _SSPCON2bits 0FC5  
                __end_of_RTC_Read_Clock 6BBE  
