

Microchip MPLAB XC8 Assembler V2.41 build 20230208172133 
                                                                                               Sun Dec  7 17:20:49 2025

Microchip MPLAB XC8 C Compiler v2.41 (Free license) build 20230208172133 Og1 
     1                           	processor	18F4550
     2                           	fnconf	rparam,??,?,0
     3                           	pagewidth 120
     4                           	opt	flic
     5                           	psect	idataBANK0,global,class=CODE,delta=1,noexec
     6                           	psect	mediumconst,global,reloc=2,class=MEDIUMCONST,delta=1,noexec
     7                           	psect	cinit,global,reloc=2,class=CODE,delta=1
     8                           	psect	bssCOMRAM,global,class=COMRAM,space=1,delta=1,lowdata,noexec
     9                           	psect	bssBANK0,global,class=BANK0,space=1,delta=1,lowdata,noexec
    10                           	psect	dataBANK0,global,class=BANK0,space=1,delta=1,lowdata,noexec
    11                           	psect	cstackBANK0,global,class=BANK0,space=1,delta=1,lowdata,noexec
    12                           	psect	cstackCOMRAM,global,class=COMRAM,space=1,delta=1,lowdata,noexec
    13                           	psect	text0,global,reloc=2,class=CODE,delta=1
    14                           	psect	text1,global,reloc=2,class=CODE,delta=1
    15                           	psect	text2,global,reloc=2,class=CODE,delta=1
    16                           	psect	text3,global,reloc=2,class=CODE,delta=1
    17                           	psect	text4,global,reloc=2,class=CODE,delta=1
    18                           	psect	text5,global,reloc=2,class=CODE,delta=1
    19                           	psect	text6,global,reloc=2,class=CODE,delta=1
    20                           	psect	text7,global,reloc=2,class=CODE,delta=1
    21                           	psect	text8,global,reloc=2,class=CODE,delta=1
    22                           	psect	text9,global,reloc=2,class=CODE,delta=1
    23                           	psect	text10,global,reloc=2,class=CODE,delta=1
    24                           	psect	text11,global,reloc=2,class=CODE,delta=1
    25                           	psect	text12,global,reloc=2,class=CODE,delta=1
    26                           	psect	text13,global,reloc=2,class=CODE,delta=1
    27                           	psect	text14,global,reloc=2,class=CODE,delta=1
    28                           	psect	text15,global,reloc=2,class=CODE,delta=1
    29                           	psect	text16,global,reloc=2,class=CODE,delta=1
    30                           	psect	text17,global,reloc=2,class=CODE,delta=1
    31                           	psect	text18,global,reloc=2,class=CODE,delta=1
    32                           	psect	text19,global,reloc=2,class=CODE,delta=1
    33                           	psect	text20,global,reloc=2,class=CODE,delta=1
    34                           	psect	text21,global,reloc=2,class=CODE,delta=1
    35                           	psect	text22,global,reloc=2,class=CODE,delta=1
    36                           	psect	text23,global,reloc=2,class=CODE,delta=1
    37                           	psect	text24,global,reloc=2,class=CODE,delta=1
    38                           	psect	text25,global,reloc=2,class=CODE,delta=1
    39                           	psect	text26,global,reloc=2,class=CODE,delta=1
    40                           	psect	text27,global,reloc=2,class=CODE,delta=1
    41                           	psect	text28,global,reloc=2,class=CODE,delta=1
    42                           	psect	text29,global,reloc=2,class=CODE,delta=1
    43                           	psect	text30,global,reloc=2,class=CODE,delta=1
    44                           	psect	text31,global,reloc=2,class=CODE,delta=1,group=3
    45                           	psect	text32,global,reloc=2,class=CODE,delta=1,group=1
    46                           	psect	text33,global,reloc=2,class=CODE,delta=1,group=1
    47                           	psect	text34,global,reloc=2,class=CODE,delta=1,group=3
    48                           	psect	text35,global,reloc=2,class=CODE,delta=1,group=1
    49                           	psect	text36,global,reloc=2,class=CODE,delta=1,group=3
    50                           	psect	text37,global,reloc=2,class=CODE,delta=1,group=1
    51                           	psect	text38,global,reloc=2,class=CODE,delta=1,group=2
    52                           	psect	text39,global,reloc=2,class=CODE,delta=1,group=1
    53                           	psect	text40,global,reloc=2,class=CODE,delta=1,group=1
    54                           	psect	text41,global,reloc=2,class=CODE,delta=1,group=3
    55                           	psect	text42,global,reloc=2,class=CODE,delta=1,group=3
    56                           	psect	text43,global,reloc=2,class=CODE,delta=1,group=3
    57                           	psect	text44,global,reloc=2,class=CODE,delta=1,group=3
    58                           	psect	text45,global,reloc=2,class=CODE,delta=1,group=2
    59                           	psect	text46,global,reloc=2,class=CODE,delta=1,group=2
    60                           	psect	text47,global,reloc=2,class=CODE,delta=1
    61                           	psect	text48,global,reloc=2,class=CODE,delta=1
    62                           	psect	intsave_regs,global,class=BIGRAM,space=1,delta=1,noexec
    63                           	psect	rparam,global,class=COMRAM,space=1,delta=1,noexec
    64                           	psect	config,global,abs,ovrld,class=CONFIG,space=4,delta=1,noexec
    65   000000                     
    66                           ; Generated 23/03/2023 GMT
    67                           ; 
    68                           ; Copyright © 2023, Microchip Technology Inc. and its subsidiaries ("Microchip")
    69                           ; All rights reserved.
    70                           ; 
    71                           ; This software is developed by Microchip Technology Inc. and its subsidiaries ("Microch
      +                          ip").
    72                           ; 
    73                           ; Redistribution and use in source and binary forms, with or without modification, are
    74                           ; permitted provided that the following conditions are met:
    75                           ; 
    76                           ;     1. Redistributions of source code must retain the above copyright notice, this lis
      +                          t of
    77                           ;        conditions and the following disclaimer.
    78                           ; 
    79                           ;     2. Redistributions in binary form must reproduce the above copyright notice, this 
      +                          list
    80                           ;        of conditions and the following disclaimer in the documentation and/or other
    81                           ;        materials provided with the distribution. Publication is not required when
    82                           ;        this file is used in an embedded application.
    83                           ; 
    84                           ;     3. Microchip's name may not be used to endorse or promote products derived from th
      +                          is
    85                           ;        software without specific prior written permission.
    86                           ; 
    87                           ; THIS SOFTWARE IS PROVIDED BY MICROCHIP "AS IS" AND ANY EXPRESS OR IMPLIED WARRANTIES,
    88                           ; INCLUDING, BUT NOT LIMITED TO, THE IMPLIED WARRANTIES OF MERCHANTABILITY AND FITNESS F
      +                          OR
    89                           ; PURPOSE ARE DISCLAIMED.  IN NO EVENT SHALL MICROCHIP BE LIABLE FOR ANY DIRECT, INDIREC
      +                          T,
    90                           ; INCIDENTAL, SPECIAL, EXEMPLARY, OR CONSEQUENTIAL DAMAGES (INCLUDING BUT NOT LIMITED TO
    91                           ; PROCUREMENT OF SUBSTITUTE GOODS OR SERVICES; LOSS OF USE, DATA OR PROFITS; OR BUSINESS
    92                           ; INTERRUPTION) HOWSOEVER CAUSED AND ON ANY THEORY OF LIABILITY, WHETHER IN CONTRACT, ST
      +                          RICT
    93                           ; LIABILITY, OR TORT (INCLUDING NEGLIGENCE OR OTHERWISE) ARISING IN ANY WAY OUT OF THE U
      +                          SE OF
    94                           ; THIS SOFTWARE, EVEN IF ADVISED OF THE POSSIBILITY OF SUCH DAMAGE.
    95                           ; 
    96                           ; 
    97                           ; Code-generator required, PIC18F4550 Definitions
    98                           ; 
    99                           ; SFR Addresses
   100   000000                     
   101                           	psect	idataBANK0
   102   0063F7                     __pidataBANK0:
   103                           	callstack 0
   104                           
   105                           ;initializer for stoa@F1156
   106   0063F7  28                 	db	40
   107   0063F8  6E                 	db	110
   108   0063F9  75                 	db	117
   109   0063FA  6C                 	db	108
   110   0063FB  6C                 	db	108
   111   0063FC  29                 	db	41
   112   0063FD  00                 	db	0
   113                           
   114                           ;initializer for Modo_Manual@last_ent
   115   0063FE  01                 	db	1
   116                           
   117                           ;initializer for Modo_Manual@last_dow
   118   0063FF  01                 	db	1
   119                           
   120                           ;initializer for Modo_Manual@last_inc
   121   006400  01                 	db	1
   122                           
   123                           ;initializer for main@last_man_aut
   124   006401  01                 	db	1
   125   000000                     _SSPCON1	set	4038
   126   000000                     _SSPSTAT	set	4039
   127   000000                     _TRISBbits	set	3987
   128   000000                     _ADRESL	set	4035
   129   000000                     _ADRESH	set	4036
   130   000000                     _ADCON0	set	4034
   131   000000                     _RSEN	set	32297
   132   000000                     _TRISB	set	3987
   133   000000                     _SSPSTATbits	set	4039
   134   000000                     _SSPCON2bits	set	4037
   135   000000                     _SSPCON2	set	4037
   136   000000                     _ADCON0bits	set	4034
   137   000000                     _LATB3	set	31827
   138   000000                     _LATB2	set	31826
   139   000000                     _ACKEN	set	32300
   140   000000                     _ACKDT	set	32301
   141   000000                     _R_W	set	32314
   142   000000                     _SEN	set	32296
   143   000000                     _RCEN	set	32299
   144   000000                     _BF	set	32312
   145   000000                     _PEN	set	32298
   146   000000                     _LATD2	set	31842
   147   000000                     _LATC7	set	31839
   148   000000                     _LATC6	set	31838
   149   000000                     _LATC2	set	31834
   150   000000                     _LATC1	set	31833
   151   000000                     _LATD0	set	31840
   152   000000                     _LATD1	set	31841
   153   000000                     _LATD3	set	31843
   154   000000                     _PORTAbits	set	3968
   155   000000                     _OSCCON	set	4051
   156   000000                     _PORTC	set	3970
   157   000000                     _LATB	set	3978
   158   000000                     _PORTD	set	3971
   159   000000                     _LATC0	set	31832
   160   000000                     _LATD7	set	31847
   161   000000                     _TRISAbits	set	3986
   162   000000                     _TRISC	set	3988
   163   000000                     _TRISD	set	3989
   164   000000                     _ADCON2	set	4032
   165   000000                     _ADCON1	set	4033
   166   000000                     _SSPBUF	set	4041
   167   000000                     _SSPADD	set	4040
   168                           
   169                           	psect	mediumconst
   170   007E9A                     __pmediumconst:
   171                           	callstack 0
   172   007E9A  00                 	db	0
   173   007E9B                     STR_14:
   174   007E9B  4D                 	db	77	;'M'
   175   007E9C  6F                 	db	111	;'o'
   176   007E9D  64                 	db	100	;'d'
   177   007E9E  6F                 	db	111	;'o'
   178   007E9F  3A                 	db	58	;':'
   179   007EA0  20                 	db	32
   180   007EA1  4D                 	db	77	;'M'
   181   007EA2  61                 	db	97	;'a'
   182   007EA3  6E                 	db	110	;'n'
   183   007EA4  75                 	db	117	;'u'
   184   007EA5  61                 	db	97	;'a'
   185   007EA6  6C                 	db	108	;'l'
   186   007EA7  20                 	db	32
   187   007EA8  20                 	db	32
   188   007EA9  20                 	db	32
   189   007EAA  20                 	db	32
   190   007EAB  20                 	db	32
   191   007EAC  20                 	db	32
   192   007EAD  20                 	db	32
   193   007EAE  00                 	db	0
   194   007EAF  4D                 	db	77	;'M'
   195   007EB0  61                 	db	97	;'a'
   196   007EB1  6E                 	db	110	;'n'
   197   007EB2  75                 	db	117	;'u'
   198   007EB3  61                 	db	97	;'a'
   199   007EB4  6C                 	db	108	;'l'
   200   007EB5  20                 	db	32
   201   007EB6  2D                 	db	45
   202   007EB7  20                 	db	32
   203   007EB8  56                 	db	86	;'V'
   204   007EB9  3A                 	db	58	;':'
   205   007EBA  25                 	db	37
   206   007EBB  64                 	db	100	;'d'
   207   007EBC  20                 	db	32
   208   007EBD  20                 	db	32
   209   007EBE  20                 	db	32
   210   007EBF  20                 	db	32
   211   007EC0  20                 	db	32
   212   007EC1  20                 	db	32
   213   007EC2  00                 	db	0
   214   007EC3  43                 	db	67	;'C'
   215   007EC4  3A                 	db	58	;':'
   216   007EC5  25                 	db	37
   217   007EC6  30                 	db	48	;'0'
   218   007EC7  34                 	db	52	;'4'
   219   007EC8  64                 	db	100	;'d'
   220   007EC9  20                 	db	32
   221   007ECA  50                 	db	80	;'P'
   222   007ECB  3A                 	db	58	;':'
   223   007ECC  25                 	db	37
   224   007ECD  33                 	db	51	;'3'
   225   007ECE  64                 	db	100	;'d'
   226   007ECF  25                 	db	37
   227   007ED0  25                 	db	37
   228   007ED1  20                 	db	32
   229   007ED2  20                 	db	32
   230   007ED3  20                 	db	32
   231   007ED4  20                 	db	32
   232   007ED5  20                 	db	32
   233   007ED6  00                 	db	0
   234   007ED7  46                 	db	70	;'F'
   235   007ED8  69                 	db	105	;'i'
   236   007ED9  6C                 	db	108	;'l'
   237   007EDA  74                 	db	116	;'t'
   238   007EDB  72                 	db	114	;'r'
   239   007EDC  6F                 	db	111	;'o'
   240   007EDD  20                 	db	32
   241   007EDE  64                 	db	100	;'d'
   242   007EDF  65                 	db	101	;'e'
   243   007EE0  20                 	db	32
   244   007EE1  4D                 	db	77	;'M'
   245   007EE2  61                 	db	97	;'a'
   246   007EE3  6E                 	db	110	;'n'
   247   007EE4  67                 	db	103	;'g'
   248   007EE5  61                 	db	97	;'a'
   249   007EE6  20                 	db	32
   250   007EE7  20                 	db	32
   251   007EE8  20                 	db	32
   252   007EE9  20                 	db	32
   253   007EEA  00                 	db	0
   254   007EEB                     STR_13:
   255   007EEB  4D                 	db	77	;'M'
   256   007EEC  6F                 	db	111	;'o'
   257   007EED  64                 	db	100	;'d'
   258   007EEE  6F                 	db	111	;'o'
   259   007EEF  3A                 	db	58	;':'
   260   007EF0  20                 	db	32
   261   007EF1  41                 	db	65	;'A'
   262   007EF2  75                 	db	117	;'u'
   263   007EF3  74                 	db	116	;'t'
   264   007EF4  6F                 	db	111	;'o'
   265   007EF5  6D                 	db	109	;'m'
   266   007EF6  61                 	db	97	;'a'
   267   007EF7  74                 	db	116	;'t'
   268   007EF8  69                 	db	105	;'i'
   269   007EF9  63                 	db	99	;'c'
   270   007EFA  6F                 	db	111	;'o'
   271   007EFB  20                 	db	32
   272   007EFC  20                 	db	32
   273   007EFD  20                 	db	32
   274   007EFE  00                 	db	0
   275   007EFF  46                 	db	70	;'F'
   276   007F00  41                 	db	65	;'A'
   277   007F01  4C                 	db	76	;'L'
   278   007F02  48                 	db	72	;'H'
   279   007F03  41                 	db	65	;'A'
   280   007F04  21                 	db	33
   281   007F05  20                 	db	32
   282   007F06  50                 	db	80	;'P'
   283   007F07  72                 	db	114	;'r'
   284   007F08  65                 	db	101	;'e'
   285   007F09  73                 	db	115	;'s'
   286   007F0A  73                 	db	115	;'s'
   287   007F0B  20                 	db	32
   288   007F0C  41                 	db	65	;'A'
   289   007F0D  6C                 	db	108	;'l'
   290   007F0E  74                 	db	116	;'t'
   291   007F0F  61                 	db	97	;'a'
   292   007F10  20                 	db	32
   293   007F11  20                 	db	32
   294   007F12  00                 	db	0
   295   007F13  41                 	db	65	;'A'
   296   007F14  75                 	db	117	;'u'
   297   007F15  74                 	db	116	;'t'
   298   007F16  6F                 	db	111	;'o'
   299   007F17  20                 	db	32
   300   007F18  2D                 	db	45
   301   007F19  20                 	db	32
   302   007F1A  41                 	db	65	;'A'
   303   007F1B  67                 	db	103	;'g'
   304   007F1C  75                 	db	117	;'u'
   305   007F1D  61                 	db	97	;'a'
   306   007F1E  72                 	db	114	;'r'
   307   007F1F  64                 	db	100	;'d'
   308   007F20  61                 	db	97	;'a'
   309   007F21  6E                 	db	110	;'n'
   310   007F22  64                 	db	100	;'d'
   311   007F23  6F                 	db	111	;'o'
   312   007F24  20                 	db	32
   313   007F25  20                 	db	32
   314   007F26  00                 	db	0
   315   007F27  41                 	db	65	;'A'
   316   007F28  75                 	db	117	;'u'
   317   007F29  74                 	db	116	;'t'
   318   007F2A  6F                 	db	111	;'o'
   319   007F2B  20                 	db	32
   320   007F2C  2D                 	db	45
   321   007F2D  20                 	db	32
   322   007F2E  43                 	db	67	;'C'
   323   007F2F  69                 	db	105	;'i'
   324   007F30  63                 	db	99	;'c'
   325   007F31  6C                 	db	108	;'l'
   326   007F32  6F                 	db	111	;'o'
   327   007F33  20                 	db	32
   328   007F34  41                 	db	65	;'A'
   329   007F35  74                 	db	116	;'t'
   330   007F36  69                 	db	105	;'i'
   331   007F37  76                 	db	118	;'v'
   332   007F38  6F                 	db	111	;'o'
   333   007F39  20                 	db	32
   334   007F3A  00                 	db	0
   335   007F3B                     STR_2:
   336   007F3B  45                 	db	69	;'E'
   337   007F3C  6E                 	db	110	;'n'
   338   007F3D  67                 	db	103	;'g'
   339   007F3E  65                 	db	101	;'e'
   340   007F3F  6E                 	db	110	;'n'
   341   007F40  68                 	db	104	;'h'
   342   007F41  61                 	db	97	;'a'
   343   007F42  72                 	db	114	;'r'
   344   007F43  69                 	db	105	;'i'
   345   007F44  61                 	db	97	;'a'
   346   007F45  20                 	db	32
   347   007F46  45                 	db	69	;'E'
   348   007F47  6C                 	db	108	;'l'
   349   007F48  65                 	db	101	;'e'
   350   007F49  74                 	db	116	;'t'
   351   007F4A  72                 	db	114	;'r'
   352   007F4B  69                 	db	105	;'i'
   353   007F4C  63                 	db	99	;'c'
   354   007F4D  61                 	db	97	;'a'
   355   007F4E  00                 	db	0
   356   007F4F                     STR_5:
   357   007F4F  57                 	db	87	;'W'
   358   007F50  65                 	db	101	;'e'
   359   007F51  6C                 	db	108	;'l'
   360   007F52  69                 	db	105	;'i'
   361   007F53  6E                 	db	110	;'n'
   362   007F54  67                 	db	103	;'g'
   363   007F55  74                 	db	116	;'t'
   364   007F56  6F                 	db	111	;'o'
   365   007F57  6E                 	db	110	;'n'
   366   007F58  20                 	db	32
   367   007F59  43                 	db	67	;'C'
   368   007F5A  6F                 	db	111	;'o'
   369   007F5B  72                 	db	114	;'r'
   370   007F5C  72                 	db	114	;'r'
   371   007F5D  65                 	db	101	;'e'
   372   007F5E  69                 	db	105	;'i'
   373   007F5F  61                 	db	97	;'a'
   374   007F60  00                 	db	0
   375   007F61                     STR_7:
   376   007F61  53                 	db	83	;'S'
   377   007F62  65                 	db	101	;'e'
   378   007F63  71                 	db	113	;'q'
   379   007F64  2E                 	db	46
   380   007F65  45                 	db	69	;'E'
   381   007F66  6C                 	db	108	;'l'
   382   007F67  65                 	db	101	;'e'
   383   007F68  74                 	db	116	;'t'
   384   007F69  72                 	db	114	;'r'
   385   007F6A  2E                 	db	46
   386   007F6B  4C                 	db	76	;'L'
   387   007F6C  69                 	db	105	;'i'
   388   007F6D  6D                 	db	109	;'m'
   389   007F6E  70                 	db	112	;'p'
   390   007F6F  65                 	db	101	;'e'
   391   007F70  7A                 	db	122	;'z'
   392   007F71  61                 	db	97	;'a'
   393   007F72  00                 	db	0
   394   007F73                     STR_3:
   395   007F73  50                 	db	80	;'P'
   396   007F74  72                 	db	114	;'r'
   397   007F75  6F                 	db	111	;'o'
   398   007F76  6A                 	db	106	;'j'
   399   007F77  65                 	db	101	;'e'
   400   007F78  74                 	db	116	;'t'
   401   007F79  6F                 	db	111	;'o'
   402   007F7A  20                 	db	32
   403   007F7B  49                 	db	73	;'I'
   404   007F7C  6E                 	db	110	;'n'
   405   007F7D  74                 	db	116	;'t'
   406   007F7E  65                 	db	101	;'e'
   407   007F7F  67                 	db	103	;'g'
   408   007F80  72                 	db	114	;'r'
   409   007F81  61                 	db	97	;'a'
   410   007F82  64                 	db	100	;'d'
   411   007F83  6F                 	db	111	;'o'
   412   007F84  00                 	db	0
   413   007F85                     STR_9:
   414   007F85  53                 	db	83	;'S'
   415   007F86  65                 	db	101	;'e'
   416   007F87  6A                 	db	106	;'j'
   417   007F88  61                 	db	97	;'a'
   418   007F89  20                 	db	32
   419   007F8A  42                 	db	66	;'B'
   420   007F8B  65                 	db	101	;'e'
   421   007F8C  6D                 	db	109	;'m'
   422   007F8D  20                 	db	32
   423   007F8E  56                 	db	86	;'V'
   424   007F8F  69                 	db	105	;'i'
   425   007F90  6E                 	db	110	;'n'
   426   007F91  64                 	db	100	;'d'
   427   007F92  6F                 	db	111	;'o'
   428   007F93  21                 	db	33
   429   007F94  00                 	db	0
   430   007F95                     STR_8:
   431   007F95  46                 	db	70	;'F'
   432   007F96  69                 	db	105	;'i'
   433   007F97  6C                 	db	108	;'l'
   434   007F98  74                 	db	116	;'t'
   435   007F99  72                 	db	114	;'r'
   436   007F9A  6F                 	db	111	;'o'
   437   007F9B  20                 	db	32
   438   007F9C  64                 	db	100	;'d'
   439   007F9D  65                 	db	101	;'e'
   440   007F9E  20                 	db	32
   441   007F9F  4D                 	db	77	;'M'
   442   007FA0  61                 	db	97	;'a'
   443   007FA1  6E                 	db	110	;'n'
   444   007FA2  67                 	db	103	;'g'
   445   007FA3  61                 	db	97	;'a'
   446   007FA4  00                 	db	0
   447   007FA5                     STR_4:
   448   007FA5  45                 	db	69	;'E'
   449   007FA6  6D                 	db	109	;'m'
   450   007FA7  20                 	db	32
   451   007FA8  45                 	db	69	;'E'
   452   007FA9  6C                 	db	108	;'l'
   453   007FAA  65                 	db	101	;'e'
   454   007FAB  74                 	db	116	;'t'
   455   007FAC  72                 	db	114	;'r'
   456   007FAD  69                 	db	105	;'i'
   457   007FAE  63                 	db	99	;'c'
   458   007FAF  61                 	db	97	;'a'
   459   007FB0  20                 	db	32
   460   007FB1  49                 	db	73	;'I'
   461   007FB2  49                 	db	73	;'I'
   462   007FB3  00                 	db	0
   463   007FB4                     STR_23:
   464   007FB4  25                 	db	37
   465   007FB5  30                 	db	48	;'0'
   466   007FB6  32                 	db	50	;'2'
   467   007FB7  64                 	db	100	;'d'
   468   007FB8  3A                 	db	58	;':'
   469   007FB9  25                 	db	37
   470   007FBA  30                 	db	48	;'0'
   471   007FBB  32                 	db	50	;'2'
   472   007FBC  64                 	db	100	;'d'
   473   007FBD  3A                 	db	58	;':'
   474   007FBE  25                 	db	37
   475   007FBF  30                 	db	48	;'0'
   476   007FC0  32                 	db	50	;'2'
   477   007FC1  64                 	db	100	;'d'
   478   007FC2  00                 	db	0
   479   007FC3                     STR_24:
   480   007FC3  25                 	db	37
   481   007FC4  30                 	db	48	;'0'
   482   007FC5  32                 	db	50	;'2'
   483   007FC6  64                 	db	100	;'d'
   484   007FC7  2F                 	db	47
   485   007FC8  25                 	db	37
   486   007FC9  30                 	db	48	;'0'
   487   007FCA  32                 	db	50	;'2'
   488   007FCB  64                 	db	100	;'d'
   489   007FCC  2F                 	db	47
   490   007FCD  25                 	db	37
   491   007FCE  30                 	db	48	;'0'
   492   007FCF  34                 	db	52	;'4'
   493   007FD0  64                 	db	100	;'d'
   494   007FD1  00                 	db	0
   495   007FD2                     STR_6:
   496   007FD2  52                 	db	82	;'R'
   497   007FD3  41                 	db	65	;'A'
   498   007FD4  20                 	db	32
   499   007FD5  3A                 	db	58	;':'
   500   007FD6  20                 	db	32
   501   007FD7  31                 	db	49	;'1'
   502   007FD8  30                 	db	48	;'0'
   503   007FD9  36                 	db	54	;'6'
   504   007FDA  33                 	db	51	;'3'
   505   007FDB  36                 	db	54	;'6'
   506   007FDC  37                 	db	55	;'7'
   507   007FDD  37                 	db	55	;'7'
   508   007FDE  00                 	db	0
   509   007FDF                     STR_10:
   510   007FDF  43                 	db	67	;'C'
   511   007FE0  69                 	db	105	;'i'
   512   007FE1  63                 	db	99	;'c'
   513   007FE2  6C                 	db	108	;'l'
   514   007FE3  6F                 	db	111	;'o'
   515   007FE4  73                 	db	115	;'s'
   516   007FE5  3A                 	db	58	;':'
   517   007FE6  20                 	db	32
   518   007FE7  25                 	db	37
   519   007FE8  30                 	db	48	;'0'
   520   007FE9  34                 	db	52	;'4'
   521   007FEA  64                 	db	100	;'d'
   522   007FEB  00                 	db	0
   523   007FEC                     STR_1:
   524   007FEC  55                 	db	85	;'U'
   525   007FED  4E                 	db	78	;'N'
   526   007FEE  49                 	db	73	;'I'
   527   007FEF  55                 	db	85	;'U'
   528   007FF0  42                 	db	66	;'B'
   529   007FF1  45                 	db	69	;'E'
   530   007FF2  00                 	db	0
   531   007FF3                     STR_12:
   532   007FF3  25                 	db	37
   533   007FF4  73                 	db	115	;'s'
   534   007FF5  20                 	db	32
   535   007FF6  20                 	db	32
   536   007FF7  25                 	db	37
   537   007FF8  73                 	db	115	;'s'
   538   007FF9  00                 	db	0
   539   007FFA                     STR_25:
   540   007FFA  6C                 	db	108	;'l'
   541   007FFB  6C                 	db	108	;'l'
   542   007FFC  73                 	db	115	;'s'
   543   007FFD  00                 	db	0
   544   007FFE  00                 	db	0	; dummy byte at the end
   545   000000                     
   546                           ; #config settings
   547                           
   548                           	psect	cinit
   549   00662E                     __pcinit:
   550                           	callstack 0
   551   00662E                     start_initialization:
   552                           	callstack 0
   553   00662E                     __initialization:
   554                           	callstack 0
   555                           
   556                           ; Initialize objects allocated to BANK0 (11 bytes)
   557                           ; load TBLPTR registers with __pidataBANK0
   558   00662E  0EF7               	movlw	low __pidataBANK0
   559   006630  6EF6               	movwf	tblptrl,c
   560   006632  0E63               	movlw	high __pidataBANK0
   561   006634  6EF7               	movwf	tblptrh,c
   562   006636  0E00               	movlw	low (__pidataBANK0 shr (0+16))
   563   006638  6EF8               	movwf	tblptru,c
   564   00663A  EE00  F0C6         	lfsr	0,__pdataBANK0
   565   00663E  EE10 F00B          	lfsr	1,11
   566   006642                     copy_data0:
   567   006642  0009               	tblrd		*+
   568   006644  CFF5 FFEE          	movff	tablat,postinc0
   569   006648  50E5               	movf	postdec1,w,c
   570   00664A  50E1               	movf	fsr1l,w,c
   571   00664C  E1FA               	bnz	copy_data0
   572                           
   573                           ; Clear objects allocated to BANK0 (102 bytes)
   574   00664E  EE00  F060         	lfsr	0,__pbssBANK0
   575   006652  0E66               	movlw	102
   576   006654                     clear_0:
   577   006654  6AEE               	clrf	postinc0,c
   578   006656  06E8               	decf	wreg,f,c
   579   006658  E1FD               	bnz	clear_0
   580                           
   581                           ; Clear objects allocated to COMRAM (1 bytes)
   582   00665A  6A5F               	clrf	__pbssCOMRAM& (0+255),c
   583   00665C                     end_of_initialization:
   584                           	callstack 0
   585   00665C                     __end_of__initialization:
   586                           	callstack 0
   587   00665C  0E00               	movlw	low (__Lmediumconst shr (0+16))
   588   00665E  6EF8               	movwf	tblptru,c
   589   006660  0100               	movlb	0
   590   006662  EFCD  F038         	goto	_main	;jump to C main() function
   591                           
   592                           	psect	bssCOMRAM
   593   00005F                     __pbssCOMRAM:
   594                           	callstack 0
   595   00005F                     _modo_operacao:
   596                           	callstack 0
   597   00005F                     	ds	1
   598                           
   599                           	psect	bssBANK0
   600   000060                     __pbssBANK0:
   601                           	callstack 0
   602   000060                     _width:
   603                           	callstack 0
   604   000060                     	ds	2
   605   000062                     _prec:
   606                           	callstack 0
   607   000062                     	ds	2
   608   000064                     Sequenciador_Automatico@estado_timer:
   609                           	callstack 0
   610   000064                     	ds	2
   611   000066                     Atualizar_Display_Principal@display_timer:
   612                           	callstack 0
   613   000066                     	ds	2
   614   000068                     main@blink_timer:
   615                           	callstack 0
   616   000068                     	ds	2
   617   00006A                     _adc_pressao:
   618                           	callstack 0
   619   00006A                     	ds	2
   620   00006C                     _temporizador:
   621                           	callstack 0
   622   00006C                     	ds	2
   623   00006E                     _contador_ciclos:
   624                           	callstack 0
   625   00006E                     	ds	2
   626   000070                     _flags:
   627                           	callstack 0
   628   000070                     	ds	1
   629   000071                     Sequenciador_Automatico@estado:
   630                           	callstack 0
   631   000071                     	ds	1
   632   000072                     Sequenciador_Automatico@valvula_atual:
   633                           	callstack 0
   634   000072                     	ds	1
   635   000073                     _falha_pressao:
   636                           	callstack 0
   637   000073                     	ds	1
   638   000074                     _ciclo_em_andamento:
   639                           	callstack 0
   640   000074                     	ds	1
   641   000075                     _valvula_selecionada:
   642                           	callstack 0
   643   000075                     	ds	1
   644   000076                     _dbuf:
   645                           	callstack 0
   646   000076                     	ds	32
   647   000096                     _lcd_buffer:
   648                           	callstack 0
   649   000096                     	ds	21
   650   0000AB                     _data_buffer:
   651                           	callstack 0
   652   0000AB                     	ds	11
   653   0000B6                     _hora_buffer:
   654                           	callstack 0
   655   0000B6                     	ds	9
   656   0000BF                     _rtc:
   657                           	callstack 0
   658   0000BF                     	ds	7
   659                           
   660                           	psect	dataBANK0
   661   0000C6                     __pdataBANK0:
   662                           	callstack 0
   663   0000C6                     stoa@F1156:
   664                           	callstack 0
   665   0000C6                     	ds	7
   666   0000CD                     Modo_Manual@last_ent:
   667                           	callstack 0
   668   0000CD                     	ds	1
   669   0000CE                     Modo_Manual@last_dow:
   670                           	callstack 0
   671   0000CE                     	ds	1
   672   0000CF                     Modo_Manual@last_inc:
   673                           	callstack 0
   674   0000CF                     	ds	1
   675   0000D0                     main@last_man_aut:
   676                           	callstack 0
   677   0000D0                     	ds	1
   678                           
   679                           	psect	cstackBANK0
   680   0000D1                     __pcstackBANK0:
   681                           	callstack 0
   682   0000D1                     ??_Format_Hora:
   683   0000D1                     ??_Format_Data:
   684                           
   685                           ; 1 bytes @ 0x0
   686   0000D1                     	ds	2
   687   0000D3                     Format_Hora@hora:
   688                           	callstack 0
   689   0000D3                     Format_Data@dia:
   690                           	callstack 0
   691                           
   692                           ; 1 bytes @ 0x2
   693   0000D3                     	ds	1
   694   0000D4                     Format_Hora@min:
   695                           	callstack 0
   696   0000D4                     Format_Data@mes:
   697                           	callstack 0
   698                           
   699                           ; 1 bytes @ 0x3
   700   0000D4                     	ds	1
   701   0000D5                     Format_Hora@seg:
   702                           	callstack 0
   703   0000D5                     Format_Data@ano:
   704                           	callstack 0
   705                           
   706                           ; 1 bytes @ 0x4
   707   0000D5                     	ds	1
   708   0000D6                     _Display_Mensagens_Iniciais$388:
   709                           	callstack 0
   710                           
   711                           ; 2 bytes @ 0x5
   712   0000D6                     	ds	2
   713   0000D8                     ??_main:
   714                           
   715                           ; 1 bytes @ 0x7
   716   0000D8                     	ds	2
   717                           
   718                           	psect	cstackCOMRAM
   719   000001                     __pcstackCOMRAM:
   720                           	callstack 0
   721   000001                     ?_strlen:
   722                           	callstack 0
   723   000001                     ?_strncmp:
   724                           	callstack 0
   725   000001                     ?___wmul:
   726                           	callstack 0
   727   000001                     ?___awdiv:
   728                           	callstack 0
   729   000001                     ?___awmod:
   730                           	callstack 0
   731   000001                     I2C_Write@v_i2cData_u8:
   732                           	callstack 0
   733   000001                     I2C_Read@v_ackOption_u8:
   734                           	callstack 0
   735   000001                     MSdelay@val:
   736                           	callstack 0
   737   000001                     ___wmul@multiplier:
   738                           	callstack 0
   739   000001                     ___awdiv@dividend:
   740                           	callstack 0
   741   000001                     ___awmod@dividend:
   742                           	callstack 0
   743   000001                     fputc@c:
   744                           	callstack 0
   745   000001                     strlen@s:
   746                           	callstack 0
   747   000001                     strncmp@_l:
   748                           	callstack 0
   749                           
   750                           ; 2 bytes @ 0x0
   751   000001                     	ds	1
   752   000002                     I2C_Read@v_i2cData_u8:
   753                           	callstack 0
   754                           
   755                           ; 1 bytes @ 0x1
   756   000002                     	ds	1
   757   000003                     Ler_EEPROM@endereco:
   758                           	callstack 0
   759   000003                     RTC_GetDateTime@rtc:
   760                           	callstack 0
   761   000003                     MSdelay@i:
   762                           	callstack 0
   763   000003                     ___wmul@multiplicand:
   764                           	callstack 0
   765   000003                     ___awdiv@divisor:
   766                           	callstack 0
   767   000003                     ___awmod@divisor:
   768                           	callstack 0
   769   000003                     fputc@fp:
   770                           	callstack 0
   771   000003                     strlen@a:
   772                           	callstack 0
   773   000003                     strncmp@_r:
   774                           	callstack 0
   775                           
   776                           ; 2 bytes @ 0x2
   777   000003                     	ds	2
   778   000005                     ??_fputc:
   779   000005                     Ler_EEPROM@dado:
   780                           	callstack 0
   781   000005                     ___awdiv@counter:
   782                           	callstack 0
   783   000005                     ___awmod@counter:
   784                           	callstack 0
   785   000005                     MSdelay@j:
   786                           	callstack 0
   787   000005                     ___wmul@product:
   788                           	callstack 0
   789   000005                     strncmp@n:
   790                           	callstack 0
   791                           
   792                           ; 2 bytes @ 0x4
   793   000005                     	ds	1
   794   000006                     ??_Ler_Contador_EEPROM:
   795   000006                     ___awdiv@sign:
   796                           	callstack 0
   797   000006                     ___awmod@sign:
   798                           	callstack 0
   799                           
   800                           ; 1 bytes @ 0x5
   801   000006                     	ds	1
   802   000007                     ??_Beep:
   803   000007                     ??_Modo_Manual:
   804   000007                     ??_LCD_Command:
   805   000007                     ??_strncmp:
   806   000007                     ??_LCD_Char:
   807   000007                     ?_Ler_ADC:
   808                           	callstack 0
   809   000007                     ?_abs:
   810                           	callstack 0
   811   000007                     ?_read_prec_or_width:
   812                           	callstack 0
   813   000007                     Escrever_EEPROM@endereco:
   814                           	callstack 0
   815   000007                     ___awdiv@quotient:
   816                           	callstack 0
   817   000007                     read_prec_or_width@fmt:
   818                           	callstack 0
   819   000007                     abs@a:
   820                           	callstack 0
   821                           
   822                           ; 2 bytes @ 0x6
   823   000007                     	ds	1
   824   000008                     Ler_Contador_EEPROM@high:
   825                           	callstack 0
   826   000008                     LCD_Command@cmd:
   827                           	callstack 0
   828   000008                     LCD_Char@dat:
   829                           	callstack 0
   830   000008                     strncmp@l:
   831                           	callstack 0
   832                           
   833                           ; 2 bytes @ 0x7
   834   000008                     	ds	1
   835   000009                     ??_Ler_ADC:
   836   000009                     ??_abs:
   837   000009                     Beep@tipo:
   838                           	callstack 0
   839   000009                     Escrever_EEPROM@dado:
   840                           	callstack 0
   841   000009                     Ler_Contador_EEPROM@low:
   842                           	callstack 0
   843   000009                     LCD_String@msg:
   844                           	callstack 0
   845   000009                     read_prec_or_width@ap:
   846                           	callstack 0
   847                           
   848                           ; 2 bytes @ 0x8
   849   000009                     	ds	1
   850   00000A                     ??_Sequenciador_Automatico:
   851   00000A                     stoa@fp:
   852                           	callstack 0
   853   00000A                     fputs@s:
   854                           	callstack 0
   855   00000A                     strncmp@r:
   856                           	callstack 0
   857                           
   858                           ; 2 bytes @ 0x9
   859   00000A                     	ds	1
   860   00000B                     ??_read_prec_or_width:
   861   00000B                     Ler_ADC@canal:
   862                           	callstack 0
   863   00000B                     LCD_String_xy@pos:
   864                           	callstack 0
   865                           
   866                           ; 1 bytes @ 0xA
   867   00000B                     	ds	1
   868   00000C                     LCD_String_xy@msg:
   869                           	callstack 0
   870   00000C                     stoa@s:
   871                           	callstack 0
   872   00000C                     fputs@fp:
   873                           	callstack 0
   874                           
   875                           ; 2 bytes @ 0xB
   876   00000C                     	ds	1
   877   00000D                     read_prec_or_width@c:
   878                           	callstack 0
   879                           
   880                           ; 1 bytes @ 0xC
   881   00000D                     	ds	1
   882   00000E                     ??_stoa:
   883   00000E                     LCD_String_xy@row:
   884                           	callstack 0
   885   00000E                     fputs@c:
   886                           	callstack 0
   887   00000E                     read_prec_or_width@n:
   888                           	callstack 0
   889                           
   890                           ; 2 bytes @ 0xD
   891   00000E                     	ds	1
   892   00000F                     LCD_String_xy@location:
   893                           	callstack 0
   894   00000F                     fputs@i:
   895                           	callstack 0
   896   00000F                     stoa@nuls:
   897                           	callstack 0
   898                           
   899                           ; 7 bytes @ 0xE
   900   00000F                     	ds	2
   901   000011                     pad@fp:
   902                           	callstack 0
   903                           
   904                           ; 2 bytes @ 0x10
   905   000011                     	ds	2
   906   000013                     pad@buf:
   907                           	callstack 0
   908                           
   909                           ; 2 bytes @ 0x12
   910   000013                     	ds	2
   911   000015                     pad@p:
   912                           	callstack 0
   913                           
   914                           ; 2 bytes @ 0x14
   915   000015                     	ds	1
   916   000016                     stoa@i:
   917                           	callstack 0
   918                           
   919                           ; 2 bytes @ 0x15
   920   000016                     	ds	1
   921   000017                     ??_pad:
   922                           
   923                           ; 1 bytes @ 0x16
   924   000017                     	ds	1
   925   000018                     pad@i:
   926                           	callstack 0
   927   000018                     stoa@w:
   928                           	callstack 0
   929                           
   930                           ; 2 bytes @ 0x17
   931   000018                     	ds	2
   932   00001A                     pad@w:
   933                           	callstack 0
   934   00001A                     stoa@cp:
   935                           	callstack 0
   936                           
   937                           ; 2 bytes @ 0x19
   938   00001A                     	ds	2
   939   00001C                     dtoa@fp:
   940                           	callstack 0
   941   00001C                     stoa@p:
   942                           	callstack 0
   943                           
   944                           ; 2 bytes @ 0x1B
   945   00001C                     	ds	2
   946   00001E                     dtoa@d:
   947                           	callstack 0
   948   00001E                     stoa@l:
   949                           	callstack 0
   950                           
   951                           ; 2 bytes @ 0x1D
   952   00001E                     	ds	2
   953   000020                     _dtoa$1292:
   954                           	callstack 0
   955                           
   956                           ; 2 bytes @ 0x1F
   957   000020                     	ds	2
   958   000022                     dtoa@p:
   959                           	callstack 0
   960                           
   961                           ; 2 bytes @ 0x21
   962   000022                     	ds	2
   963   000024                     dtoa@w:
   964                           	callstack 0
   965                           
   966                           ; 2 bytes @ 0x23
   967   000024                     	ds	2
   968   000026                     dtoa@i:
   969                           	callstack 0
   970                           
   971                           ; 2 bytes @ 0x25
   972   000026                     	ds	2
   973   000028                     dtoa@s:
   974                           	callstack 0
   975                           
   976                           ; 1 bytes @ 0x27
   977   000028                     	ds	1
   978   000029                     vfpfcnvrt@fp:
   979                           	callstack 0
   980                           
   981                           ; 2 bytes @ 0x28
   982   000029                     	ds	2
   983   00002B                     vfpfcnvrt@fmt:
   984                           	callstack 0
   985                           
   986                           ; 2 bytes @ 0x2A
   987   00002B                     	ds	2
   988   00002D                     vfpfcnvrt@ap:
   989                           	callstack 0
   990                           
   991                           ; 2 bytes @ 0x2C
   992   00002D                     	ds	2
   993   00002F                     ??_vfpfcnvrt:
   994                           
   995                           ; 1 bytes @ 0x2E
   996   00002F                     	ds	2
   997   000031                     vfpfcnvrt@convarg:
   998                           	callstack 0
   999                           
  1000                           ; 4 bytes @ 0x30
  1001   000031                     	ds	4
  1002   000035                     vfpfcnvrt@done:
  1003                           	callstack 0
  1004                           
  1005                           ; 2 bytes @ 0x34
  1006   000035                     	ds	2
  1007   000037                     _vfpfcnvrt$1330:
  1008                           	callstack 0
  1009                           
  1010                           ; 2 bytes @ 0x36
  1011   000037                     	ds	2
  1012   000039                     vfpfcnvrt@cp:
  1013                           	callstack 0
  1014                           
  1015                           ; 2 bytes @ 0x38
  1016   000039                     	ds	2
  1017   00003B                     ?_vfprintf:
  1018                           	callstack 0
  1019   00003B                     vfprintf@fp:
  1020                           	callstack 0
  1021                           
  1022                           ; 2 bytes @ 0x3A
  1023   00003B                     	ds	2
  1024   00003D                     vfprintf@fmt:
  1025                           	callstack 0
  1026                           
  1027                           ; 2 bytes @ 0x3C
  1028   00003D                     	ds	2
  1029   00003F                     vfprintf@ap:
  1030                           	callstack 0
  1031                           
  1032                           ; 2 bytes @ 0x3E
  1033   00003F                     	ds	2
  1034   000041                     vfprintf@cfmt:
  1035                           	callstack 0
  1036                           
  1037                           ; 2 bytes @ 0x40
  1038   000041                     	ds	2
  1039   000043                     ?_sprintf:
  1040                           	callstack 0
  1041   000043                     sprintf@s:
  1042                           	callstack 0
  1043                           
  1044                           ; 2 bytes @ 0x42
  1045   000043                     	ds	2
  1046   000045                     sprintf@fmt:
  1047                           	callstack 0
  1048                           
  1049                           ; 2 bytes @ 0x44
  1050   000045                     	ds	8
  1051   00004D                     sprintf@ap:
  1052                           	callstack 0
  1053                           
  1054                           ; 2 bytes @ 0x4C
  1055   00004D                     	ds	2
  1056   00004F                     sprintf@f:
  1057                           	callstack 0
  1058                           
  1059                           ; 12 bytes @ 0x4E
  1060   00004F                     	ds	12
  1061   00005B                     Format_Hora@buffer:
  1062                           	callstack 0
  1063   00005B                     Format_Data@buffer:
  1064                           	callstack 0
  1065                           
  1066                           ; 2 bytes @ 0x5A
  1067   00005B                     	ds	2
  1068   00005D                     Format_Hora@rtc:
  1069                           	callstack 0
  1070   00005D                     Format_Data@rtc:
  1071                           	callstack 0
  1072                           
  1073                           ; 2 bytes @ 0x5C
  1074   00005D                     	ds	2
  1075   00005F                     
  1076                           ; 1 bytes @ 0x5E
  1077 ;;
  1078 ;;Main: autosize = 0, tempsize = 2, incstack = 0, save=0
  1079 ;;
  1080 ;; *************** function _main *****************
  1081 ;; Defined at:
  1082 ;;		line 105 in file "main_piee2.c"
  1083 ;; Parameters:    Size  Location     Type
  1084 ;;		None
  1085 ;; Auto vars:     Size  Location     Type
  1086 ;;		None
  1087 ;; Return value:  Size  Location     Type
  1088 ;;                  2  122[None  ] int 
  1089 ;; Registers used:
  1090 ;;		wreg, fsr1l, fsr1h, fsr2l, fsr2h, status,2, status,0, tblptrl, tblptrh, tblptru, prodl, prodh, cstack
  1091 ;; Tracked objects:
  1092 ;;		On entry : 0/0
  1093 ;;		On exit  : 0/0
  1094 ;;		Unchanged: 0/0
  1095 ;; Data sizes:     COMRAM   BANK0   BANK1   BANK2   BANK3   BANK4   BANK5   BANK6   BANK7
  1096 ;;      Params:         0       0       0       0       0       0       0       0       0
  1097 ;;      Locals:         0       0       0       0       0       0       0       0       0
  1098 ;;      Temps:          0       2       0       0       0       0       0       0       0
  1099 ;;      Totals:         0       2       0       0       0       0       0       0       0
  1100 ;;Total ram usage:        2 bytes
  1101 ;; Hardware stack levels required when called: 10
  1102 ;; This function calls:
  1103 ;;		_Beep
  1104 ;;		_Display_Mensagens_Iniciais
  1105 ;;		_Ler_ADC
  1106 ;;		_MSdelay
  1107 ;;		_Modo_Manual
  1108 ;;		_Salvar_Contador_EEPROM
  1109 ;;		_Sequenciador_Automatico
  1110 ;;		_System_Init
  1111 ;;		_Verificar_Falha_Pressao
  1112 ;; This function is called by:
  1113 ;;		Startup code after reset
  1114 ;; This function uses a non-reentrant model
  1115 ;;
  1116                           
  1117                           	psect	text0
  1118   00719A                     __ptext0:
  1119                           	callstack 0
  1120   00719A                     _main:
  1121                           	callstack 21
  1122   00719A                     
  1123                           ;main_piee2.c: 107:     OSCCON = 0x72;
  1124   00719A  0E72               	movlw	114
  1125   00719C  6ED3               	movwf	211,c	;volatile
  1126   00719E                     
  1127                           ;main_piee2.c: 108:     System_Init();
  1128   00719E  ECE3  F032         	call	_System_Init	;wreg free
  1129   0071A2                     
  1130                           ;main_piee2.c: 112:     Beep(1);
  1131   0071A2  0E01               	movlw	1
  1132   0071A4  ECEC  F034         	call	_Beep
  1133   0071A8                     
  1134                           ;main_piee2.c: 113:     Display_Mensagens_Iniciais();
  1135   0071A8  ECC7  F03C         	call	_Display_Mensagens_Iniciais	;wreg free
  1136   0071AC                     
  1137                           ;main_piee2.c: 114:     Beep(2);
  1138   0071AC  0E02               	movlw	2
  1139   0071AE  ECEC  F034         	call	_Beep
  1140   0071B2                     l3100:
  1141                           
  1142                           ;main_piee2.c: 126:         adc_pressao = Ler_ADC(0);
  1143   0071B2  0E00               	movlw	0
  1144   0071B4  EC70  F033         	call	_Ler_ADC
  1145   0071B8  C007  F06A         	movff	?_Ler_ADC,_adc_pressao
  1146   0071BC  C008  F06B         	movff	?_Ler_ADC+1,_adc_pressao+1
  1147   0071C0                     
  1148                           ;main_piee2.c: 129:         Verificar_Falha_Pressao();
  1149   0071C0  EC87  F032         	call	_Verificar_Falha_Pressao	;wreg free
  1150   0071C4                     
  1151                           ;main_piee2.c: 132:         if(PORTAbits.RA6 == 0) {
  1152   0071C4  BC80               	btfsc	128,6,c	;volatile
  1153   0071C6  EFE7  F038         	goto	u2251
  1154   0071CA  EFE9  F038         	goto	u2250
  1155   0071CE                     u2251:
  1156   0071CE  EF19  F039         	goto	l124
  1157   0071D2                     u2250:
  1158   0071D2                     
  1159                           ;main_piee2.c: 133:             MSdelay(50);
  1160   0071D2  0E00               	movlw	0
  1161   0071D4  6E02               	movwf	(MSdelay@val+1)^0,c
  1162   0071D6  0E32               	movlw	50
  1163   0071D8  6E01               	movwf	MSdelay@val^0,c
  1164   0071DA  ECD6  F033         	call	_MSdelay	;wreg free
  1165   0071DE                     
  1166                           ;main_piee2.c: 134:             if(PORTAbits.RA6 == 0) {
  1167   0071DE  BC80               	btfsc	128,6,c	;volatile
  1168   0071E0  EFF4  F038         	goto	u2261
  1169   0071E4  EFF6  F038         	goto	u2260
  1170   0071E8                     u2261:
  1171   0071E8  EF19  F039         	goto	l124
  1172   0071EC                     u2260:
  1173   0071EC                     
  1174                           ;main_piee2.c: 135:                 if(modo_operacao == 1) {
  1175   0071EC  045F               	decf	_modo_operacao^0,w,c
  1176   0071EE  A4D8               	btfss	status,2,c
  1177   0071F0  EFFC  F038         	goto	u2271
  1178   0071F4  EFFE  F038         	goto	u2270
  1179   0071F8                     u2271:
  1180   0071F8  EF07  F039         	goto	l126
  1181   0071FC                     u2270:
  1182   0071FC                     
  1183                           ;main_piee2.c: 136:                     contador_ciclos = 0;
  1184   0071FC  0E00               	movlw	0
  1185   0071FE  0100               	movlb	0	; () banked
  1186   007200  6F6F               	movwf	(_contador_ciclos+1)& (0+255),b
  1187   007202  0E00               	movlw	0
  1188   007204  6F6E               	movwf	_contador_ciclos& (0+255),b
  1189   007206                     
  1190                           ; BSR set to: 0
  1191                           ;main_piee2.c: 137:                     Salvar_Contador_EEPROM();
  1192   007206  EC62  F032         	call	_Salvar_Contador_EEPROM	;wreg free
  1193                           
  1194                           ;main_piee2.c: 139:                 } else {
  1195   00720A  EF12  F039         	goto	l128
  1196   00720E                     l126:
  1197                           
  1198                           ;main_piee2.c: 141:                     PORTC = 0xFF;
  1199   00720E  6882               	setf	130,c	;volatile
  1200                           
  1201                           ;main_piee2.c: 142:                     LATD7 = 1;
  1202   007210  8E8C               	bsf	3980,7,c	;volatile
  1203   007212                     
  1204                           ;main_piee2.c: 143:                     MSdelay(2000);
  1205   007212  0E07               	movlw	7
  1206   007214  6E02               	movwf	(MSdelay@val+1)^0,c
  1207   007216  0ED0               	movlw	208
  1208   007218  6E01               	movwf	MSdelay@val^0,c
  1209   00721A  ECD6  F033         	call	_MSdelay	;wreg free
  1210   00721E                     
  1211                           ;main_piee2.c: 144:                     PORTC = 0x00;
  1212   00721E  0E00               	movlw	0
  1213   007220  6E82               	movwf	130,c	;volatile
  1214   007222                     
  1215                           ;main_piee2.c: 145:                     LATD7 = 0;
  1216   007222  9E8C               	bcf	3980,7,c	;volatile
  1217   007224                     l128:
  1218   007224  AC80               	btfss	128,6,c	;volatile
  1219   007226  EF17  F039         	goto	u2281
  1220   00722A  EF19  F039         	goto	u2280
  1221   00722E                     u2281:
  1222   00722E  EF12  F039         	goto	l128
  1223   007232                     u2280:
  1224   007232                     l124:
  1225                           
  1226                           ;main_piee2.c: 152:         static uint8_t last_man_aut = 1;;main_piee2.c: 153:         
      +                          if(PORTAbits.RA2 == 0 && modo_operacao == 1) {
  1227   007232  B480               	btfsc	128,2,c	;volatile
  1228   007234  EF1E  F039         	goto	u2291
  1229   007238  EF20  F039         	goto	u2290
  1230   00723C                     u2291:
  1231   00723C  EF47  F039         	goto	l3134
  1232   007240                     u2290:
  1233   007240  045F               	decf	_modo_operacao^0,w,c
  1234   007242  A4D8               	btfss	status,2,c
  1235   007244  EF26  F039         	goto	u2301
  1236   007248  EF28  F039         	goto	u2300
  1237   00724C                     u2301:
  1238   00724C  EF47  F039         	goto	l3134
  1239   007250                     u2300:
  1240   007250                     
  1241                           ;main_piee2.c: 154:             MSdelay(50);
  1242   007250  0E00               	movlw	0
  1243   007252  6E02               	movwf	(MSdelay@val+1)^0,c
  1244   007254  0E32               	movlw	50
  1245   007256  6E01               	movwf	MSdelay@val^0,c
  1246   007258  ECD6  F033         	call	_MSdelay	;wreg free
  1247   00725C                     
  1248                           ;main_piee2.c: 155:             if(PORTAbits.RA2 == 0) {
  1249   00725C  B480               	btfsc	128,2,c	;volatile
  1250   00725E  EF33  F039         	goto	u2311
  1251   007262  EF35  F039         	goto	u2310
  1252   007266                     u2311:
  1253   007266  EF47  F039         	goto	l3134
  1254   00726A                     u2310:
  1255   00726A                     
  1256                           ;main_piee2.c: 156:                 modo_operacao = !modo_operacao;
  1257   00726A  505F               	movf	_modo_operacao^0,w,c
  1258   00726C  B4D8               	btfsc	status,2,c
  1259   00726E  EF3B  F039         	goto	u2321
  1260   007272  EF3E  F039         	goto	u2320
  1261   007276                     u2321:
  1262   007276  0E01               	movlw	1
  1263   007278  EF3F  F039         	goto	u2330
  1264   00727C                     u2320:
  1265   00727C  0E00               	movlw	0
  1266   00727E                     u2330:
  1267   00727E  6E5F               	movwf	_modo_operacao^0,c
  1268                           
  1269                           ;main_piee2.c: 157:                 ciclo_em_andamento = 0;
  1270   007280  0E00               	movlw	0
  1271   007282  0100               	movlb	0	; () banked
  1272   007284  6F74               	movwf	_ciclo_em_andamento& (0+255),b
  1273                           
  1274                           ;main_piee2.c: 158:                 PORTC = 0x00;
  1275   007286  0E00               	movlw	0
  1276   007288  6E82               	movwf	130,c	;volatile
  1277   00728A                     
  1278                           ; BSR set to: 0
  1279                           ;main_piee2.c: 159:                 LATD7 = 0;
  1280   00728A  9E8C               	bcf	3980,7,c	;volatile
  1281   00728C                     
  1282                           ; BSR set to: 0
  1283                           ;main_piee2.c: 160:                 LATD3 = 0;
  1284   00728C  968C               	bcf	3980,3,c	;volatile
  1285   00728E                     l3134:
  1286                           
  1287                           ;main_piee2.c: 164:         last_man_aut = PORTAbits.RA2;
  1288   00728E  0E00               	movlw	0
  1289   007290  B480               	btfsc	128,2,c	;volatile
  1290   007292  0E01               	movlw	1
  1291   007294  0100               	movlb	0	; () banked
  1292   007296  6FD0               	movwf	main@last_man_aut& (0+255),b
  1293   007298                     
  1294                           ; BSR set to: 0
  1295                           ;main_piee2.c: 167:         if(modo_operacao == 0) {
  1296   007298  505F               	movf	_modo_operacao^0,w,c
  1297   00729A  A4D8               	btfss	status,2,c
  1298   00729C  EF52  F039         	goto	u2341
  1299   0072A0  EF54  F039         	goto	u2340
  1300   0072A4                     u2341:
  1301   0072A4  EF58  F039         	goto	l3140
  1302   0072A8                     u2340:
  1303   0072A8                     
  1304                           ; BSR set to: 0
  1305                           ;main_piee2.c: 168:             Modo_Manual();
  1306   0072A8  EC3D  F03A         	call	_Modo_Manual	;wreg free
  1307                           
  1308                           ;main_piee2.c: 169:         } else {
  1309   0072AC  EF5A  F039         	goto	l3142
  1310   0072B0                     l3140:
  1311                           
  1312                           ; BSR set to: 0
  1313                           ;main_piee2.c: 170:             Sequenciador_Automatico();
  1314   0072B0  EC0A  F03B         	call	_Sequenciador_Automatico	;wreg free
  1315   0072B4                     l3142:
  1316                           
  1317                           ;main_piee2.c: 174:         static uint16_t blink_timer = 0;;main_piee2.c: 175:         
      +                          if(blink_timer++ >= 50) {
  1318   0072B4  0100               	movlb	0	; () banked
  1319   0072B6  5168               	movf	main@blink_timer& (0+255),w,b
  1320   0072B8  6FD8               	movwf	??_main& (0+255),b
  1321   0072BA  5169               	movf	(main@blink_timer+1)& (0+255),w,b
  1322   0072BC  6FD9               	movwf	(??_main+1)& (0+255),b
  1323   0072BE  4B68               	infsnz	main@blink_timer& (0+255),f,b
  1324   0072C0  2B69               	incf	(main@blink_timer+1)& (0+255),f,b
  1325   0072C2  51D9               	movf	(??_main+1)& (0+255),w,b
  1326   0072C4  E109               	bnz	u2350
  1327   0072C6  0E32               	movlw	50
  1328   0072C8  5DD8               	subwf	??_main& (0+255),w,b
  1329   0072CA  A0D8               	btfss	status,0,c
  1330   0072CC  EF6A  F039         	goto	u2351
  1331   0072D0  EF6C  F039         	goto	u2350
  1332   0072D4                     u2351:
  1333   0072D4  EF71  F039         	goto	l3148
  1334   0072D8                     u2350:
  1335   0072D8                     
  1336                           ; BSR set to: 0
  1337                           ;main_piee2.c: 176:             blink_timer = 0;
  1338   0072D8  0E00               	movlw	0
  1339   0072DA  6F69               	movwf	(main@blink_timer+1)& (0+255),b
  1340   0072DC  0E00               	movlw	0
  1341   0072DE  6F68               	movwf	main@blink_timer& (0+255),b
  1342   0072E0                     
  1343                           ; BSR set to: 0
  1344                           ;main_piee2.c: 177:             LATD1 ^= 1;
  1345   0072E0  728C               	btg	3980,1,c	;volatile
  1346   0072E2                     l3148:
  1347                           
  1348                           ; BSR set to: 0
  1349                           ;main_piee2.c: 181:         MSdelay(10);
  1350   0072E2  0E00               	movlw	0
  1351   0072E4  6E02               	movwf	(MSdelay@val+1)^0,c
  1352   0072E6  0E0A               	movlw	10
  1353   0072E8  6E01               	movwf	MSdelay@val^0,c
  1354   0072EA  ECD6  F033         	call	_MSdelay	;wreg free
  1355   0072EE                     
  1356                           ;main_piee2.c: 182:         temporizador++;
  1357   0072EE  0100               	movlb	0	; () banked
  1358   0072F0  4B6C               	infsnz	_temporizador& (0+255),f,b
  1359   0072F2  2B6D               	incf	(_temporizador+1)& (0+255),f,b
  1360   0072F4  EFD9  F038         	goto	l3100
  1361   0072F8  EF00  F000         	goto	start
  1362   0072FC                     __end_of_main:
  1363                           	callstack 0
  1364                           
  1365 ;; *************** function _Verificar_Falha_Pressao *****************
  1366 ;; Defined at:
  1367 ;;		line 573 in file "main_piee2.c"
  1368 ;; Parameters:    Size  Location     Type
  1369 ;;		None
  1370 ;; Auto vars:     Size  Location     Type
  1371 ;;		None
  1372 ;; Return value:  Size  Location     Type
  1373 ;;                  1    wreg      void 
  1374 ;; Registers used:
  1375 ;;		wreg, status,2, status,0
  1376 ;; Tracked objects:
  1377 ;;		On entry : 0/0
  1378 ;;		On exit  : 0/0
  1379 ;;		Unchanged: 0/0
  1380 ;; Data sizes:     COMRAM   BANK0   BANK1   BANK2   BANK3   BANK4   BANK5   BANK6   BANK7
  1381 ;;      Params:         0       0       0       0       0       0       0       0       0
  1382 ;;      Locals:         0       0       0       0       0       0       0       0       0
  1383 ;;      Temps:          0       0       0       0       0       0       0       0       0
  1384 ;;      Totals:         0       0       0       0       0       0       0       0       0
  1385 ;;Total ram usage:        0 bytes
  1386 ;; Hardware stack levels used: 1
  1387 ;; This function calls:
  1388 ;;		Nothing
  1389 ;; This function is called by:
  1390 ;;		_main
  1391 ;; This function uses a non-reentrant model
  1392 ;;
  1393                           
  1394                           	psect	text1
  1395   00650E                     __ptext1:
  1396                           	callstack 0
  1397   00650E                     _Verificar_Falha_Pressao:
  1398                           	callstack 30
  1399   00650E                     
  1400                           ;main_piee2.c: 575:     if(adc_pressao > 819) {
  1401   00650E  0E34               	movlw	52
  1402   006510  0100               	movlb	0	; () banked
  1403   006512  5D6A               	subwf	_adc_pressao& (0+255),w,b
  1404   006514  0E03               	movlw	3
  1405   006516  596B               	subwfb	(_adc_pressao+1)& (0+255),w,b
  1406   006518  A0D8               	btfss	status,0,c
  1407   00651A  EF91  F032         	goto	u2081
  1408   00651E  EF93  F032         	goto	u2080
  1409   006522                     u2081:
  1410   006522  EF98  F032         	goto	l2962
  1411   006526                     u2080:
  1412   006526                     
  1413                           ; BSR set to: 0
  1414                           ;main_piee2.c: 576:         falha_pressao = 1;
  1415   006526  0E01               	movlw	1
  1416   006528  6F73               	movwf	_falha_pressao& (0+255),b
  1417   00652A                     
  1418                           ; BSR set to: 0
  1419                           ;main_piee2.c: 577:         LATD2 = 1;
  1420   00652A  848C               	bsf	3980,2,c	;volatile
  1421                           
  1422                           ;main_piee2.c: 578:     } else {
  1423   00652C  EF9B  F032         	goto	l268
  1424   006530                     l2962:
  1425                           
  1426                           ; BSR set to: 0
  1427                           ;main_piee2.c: 579:         falha_pressao = 0;
  1428   006530  0E00               	movlw	0
  1429   006532  6F73               	movwf	_falha_pressao& (0+255),b
  1430   006534                     
  1431                           ; BSR set to: 0
  1432                           ;main_piee2.c: 580:         LATD2 = 0;
  1433   006534  948C               	bcf	3980,2,c	;volatile
  1434   006536                     l268:
  1435                           
  1436                           ; BSR set to: 0
  1437   006536  0012               	return		;funcret
  1438   006538                     __end_of_Verificar_Falha_Pressao:
  1439                           	callstack 0
  1440                           
  1441 ;; *************** function _System_Init *****************
  1442 ;; Defined at:
  1443 ;;		line 189 in file "main_piee2.c"
  1444 ;; Parameters:    Size  Location     Type
  1445 ;;		None
  1446 ;; Auto vars:     Size  Location     Type
  1447 ;;		None
  1448 ;; Return value:  Size  Location     Type
  1449 ;;                  1    wreg      void 
  1450 ;; Registers used:
  1451 ;;		wreg, status,2, status,0, cstack
  1452 ;; Tracked objects:
  1453 ;;		On entry : 0/0
  1454 ;;		On exit  : 0/0
  1455 ;;		Unchanged: 0/0
  1456 ;; Data sizes:     COMRAM   BANK0   BANK1   BANK2   BANK3   BANK4   BANK5   BANK6   BANK7
  1457 ;;      Params:         0       0       0       0       0       0       0       0       0
  1458 ;;      Locals:         0       0       0       0       0       0       0       0       0
  1459 ;;      Temps:          0       0       0       0       0       0       0       0       0
  1460 ;;      Totals:         0       0       0       0       0       0       0       0       0
  1461 ;;Total ram usage:        0 bytes
  1462 ;; Hardware stack levels used: 1
  1463 ;; Hardware stack levels required when called: 4
  1464 ;; This function calls:
  1465 ;;		_ADC_Init
  1466 ;;		_I2C_Init
  1467 ;;		_LCD_Init
  1468 ;;		_Ler_Contador_EEPROM
  1469 ;;		_RTC_Init
  1470 ;; This function is called by:
  1471 ;;		_main
  1472 ;; This function uses a non-reentrant model
  1473 ;;
  1474                           
  1475                           	psect	text2
  1476   0065C6                     __ptext2:
  1477                           	callstack 0
  1478   0065C6                     _System_Init:
  1479                           	callstack 26
  1480   0065C6                     
  1481                           ;main_piee2.c: 191:     TRISD = 0x00;
  1482   0065C6  0E00               	movlw	0
  1483   0065C8  6E95               	movwf	149,c	;volatile
  1484                           
  1485                           ;main_piee2.c: 192:     TRISC = 0x00;
  1486   0065CA  0E00               	movlw	0
  1487   0065CC  6E94               	movwf	148,c	;volatile
  1488                           
  1489                           ;main_piee2.c: 193:     PORTC = 0x00;
  1490   0065CE  0E00               	movlw	0
  1491   0065D0  6E82               	movwf	130,c	;volatile
  1492                           
  1493                           ;main_piee2.c: 194:     PORTD = 0x00;
  1494   0065D2  0E00               	movlw	0
  1495   0065D4  6E83               	movwf	131,c	;volatile
  1496   0065D6                     
  1497                           ;main_piee2.c: 197:     TRISAbits.TRISA2 = 1;
  1498   0065D6  8492               	bsf	146,2,c	;volatile
  1499   0065D8                     
  1500                           ;main_piee2.c: 198:     TRISAbits.TRISA3 = 1;
  1501   0065D8  8692               	bsf	146,3,c	;volatile
  1502   0065DA                     
  1503                           ;main_piee2.c: 199:     TRISAbits.TRISA4 = 1;
  1504   0065DA  8892               	bsf	146,4,c	;volatile
  1505   0065DC                     
  1506                           ;main_piee2.c: 200:     TRISAbits.TRISA5 = 1;
  1507   0065DC  8A92               	bsf	146,5,c	;volatile
  1508   0065DE                     
  1509                           ;main_piee2.c: 201:     TRISAbits.TRISA6 = 1;
  1510   0065DE  8C92               	bsf	146,6,c	;volatile
  1511   0065E0                     
  1512                           ;main_piee2.c: 202:     TRISAbits.TRISA0 = 1;
  1513   0065E0  8092               	bsf	146,0,c	;volatile
  1514   0065E2                     
  1515                           ;main_piee2.c: 205:     LCD_Init();
  1516   0065E2  ECB3  F032         	call	_LCD_Init	;wreg free
  1517   0065E6                     
  1518                           ;main_piee2.c: 206:     RTC_Init();
  1519   0065E6  EC52  F032         	call	_RTC_Init	;wreg free
  1520   0065EA                     
  1521                           ;main_piee2.c: 207:     ADC_Init();
  1522   0065EA  ECF6  F031         	call	_ADC_Init	;wreg free
  1523   0065EE                     
  1524                           ;main_piee2.c: 208:     I2C_Init();
  1525   0065EE  EC3A  F032         	call	_I2C_Init	;wreg free
  1526   0065F2                     
  1527                           ;main_piee2.c: 211:     Ler_Contador_EEPROM();
  1528   0065F2  EC94  F034         	call	_Ler_Contador_EEPROM	;wreg free
  1529   0065F6  0012               	return		;funcret
  1530   0065F8                     __end_of_System_Init:
  1531                           	callstack 0
  1532                           
  1533 ;; *************** function _RTC_Init *****************
  1534 ;; Defined at:
  1535 ;;		line 511 in file "main_piee2.c"
  1536 ;; Parameters:    Size  Location     Type
  1537 ;;		None
  1538 ;; Auto vars:     Size  Location     Type
  1539 ;;		None
  1540 ;; Return value:  Size  Location     Type
  1541 ;;                  1    wreg      void 
  1542 ;; Registers used:
  1543 ;;		wreg, status,2, cstack
  1544 ;; Tracked objects:
  1545 ;;		On entry : 0/0
  1546 ;;		On exit  : 0/0
  1547 ;;		Unchanged: 0/0
  1548 ;; Data sizes:     COMRAM   BANK0   BANK1   BANK2   BANK3   BANK4   BANK5   BANK6   BANK7
  1549 ;;      Params:         0       0       0       0       0       0       0       0       0
  1550 ;;      Locals:         0       0       0       0       0       0       0       0       0
  1551 ;;      Temps:          0       0       0       0       0       0       0       0       0
  1552 ;;      Totals:         0       0       0       0       0       0       0       0       0
  1553 ;;Total ram usage:        0 bytes
  1554 ;; Hardware stack levels used: 1
  1555 ;; Hardware stack levels required when called: 2
  1556 ;; This function calls:
  1557 ;;		_I2C_Init
  1558 ;;		_I2C_Start
  1559 ;;		_I2C_Stop
  1560 ;;		_I2C_Write
  1561 ;; This function is called by:
  1562 ;;		_System_Init
  1563 ;; This function uses a non-reentrant model
  1564 ;;
  1565                           
  1566                           	psect	text3
  1567   0064A4                     __ptext3:
  1568                           	callstack 0
  1569   0064A4                     _RTC_Init:
  1570                           	callstack 27
  1571   0064A4                     
  1572                           ;main_piee2.c: 512:     I2C_Init();
  1573   0064A4  EC3A  F032         	call	_I2C_Init	;wreg free
  1574   0064A8                     
  1575                           ;main_piee2.c: 514:     I2C_Start();
  1576   0064A8  EC0A  F032         	call	_I2C_Start	;wreg free
  1577   0064AC                     
  1578                           ;main_piee2.c: 515:     I2C_Write(0xD0);
  1579   0064AC  0ED0               	movlw	208
  1580   0064AE  EC45  F032         	call	_I2C_Write
  1581   0064B2                     
  1582                           ;main_piee2.c: 516:     I2C_Write(0x07);
  1583   0064B2  0E07               	movlw	7
  1584   0064B4  EC45  F032         	call	_I2C_Write
  1585   0064B8                     
  1586                           ;main_piee2.c: 517:     I2C_Write(0x00);
  1587   0064B8  0E00               	movlw	0
  1588   0064BA  EC45  F032         	call	_I2C_Write
  1589   0064BE                     
  1590                           ;main_piee2.c: 518:     I2C_Stop();
  1591   0064BE  EC13  F032         	call	_I2C_Stop	;wreg free
  1592   0064C2  0012               	return		;funcret
  1593   0064C4                     __end_of_RTC_Init:
  1594                           	callstack 0
  1595                           
  1596 ;; *************** function _I2C_Init *****************
  1597 ;; Defined at:
  1598 ;;		line 46 in file "i2c.c"
  1599 ;; Parameters:    Size  Location     Type
  1600 ;;		None
  1601 ;; Auto vars:     Size  Location     Type
  1602 ;;		None
  1603 ;; Return value:  Size  Location     Type
  1604 ;;                  1    wreg      void 
  1605 ;; Registers used:
  1606 ;;		wreg, status,2
  1607 ;; Tracked objects:
  1608 ;;		On entry : 0/0
  1609 ;;		On exit  : 0/0
  1610 ;;		Unchanged: 0/0
  1611 ;; Data sizes:     COMRAM   BANK0   BANK1   BANK2   BANK3   BANK4   BANK5   BANK6   BANK7
  1612 ;;      Params:         0       0       0       0       0       0       0       0       0
  1613 ;;      Locals:         0       0       0       0       0       0       0       0       0
  1614 ;;      Temps:          0       0       0       0       0       0       0       0       0
  1615 ;;      Totals:         0       0       0       0       0       0       0       0       0
  1616 ;;Total ram usage:        0 bytes
  1617 ;; Hardware stack levels used: 1
  1618 ;; This function calls:
  1619 ;;		Nothing
  1620 ;; This function is called by:
  1621 ;;		_System_Init
  1622 ;;		_RTC_Init
  1623 ;; This function uses a non-reentrant model
  1624 ;;
  1625                           
  1626                           	psect	text4
  1627   006474                     __ptext4:
  1628                           	callstack 0
  1629   006474                     _I2C_Init:
  1630                           	callstack 28
  1631   006474                     
  1632                           ;i2c.c: 48:  (TRISBbits.TRISB1) = 0x01u;
  1633   006474  8293               	bsf	147,1,c	;volatile
  1634                           
  1635                           ;i2c.c: 49:  (TRISBbits.TRISB0) = 0x01u;
  1636   006476  8093               	bsf	147,0,c	;volatile
  1637   006478                     
  1638                           ;i2c.c: 51:  SSPSTAT = 0x80;
  1639   006478  0E80               	movlw	128
  1640   00647A  6EC7               	movwf	199,c	;volatile
  1641                           
  1642                           ;i2c.c: 52:  SSPCON1 = 0x28;
  1643   00647C  0E28               	movlw	40
  1644   00647E  6EC6               	movwf	198,c	;volatile
  1645                           
  1646                           ;i2c.c: 53:     SSPCON2 = 0x00;
  1647   006480  0E00               	movlw	0
  1648   006482  6EC5               	movwf	197,c	;volatile
  1649                           
  1650                           ;i2c.c: 59:  SSPADD = 4;
  1651   006484  0E04               	movlw	4
  1652   006486  6EC8               	movwf	200,c	;volatile
  1653   006488  0012               	return		;funcret
  1654   00648A                     __end_of_I2C_Init:
  1655                           	callstack 0
  1656                           
  1657 ;; *************** function _Ler_Contador_EEPROM *****************
  1658 ;; Defined at:
  1659 ;;		line 494 in file "main_piee2.c"
  1660 ;; Parameters:    Size  Location     Type
  1661 ;;		None
  1662 ;; Auto vars:     Size  Location     Type
  1663 ;;  low             1    8[COMRAM] unsigned char 
  1664 ;;  high            1    7[COMRAM] unsigned char 
  1665 ;; Return value:  Size  Location     Type
  1666 ;;                  1    wreg      void 
  1667 ;; Registers used:
  1668 ;;		wreg, status,2, status,0, cstack
  1669 ;; Tracked objects:
  1670 ;;		On entry : 0/0
  1671 ;;		On exit  : 0/0
  1672 ;;		Unchanged: 0/0
  1673 ;; Data sizes:     COMRAM   BANK0   BANK1   BANK2   BANK3   BANK4   BANK5   BANK6   BANK7
  1674 ;;      Params:         0       0       0       0       0       0       0       0       0
  1675 ;;      Locals:         2       0       0       0       0       0       0       0       0
  1676 ;;      Temps:          2       0       0       0       0       0       0       0       0
  1677 ;;      Totals:         4       0       0       0       0       0       0       0       0
  1678 ;;Total ram usage:        4 bytes
  1679 ;; Hardware stack levels used: 1
  1680 ;; Hardware stack levels required when called: 3
  1681 ;; This function calls:
  1682 ;;		_Ler_EEPROM
  1683 ;; This function is called by:
  1684 ;;		_System_Init
  1685 ;; This function uses a non-reentrant model
  1686 ;;
  1687                           
  1688                           	psect	text5
  1689   006928                     __ptext5:
  1690                           	callstack 0
  1691   006928                     _Ler_Contador_EEPROM:
  1692                           	callstack 26
  1693   006928                     
  1694                           ;main_piee2.c: 495:     uint8_t high = Ler_EEPROM(0x0000);
  1695   006928  0E00               	movlw	0
  1696   00692A  6E04               	movwf	(Ler_EEPROM@endereco+1)^0,c
  1697   00692C  0E00               	movlw	0
  1698   00692E  6E03               	movwf	Ler_EEPROM@endereco^0,c
  1699   006930  ECCB  F032         	call	_Ler_EEPROM	;wreg free
  1700   006934  6E08               	movwf	Ler_Contador_EEPROM@high^0,c
  1701                           
  1702                           ;main_piee2.c: 496:     uint8_t low = Ler_EEPROM(0x0000 + 1);
  1703   006936  0E00               	movlw	0
  1704   006938  6E04               	movwf	(Ler_EEPROM@endereco+1)^0,c
  1705   00693A  0E01               	movlw	1
  1706   00693C  6E03               	movwf	Ler_EEPROM@endereco^0,c
  1707   00693E  ECCB  F032         	call	_Ler_EEPROM	;wreg free
  1708   006942  6E09               	movwf	Ler_Contador_EEPROM@low^0,c
  1709   006944                     
  1710                           ;main_piee2.c: 497:     contador_ciclos = (high << 8) | low;
  1711   006944  5009               	movf	Ler_Contador_EEPROM@low^0,w,c
  1712   006946  C008  F006         	movff	Ler_Contador_EEPROM@high,??_Ler_Contador_EEPROM
  1713   00694A  6A07               	clrf	(??_Ler_Contador_EEPROM+1)^0,c
  1714   00694C  C006  F007         	movff	??_Ler_Contador_EEPROM,??_Ler_Contador_EEPROM+1
  1715   006950  6A06               	clrf	??_Ler_Contador_EEPROM^0,c
  1716   006952  1006               	iorwf	??_Ler_Contador_EEPROM^0,w,c
  1717   006954  0100               	movlb	0	; () banked
  1718   006956  6F6E               	movwf	_contador_ciclos& (0+255),b
  1719   006958  5007               	movf	(??_Ler_Contador_EEPROM+1)^0,w,c
  1720   00695A  6F6F               	movwf	(_contador_ciclos+1)& (0+255),b
  1721   00695C                     
  1722                           ; BSR set to: 0
  1723                           ;main_piee2.c: 500:     if(contador_ciclos == 0xFFFF) {
  1724   00695C  296E               	incf	_contador_ciclos& (0+255),w,b
  1725   00695E  E106               	bnz	u2011
  1726   006960  296F               	incf	(_contador_ciclos+1)& (0+255),w,b
  1727   006962  A4D8               	btfss	status,2,c
  1728   006964  EFB6  F034         	goto	u2011
  1729   006968  EFB8  F034         	goto	u2010
  1730   00696C                     u2011:
  1731   00696C  EFBC  F034         	goto	l239
  1732   006970                     u2010:
  1733   006970                     
  1734                           ; BSR set to: 0
  1735                           ;main_piee2.c: 501:         contador_ciclos = 0;
  1736   006970  0E00               	movlw	0
  1737   006972  6F6F               	movwf	(_contador_ciclos+1)& (0+255),b
  1738   006974  0E00               	movlw	0
  1739   006976  6F6E               	movwf	_contador_ciclos& (0+255),b
  1740   006978                     l239:
  1741                           
  1742                           ; BSR set to: 0
  1743   006978  0012               	return		;funcret
  1744   00697A                     __end_of_Ler_Contador_EEPROM:
  1745                           	callstack 0
  1746                           
  1747 ;; *************** function _Ler_EEPROM *****************
  1748 ;; Defined at:
  1749 ;;		line 468 in file "main_piee2.c"
  1750 ;; Parameters:    Size  Location     Type
  1751 ;;  endereco        2    2[COMRAM] unsigned short 
  1752 ;; Auto vars:     Size  Location     Type
  1753 ;;  dado            1    4[COMRAM] unsigned char 
  1754 ;; Return value:  Size  Location     Type
  1755 ;;                  1    wreg      unsigned char 
  1756 ;; Registers used:
  1757 ;;		wreg, status,2, status,0, cstack
  1758 ;; Tracked objects:
  1759 ;;		On entry : 0/0
  1760 ;;		On exit  : 0/0
  1761 ;;		Unchanged: 0/0
  1762 ;; Data sizes:     COMRAM   BANK0   BANK1   BANK2   BANK3   BANK4   BANK5   BANK6   BANK7
  1763 ;;      Params:         2       0       0       0       0       0       0       0       0
  1764 ;;      Locals:         1       0       0       0       0       0       0       0       0
  1765 ;;      Temps:          0       0       0       0       0       0       0       0       0
  1766 ;;      Totals:         3       0       0       0       0       0       0       0       0
  1767 ;;Total ram usage:        3 bytes
  1768 ;; Hardware stack levels used: 1
  1769 ;; Hardware stack levels required when called: 2
  1770 ;; This function calls:
  1771 ;;		_I2C_Read
  1772 ;;		_I2C_Restart
  1773 ;;		_I2C_Start
  1774 ;;		_I2C_Stop
  1775 ;;		_I2C_Write
  1776 ;; This function is called by:
  1777 ;;		_Ler_Contador_EEPROM
  1778 ;; This function uses a non-reentrant model
  1779 ;;
  1780                           
  1781                           	psect	text6
  1782   006596                     __ptext6:
  1783                           	callstack 0
  1784   006596                     _Ler_EEPROM:
  1785                           	callstack 26
  1786   006596                     
  1787                           ;main_piee2.c: 469:     uint8_t dado;;main_piee2.c: 471:     I2C_Start();
  1788   006596  EC0A  F032         	call	_I2C_Start	;wreg free
  1789   00659A                     
  1790                           ;main_piee2.c: 472:     I2C_Write(0xA0);
  1791   00659A  0EA0               	movlw	160
  1792   00659C  EC45  F032         	call	_I2C_Write
  1793   0065A0                     
  1794                           ;main_piee2.c: 473:     I2C_Write((endereco >> 8) & 0xFF);
  1795   0065A0  5004               	movf	(Ler_EEPROM@endereco+1)^0,w,c
  1796   0065A2  EC45  F032         	call	_I2C_Write
  1797   0065A6                     
  1798                           ;main_piee2.c: 474:     I2C_Write(endereco & 0xFF);
  1799   0065A6  5003               	movf	Ler_EEPROM@endereco^0,w,c
  1800   0065A8  EC45  F032         	call	_I2C_Write
  1801   0065AC                     
  1802                           ;main_piee2.c: 475:     I2C_Restart();
  1803   0065AC  EC01  F032         	call	_I2C_Restart	;wreg free
  1804                           
  1805                           ;main_piee2.c: 476:     I2C_Write(0xA1);
  1806   0065B0  0EA1               	movlw	161
  1807   0065B2  EC45  F032         	call	_I2C_Write
  1808   0065B6                     
  1809                           ;main_piee2.c: 477:     dado = I2C_Read(0);
  1810   0065B6  0E00               	movlw	0
  1811   0065B8  EC33  F033         	call	_I2C_Read
  1812   0065BC  6E05               	movwf	Ler_EEPROM@dado^0,c
  1813   0065BE                     
  1814                           ;main_piee2.c: 478:     I2C_Stop();
  1815   0065BE  EC13  F032         	call	_I2C_Stop	;wreg free
  1816   0065C2                     
  1817                           ;main_piee2.c: 480:     return dado;
  1818   0065C2  5005               	movf	Ler_EEPROM@dado^0,w,c
  1819   0065C4  0012               	return		;funcret
  1820   0065C6                     __end_of_Ler_EEPROM:
  1821                           	callstack 0
  1822                           
  1823 ;; *************** function _LCD_Init *****************
  1824 ;; Defined at:
  1825 ;;		line 14 in file "lcd_4b.c"
  1826 ;; Parameters:    Size  Location     Type
  1827 ;;		None
  1828 ;; Auto vars:     Size  Location     Type
  1829 ;;		None
  1830 ;; Return value:  Size  Location     Type
  1831 ;;                  1    wreg      void 
  1832 ;; Registers used:
  1833 ;;		wreg, status,2, status,0, cstack
  1834 ;; Tracked objects:
  1835 ;;		On entry : 0/0
  1836 ;;		On exit  : 0/0
  1837 ;;		Unchanged: 0/0
  1838 ;; Data sizes:     COMRAM   BANK0   BANK1   BANK2   BANK3   BANK4   BANK5   BANK6   BANK7
  1839 ;;      Params:         0       0       0       0       0       0       0       0       0
  1840 ;;      Locals:         0       0       0       0       0       0       0       0       0
  1841 ;;      Temps:          0       0       0       0       0       0       0       0       0
  1842 ;;      Totals:         0       0       0       0       0       0       0       0       0
  1843 ;;Total ram usage:        0 bytes
  1844 ;; Hardware stack levels used: 1
  1845 ;; Hardware stack levels required when called: 2
  1846 ;; This function calls:
  1847 ;;		_LCD_Command
  1848 ;;		_MSdelay
  1849 ;; This function is called by:
  1850 ;;		_System_Init
  1851 ;; This function uses a non-reentrant model
  1852 ;;
  1853                           
  1854                           	psect	text7
  1855   006566                     __ptext7:
  1856                           	callstack 0
  1857   006566                     _LCD_Init:
  1858                           	callstack 27
  1859   006566                     
  1860                           ;lcd_4b.c: 16:     TRISB = 0;
  1861   006566  0E00               	movlw	0
  1862   006568  6E93               	movwf	147,c	;volatile
  1863   00656A                     
  1864                           ;lcd_4b.c: 17:     MSdelay(15);
  1865   00656A  0E00               	movlw	0
  1866   00656C  6E02               	movwf	(MSdelay@val+1)^0,c
  1867   00656E  0E0F               	movlw	15
  1868   006570  6E01               	movwf	MSdelay@val^0,c
  1869   006572  ECD6  F033         	call	_MSdelay	;wreg free
  1870   006576                     
  1871                           ;lcd_4b.c: 18:     LCD_Command(0x02);
  1872   006576  0E02               	movlw	2
  1873   006578  EC21  F034         	call	_LCD_Command
  1874   00657C                     
  1875                           ;lcd_4b.c: 19:     LCD_Command(0x28);
  1876   00657C  0E28               	movlw	40
  1877   00657E  EC21  F034         	call	_LCD_Command
  1878   006582                     
  1879                           ;lcd_4b.c: 21:  LCD_Command(0x01);
  1880   006582  0E01               	movlw	1
  1881   006584  EC21  F034         	call	_LCD_Command
  1882   006588                     
  1883                           ;lcd_4b.c: 22:     LCD_Command(0x0c);
  1884   006588  0E0C               	movlw	12
  1885   00658A  EC21  F034         	call	_LCD_Command
  1886   00658E                     
  1887                           ;lcd_4b.c: 23:  LCD_Command(0x06);
  1888   00658E  0E06               	movlw	6
  1889   006590  EC21  F034         	call	_LCD_Command
  1890   006594  0012               	return		;funcret
  1891   006596                     __end_of_LCD_Init:
  1892                           	callstack 0
  1893                           
  1894 ;; *************** function _ADC_Init *****************
  1895 ;; Defined at:
  1896 ;;		line 558 in file "main_piee2.c"
  1897 ;; Parameters:    Size  Location     Type
  1898 ;;		None
  1899 ;; Auto vars:     Size  Location     Type
  1900 ;;		None
  1901 ;; Return value:  Size  Location     Type
  1902 ;;                  1    wreg      void 
  1903 ;; Registers used:
  1904 ;;		wreg, status,2
  1905 ;; Tracked objects:
  1906 ;;		On entry : 0/0
  1907 ;;		On exit  : 0/0
  1908 ;;		Unchanged: 0/0
  1909 ;; Data sizes:     COMRAM   BANK0   BANK1   BANK2   BANK3   BANK4   BANK5   BANK6   BANK7
  1910 ;;      Params:         0       0       0       0       0       0       0       0       0
  1911 ;;      Locals:         0       0       0       0       0       0       0       0       0
  1912 ;;      Temps:          0       0       0       0       0       0       0       0       0
  1913 ;;      Totals:         0       0       0       0       0       0       0       0       0
  1914 ;;Total ram usage:        0 bytes
  1915 ;; Hardware stack levels used: 1
  1916 ;; This function calls:
  1917 ;;		Nothing
  1918 ;; This function is called by:
  1919 ;;		_System_Init
  1920 ;; This function uses a non-reentrant model
  1921 ;;
  1922                           
  1923                           	psect	text8
  1924   0063EC                     __ptext8:
  1925                           	callstack 0
  1926   0063EC                     _ADC_Init:
  1927                           	callstack 29
  1928   0063EC                     
  1929                           ;main_piee2.c: 559:     ADCON1 = 0x0E;
  1930   0063EC  0E0E               	movlw	14
  1931   0063EE  6EC1               	movwf	193,c	;volatile
  1932                           
  1933                           ;main_piee2.c: 560:     ADCON2 = 0xBE;
  1934   0063F0  0EBE               	movlw	190
  1935   0063F2  6EC0               	movwf	192,c	;volatile
  1936   0063F4  0012               	return		;funcret
  1937   0063F6                     __end_of_ADC_Init:
  1938                           	callstack 0
  1939                           
  1940 ;; *************** function _Sequenciador_Automatico *****************
  1941 ;; Defined at:
  1942 ;;		line 326 in file "main_piee2.c"
  1943 ;; Parameters:    Size  Location     Type
  1944 ;;		None
  1945 ;; Auto vars:     Size  Location     Type
  1946 ;;		None
  1947 ;; Return value:  Size  Location     Type
  1948 ;;                  1    wreg      void 
  1949 ;; Registers used:
  1950 ;;		wreg, status,2, status,0, cstack
  1951 ;; Tracked objects:
  1952 ;;		On entry : 0/0
  1953 ;;		On exit  : 0/0
  1954 ;;		Unchanged: 0/0
  1955 ;; Data sizes:     COMRAM   BANK0   BANK1   BANK2   BANK3   BANK4   BANK5   BANK6   BANK7
  1956 ;;      Params:         0       0       0       0       0       0       0       0       0
  1957 ;;      Locals:         0       0       0       0       0       0       0       0       0
  1958 ;;      Temps:          2       0       0       0       0       0       0       0       0
  1959 ;;      Totals:         2       0       0       0       0       0       0       0       0
  1960 ;;Total ram usage:        2 bytes
  1961 ;; Hardware stack levels used: 1
  1962 ;; Hardware stack levels required when called: 4
  1963 ;; This function calls:
  1964 ;;		_Salvar_Contador_EEPROM
  1965 ;; This function is called by:
  1966 ;;		_main
  1967 ;; This function uses a non-reentrant model
  1968 ;;
  1969                           
  1970                           	psect	text9
  1971   007614                     __ptext9:
  1972                           	callstack 0
  1973   007614                     _Sequenciador_Automatico:
  1974                           	callstack 26
  1975   007614                     
  1976                           ;main_piee2.c: 327:     static uint8_t valvula_atual = 0;;main_piee2.c: 328:     static 
      +                          uint16_t estado_timer = 0;;main_piee2.c: 329:     static uint8_t estado = 0;;main_piee2.
      +                          c: 331:     if(falha_pressao) {
  1977   007614  0100               	movlb	0	; () banked
  1978   007616  5173               	movf	_falha_pressao& (0+255),w,b
  1979   007618  B4D8               	btfsc	status,2,c
  1980   00761A  EF11  F03B         	goto	u2201
  1981   00761E  EF13  F03B         	goto	u2200
  1982   007622                     u2201:
  1983   007622  EFC6  F03B         	goto	l3076
  1984   007626                     u2200:
  1985   007626                     
  1986                           ; BSR set to: 0
  1987                           ;main_piee2.c: 332:         ciclo_em_andamento = 0;
  1988   007626  0E00               	movlw	0
  1989   007628  6F74               	movwf	_ciclo_em_andamento& (0+255),b
  1990   00762A                     
  1991                           ; BSR set to: 0
  1992                           ;main_piee2.c: 333:         LATD3 = 0;
  1993   00762A  968C               	bcf	3980,3,c	;volatile
  1994                           
  1995                           ;main_piee2.c: 334:         PORTC = 0x00;
  1996   00762C  0E00               	movlw	0
  1997   00762E  6E82               	movwf	130,c	;volatile
  1998   007630                     
  1999                           ; BSR set to: 0
  2000                           ;main_piee2.c: 335:         LATD7 = 0;
  2001   007630  9E8C               	bcf	3980,7,c	;volatile
  2002   007632  EFDF  F03B         	goto	l182
  2003   007636                     l3038:
  2004                           
  2005                           ; BSR set to: 0
  2006                           ;main_piee2.c: 341:             ciclo_em_andamento = 0;
  2007   007636  0E00               	movlw	0
  2008   007638  6F74               	movwf	_ciclo_em_andamento& (0+255),b
  2009   00763A                     
  2010                           ; BSR set to: 0
  2011                           ;main_piee2.c: 342:             LATD3 = 0;
  2012   00763A  968C               	bcf	3980,3,c	;volatile
  2013   00763C                     
  2014                           ; BSR set to: 0
  2015                           ;main_piee2.c: 343:             if(estado_timer++ >= 3000) {
  2016   00763C  5164               	movf	Sequenciador_Automatico@estado_timer& (0+255),w,b
  2017   00763E  6E0A               	movwf	??_Sequenciador_Automatico^0,c
  2018   007640  5165               	movf	(Sequenciador_Automatico@estado_timer+1)& (0+255),w,b
  2019   007642  6E0B               	movwf	(??_Sequenciador_Automatico+1)^0,c
  2020   007644  4B64               	infsnz	Sequenciador_Automatico@estado_timer& (0+255),f,b
  2021   007646  2B65               	incf	(Sequenciador_Automatico@estado_timer+1)& (0+255),f,b
  2022   007648  0EB8               	movlw	184
  2023   00764A  5C0A               	subwf	??_Sequenciador_Automatico^0,w,c
  2024   00764C  0E0B               	movlw	11
  2025   00764E  580B               	subwfb	(??_Sequenciador_Automatico+1)^0,w,c
  2026   007650  A0D8               	btfss	status,0,c
  2027   007652  EF2D  F03B         	goto	u2211
  2028   007656  EF2F  F03B         	goto	u2210
  2029   00765A                     u2211:
  2030   00765A  EFDF  F03B         	goto	l182
  2031   00765E                     u2210:
  2032   00765E                     
  2033                           ; BSR set to: 0
  2034                           ;main_piee2.c: 344:                 estado = 1;
  2035   00765E  0E01               	movlw	1
  2036   007660  6F71               	movwf	Sequenciador_Automatico@estado& (0+255),b
  2037                           
  2038                           ;main_piee2.c: 345:                 estado_timer = 0;
  2039   007662  0E00               	movlw	0
  2040   007664  6F65               	movwf	(Sequenciador_Automatico@estado_timer+1)& (0+255),b
  2041   007666  0E00               	movlw	0
  2042   007668  6F64               	movwf	Sequenciador_Automatico@estado_timer& (0+255),b
  2043                           
  2044                           ;main_piee2.c: 346:                 valvula_atual = 0;
  2045   00766A  0E00               	movlw	0
  2046   00766C  6F72               	movwf	Sequenciador_Automatico@valvula_atual& (0+255),b
  2047                           
  2048                           ;main_piee2.c: 347:                 ciclo_em_andamento = 1;
  2049   00766E  0E01               	movlw	1
  2050   007670  6F74               	movwf	_ciclo_em_andamento& (0+255),b
  2051   007672                     
  2052                           ; BSR set to: 0
  2053                           ;main_piee2.c: 348:                 LATD3 = 1;
  2054   007672  868C               	bsf	3980,3,c	;volatile
  2055   007674                     
  2056                           ; BSR set to: 0
  2057                           ;main_piee2.c: 349:                 contador_ciclos++;
  2058   007674  4B6E               	infsnz	_contador_ciclos& (0+255),f,b
  2059   007676  2B6F               	incf	(_contador_ciclos+1)& (0+255),f,b
  2060   007678                     
  2061                           ; BSR set to: 0
  2062                           ;main_piee2.c: 350:                 Salvar_Contador_EEPROM();
  2063   007678  EC62  F032         	call	_Salvar_Contador_EEPROM	;wreg free
  2064   00767C  EFDF  F03B         	goto	l182
  2065   007680                     l189:
  2066                           
  2067                           ; BSR set to: 0
  2068   007680  808B               	bsf	3979,0,c	;volatile
  2069   007682  EF7F  F03B         	goto	l3056
  2070   007686                     l191:
  2071                           
  2072                           ; BSR set to: 0
  2073   007686  828B               	bsf	3979,1,c	;volatile
  2074   007688  EF7F  F03B         	goto	l3056
  2075   00768C                     l192:
  2076                           
  2077                           ; BSR set to: 0
  2078   00768C  848B               	bsf	3979,2,c	;volatile
  2079   00768E  EF7F  F03B         	goto	l3056
  2080   007692                     l195:
  2081                           
  2082                           ; BSR set to: 0
  2083   007692  8C8B               	bsf	3979,6,c	;volatile
  2084   007694  EF7F  F03B         	goto	l3056
  2085   007698                     l196:
  2086                           
  2087                           ; BSR set to: 0
  2088   007698  8E8B               	bsf	3979,7,c	;volatile
  2089   00769A  EF7F  F03B         	goto	l3056
  2090   00769E                     l197:
  2091                           
  2092                           ; BSR set to: 0
  2093   00769E  8E8C               	bsf	3980,7,c	;volatile
  2094   0076A0  EF7F  F03B         	goto	l3056
  2095   0076A4                     l3054:
  2096                           
  2097                           ; BSR set to: 0
  2098   0076A4  5172               	movf	Sequenciador_Automatico@valvula_atual& (0+255),w,b
  2099   0076A6  6E0A               	movwf	??_Sequenciador_Automatico^0,c
  2100   0076A8  6A0B               	clrf	(??_Sequenciador_Automatico+1)^0,c
  2101                           
  2102                           ; Switch on 2 bytes has been partitioned into a top level switch of size 1, and 1 sub-sw
      +                          itches
  2103                           ; Switch size 1, requested type "simple"
  2104                           ; Number of cases is 1, Range of values is 0 to 0
  2105                           ; switch strategies available:
  2106                           ; Name         Instructions Cycles
  2107                           ; simple_byte            4     3 (average)
  2108                           ;	Chosen strategy is simple_byte
  2109   0076AA  500B               	movf	(??_Sequenciador_Automatico+1)^0,w,c
  2110   0076AC  0A00               	xorlw	0	; case 0
  2111   0076AE  B4D8               	btfsc	status,2,c
  2112   0076B0  EF5C  F03B         	goto	l3320
  2113   0076B4  EF7F  F03B         	goto	l3056
  2114   0076B8                     l3320:
  2115                           
  2116                           ; BSR set to: 0
  2117                           ; Switch size 1, requested type "simple"
  2118                           ; Number of cases is 8, Range of values is 0 to 7
  2119                           ; switch strategies available:
  2120                           ; Name         Instructions Cycles
  2121                           ; simple_byte           25    13 (average)
  2122                           ;	Chosen strategy is simple_byte
  2123   0076B8  500A               	movf	??_Sequenciador_Automatico^0,w,c
  2124   0076BA  0A00               	xorlw	0	; case 0
  2125   0076BC  B4D8               	btfsc	status,2,c
  2126   0076BE  EF40  F03B         	goto	l189
  2127   0076C2  0A01               	xorlw	1	; case 1
  2128   0076C4  B4D8               	btfsc	status,2,c
  2129   0076C6  EF43  F03B         	goto	l191
  2130   0076CA  0A03               	xorlw	3	; case 2
  2131   0076CC  B4D8               	btfsc	status,2,c
  2132   0076CE  EF46  F03B         	goto	l192
  2133   0076D2  0A01               	xorlw	1	; case 3
  2134   0076D4  B4D8               	btfsc	status,2,c
  2135   0076D6  EF46  F03B         	goto	l192
  2136   0076DA  0A07               	xorlw	7	; case 4
  2137   0076DC  B4D8               	btfsc	status,2,c
  2138   0076DE  EF46  F03B         	goto	l192
  2139   0076E2  0A01               	xorlw	1	; case 5
  2140   0076E4  B4D8               	btfsc	status,2,c
  2141   0076E6  EF49  F03B         	goto	l195
  2142   0076EA  0A03               	xorlw	3	; case 6
  2143   0076EC  B4D8               	btfsc	status,2,c
  2144   0076EE  EF4C  F03B         	goto	l196
  2145   0076F2  0A01               	xorlw	1	; case 7
  2146   0076F4  B4D8               	btfsc	status,2,c
  2147   0076F6  EF4F  F03B         	goto	l197
  2148   0076FA  EF7F  F03B         	goto	l3056
  2149   0076FE                     l3056:
  2150                           
  2151                           ; BSR set to: 0
  2152                           ;main_piee2.c: 367:             if(estado_timer++ >= 200) {
  2153   0076FE  5164               	movf	Sequenciador_Automatico@estado_timer& (0+255),w,b
  2154   007700  6E0A               	movwf	??_Sequenciador_Automatico^0,c
  2155   007702  5165               	movf	(Sequenciador_Automatico@estado_timer+1)& (0+255),w,b
  2156   007704  6E0B               	movwf	(??_Sequenciador_Automatico+1)^0,c
  2157   007706  4B64               	infsnz	Sequenciador_Automatico@estado_timer& (0+255),f,b
  2158   007708  2B65               	incf	(Sequenciador_Automatico@estado_timer+1)& (0+255),f,b
  2159   00770A  500B               	movf	(??_Sequenciador_Automatico+1)^0,w,c
  2160   00770C  E109               	bnz	u2220
  2161   00770E  0EC8               	movlw	200
  2162   007710  5C0A               	subwf	??_Sequenciador_Automatico^0,w,c
  2163   007712  A0D8               	btfss	status,0,c
  2164   007714  EF8E  F03B         	goto	u2221
  2165   007718  EF90  F03B         	goto	u2220
  2166   00771C                     u2221:
  2167   00771C  EFDF  F03B         	goto	l182
  2168   007720                     u2220:
  2169   007720                     
  2170                           ; BSR set to: 0
  2171                           ;main_piee2.c: 369:                 PORTC = 0x00;
  2172   007720  0E00               	movlw	0
  2173   007722  6E82               	movwf	130,c	;volatile
  2174   007724                     
  2175                           ; BSR set to: 0
  2176                           ;main_piee2.c: 370:                 LATD7 = 0;
  2177   007724  9E8C               	bcf	3980,7,c	;volatile
  2178                           
  2179                           ;main_piee2.c: 372:                 estado = 2;
  2180   007726  0E02               	movlw	2
  2181   007728  6F71               	movwf	Sequenciador_Automatico@estado& (0+255),b
  2182                           
  2183                           ;main_piee2.c: 373:                 estado_timer = 0;
  2184   00772A  0E00               	movlw	0
  2185   00772C  6F65               	movwf	(Sequenciador_Automatico@estado_timer+1)& (0+255),b
  2186   00772E  0E00               	movlw	0
  2187   007730  6F64               	movwf	Sequenciador_Automatico@estado_timer& (0+255),b
  2188   007732                     
  2189                           ; BSR set to: 0
  2190                           ;main_piee2.c: 374:                 valvula_atual++;
  2191   007732  2B72               	incf	Sequenciador_Automatico@valvula_atual& (0+255),f,b
  2192   007734                     
  2193                           ; BSR set to: 0
  2194                           ;main_piee2.c: 376:                 if(valvula_atual >= 8) {
  2195   007734  0E07               	movlw	7
  2196   007736  6572               	cpfsgt	Sequenciador_Automatico@valvula_atual& (0+255),b
  2197   007738  EFA0  F03B         	goto	u2231
  2198   00773C  EFA2  F03B         	goto	u2230
  2199   007740                     u2231:
  2200   007740  EFDF  F03B         	goto	l182
  2201   007744                     u2230:
  2202   007744                     
  2203                           ; BSR set to: 0
  2204                           ;main_piee2.c: 378:                     estado = 0;
  2205   007744  0E00               	movlw	0
  2206   007746  6F71               	movwf	Sequenciador_Automatico@estado& (0+255),b
  2207                           
  2208                           ;main_piee2.c: 379:                     estado_timer = 0;
  2209   007748  0E00               	movlw	0
  2210   00774A  6F65               	movwf	(Sequenciador_Automatico@estado_timer+1)& (0+255),b
  2211   00774C  0E00               	movlw	0
  2212   00774E  6F64               	movwf	Sequenciador_Automatico@estado_timer& (0+255),b
  2213                           
  2214                           ;main_piee2.c: 380:                     ciclo_em_andamento = 0;
  2215   007750  0E00               	movlw	0
  2216   007752  6F74               	movwf	_ciclo_em_andamento& (0+255),b
  2217   007754                     
  2218                           ; BSR set to: 0
  2219                           ;main_piee2.c: 381:                     LATD3 = 0;
  2220   007754  968C               	bcf	3980,3,c	;volatile
  2221   007756  EFDF  F03B         	goto	l182
  2222   00775A                     l3070:
  2223                           
  2224                           ; BSR set to: 0
  2225                           ;main_piee2.c: 387:             if(estado_timer++ >= 500) {
  2226   00775A  5164               	movf	Sequenciador_Automatico@estado_timer& (0+255),w,b
  2227   00775C  6E0A               	movwf	??_Sequenciador_Automatico^0,c
  2228   00775E  5165               	movf	(Sequenciador_Automatico@estado_timer+1)& (0+255),w,b
  2229   007760  6E0B               	movwf	(??_Sequenciador_Automatico+1)^0,c
  2230   007762  4B64               	infsnz	Sequenciador_Automatico@estado_timer& (0+255),f,b
  2231   007764  2B65               	incf	(Sequenciador_Automatico@estado_timer+1)& (0+255),f,b
  2232   007766  0EF4               	movlw	244
  2233   007768  5C0A               	subwf	??_Sequenciador_Automatico^0,w,c
  2234   00776A  0E01               	movlw	1
  2235   00776C  580B               	subwfb	(??_Sequenciador_Automatico+1)^0,w,c
  2236   00776E  A0D8               	btfss	status,0,c
  2237   007770  EFBC  F03B         	goto	u2241
  2238   007774  EFBE  F03B         	goto	u2240
  2239   007778                     u2241:
  2240   007778  EFDF  F03B         	goto	l182
  2241   00777C                     u2240:
  2242   00777C                     
  2243                           ; BSR set to: 0
  2244                           ;main_piee2.c: 388:                 estado = 1;
  2245   00777C  0E01               	movlw	1
  2246   00777E  6F71               	movwf	Sequenciador_Automatico@estado& (0+255),b
  2247                           
  2248                           ;main_piee2.c: 389:                 estado_timer = 0;
  2249   007780  0E00               	movlw	0
  2250   007782  6F65               	movwf	(Sequenciador_Automatico@estado_timer+1)& (0+255),b
  2251   007784  0E00               	movlw	0
  2252   007786  6F64               	movwf	Sequenciador_Automatico@estado_timer& (0+255),b
  2253   007788  EFDF  F03B         	goto	l182
  2254   00778C                     l3076:
  2255                           
  2256                           ; BSR set to: 0
  2257   00778C  5171               	movf	Sequenciador_Automatico@estado& (0+255),w,b
  2258   00778E  6E0A               	movwf	??_Sequenciador_Automatico^0,c
  2259   007790  6A0B               	clrf	(??_Sequenciador_Automatico+1)^0,c
  2260                           
  2261                           ; Switch on 2 bytes has been partitioned into a top level switch of size 1, and 1 sub-sw
      +                          itches
  2262                           ; Switch size 1, requested type "simple"
  2263                           ; Number of cases is 1, Range of values is 0 to 0
  2264                           ; switch strategies available:
  2265                           ; Name         Instructions Cycles
  2266                           ; simple_byte            4     3 (average)
  2267                           ;	Chosen strategy is simple_byte
  2268   007792  500B               	movf	(??_Sequenciador_Automatico+1)^0,w,c
  2269   007794  0A00               	xorlw	0	; case 0
  2270   007796  B4D8               	btfsc	status,2,c
  2271   007798  EFD0  F03B         	goto	l3322
  2272   00779C  EFDF  F03B         	goto	l182
  2273   0077A0                     l3322:
  2274                           
  2275                           ; BSR set to: 0
  2276                           ; Switch size 1, requested type "simple"
  2277                           ; Number of cases is 3, Range of values is 0 to 2
  2278                           ; switch strategies available:
  2279                           ; Name         Instructions Cycles
  2280                           ; simple_byte           10     6 (average)
  2281                           ;	Chosen strategy is simple_byte
  2282   0077A0  500A               	movf	??_Sequenciador_Automatico^0,w,c
  2283   0077A2  0A00               	xorlw	0	; case 0
  2284   0077A4  B4D8               	btfsc	status,2,c
  2285   0077A6  EF1B  F03B         	goto	l3038
  2286   0077AA  0A01               	xorlw	1	; case 1
  2287   0077AC  B4D8               	btfsc	status,2,c
  2288   0077AE  EF52  F03B         	goto	l3054
  2289   0077B2  0A03               	xorlw	3	; case 2
  2290   0077B4  B4D8               	btfsc	status,2,c
  2291   0077B6  EFAD  F03B         	goto	l3070
  2292   0077BA  EFDF  F03B         	goto	l182
  2293   0077BE                     l182:
  2294   0077BE  0012               	return		;funcret
  2295   0077C0                     __end_of_Sequenciador_Automatico:
  2296                           	callstack 0
  2297                           
  2298 ;; *************** function _Salvar_Contador_EEPROM *****************
  2299 ;; Defined at:
  2300 ;;		line 505 in file "main_piee2.c"
  2301 ;; Parameters:    Size  Location     Type
  2302 ;;		None
  2303 ;; Auto vars:     Size  Location     Type
  2304 ;;		None
  2305 ;; Return value:  Size  Location     Type
  2306 ;;                  1    wreg      void 
  2307 ;; Registers used:
  2308 ;;		wreg, status,2, status,0, cstack
  2309 ;; Tracked objects:
  2310 ;;		On entry : 0/0
  2311 ;;		On exit  : 0/0
  2312 ;;		Unchanged: 0/0
  2313 ;; Data sizes:     COMRAM   BANK0   BANK1   BANK2   BANK3   BANK4   BANK5   BANK6   BANK7
  2314 ;;      Params:         0       0       0       0       0       0       0       0       0
  2315 ;;      Locals:         0       0       0       0       0       0       0       0       0
  2316 ;;      Temps:          0       0       0       0       0       0       0       0       0
  2317 ;;      Totals:         0       0       0       0       0       0       0       0       0
  2318 ;;Total ram usage:        0 bytes
  2319 ;; Hardware stack levels used: 1
  2320 ;; Hardware stack levels required when called: 3
  2321 ;; This function calls:
  2322 ;;		_Escrever_EEPROM
  2323 ;; This function is called by:
  2324 ;;		_main
  2325 ;;		_Sequenciador_Automatico
  2326 ;; This function uses a non-reentrant model
  2327 ;;
  2328                           
  2329                           	psect	text10
  2330   0064C4                     __ptext10:
  2331                           	callstack 0
  2332   0064C4                     _Salvar_Contador_EEPROM:
  2333                           	callstack 26
  2334   0064C4                     
  2335                           ;main_piee2.c: 506:     Escrever_EEPROM(0x0000, (contador_ciclos >> 8) & 0xFF);
  2336   0064C4  0E00               	movlw	0
  2337   0064C6  6E08               	movwf	(Escrever_EEPROM@endereco+1)^0,c
  2338   0064C8  0E00               	movlw	0
  2339   0064CA  6E07               	movwf	Escrever_EEPROM@endereco^0,c
  2340   0064CC  0100               	movlb	0	; () banked
  2341   0064CE  516F               	movf	(_contador_ciclos+1)& (0+255),w,b
  2342   0064D0  6E09               	movwf	Escrever_EEPROM@dado^0,c
  2343   0064D2  EC9C  F032         	call	_Escrever_EEPROM	;wreg free
  2344                           
  2345                           ;main_piee2.c: 507:     Escrever_EEPROM(0x0000 + 1, contador_ciclos & 0xFF);
  2346   0064D6  0E00               	movlw	0
  2347   0064D8  6E08               	movwf	(Escrever_EEPROM@endereco+1)^0,c
  2348   0064DA  0E01               	movlw	1
  2349   0064DC  6E07               	movwf	Escrever_EEPROM@endereco^0,c
  2350   0064DE  C06E  F009         	movff	_contador_ciclos,Escrever_EEPROM@dado
  2351   0064E2  EC9C  F032         	call	_Escrever_EEPROM	;wreg free
  2352   0064E6  0012               	return		;funcret
  2353   0064E8                     __end_of_Salvar_Contador_EEPROM:
  2354                           	callstack 0
  2355                           
  2356 ;; *************** function _Escrever_EEPROM *****************
  2357 ;; Defined at:
  2358 ;;		line 483 in file "main_piee2.c"
  2359 ;; Parameters:    Size  Location     Type
  2360 ;;  endereco        2    6[COMRAM] unsigned short 
  2361 ;;  dado            1    8[COMRAM] unsigned char 
  2362 ;; Auto vars:     Size  Location     Type
  2363 ;;		None
  2364 ;; Return value:  Size  Location     Type
  2365 ;;                  1    wreg      void 
  2366 ;; Registers used:
  2367 ;;		wreg, status,2, status,0, cstack
  2368 ;; Tracked objects:
  2369 ;;		On entry : 0/0
  2370 ;;		On exit  : 0/0
  2371 ;;		Unchanged: 0/0
  2372 ;; Data sizes:     COMRAM   BANK0   BANK1   BANK2   BANK3   BANK4   BANK5   BANK6   BANK7
  2373 ;;      Params:         3       0       0       0       0       0       0       0       0
  2374 ;;      Locals:         0       0       0       0       0       0       0       0       0
  2375 ;;      Temps:          0       0       0       0       0       0       0       0       0
  2376 ;;      Totals:         3       0       0       0       0       0       0       0       0
  2377 ;;Total ram usage:        3 bytes
  2378 ;; Hardware stack levels used: 1
  2379 ;; Hardware stack levels required when called: 2
  2380 ;; This function calls:
  2381 ;;		_I2C_Start
  2382 ;;		_I2C_Stop
  2383 ;;		_I2C_Write
  2384 ;;		_MSdelay
  2385 ;; This function is called by:
  2386 ;;		_Salvar_Contador_EEPROM
  2387 ;; This function uses a non-reentrant model
  2388 ;;
  2389                           
  2390                           	psect	text11
  2391   006538                     __ptext11:
  2392                           	callstack 0
  2393   006538                     _Escrever_EEPROM:
  2394                           	callstack 26
  2395   006538                     
  2396                           ;main_piee2.c: 484:     I2C_Start();
  2397   006538  EC0A  F032         	call	_I2C_Start	;wreg free
  2398   00653C                     
  2399                           ;main_piee2.c: 485:     I2C_Write(0xA0);
  2400   00653C  0EA0               	movlw	160
  2401   00653E  EC45  F032         	call	_I2C_Write
  2402   006542                     
  2403                           ;main_piee2.c: 486:     I2C_Write((endereco >> 8) & 0xFF);
  2404   006542  5008               	movf	(Escrever_EEPROM@endereco+1)^0,w,c
  2405   006544  EC45  F032         	call	_I2C_Write
  2406   006548                     
  2407                           ;main_piee2.c: 487:     I2C_Write(endereco & 0xFF);
  2408   006548  5007               	movf	Escrever_EEPROM@endereco^0,w,c
  2409   00654A  EC45  F032         	call	_I2C_Write
  2410   00654E                     
  2411                           ;main_piee2.c: 488:     I2C_Write(dado);
  2412   00654E  5009               	movf	Escrever_EEPROM@dado^0,w,c
  2413   006550  EC45  F032         	call	_I2C_Write
  2414   006554                     
  2415                           ;main_piee2.c: 489:     I2C_Stop();
  2416   006554  EC13  F032         	call	_I2C_Stop	;wreg free
  2417   006558                     
  2418                           ;main_piee2.c: 491:     MSdelay(10);
  2419   006558  0E00               	movlw	0
  2420   00655A  6E02               	movwf	(MSdelay@val+1)^0,c
  2421   00655C  0E0A               	movlw	10
  2422   00655E  6E01               	movwf	MSdelay@val^0,c
  2423   006560  ECD6  F033         	call	_MSdelay	;wreg free
  2424   006564  0012               	return		;funcret
  2425   006566                     __end_of_Escrever_EEPROM:
  2426                           	callstack 0
  2427                           
  2428 ;; *************** function _Modo_Manual *****************
  2429 ;; Defined at:
  2430 ;;		line 397 in file "main_piee2.c"
  2431 ;; Parameters:    Size  Location     Type
  2432 ;;		None
  2433 ;; Auto vars:     Size  Location     Type
  2434 ;;		None
  2435 ;; Return value:  Size  Location     Type
  2436 ;;                  1    wreg      void 
  2437 ;; Registers used:
  2438 ;;		wreg, status,2, status,0, cstack
  2439 ;; Tracked objects:
  2440 ;;		On entry : 0/0
  2441 ;;		On exit  : 0/0
  2442 ;;		Unchanged: 0/0
  2443 ;; Data sizes:     COMRAM   BANK0   BANK1   BANK2   BANK3   BANK4   BANK5   BANK6   BANK7
  2444 ;;      Params:         0       0       0       0       0       0       0       0       0
  2445 ;;      Locals:         0       0       0       0       0       0       0       0       0
  2446 ;;      Temps:          2       0       0       0       0       0       0       0       0
  2447 ;;      Totals:         2       0       0       0       0       0       0       0       0
  2448 ;;Total ram usage:        2 bytes
  2449 ;; Hardware stack levels used: 1
  2450 ;; Hardware stack levels required when called: 1
  2451 ;; This function calls:
  2452 ;;		_MSdelay
  2453 ;; This function is called by:
  2454 ;;		_main
  2455 ;; This function uses a non-reentrant model
  2456 ;;
  2457                           
  2458                           	psect	text12
  2459   00747A                     __ptext12:
  2460                           	callstack 0
  2461   00747A                     _Modo_Manual:
  2462                           	callstack 29
  2463   00747A                     
  2464                           ;main_piee2.c: 398:     static uint8_t last_inc = 1;;main_piee2.c: 399:     static uint8
      +                          _t last_dow = 1;;main_piee2.c: 400:     static uint8_t last_ent = 1;;main_piee2.c: 403: 
      +                              if(PORTAbits.RA3 == 0 && last_inc == 1) {
  2465   00747A  B680               	btfsc	128,3,c	;volatile
  2466   00747C  EF42  F03A         	goto	u2091
  2467   007480  EF44  F03A         	goto	u2090
  2468   007484                     u2091:
  2469   007484  EF66  F03A         	goto	l2980
  2470   007488                     u2090:
  2471   007488  0100               	movlb	0	; () banked
  2472   00748A  05CF               	decf	Modo_Manual@last_inc& (0+255),w,b
  2473   00748C  A4D8               	btfss	status,2,c
  2474   00748E  EF4B  F03A         	goto	u2101
  2475   007492  EF4D  F03A         	goto	u2100
  2476   007496                     u2101:
  2477   007496  EF66  F03A         	goto	l2980
  2478   00749A                     u2100:
  2479   00749A                     
  2480                           ; BSR set to: 0
  2481                           ;main_piee2.c: 404:         MSdelay(50);
  2482   00749A  0E00               	movlw	0
  2483   00749C  6E02               	movwf	(MSdelay@val+1)^0,c
  2484   00749E  0E32               	movlw	50
  2485   0074A0  6E01               	movwf	MSdelay@val^0,c
  2486   0074A2  ECD6  F033         	call	_MSdelay	;wreg free
  2487   0074A6                     
  2488                           ;main_piee2.c: 405:         if(PORTAbits.RA3 == 0) {
  2489   0074A6  B680               	btfsc	128,3,c	;volatile
  2490   0074A8  EF58  F03A         	goto	u2111
  2491   0074AC  EF5A  F03A         	goto	u2110
  2492   0074B0                     u2111:
  2493   0074B0  EF66  F03A         	goto	l2980
  2494   0074B4                     u2110:
  2495   0074B4                     
  2496                           ;main_piee2.c: 406:             valvula_selecionada++;
  2497   0074B4  0100               	movlb	0	; () banked
  2498   0074B6  2B75               	incf	_valvula_selecionada& (0+255),f,b
  2499   0074B8                     
  2500                           ; BSR set to: 0
  2501                           ;main_piee2.c: 407:             if(valvula_selecionada >= 8) {
  2502   0074B8  0E07               	movlw	7
  2503   0074BA  6575               	cpfsgt	_valvula_selecionada& (0+255),b
  2504   0074BC  EF62  F03A         	goto	u2121
  2505   0074C0  EF64  F03A         	goto	u2120
  2506   0074C4                     u2121:
  2507   0074C4  EF66  F03A         	goto	l2980
  2508   0074C8                     u2120:
  2509   0074C8                     
  2510                           ; BSR set to: 0
  2511                           ;main_piee2.c: 408:                 valvula_selecionada = 0;
  2512   0074C8  0E00               	movlw	0
  2513   0074CA  6F75               	movwf	_valvula_selecionada& (0+255),b
  2514   0074CC                     l2980:
  2515                           
  2516                           ;main_piee2.c: 412:     last_inc = PORTAbits.RA3;
  2517   0074CC  0E00               	movlw	0
  2518   0074CE  B680               	btfsc	128,3,c	;volatile
  2519   0074D0  0E01               	movlw	1
  2520   0074D2  0100               	movlb	0	; () banked
  2521   0074D4  6FCF               	movwf	Modo_Manual@last_inc& (0+255),b
  2522   0074D6                     
  2523                           ; BSR set to: 0
  2524                           ;main_piee2.c: 414:     if(PORTAbits.RA4 == 0 && last_dow == 1) {
  2525   0074D6  B880               	btfsc	128,4,c	;volatile
  2526   0074D8  EF70  F03A         	goto	u2131
  2527   0074DC  EF72  F03A         	goto	u2130
  2528   0074E0                     u2131:
  2529   0074E0  EF95  F03A         	goto	l2996
  2530   0074E4                     u2130:
  2531   0074E4                     
  2532                           ; BSR set to: 0
  2533   0074E4  05CE               	decf	Modo_Manual@last_dow& (0+255),w,b
  2534   0074E6  A4D8               	btfss	status,2,c
  2535   0074E8  EF78  F03A         	goto	u2141
  2536   0074EC  EF7A  F03A         	goto	u2140
  2537   0074F0                     u2141:
  2538   0074F0  EF95  F03A         	goto	l2996
  2539   0074F4                     u2140:
  2540   0074F4                     
  2541                           ; BSR set to: 0
  2542                           ;main_piee2.c: 415:         MSdelay(50);
  2543   0074F4  0E00               	movlw	0
  2544   0074F6  6E02               	movwf	(MSdelay@val+1)^0,c
  2545   0074F8  0E32               	movlw	50
  2546   0074FA  6E01               	movwf	MSdelay@val^0,c
  2547   0074FC  ECD6  F033         	call	_MSdelay	;wreg free
  2548   007500                     
  2549                           ;main_piee2.c: 416:         if(PORTAbits.RA4 == 0) {
  2550   007500  B880               	btfsc	128,4,c	;volatile
  2551   007502  EF85  F03A         	goto	u2151
  2552   007506  EF87  F03A         	goto	u2150
  2553   00750A                     u2151:
  2554   00750A  EF95  F03A         	goto	l2996
  2555   00750E                     u2150:
  2556   00750E                     
  2557                           ;main_piee2.c: 417:             if(valvula_selecionada == 0) {
  2558   00750E  0100               	movlb	0	; () banked
  2559   007510  5175               	movf	_valvula_selecionada& (0+255),w,b
  2560   007512  A4D8               	btfss	status,2,c
  2561   007514  EF8E  F03A         	goto	u2161
  2562   007518  EF90  F03A         	goto	u2160
  2563   00751C                     u2161:
  2564   00751C  EF94  F03A         	goto	l2994
  2565   007520                     u2160:
  2566   007520                     
  2567                           ; BSR set to: 0
  2568                           ;main_piee2.c: 418:                 valvula_selecionada = 8 - 1;
  2569   007520  0E07               	movlw	7
  2570   007522  6F75               	movwf	_valvula_selecionada& (0+255),b
  2571                           
  2572                           ;main_piee2.c: 419:             } else {
  2573   007524  EF95  F03A         	goto	l2996
  2574   007528                     l2994:
  2575                           
  2576                           ; BSR set to: 0
  2577                           ;main_piee2.c: 420:                 valvula_selecionada--;
  2578   007528  0775               	decf	_valvula_selecionada& (0+255),f,b
  2579   00752A                     l2996:
  2580                           
  2581                           ;main_piee2.c: 425:     last_dow = PORTAbits.RA4;
  2582   00752A  0E00               	movlw	0
  2583   00752C  B880               	btfsc	128,4,c	;volatile
  2584   00752E  0E01               	movlw	1
  2585   007530  0100               	movlb	0	; () banked
  2586   007532  6FCE               	movwf	Modo_Manual@last_dow& (0+255),b
  2587   007534                     
  2588                           ; BSR set to: 0
  2589                           ;main_piee2.c: 428:     if(PORTAbits.RA5 == 0 && last_ent == 1) {
  2590   007534  BA80               	btfsc	128,5,c	;volatile
  2591   007536  EF9F  F03A         	goto	u2171
  2592   00753A  EFA1  F03A         	goto	u2170
  2593   00753E                     u2171:
  2594   00753E  EF04  F03B         	goto	l3020
  2595   007542                     u2170:
  2596   007542                     
  2597                           ; BSR set to: 0
  2598   007542  05CD               	decf	Modo_Manual@last_ent& (0+255),w,b
  2599   007544  A4D8               	btfss	status,2,c
  2600   007546  EFA7  F03A         	goto	u2181
  2601   00754A  EFA9  F03A         	goto	u2180
  2602   00754E                     u2181:
  2603   00754E  EF04  F03B         	goto	l3020
  2604   007552                     u2180:
  2605   007552                     
  2606                           ; BSR set to: 0
  2607                           ;main_piee2.c: 429:        MSdelay(50);
  2608   007552  0E00               	movlw	0
  2609   007554  6E02               	movwf	(MSdelay@val+1)^0,c
  2610   007556  0E32               	movlw	50
  2611   007558  6E01               	movwf	MSdelay@val^0,c
  2612   00755A  ECD6  F033         	call	_MSdelay	;wreg free
  2613   00755E                     
  2614                           ;main_piee2.c: 430:         if(PORTAbits.RA5 == 0) {
  2615   00755E  BA80               	btfsc	128,5,c	;volatile
  2616   007560  EFB4  F03A         	goto	u2191
  2617   007564  EFB6  F03A         	goto	u2190
  2618   007568                     u2191:
  2619   007568  EF04  F03B         	goto	l3020
  2620   00756C                     u2190:
  2621   00756C                     
  2622                           ;main_piee2.c: 432:             PORTC = 0x00;
  2623   00756C  0E00               	movlw	0
  2624   00756E  6E82               	movwf	130,c	;volatile
  2625   007570                     
  2626                           ;main_piee2.c: 433:             LATD7 = 0;
  2627   007570  9E8C               	bcf	3980,7,c	;volatile
  2628                           
  2629                           ;main_piee2.c: 436:             switch(valvula_selecionada) {
  2630   007572  EFCD  F03A         	goto	l3012
  2631   007576                     l220:
  2632                           
  2633                           ; BSR set to: 0
  2634   007576  808B               	bsf	3979,0,c	;volatile
  2635   007578  EFFB  F03A         	goto	l3014
  2636   00757C                     l222:
  2637                           
  2638                           ; BSR set to: 0
  2639   00757C  828B               	bsf	3979,1,c	;volatile
  2640   00757E  EFFB  F03A         	goto	l3014
  2641   007582                     l223:
  2642                           
  2643                           ; BSR set to: 0
  2644   007582  848B               	bsf	3979,2,c	;volatile
  2645   007584  EFFB  F03A         	goto	l3014
  2646   007588                     l226:
  2647                           
  2648                           ; BSR set to: 0
  2649   007588  8C8B               	bsf	3979,6,c	;volatile
  2650   00758A  EFFB  F03A         	goto	l3014
  2651   00758E                     l227:
  2652                           
  2653                           ; BSR set to: 0
  2654   00758E  8E8B               	bsf	3979,7,c	;volatile
  2655   007590  EFFB  F03A         	goto	l3014
  2656   007594                     l228:
  2657                           
  2658                           ; BSR set to: 0
  2659   007594  8E8C               	bsf	3980,7,c	;volatile
  2660   007596  EFFB  F03A         	goto	l3014
  2661   00759A                     l3012:
  2662   00759A  0100               	movlb	0	; () banked
  2663   00759C  5175               	movf	_valvula_selecionada& (0+255),w,b
  2664   00759E  6E07               	movwf	??_Modo_Manual^0,c
  2665   0075A0  6A08               	clrf	(??_Modo_Manual+1)^0,c
  2666                           
  2667                           ; Switch on 2 bytes has been partitioned into a top level switch of size 1, and 1 sub-sw
      +                          itches
  2668                           ; Switch size 1, requested type "simple"
  2669                           ; Number of cases is 1, Range of values is 0 to 0
  2670                           ; switch strategies available:
  2671                           ; Name         Instructions Cycles
  2672                           ; simple_byte            4     3 (average)
  2673                           ;	Chosen strategy is simple_byte
  2674   0075A2  5008               	movf	(??_Modo_Manual+1)^0,w,c
  2675   0075A4  0A00               	xorlw	0	; case 0
  2676   0075A6  B4D8               	btfsc	status,2,c
  2677   0075A8  EFD8  F03A         	goto	l3324
  2678   0075AC  EFFB  F03A         	goto	l3014
  2679   0075B0                     l3324:
  2680                           
  2681                           ; BSR set to: 0
  2682                           ; Switch size 1, requested type "simple"
  2683                           ; Number of cases is 8, Range of values is 0 to 7
  2684                           ; switch strategies available:
  2685                           ; Name         Instructions Cycles
  2686                           ; simple_byte           25    13 (average)
  2687                           ;	Chosen strategy is simple_byte
  2688   0075B0  5007               	movf	??_Modo_Manual^0,w,c
  2689   0075B2  0A00               	xorlw	0	; case 0
  2690   0075B4  B4D8               	btfsc	status,2,c
  2691   0075B6  EFBB  F03A         	goto	l220
  2692   0075BA  0A01               	xorlw	1	; case 1
  2693   0075BC  B4D8               	btfsc	status,2,c
  2694   0075BE  EFBE  F03A         	goto	l222
  2695   0075C2  0A03               	xorlw	3	; case 2
  2696   0075C4  B4D8               	btfsc	status,2,c
  2697   0075C6  EFC1  F03A         	goto	l223
  2698   0075CA  0A01               	xorlw	1	; case 3
  2699   0075CC  B4D8               	btfsc	status,2,c
  2700   0075CE  EFC1  F03A         	goto	l223
  2701   0075D2  0A07               	xorlw	7	; case 4
  2702   0075D4  B4D8               	btfsc	status,2,c
  2703   0075D6  EFC1  F03A         	goto	l223
  2704   0075DA  0A01               	xorlw	1	; case 5
  2705   0075DC  B4D8               	btfsc	status,2,c
  2706   0075DE  EFC4  F03A         	goto	l226
  2707   0075E2  0A03               	xorlw	3	; case 6
  2708   0075E4  B4D8               	btfsc	status,2,c
  2709   0075E6  EFC7  F03A         	goto	l227
  2710   0075EA  0A01               	xorlw	1	; case 7
  2711   0075EC  B4D8               	btfsc	status,2,c
  2712   0075EE  EFCA  F03A         	goto	l228
  2713   0075F2  EFFB  F03A         	goto	l3014
  2714   0075F6                     l3014:
  2715                           
  2716                           ; BSR set to: 0
  2717                           ;main_piee2.c: 447:             MSdelay(2000);
  2718   0075F6  0E07               	movlw	7
  2719   0075F8  6E02               	movwf	(MSdelay@val+1)^0,c
  2720   0075FA  0ED0               	movlw	208
  2721   0075FC  6E01               	movwf	MSdelay@val^0,c
  2722   0075FE  ECD6  F033         	call	_MSdelay	;wreg free
  2723   007602                     
  2724                           ;main_piee2.c: 450:             PORTC = 0x00;
  2725   007602  0E00               	movlw	0
  2726   007604  6E82               	movwf	130,c	;volatile
  2727   007606                     
  2728                           ;main_piee2.c: 451:             LATD7 = 0;
  2729   007606  9E8C               	bcf	3980,7,c	;volatile
  2730   007608                     l3020:
  2731                           
  2732                           ;main_piee2.c: 456:     last_ent = PORTAbits.RA5;
  2733   007608  0E00               	movlw	0
  2734   00760A  BA80               	btfsc	128,5,c	;volatile
  2735   00760C  0E01               	movlw	1
  2736   00760E  0100               	movlb	0	; () banked
  2737   007610  6FCD               	movwf	Modo_Manual@last_ent& (0+255),b
  2738   007612                     
  2739                           ; BSR set to: 0
  2740   007612  0012               	return		;funcret
  2741   007614                     __end_of_Modo_Manual:
  2742                           	callstack 0
  2743                           
  2744 ;; *************** function _Ler_ADC *****************
  2745 ;; Defined at:
  2746 ;;		line 563 in file "main_piee2.c"
  2747 ;; Parameters:    Size  Location     Type
  2748 ;;  canal           1    wreg     unsigned char 
  2749 ;; Auto vars:     Size  Location     Type
  2750 ;;  canal           1   10[COMRAM] unsigned char 
  2751 ;; Return value:  Size  Location     Type
  2752 ;;                  2    6[COMRAM] unsigned short 
  2753 ;; Registers used:
  2754 ;;		wreg, status,2, status,0, cstack
  2755 ;; Tracked objects:
  2756 ;;		On entry : 0/0
  2757 ;;		On exit  : 0/0
  2758 ;;		Unchanged: 0/0
  2759 ;; Data sizes:     COMRAM   BANK0   BANK1   BANK2   BANK3   BANK4   BANK5   BANK6   BANK7
  2760 ;;      Params:         2       0       0       0       0       0       0       0       0
  2761 ;;      Locals:         1       0       0       0       0       0       0       0       0
  2762 ;;      Temps:          2       0       0       0       0       0       0       0       0
  2763 ;;      Totals:         5       0       0       0       0       0       0       0       0
  2764 ;;Total ram usage:        5 bytes
  2765 ;; Hardware stack levels used: 1
  2766 ;; Hardware stack levels required when called: 1
  2767 ;; This function calls:
  2768 ;;		_MSdelay
  2769 ;; This function is called by:
  2770 ;;		_main
  2771 ;; This function uses a non-reentrant model
  2772 ;;
  2773                           
  2774                           	psect	text13
  2775   0066E0                     __ptext13:
  2776                           	callstack 0
  2777   0066E0                     _Ler_ADC:
  2778                           	callstack 29
  2779                           
  2780                           ; BSR set to: 0
  2781                           ;incstack = 0
  2782                           ;Ler_ADC@canal stored from wreg
  2783   0066E0  6E0B               	movwf	Ler_ADC@canal^0,c
  2784   0066E2                     
  2785                           ;main_piee2.c: 564:     ADCON0 = (canal << 2) | 0x01;
  2786   0066E2  440B               	rlncf	Ler_ADC@canal^0,w,c
  2787   0066E4  46E8               	rlncf	wreg,f,c
  2788   0066E6  0BFC               	andlw	252
  2789   0066E8  0901               	iorlw	1
  2790   0066EA  6EC2               	movwf	194,c	;volatile
  2791   0066EC                     
  2792                           ;main_piee2.c: 565:     MSdelay(1);
  2793   0066EC  0E00               	movlw	0
  2794   0066EE  6E02               	movwf	(MSdelay@val+1)^0,c
  2795   0066F0  0E01               	movlw	1
  2796   0066F2  6E01               	movwf	MSdelay@val^0,c
  2797   0066F4  ECD6  F033         	call	_MSdelay	;wreg free
  2798   0066F8                     
  2799                           ;main_piee2.c: 567:     ADCON0bits.GO = 1;
  2800   0066F8  82C2               	bsf	194,1,c	;volatile
  2801   0066FA                     l260:
  2802   0066FA  B2C2               	btfsc	194,1,c	;volatile
  2803   0066FC  EF82  F033         	goto	u2071
  2804   006700  EF84  F033         	goto	u2070
  2805   006704                     u2071:
  2806   006704  EF7D  F033         	goto	l260
  2807   006708                     u2070:
  2808   006708                     
  2809                           ;main_piee2.c: 570:     return ((ADRESH << 8) | ADRESL);
  2810   006708  50C3               	movf	195,w,c	;volatile
  2811   00670A  CFC4 F009          	movff	4036,??_Ler_ADC	;volatile
  2812   00670E  6A0A               	clrf	(??_Ler_ADC+1)^0,c
  2813   006710  C009  F00A         	movff	??_Ler_ADC,??_Ler_ADC+1
  2814   006714  6A09               	clrf	??_Ler_ADC^0,c
  2815   006716  1009               	iorwf	??_Ler_ADC^0,w,c
  2816   006718  6E07               	movwf	?_Ler_ADC^0,c
  2817   00671A  500A               	movf	(??_Ler_ADC+1)^0,w,c
  2818   00671C  6E08               	movwf	(?_Ler_ADC+1)^0,c
  2819   00671E  0012               	return		;funcret
  2820   006720                     __end_of_Ler_ADC:
  2821                           	callstack 0
  2822                           
  2823 ;; *************** function _Display_Mensagens_Iniciais *****************
  2824 ;; Defined at:
  2825 ;;		line 214 in file "main_piee2.c"
  2826 ;; Parameters:    Size  Location     Type
  2827 ;;		None
  2828 ;; Auto vars:     Size  Location     Type
  2829 ;;		None
  2830 ;; Return value:  Size  Location     Type
  2831 ;;                  1    wreg      void 
  2832 ;; Registers used:
  2833 ;;		wreg, fsr1l, fsr1h, fsr2l, fsr2h, status,2, status,0, tblptrl, tblptrh, tblptru, prodl, prodh, cstack
  2834 ;; Tracked objects:
  2835 ;;		On entry : 0/0
  2836 ;;		On exit  : 0/0
  2837 ;;		Unchanged: 0/0
  2838 ;; Data sizes:     COMRAM   BANK0   BANK1   BANK2   BANK3   BANK4   BANK5   BANK6   BANK7
  2839 ;;      Params:         0       0       0       0       0       0       0       0       0
  2840 ;;      Locals:         0       2       0       0       0       0       0       0       0
  2841 ;;      Temps:          0       0       0       0       0       0       0       0       0
  2842 ;;      Totals:         0       2       0       0       0       0       0       0       0
  2843 ;;Total ram usage:        2 bytes
  2844 ;; Hardware stack levels used: 1
  2845 ;; Hardware stack levels required when called: 9
  2846 ;; This function calls:
  2847 ;;		_Format_Data
  2848 ;;		_Format_Hora
  2849 ;;		_LCD_Clear
  2850 ;;		_LCD_String_xy
  2851 ;;		_MSdelay
  2852 ;;		_RTC_GetDateTime
  2853 ;;		_sprintf
  2854 ;; This function is called by:
  2855 ;;		_main
  2856 ;; This function uses a non-reentrant model
  2857 ;;
  2858                           
  2859                           	psect	text14
  2860   00798E                     __ptext14:
  2861                           	callstack 0
  2862   00798E                     _Display_Mensagens_Iniciais:
  2863                           	callstack 21
  2864   00798E                     
  2865                           ;main_piee2.c: 216:     LCD_Clear();
  2866   00798E  EC1C  F032         	call	_LCD_Clear	;wreg free
  2867   007992                     
  2868                           ;main_piee2.c: 217:     LCD_String_xy(1, 7, "UNIUBE");
  2869   007992  0E07               	movlw	7
  2870   007994  6E0B               	movwf	LCD_String_xy@pos^0,c
  2871   007996  0EEC               	movlw	low STR_1
  2872   007998  6E0C               	movwf	LCD_String_xy@msg^0,c
  2873   00799A  0E7F               	movlw	high STR_1
  2874   00799C  6E0D               	movwf	(LCD_String_xy@msg+1)^0,c
  2875   00799E  0E01               	movlw	1
  2876   0079A0  EC33  F035         	call	_LCD_String_xy
  2877   0079A4                     
  2878                           ;main_piee2.c: 218:     LCD_String_xy(2, 0, "Engenharia Eletrica");
  2879   0079A4  0E00               	movlw	0
  2880   0079A6  6E0B               	movwf	LCD_String_xy@pos^0,c
  2881   0079A8  0E3B               	movlw	low STR_2
  2882   0079AA  6E0C               	movwf	LCD_String_xy@msg^0,c
  2883   0079AC  0E7F               	movlw	high STR_2
  2884   0079AE  6E0D               	movwf	(LCD_String_xy@msg+1)^0,c
  2885   0079B0  0E02               	movlw	2
  2886   0079B2  EC33  F035         	call	_LCD_String_xy
  2887   0079B6                     
  2888                           ;main_piee2.c: 219:     LCD_String_xy(3, 2, "Projeto Integrado");
  2889   0079B6  0E02               	movlw	2
  2890   0079B8  6E0B               	movwf	LCD_String_xy@pos^0,c
  2891   0079BA  0E73               	movlw	low STR_3
  2892   0079BC  6E0C               	movwf	LCD_String_xy@msg^0,c
  2893   0079BE  0E7F               	movlw	high STR_3
  2894   0079C0  6E0D               	movwf	(LCD_String_xy@msg+1)^0,c
  2895   0079C2  0E03               	movlw	3
  2896   0079C4  EC33  F035         	call	_LCD_String_xy
  2897   0079C8                     
  2898                           ;main_piee2.c: 220:     LCD_String_xy(4, 3, "Em Eletrica II");
  2899   0079C8  0E03               	movlw	3
  2900   0079CA  6E0B               	movwf	LCD_String_xy@pos^0,c
  2901   0079CC  0EA5               	movlw	low STR_4
  2902   0079CE  6E0C               	movwf	LCD_String_xy@msg^0,c
  2903   0079D0  0E7F               	movlw	high STR_4
  2904   0079D2  6E0D               	movwf	(LCD_String_xy@msg+1)^0,c
  2905   0079D4  0E04               	movlw	4
  2906   0079D6  EC33  F035         	call	_LCD_String_xy
  2907                           
  2908                           ;main_piee2.c: 221:     MSdelay(3000);
  2909   0079DA  0E0B               	movlw	11
  2910   0079DC  6E02               	movwf	(MSdelay@val+1)^0,c
  2911   0079DE  0EB8               	movlw	184
  2912   0079E0  6E01               	movwf	MSdelay@val^0,c
  2913   0079E2  ECD6  F033         	call	_MSdelay	;wreg free
  2914                           
  2915                           ;main_piee2.c: 224:     LCD_Clear();
  2916   0079E6  EC1C  F032         	call	_LCD_Clear	;wreg free
  2917   0079EA                     
  2918                           ;main_piee2.c: 225:     LCD_String_xy(1, 2, "Welington Correia");
  2919   0079EA  0E02               	movlw	2
  2920   0079EC  6E0B               	movwf	LCD_String_xy@pos^0,c
  2921   0079EE  0E4F               	movlw	low STR_5
  2922   0079F0  6E0C               	movwf	LCD_String_xy@msg^0,c
  2923   0079F2  0E7F               	movlw	high STR_5
  2924   0079F4  6E0D               	movwf	(LCD_String_xy@msg+1)^0,c
  2925   0079F6  0E01               	movlw	1
  2926   0079F8  EC33  F035         	call	_LCD_String_xy
  2927   0079FC                     
  2928                           ;main_piee2.c: 226:     LCD_String_xy(2, 4, "RA : 1063677");
  2929   0079FC  0E04               	movlw	4
  2930   0079FE  6E0B               	movwf	LCD_String_xy@pos^0,c
  2931   007A00  0ED2               	movlw	low STR_6
  2932   007A02  6E0C               	movwf	LCD_String_xy@msg^0,c
  2933   007A04  0E7F               	movlw	high STR_6
  2934   007A06  6E0D               	movwf	(LCD_String_xy@msg+1)^0,c
  2935   007A08  0E02               	movlw	2
  2936   007A0A  EC33  F035         	call	_LCD_String_xy
  2937   007A0E                     
  2938                           ;main_piee2.c: 227:     LCD_String_xy(3, 1, "Seq.Eletr.Limpeza");
  2939   007A0E  0E01               	movlw	1
  2940   007A10  6E0B               	movwf	LCD_String_xy@pos^0,c
  2941   007A12  0E61               	movlw	low STR_7
  2942   007A14  6E0C               	movwf	LCD_String_xy@msg^0,c
  2943   007A16  0E7F               	movlw	high STR_7
  2944   007A18  6E0D               	movwf	(LCD_String_xy@msg+1)^0,c
  2945   007A1A  0E03               	movlw	3
  2946   007A1C  EC33  F035         	call	_LCD_String_xy
  2947   007A20                     
  2948                           ;main_piee2.c: 228:     LCD_String_xy(4, 3, "Filtro de Manga");
  2949   007A20  0E03               	movlw	3
  2950   007A22  6E0B               	movwf	LCD_String_xy@pos^0,c
  2951   007A24  0E95               	movlw	low STR_8
  2952   007A26  6E0C               	movwf	LCD_String_xy@msg^0,c
  2953   007A28  0E7F               	movlw	high STR_8
  2954   007A2A  6E0D               	movwf	(LCD_String_xy@msg+1)^0,c
  2955   007A2C  0E04               	movlw	4
  2956   007A2E  EC33  F035         	call	_LCD_String_xy
  2957                           
  2958                           ;main_piee2.c: 229:     MSdelay(3000);
  2959   007A32  0E0B               	movlw	11
  2960   007A34  6E02               	movwf	(MSdelay@val+1)^0,c
  2961   007A36  0EB8               	movlw	184
  2962   007A38  6E01               	movwf	MSdelay@val^0,c
  2963   007A3A  ECD6  F033         	call	_MSdelay	;wreg free
  2964                           
  2965                           ;main_piee2.c: 232:     LCD_Clear();
  2966   007A3E  EC1C  F032         	call	_LCD_Clear	;wreg free
  2967   007A42                     
  2968                           ;main_piee2.c: 233:     LCD_String_xy(1, 2, "Seja Bem Vindo!");
  2969   007A42  0E02               	movlw	2
  2970   007A44  6E0B               	movwf	LCD_String_xy@pos^0,c
  2971   007A46  0E85               	movlw	low STR_9
  2972   007A48  6E0C               	movwf	LCD_String_xy@msg^0,c
  2973   007A4A  0E7F               	movlw	high STR_9
  2974   007A4C  6E0D               	movwf	(LCD_String_xy@msg+1)^0,c
  2975   007A4E  0E01               	movlw	1
  2976   007A50  EC33  F035         	call	_LCD_String_xy
  2977   007A54                     
  2978                           ;main_piee2.c: 236:     RTC_GetDateTime(&rtc);
  2979   007A54  0EBF               	movlw	low _rtc
  2980   007A56  6E03               	movwf	RTC_GetDateTime@rtc^0,c
  2981   007A58  0E00               	movlw	high _rtc
  2982   007A5A  6E04               	movwf	(RTC_GetDateTime@rtc+1)^0,c
  2983   007A5C  EC7A  F035         	call	_RTC_GetDateTime	;wreg free
  2984   007A60                     
  2985                           ;main_piee2.c: 237:     Format_Hora(hora_buffer, &rtc);
  2986   007A60  0EB6               	movlw	low _hora_buffer
  2987   007A62  6E5B               	movwf	Format_Hora@buffer^0,c
  2988   007A64  0E00               	movlw	high _hora_buffer
  2989   007A66  6E5C               	movwf	(Format_Hora@buffer+1)^0,c
  2990   007A68  0EBF               	movlw	low _rtc
  2991   007A6A  6E5D               	movwf	Format_Hora@rtc^0,c
  2992   007A6C  0E00               	movlw	high _rtc
  2993   007A6E  6E5E               	movwf	(Format_Hora@rtc+1)^0,c
  2994   007A70  EC7D  F036         	call	_Format_Hora	;wreg free
  2995   007A74                     
  2996                           ;main_piee2.c: 238:     Format_Data(data_buffer, &rtc);
  2997   007A74  0EAB               	movlw	low _data_buffer
  2998   007A76  6E5B               	movwf	Format_Data@buffer^0,c
  2999   007A78  0E00               	movlw	high _data_buffer
  3000   007A7A  6E5C               	movwf	(Format_Data@buffer+1)^0,c
  3001   007A7C  0EBF               	movlw	low _rtc
  3002   007A7E  6E5D               	movwf	Format_Data@rtc^0,c
  3003   007A80  0E00               	movlw	high _rtc
  3004   007A82  6E5E               	movwf	(Format_Data@rtc+1)^0,c
  3005   007A84  ECD6  F036         	call	_Format_Data	;wreg free
  3006   007A88                     
  3007                           ;main_piee2.c: 240:     LCD_String_xy(2, 0, hora_buffer);
  3008   007A88  0E00               	movlw	0
  3009   007A8A  6E0B               	movwf	LCD_String_xy@pos^0,c
  3010   007A8C  0EB6               	movlw	low _hora_buffer
  3011   007A8E  6E0C               	movwf	LCD_String_xy@msg^0,c
  3012   007A90  0E00               	movlw	high _hora_buffer
  3013   007A92  6E0D               	movwf	(LCD_String_xy@msg+1)^0,c
  3014   007A94  0E02               	movlw	2
  3015   007A96  EC33  F035         	call	_LCD_String_xy
  3016   007A9A                     
  3017                           ;main_piee2.c: 241:     LCD_String_xy(3, 0, data_buffer);
  3018   007A9A  0E00               	movlw	0
  3019   007A9C  6E0B               	movwf	LCD_String_xy@pos^0,c
  3020   007A9E  0EAB               	movlw	low _data_buffer
  3021   007AA0  6E0C               	movwf	LCD_String_xy@msg^0,c
  3022   007AA2  0E00               	movlw	high _data_buffer
  3023   007AA4  6E0D               	movwf	(LCD_String_xy@msg+1)^0,c
  3024   007AA6  0E03               	movlw	3
  3025   007AA8  EC33  F035         	call	_LCD_String_xy
  3026   007AAC                     
  3027                           ;main_piee2.c: 244:     sprintf(lcd_buffer, "Ciclos: %04d", contador_ciclos);
  3028   007AAC  0E96               	movlw	low _lcd_buffer
  3029   007AAE  6E43               	movwf	sprintf@s^0,c
  3030   007AB0  0E00               	movlw	high _lcd_buffer
  3031   007AB2  6E44               	movwf	(sprintf@s+1)^0,c
  3032   007AB4  0EDF               	movlw	low STR_10
  3033   007AB6  6E45               	movwf	sprintf@fmt^0,c
  3034   007AB8  0E7F               	movlw	high STR_10
  3035   007ABA  6E46               	movwf	(sprintf@fmt+1)^0,c
  3036   007ABC  C06E  F047         	movff	_contador_ciclos,?_sprintf+4
  3037   007AC0  C06F  F048         	movff	_contador_ciclos+1,?_sprintf+5
  3038   007AC4  ECFB  F033         	call	_sprintf	;wreg free
  3039   007AC8                     
  3040                           ;main_piee2.c: 245:     LCD_String_xy(4, 0, lcd_buffer);
  3041   007AC8  0E00               	movlw	0
  3042   007ACA  6E0B               	movwf	LCD_String_xy@pos^0,c
  3043   007ACC  0E96               	movlw	low _lcd_buffer
  3044   007ACE  6E0C               	movwf	LCD_String_xy@msg^0,c
  3045   007AD0  0E00               	movlw	high _lcd_buffer
  3046   007AD2  6E0D               	movwf	(LCD_String_xy@msg+1)^0,c
  3047   007AD4  0E04               	movlw	4
  3048   007AD6  EC33  F035         	call	_LCD_String_xy
  3049   007ADA                     
  3050                           ;main_piee2.c: 246:     MSdelay(3000);
  3051   007ADA  0E0B               	movlw	11
  3052   007ADC  6E02               	movwf	(MSdelay@val+1)^0,c
  3053   007ADE  0EB8               	movlw	184
  3054   007AE0  6E01               	movwf	MSdelay@val^0,c
  3055   007AE2  ECD6  F033         	call	_MSdelay	;wreg free
  3056   007AE6                     
  3057                           ;main_piee2.c: 249:     LCD_Clear();
  3058   007AE6  EC1C  F032         	call	_LCD_Clear	;wreg free
  3059   007AEA                     
  3060                           ;main_piee2.c: 250:     LCD_String_xy(1, 3, "Filtro de Manga");
  3061   007AEA  0E03               	movlw	3
  3062   007AEC  6E0B               	movwf	LCD_String_xy@pos^0,c
  3063   007AEE  0E95               	movlw	low STR_8
  3064   007AF0  6E0C               	movwf	LCD_String_xy@msg^0,c
  3065   007AF2  0E7F               	movlw	high STR_8
  3066   007AF4  6E0D               	movwf	(LCD_String_xy@msg+1)^0,c
  3067   007AF6  0E01               	movlw	1
  3068   007AF8  EC33  F035         	call	_LCD_String_xy
  3069   007AFC                     
  3070                           ;main_piee2.c: 253:     sprintf(lcd_buffer, "%s  %s", hora_buffer, data_buffer);
  3071   007AFC  0E96               	movlw	low _lcd_buffer
  3072   007AFE  6E43               	movwf	sprintf@s^0,c
  3073   007B00  0E00               	movlw	high _lcd_buffer
  3074   007B02  6E44               	movwf	(sprintf@s+1)^0,c
  3075   007B04  0EF3               	movlw	low STR_12
  3076   007B06  6E45               	movwf	sprintf@fmt^0,c
  3077   007B08  0E7F               	movlw	high STR_12
  3078   007B0A  6E46               	movwf	(sprintf@fmt+1)^0,c
  3079   007B0C  0EB6               	movlw	low _hora_buffer
  3080   007B0E  6E47               	movwf	(?_sprintf+4)^0,c
  3081   007B10  0E00               	movlw	high _hora_buffer
  3082   007B12  6E48               	movwf	(?_sprintf+5)^0,c
  3083   007B14  0EAB               	movlw	low _data_buffer
  3084   007B16  6E49               	movwf	(?_sprintf+6)^0,c
  3085   007B18  0E00               	movlw	high _data_buffer
  3086   007B1A  6E4A               	movwf	(?_sprintf+7)^0,c
  3087   007B1C  ECFB  F033         	call	_sprintf	;wreg free
  3088   007B20                     
  3089                           ;main_piee2.c: 254:     LCD_String_xy(2, 0, lcd_buffer);
  3090   007B20  0E00               	movlw	0
  3091   007B22  6E0B               	movwf	LCD_String_xy@pos^0,c
  3092   007B24  0E96               	movlw	low _lcd_buffer
  3093   007B26  6E0C               	movwf	LCD_String_xy@msg^0,c
  3094   007B28  0E00               	movlw	high _lcd_buffer
  3095   007B2A  6E0D               	movwf	(LCD_String_xy@msg+1)^0,c
  3096   007B2C  0E02               	movlw	2
  3097   007B2E  EC33  F035         	call	_LCD_String_xy
  3098   007B32                     
  3099                           ;main_piee2.c: 257:     LCD_String_xy(3, 0, modo_operacao ? "Modo: Automatico   " : "Mod
      +                          o: Manual       ");
  3100   007B32  505F               	movf	_modo_operacao^0,w,c
  3101   007B34  A4D8               	btfss	status,2,c
  3102   007B36  EF9F  F03D         	goto	u2061
  3103   007B3A  EFA1  F03D         	goto	u2060
  3104   007B3E                     u2061:
  3105   007B3E  EFA8  F03D         	goto	l2936
  3106   007B42                     u2060:
  3107   007B42  0E9B               	movlw	low STR_14
  3108   007B44  0100               	movlb	0	; () banked
  3109   007B46  6FD6               	movwf	_Display_Mensagens_Iniciais$388& (0+255),b
  3110   007B48  0E7E               	movlw	high STR_14
  3111   007B4A  6FD7               	movwf	(_Display_Mensagens_Iniciais$388+1)& (0+255),b
  3112   007B4C  EFAD  F03D         	goto	l2938
  3113   007B50                     l2936:
  3114   007B50  0EEB               	movlw	low STR_13
  3115   007B52  0100               	movlb	0	; () banked
  3116   007B54  6FD6               	movwf	_Display_Mensagens_Iniciais$388& (0+255),b
  3117   007B56  0E7E               	movlw	high STR_13
  3118   007B58  6FD7               	movwf	(_Display_Mensagens_Iniciais$388+1)& (0+255),b
  3119   007B5A                     l2938:
  3120                           
  3121                           ; BSR set to: 0
  3122   007B5A  0E00               	movlw	0
  3123   007B5C  6E0B               	movwf	LCD_String_xy@pos^0,c
  3124   007B5E  C0D6  F00C         	movff	_Display_Mensagens_Iniciais$388,LCD_String_xy@msg
  3125   007B62  C0D7  F00D         	movff	_Display_Mensagens_Iniciais$388+1,LCD_String_xy@msg+1
  3126   007B66  0E03               	movlw	3
  3127   007B68  EC33  F035         	call	_LCD_String_xy
  3128   007B6C                     
  3129                           ;main_piee2.c: 260:     sprintf(lcd_buffer, "Ciclos: %04d", contador_ciclos);
  3130   007B6C  0E96               	movlw	low _lcd_buffer
  3131   007B6E  6E43               	movwf	sprintf@s^0,c
  3132   007B70  0E00               	movlw	high _lcd_buffer
  3133   007B72  6E44               	movwf	(sprintf@s+1)^0,c
  3134   007B74  0EDF               	movlw	low STR_10
  3135   007B76  6E45               	movwf	sprintf@fmt^0,c
  3136   007B78  0E7F               	movlw	high STR_10
  3137   007B7A  6E46               	movwf	(sprintf@fmt+1)^0,c
  3138   007B7C  C06E  F047         	movff	_contador_ciclos,?_sprintf+4
  3139   007B80  C06F  F048         	movff	_contador_ciclos+1,?_sprintf+5
  3140   007B84  ECFB  F033         	call	_sprintf	;wreg free
  3141   007B88                     
  3142                           ;main_piee2.c: 261:     LCD_String_xy(4, 0, lcd_buffer);
  3143   007B88  0E00               	movlw	0
  3144   007B8A  6E0B               	movwf	LCD_String_xy@pos^0,c
  3145   007B8C  0E96               	movlw	low _lcd_buffer
  3146   007B8E  6E0C               	movwf	LCD_String_xy@msg^0,c
  3147   007B90  0E00               	movlw	high _lcd_buffer
  3148   007B92  6E0D               	movwf	(LCD_String_xy@msg+1)^0,c
  3149   007B94  0E04               	movlw	4
  3150   007B96  EC33  F035         	call	_LCD_String_xy
  3151   007B9A                     
  3152                           ;main_piee2.c: 262:     MSdelay(3000);
  3153   007B9A  0E0B               	movlw	11
  3154   007B9C  6E02               	movwf	(MSdelay@val+1)^0,c
  3155   007B9E  0EB8               	movlw	184
  3156   007BA0  6E01               	movwf	MSdelay@val^0,c
  3157   007BA2  ECD6  F033         	call	_MSdelay	;wreg free
  3158   007BA6  0012               	return		;funcret
  3159   007BA8                     __end_of_Display_Mensagens_Iniciais:
  3160                           	callstack 0
  3161                           
  3162 ;; *************** function _RTC_GetDateTime *****************
  3163 ;; Defined at:
  3164 ;;		line 521 in file "main_piee2.c"
  3165 ;; Parameters:    Size  Location     Type
  3166 ;;  rtc             2    2[COMRAM] PTR struct .
  3167 ;;		 -> rtc(7), 
  3168 ;; Auto vars:     Size  Location     Type
  3169 ;;		None
  3170 ;; Return value:  Size  Location     Type
  3171 ;;                  1    wreg      void 
  3172 ;; Registers used:
  3173 ;;		wreg, fsr2l, fsr2h, status,2, status,0, cstack
  3174 ;; Tracked objects:
  3175 ;;		On entry : 0/0
  3176 ;;		On exit  : 0/0
  3177 ;;		Unchanged: 0/0
  3178 ;; Data sizes:     COMRAM   BANK0   BANK1   BANK2   BANK3   BANK4   BANK5   BANK6   BANK7
  3179 ;;      Params:         2       0       0       0       0       0       0       0       0
  3180 ;;      Locals:         0       0       0       0       0       0       0       0       0
  3181 ;;      Temps:          0       0       0       0       0       0       0       0       0
  3182 ;;      Totals:         2       0       0       0       0       0       0       0       0
  3183 ;;Total ram usage:        2 bytes
  3184 ;; Hardware stack levels used: 1
  3185 ;; Hardware stack levels required when called: 2
  3186 ;; This function calls:
  3187 ;;		_I2C_Read
  3188 ;;		_I2C_Restart
  3189 ;;		_I2C_Start
  3190 ;;		_I2C_Stop
  3191 ;;		_I2C_Write
  3192 ;; This function is called by:
  3193 ;;		_Display_Mensagens_Iniciais
  3194 ;;		_Atualizar_Display_Principal
  3195 ;; This function uses a non-reentrant model
  3196 ;;
  3197                           
  3198                           	psect	text15
  3199   006AF4                     __ptext15:
  3200                           	callstack 0
  3201   006AF4                     _RTC_GetDateTime:
  3202                           	callstack 27
  3203   006AF4                     
  3204                           ;main_piee2.c: 522:     I2C_Start();
  3205   006AF4  EC0A  F032         	call	_I2C_Start	;wreg free
  3206   006AF8                     
  3207                           ;main_piee2.c: 523:     I2C_Write(0xD0);
  3208   006AF8  0ED0               	movlw	208
  3209   006AFA  EC45  F032         	call	_I2C_Write
  3210   006AFE                     
  3211                           ;main_piee2.c: 524:     I2C_Write(0x00);
  3212   006AFE  0E00               	movlw	0
  3213   006B00  EC45  F032         	call	_I2C_Write
  3214                           
  3215                           ;main_piee2.c: 525:     I2C_Restart();
  3216   006B04  EC01  F032         	call	_I2C_Restart	;wreg free
  3217   006B08                     
  3218                           ;main_piee2.c: 526:     I2C_Write(0xD1);
  3219   006B08  0ED1               	movlw	209
  3220   006B0A  EC45  F032         	call	_I2C_Write
  3221   006B0E                     
  3222                           ;main_piee2.c: 528:     rtc->sec = I2C_Read(1);
  3223   006B0E  0E01               	movlw	1
  3224   006B10  EC33  F033         	call	_I2C_Read
  3225   006B14  C003  FFD9         	movff	RTC_GetDateTime@rtc,fsr2l
  3226   006B18  C004  FFDA         	movff	RTC_GetDateTime@rtc+1,fsr2h
  3227   006B1C  6EDF               	movwf	indf2,c
  3228   006B1E                     
  3229                           ;main_piee2.c: 529:     rtc->min = I2C_Read(1);
  3230   006B1E  EE20 F001          	lfsr	2,1
  3231   006B22  5003               	movf	RTC_GetDateTime@rtc^0,w,c
  3232   006B24  26D9               	addwf	fsr2l,f,c
  3233   006B26  5004               	movf	(RTC_GetDateTime@rtc+1)^0,w,c
  3234   006B28  22DA               	addwfc	fsr2h,f,c
  3235   006B2A  0E01               	movlw	1
  3236   006B2C  EC33  F033         	call	_I2C_Read
  3237   006B30  6EDF               	movwf	indf2,c
  3238   006B32                     
  3239                           ;main_piee2.c: 530:     rtc->hour = I2C_Read(1);
  3240   006B32  EE20 F002          	lfsr	2,2
  3241   006B36  5003               	movf	RTC_GetDateTime@rtc^0,w,c
  3242   006B38  26D9               	addwf	fsr2l,f,c
  3243   006B3A  5004               	movf	(RTC_GetDateTime@rtc+1)^0,w,c
  3244   006B3C  22DA               	addwfc	fsr2h,f,c
  3245   006B3E  0E01               	movlw	1
  3246   006B40  EC33  F033         	call	_I2C_Read
  3247   006B44  6EDF               	movwf	indf2,c
  3248   006B46                     
  3249                           ;main_piee2.c: 531:     rtc->weekDay = I2C_Read(1);
  3250   006B46  EE20 F003          	lfsr	2,3
  3251   006B4A  5003               	movf	RTC_GetDateTime@rtc^0,w,c
  3252   006B4C  26D9               	addwf	fsr2l,f,c
  3253   006B4E  5004               	movf	(RTC_GetDateTime@rtc+1)^0,w,c
  3254   006B50  22DA               	addwfc	fsr2h,f,c
  3255   006B52  0E01               	movlw	1
  3256   006B54  EC33  F033         	call	_I2C_Read
  3257   006B58  6EDF               	movwf	indf2,c
  3258   006B5A                     
  3259                           ;main_piee2.c: 532:     rtc->date = I2C_Read(1);
  3260   006B5A  EE20 F004          	lfsr	2,4
  3261   006B5E  5003               	movf	RTC_GetDateTime@rtc^0,w,c
  3262   006B60  26D9               	addwf	fsr2l,f,c
  3263   006B62  5004               	movf	(RTC_GetDateTime@rtc+1)^0,w,c
  3264   006B64  22DA               	addwfc	fsr2h,f,c
  3265   006B66  0E01               	movlw	1
  3266   006B68  EC33  F033         	call	_I2C_Read
  3267   006B6C  6EDF               	movwf	indf2,c
  3268   006B6E                     
  3269                           ;main_piee2.c: 533:     rtc->month = I2C_Read(1);
  3270   006B6E  EE20 F005          	lfsr	2,5
  3271   006B72  5003               	movf	RTC_GetDateTime@rtc^0,w,c
  3272   006B74  26D9               	addwf	fsr2l,f,c
  3273   006B76  5004               	movf	(RTC_GetDateTime@rtc+1)^0,w,c
  3274   006B78  22DA               	addwfc	fsr2h,f,c
  3275   006B7A  0E01               	movlw	1
  3276   006B7C  EC33  F033         	call	_I2C_Read
  3277   006B80  6EDF               	movwf	indf2,c
  3278   006B82                     
  3279                           ;main_piee2.c: 534:     rtc->year = I2C_Read(0);
  3280   006B82  EE20 F006          	lfsr	2,6
  3281   006B86  5003               	movf	RTC_GetDateTime@rtc^0,w,c
  3282   006B88  26D9               	addwf	fsr2l,f,c
  3283   006B8A  5004               	movf	(RTC_GetDateTime@rtc+1)^0,w,c
  3284   006B8C  22DA               	addwfc	fsr2h,f,c
  3285   006B8E  0E00               	movlw	0
  3286   006B90  EC33  F033         	call	_I2C_Read
  3287   006B94  6EDF               	movwf	indf2,c
  3288   006B96                     
  3289                           ;main_piee2.c: 536:     I2C_Stop();
  3290   006B96  EC13  F032         	call	_I2C_Stop	;wreg free
  3291   006B9A  0012               	return		;funcret
  3292   006B9C                     __end_of_RTC_GetDateTime:
  3293                           	callstack 0
  3294                           
  3295 ;; *************** function _I2C_Write *****************
  3296 ;; Defined at:
  3297 ;;		line 126 in file "i2c.c"
  3298 ;; Parameters:    Size  Location     Type
  3299 ;;  v_i2cData_u8    1    wreg     unsigned char 
  3300 ;; Auto vars:     Size  Location     Type
  3301 ;;  v_i2cData_u8    1    0[COMRAM] unsigned char 
  3302 ;; Return value:  Size  Location     Type
  3303 ;;                  1    wreg      void 
  3304 ;; Registers used:
  3305 ;;		wreg, cstack
  3306 ;; Tracked objects:
  3307 ;;		On entry : 0/0
  3308 ;;		On exit  : 0/0
  3309 ;;		Unchanged: 0/0
  3310 ;; Data sizes:     COMRAM   BANK0   BANK1   BANK2   BANK3   BANK4   BANK5   BANK6   BANK7
  3311 ;;      Params:         0       0       0       0       0       0       0       0       0
  3312 ;;      Locals:         1       0       0       0       0       0       0       0       0
  3313 ;;      Temps:          0       0       0       0       0       0       0       0       0
  3314 ;;      Totals:         1       0       0       0       0       0       0       0       0
  3315 ;;Total ram usage:        1 bytes
  3316 ;; Hardware stack levels used: 1
  3317 ;; Hardware stack levels required when called: 1
  3318 ;; This function calls:
  3319 ;;		_i2c_WaitForIdle
  3320 ;; This function is called by:
  3321 ;;		_Ler_EEPROM
  3322 ;;		_Escrever_EEPROM
  3323 ;;		_RTC_Init
  3324 ;;		_RTC_GetDateTime
  3325 ;; This function uses a non-reentrant model
  3326 ;;
  3327                           
  3328                           	psect	text16
  3329   00648A                     __ptext16:
  3330                           	callstack 0
  3331   00648A                     _I2C_Write:
  3332                           	callstack 27
  3333                           
  3334                           ;incstack = 0
  3335                           ;I2C_Write@v_i2cData_u8 stored from wreg
  3336   00648A  6E01               	movwf	I2C_Write@v_i2cData_u8^0,c
  3337   00648C                     
  3338                           ;i2c.c: 126: void I2C_Write(uint8_t v_i2cData_u8);i2c.c: 127: {;i2c.c: 130:     SSPBUF =
      +                           v_i2cData_u8;
  3339   00648C  C001  FFC9         	movff	I2C_Write@v_i2cData_u8,4041	;volatile
  3340   006490                     l330:
  3341   006490  B0C7               	btfsc	4039,0,c	;volatile
  3342   006492  EF4D  F032         	goto	u1921
  3343   006496  EF4F  F032         	goto	u1920
  3344   00649A                     u1921:
  3345   00649A  EF48  F032         	goto	l330
  3346   00649E                     u1920:
  3347   00649E                     
  3348                           ;i2c.c: 132:     i2c_WaitForIdle();
  3349   00649E  ECB2  F033         	call	_i2c_WaitForIdle	;wreg free
  3350   0064A2  0012               	return		;funcret
  3351   0064A4                     __end_of_I2C_Write:
  3352                           	callstack 0
  3353                           
  3354 ;; *************** function _I2C_Stop *****************
  3355 ;; Defined at:
  3356 ;;		line 102 in file "i2c.c"
  3357 ;; Parameters:    Size  Location     Type
  3358 ;;		None
  3359 ;; Auto vars:     Size  Location     Type
  3360 ;;		None
  3361 ;; Return value:  Size  Location     Type
  3362 ;;                  1    wreg      void 
  3363 ;; Registers used:
  3364 ;;		None
  3365 ;; Tracked objects:
  3366 ;;		On entry : 0/0
  3367 ;;		On exit  : 0/0
  3368 ;;		Unchanged: 0/0
  3369 ;; Data sizes:     COMRAM   BANK0   BANK1   BANK2   BANK3   BANK4   BANK5   BANK6   BANK7
  3370 ;;      Params:         0       0       0       0       0       0       0       0       0
  3371 ;;      Locals:         0       0       0       0       0       0       0       0       0
  3372 ;;      Temps:          0       0       0       0       0       0       0       0       0
  3373 ;;      Totals:         0       0       0       0       0       0       0       0       0
  3374 ;;Total ram usage:        0 bytes
  3375 ;; Hardware stack levels used: 1
  3376 ;; This function calls:
  3377 ;;		Nothing
  3378 ;; This function is called by:
  3379 ;;		_Ler_EEPROM
  3380 ;;		_Escrever_EEPROM
  3381 ;;		_RTC_Init
  3382 ;;		_RTC_GetDateTime
  3383 ;; This function uses a non-reentrant model
  3384 ;;
  3385                           
  3386                           	psect	text17
  3387   006426                     __ptext17:
  3388                           	callstack 0
  3389   006426                     _I2C_Stop:
  3390                           	callstack 28
  3391   006426                     
  3392                           ;i2c.c: 104:  PEN = 1;
  3393   006426  84C5               	bsf	4037,2,c	;volatile
  3394   006428                     l324:
  3395   006428  B4C5               	btfsc	4037,2,c	;volatile
  3396   00642A  EF19  F032         	goto	u1961
  3397   00642E  EF1B  F032         	goto	u1960
  3398   006432                     u1961:
  3399   006432  EF14  F032         	goto	l324
  3400   006436                     u1960:
  3401   006436  0012               	return		;funcret
  3402   006438                     __end_of_I2C_Stop:
  3403                           	callstack 0
  3404                           
  3405 ;; *************** function _I2C_Start *****************
  3406 ;; Defined at:
  3407 ;;		line 78 in file "i2c.c"
  3408 ;; Parameters:    Size  Location     Type
  3409 ;;		None
  3410 ;; Auto vars:     Size  Location     Type
  3411 ;;		None
  3412 ;; Return value:  Size  Location     Type
  3413 ;;                  1    wreg      void 
  3414 ;; Registers used:
  3415 ;;		None
  3416 ;; Tracked objects:
  3417 ;;		On entry : 0/0
  3418 ;;		On exit  : 0/0
  3419 ;;		Unchanged: 0/0
  3420 ;; Data sizes:     COMRAM   BANK0   BANK1   BANK2   BANK3   BANK4   BANK5   BANK6   BANK7
  3421 ;;      Params:         0       0       0       0       0       0       0       0       0
  3422 ;;      Locals:         0       0       0       0       0       0       0       0       0
  3423 ;;      Temps:          0       0       0       0       0       0       0       0       0
  3424 ;;      Totals:         0       0       0       0       0       0       0       0       0
  3425 ;;Total ram usage:        0 bytes
  3426 ;; Hardware stack levels used: 1
  3427 ;; This function calls:
  3428 ;;		Nothing
  3429 ;; This function is called by:
  3430 ;;		_Ler_EEPROM
  3431 ;;		_Escrever_EEPROM
  3432 ;;		_RTC_Init
  3433 ;;		_RTC_GetDateTime
  3434 ;; This function uses a non-reentrant model
  3435 ;;
  3436                           
  3437                           	psect	text18
  3438   006414                     __ptext18:
  3439                           	callstack 0
  3440   006414                     _I2C_Start:
  3441                           	callstack 28
  3442   006414                     
  3443                           ;i2c.c: 80:  SSPCON2bits.SEN = 1;
  3444   006414  80C5               	bsf	197,0,c	;volatile
  3445   006416                     l318:
  3446   006416  B0C5               	btfsc	197,0,c	;volatile
  3447   006418  EF10  F032         	goto	u1911
  3448   00641C  EF12  F032         	goto	u1910
  3449   006420                     u1911:
  3450   006420  EF0B  F032         	goto	l318
  3451   006424                     u1910:
  3452   006424  0012               	return		;funcret
  3453   006426                     __end_of_I2C_Start:
  3454                           	callstack 0
  3455                           
  3456 ;; *************** function _I2C_Restart *****************
  3457 ;; Defined at:
  3458 ;;		line 33 in file "i2c.c"
  3459 ;; Parameters:    Size  Location     Type
  3460 ;;		None
  3461 ;; Auto vars:     Size  Location     Type
  3462 ;;		None
  3463 ;; Return value:  Size  Location     Type
  3464 ;;                  1    wreg      void 
  3465 ;; Registers used:
  3466 ;;		None
  3467 ;; Tracked objects:
  3468 ;;		On entry : 0/0
  3469 ;;		On exit  : 0/0
  3470 ;;		Unchanged: 0/0
  3471 ;; Data sizes:     COMRAM   BANK0   BANK1   BANK2   BANK3   BANK4   BANK5   BANK6   BANK7
  3472 ;;      Params:         0       0       0       0       0       0       0       0       0
  3473 ;;      Locals:         0       0       0       0       0       0       0       0       0
  3474 ;;      Temps:          0       0       0       0       0       0       0       0       0
  3475 ;;      Totals:         0       0       0       0       0       0       0       0       0
  3476 ;;Total ram usage:        0 bytes
  3477 ;; Hardware stack levels used: 1
  3478 ;; This function calls:
  3479 ;;		Nothing
  3480 ;; This function is called by:
  3481 ;;		_Ler_EEPROM
  3482 ;;		_RTC_GetDateTime
  3483 ;; This function uses a non-reentrant model
  3484 ;;
  3485                           
  3486                           	psect	text19
  3487   006402                     __ptext19:
  3488                           	callstack 0
  3489   006402                     _I2C_Restart:
  3490                           	callstack 27
  3491   006402                     
  3492                           ;i2c.c: 35:  RSEN = 1;
  3493   006402  82C5               	bsf	4037,1,c	;volatile
  3494   006404                     l309:
  3495   006404  B2C5               	btfsc	4037,1,c	;volatile
  3496   006406  EF07  F032         	goto	u1931
  3497   00640A  EF09  F032         	goto	u1930
  3498   00640E                     u1931:
  3499   00640E  EF02  F032         	goto	l309
  3500   006412                     u1930:
  3501   006412  0012               	return		;funcret
  3502   006414                     __end_of_I2C_Restart:
  3503                           	callstack 0
  3504                           
  3505 ;; *************** function _I2C_Read *****************
  3506 ;; Defined at:
  3507 ;;		line 155 in file "i2c.c"
  3508 ;; Parameters:    Size  Location     Type
  3509 ;;  v_ackOption_    1    wreg     unsigned char 
  3510 ;; Auto vars:     Size  Location     Type
  3511 ;;  v_ackOption_    1    0[COMRAM] unsigned char 
  3512 ;;  v_i2cData_u8    1    1[COMRAM] unsigned char 
  3513 ;; Return value:  Size  Location     Type
  3514 ;;                  1    wreg      unsigned char 
  3515 ;; Registers used:
  3516 ;;		wreg, status,2, status,0, cstack
  3517 ;; Tracked objects:
  3518 ;;		On entry : 0/0
  3519 ;;		On exit  : 0/0
  3520 ;;		Unchanged: 0/0
  3521 ;; Data sizes:     COMRAM   BANK0   BANK1   BANK2   BANK3   BANK4   BANK5   BANK6   BANK7
  3522 ;;      Params:         0       0       0       0       0       0       0       0       0
  3523 ;;      Locals:         2       0       0       0       0       0       0       0       0
  3524 ;;      Temps:          0       0       0       0       0       0       0       0       0
  3525 ;;      Totals:         2       0       0       0       0       0       0       0       0
  3526 ;;Total ram usage:        2 bytes
  3527 ;; Hardware stack levels used: 1
  3528 ;; Hardware stack levels required when called: 1
  3529 ;; This function calls:
  3530 ;;		_i2c_Ack
  3531 ;;		_i2c_NoAck
  3532 ;;		_i2c_WaitForIdle
  3533 ;; This function is called by:
  3534 ;;		_Ler_EEPROM
  3535 ;;		_RTC_GetDateTime
  3536 ;; This function uses a non-reentrant model
  3537 ;;
  3538                           
  3539                           	psect	text20
  3540   006666                     __ptext20:
  3541                           	callstack 0
  3542   006666                     _I2C_Read:
  3543                           	callstack 26
  3544                           
  3545                           ;incstack = 0
  3546                           ;I2C_Read@v_ackOption_u8 stored from wreg
  3547   006666  6E01               	movwf	I2C_Read@v_ackOption_u8^0,c
  3548   006668                     
  3549                           ;i2c.c: 159:  RCEN = 1;
  3550   006668  86C5               	bsf	4037,3,c	;volatile
  3551   00666A                     l336:
  3552   00666A  A0C7               	btfss	199,0,c	;volatile
  3553   00666C  EF3A  F033         	goto	u1941
  3554   006670  EF3C  F033         	goto	u1940
  3555   006674                     u1941:
  3556   006674  EF35  F033         	goto	l336
  3557   006678                     u1940:
  3558   006678                     
  3559                           ;i2c.c: 161:  v_i2cData_u8 = SSPBUF;
  3560   006678  CFC9 F002          	movff	4041,I2C_Read@v_i2cData_u8	;volatile
  3561   00667C                     
  3562                           ;i2c.c: 162:  i2c_WaitForIdle();
  3563   00667C  ECB2  F033         	call	_i2c_WaitForIdle	;wreg free
  3564   006680                     
  3565                           ;i2c.c: 164:  if(v_ackOption_u8==1)
  3566   006680  0401               	decf	I2C_Read@v_ackOption_u8^0,w,c
  3567   006682  A4D8               	btfss	status,2,c
  3568   006684  EF46  F033         	goto	u1951
  3569   006688  EF48  F033         	goto	u1950
  3570   00668C                     u1951:
  3571   00668C  EF4C  F033         	goto	l2624
  3572   006690                     u1950:
  3573   006690                     
  3574                           ;i2c.c: 165:  {;i2c.c: 166:   i2c_Ack();
  3575   006690  EC26  F032         	call	_i2c_Ack	;wreg free
  3576                           
  3577                           ;i2c.c: 167:  }
  3578   006694  EF4E  F033         	goto	l2626
  3579   006698                     l2624:
  3580                           
  3581                           ;i2c.c: 169:  {;i2c.c: 170:   i2c_NoAck();
  3582   006698  EC30  F032         	call	_i2c_NoAck	;wreg free
  3583   00669C                     l2626:
  3584                           
  3585                           ;i2c.c: 173:  return v_i2cData_u8;
  3586   00669C  5002               	movf	I2C_Read@v_i2cData_u8^0,w,c
  3587   00669E  0012               	return		;funcret
  3588   0066A0                     __end_of_I2C_Read:
  3589                           	callstack 0
  3590                           
  3591 ;; *************** function _i2c_WaitForIdle *****************
  3592 ;; Defined at:
  3593 ;;		line 186 in file "i2c.c"
  3594 ;; Parameters:    Size  Location     Type
  3595 ;;		None
  3596 ;; Auto vars:     Size  Location     Type
  3597 ;;		None
  3598 ;; Return value:  Size  Location     Type
  3599 ;;                  1    wreg      void 
  3600 ;; Registers used:
  3601 ;;		None
  3602 ;; Tracked objects:
  3603 ;;		On entry : 0/0
  3604 ;;		On exit  : 0/0
  3605 ;;		Unchanged: 0/0
  3606 ;; Data sizes:     COMRAM   BANK0   BANK1   BANK2   BANK3   BANK4   BANK5   BANK6   BANK7
  3607 ;;      Params:         0       0       0       0       0       0       0       0       0
  3608 ;;      Locals:         0       0       0       0       0       0       0       0       0
  3609 ;;      Temps:          0       0       0       0       0       0       0       0       0
  3610 ;;      Totals:         0       0       0       0       0       0       0       0       0
  3611 ;;Total ram usage:        0 bytes
  3612 ;; Hardware stack levels used: 1
  3613 ;; This function calls:
  3614 ;;		Nothing
  3615 ;; This function is called by:
  3616 ;;		_I2C_Write
  3617 ;;		_I2C_Read
  3618 ;; This function uses a non-reentrant model
  3619 ;;
  3620                           
  3621                           	psect	text21
  3622   006764                     __ptext21:
  3623                           	callstack 0
  3624   006764                     _i2c_WaitForIdle:
  3625                           	callstack 27
  3626   006764                     l344:
  3627   006764  B0C5               	btfsc	4037,0,c	;volatile
  3628   006766  EFB7  F033         	goto	u1751
  3629   00676A  EFB9  F033         	goto	u1750
  3630   00676E                     u1751:
  3631   00676E  EFB2  F033         	goto	l344
  3632   006772                     u1750:
  3633   006772  B2C5               	btfsc	4037,1,c	;volatile
  3634   006774  EFBE  F033         	goto	u1761
  3635   006778  EFC0  F033         	goto	u1760
  3636   00677C                     u1761:
  3637   00677C  EFB2  F033         	goto	l344
  3638   006780                     u1760:
  3639   006780  B4C5               	btfsc	4037,2,c	;volatile
  3640   006782  EFC5  F033         	goto	u1771
  3641   006786  EFC7  F033         	goto	u1770
  3642   00678A                     u1771:
  3643   00678A  EFB2  F033         	goto	l344
  3644   00678E                     u1770:
  3645   00678E  B6C5               	btfsc	4037,3,c	;volatile
  3646   006790  EFCC  F033         	goto	u1781
  3647   006794  EFCE  F033         	goto	u1780
  3648   006798                     u1781:
  3649   006798  EFB2  F033         	goto	l344
  3650   00679C                     u1780:
  3651   00679C  B4C7               	btfsc	4039,2,c	;volatile
  3652   00679E  EFD3  F033         	goto	u1791
  3653   0067A2  EFD5  F033         	goto	u1790
  3654   0067A6                     u1791:
  3655   0067A6  EFB2  F033         	goto	l344
  3656   0067AA                     u1790:
  3657   0067AA  0012               	return		;funcret
  3658   0067AC                     __end_of_i2c_WaitForIdle:
  3659                           	callstack 0
  3660                           
  3661 ;; *************** function _i2c_NoAck *****************
  3662 ;; Defined at:
  3663 ;;		line 218 in file "i2c.c"
  3664 ;; Parameters:    Size  Location     Type
  3665 ;;		None
  3666 ;; Auto vars:     Size  Location     Type
  3667 ;;		None
  3668 ;; Return value:  Size  Location     Type
  3669 ;;                  1    wreg      void 
  3670 ;; Registers used:
  3671 ;;		None
  3672 ;; Tracked objects:
  3673 ;;		On entry : 0/0
  3674 ;;		On exit  : 0/0
  3675 ;;		Unchanged: 0/0
  3676 ;; Data sizes:     COMRAM   BANK0   BANK1   BANK2   BANK3   BANK4   BANK5   BANK6   BANK7
  3677 ;;      Params:         0       0       0       0       0       0       0       0       0
  3678 ;;      Locals:         0       0       0       0       0       0       0       0       0
  3679 ;;      Temps:          0       0       0       0       0       0       0       0       0
  3680 ;;      Totals:         0       0       0       0       0       0       0       0       0
  3681 ;;Total ram usage:        0 bytes
  3682 ;; Hardware stack levels used: 1
  3683 ;; This function calls:
  3684 ;;		Nothing
  3685 ;; This function is called by:
  3686 ;;		_I2C_Read
  3687 ;; This function uses a non-reentrant model
  3688 ;;
  3689                           
  3690                           	psect	text22
  3691   006460                     __ptext22:
  3692                           	callstack 0
  3693   006460                     _i2c_NoAck:
  3694                           	callstack 26
  3695   006460                     
  3696                           ;i2c.c: 220:  ACKDT = 1;
  3697   006460  8AC5               	bsf	4037,5,c	;volatile
  3698                           
  3699                           ;i2c.c: 221:  ACKEN = 1;
  3700   006462  88C5               	bsf	4037,4,c	;volatile
  3701   006464                     l356:
  3702   006464  B8C5               	btfsc	4037,4,c	;volatile
  3703   006466  EF37  F032         	goto	u1811
  3704   00646A  EF39  F032         	goto	u1810
  3705   00646E                     u1811:
  3706   00646E  EF32  F032         	goto	l356
  3707   006472                     u1810:
  3708   006472  0012               	return		;funcret
  3709   006474                     __end_of_i2c_NoAck:
  3710                           	callstack 0
  3711                           
  3712 ;; *************** function _i2c_Ack *****************
  3713 ;; Defined at:
  3714 ;;		line 203 in file "i2c.c"
  3715 ;; Parameters:    Size  Location     Type
  3716 ;;		None
  3717 ;; Auto vars:     Size  Location     Type
  3718 ;;		None
  3719 ;; Return value:  Size  Location     Type
  3720 ;;                  1    wreg      void 
  3721 ;; Registers used:
  3722 ;;		None
  3723 ;; Tracked objects:
  3724 ;;		On entry : 0/0
  3725 ;;		On exit  : 0/0
  3726 ;;		Unchanged: 0/0
  3727 ;; Data sizes:     COMRAM   BANK0   BANK1   BANK2   BANK3   BANK4   BANK5   BANK6   BANK7
  3728 ;;      Params:         0       0       0       0       0       0       0       0       0
  3729 ;;      Locals:         0       0       0       0       0       0       0       0       0
  3730 ;;      Temps:          0       0       0       0       0       0       0       0       0
  3731 ;;      Totals:         0       0       0       0       0       0       0       0       0
  3732 ;;Total ram usage:        0 bytes
  3733 ;; Hardware stack levels used: 1
  3734 ;; This function calls:
  3735 ;;		Nothing
  3736 ;; This function is called by:
  3737 ;;		_I2C_Read
  3738 ;; This function uses a non-reentrant model
  3739 ;;
  3740                           
  3741                           	psect	text23
  3742   00644C                     __ptext23:
  3743                           	callstack 0
  3744   00644C                     _i2c_Ack:
  3745                           	callstack 26
  3746   00644C                     
  3747                           ;i2c.c: 205:  ACKDT = 0;
  3748   00644C  9AC5               	bcf	4037,5,c	;volatile
  3749                           
  3750                           ;i2c.c: 206:  ACKEN = 1;
  3751   00644E  88C5               	bsf	4037,4,c	;volatile
  3752   006450                     l350:
  3753   006450  B8C5               	btfsc	4037,4,c	;volatile
  3754   006452  EF2D  F032         	goto	u1801
  3755   006456  EF2F  F032         	goto	u1800
  3756   00645A                     u1801:
  3757   00645A  EF28  F032         	goto	l350
  3758   00645E                     u1800:
  3759   00645E  0012               	return		;funcret
  3760   006460                     __end_of_i2c_Ack:
  3761                           	callstack 0
  3762                           
  3763 ;; *************** function _LCD_String_xy *****************
  3764 ;; Defined at:
  3765 ;;		line 66 in file "lcd_4b.c"
  3766 ;; Parameters:    Size  Location     Type
  3767 ;;  row             1    wreg     unsigned char 
  3768 ;;  pos             1   10[COMRAM] unsigned char 
  3769 ;;  msg             2   11[COMRAM] PTR const unsigned char 
  3770 ;;		 -> STR_16(20), STR_14(20), STR_13(20), STR_11(16), 
  3771 ;;		 -> lcd_buffer(21), data_buffer(11), hora_buffer(9), STR_9(16), 
  3772 ;;		 -> STR_8(16), STR_7(18), STR_6(13), STR_5(18), 
  3773 ;;		 -> STR_4(15), STR_3(18), STR_2(20), STR_1(7), 
  3774 ;; Auto vars:     Size  Location     Type
  3775 ;;  row             1   13[COMRAM] unsigned char 
  3776 ;;  location        1   14[COMRAM] unsigned char 
  3777 ;; Return value:  Size  Location     Type
  3778 ;;                  1    wreg      void 
  3779 ;; Registers used:
  3780 ;;		wreg, fsr1l, fsr1h, status,2, status,0, tblptrl, tblptrh, tblptru, cstack
  3781 ;; Tracked objects:
  3782 ;;		On entry : 0/0
  3783 ;;		On exit  : 0/0
  3784 ;;		Unchanged: 0/0
  3785 ;; Data sizes:     COMRAM   BANK0   BANK1   BANK2   BANK3   BANK4   BANK5   BANK6   BANK7
  3786 ;;      Params:         3       0       0       0       0       0       0       0       0
  3787 ;;      Locals:         2       0       0       0       0       0       0       0       0
  3788 ;;      Temps:          0       0       0       0       0       0       0       0       0
  3789 ;;      Totals:         5       0       0       0       0       0       0       0       0
  3790 ;;Total ram usage:        5 bytes
  3791 ;; Hardware stack levels used: 1
  3792 ;; Hardware stack levels required when called: 3
  3793 ;; This function calls:
  3794 ;;		_LCD_Command
  3795 ;;		_LCD_String
  3796 ;; This function is called by:
  3797 ;;		_Display_Mensagens_Iniciais
  3798 ;;		_Atualizar_Display_Principal
  3799 ;; This function uses a non-reentrant model
  3800 ;;
  3801                           
  3802                           	psect	text24
  3803   006A66                     __ptext24:
  3804                           	callstack 0
  3805   006A66                     _LCD_String_xy:
  3806                           	callstack 26
  3807                           
  3808                           ;incstack = 0
  3809                           ;LCD_String_xy@row stored from wreg
  3810   006A66  6E0E               	movwf	LCD_String_xy@row^0,c
  3811   006A68                     
  3812                           ;lcd_4b.c: 69:     if(row==1)
  3813   006A68  040E               	decf	LCD_String_xy@row^0,w,c
  3814   006A6A  A4D8               	btfss	status,2,c
  3815   006A6C  EF3A  F035         	goto	u2021
  3816   006A70  EF3C  F035         	goto	u2020
  3817   006A74                     u2021:
  3818   006A74  EF43  F035         	goto	l2786
  3819   006A78                     u2020:
  3820   006A78                     
  3821                           ;lcd_4b.c: 70:     {;lcd_4b.c: 71:         location=(0x80) | ((pos) & 0x0f);
  3822   006A78  500B               	movf	LCD_String_xy@pos^0,w,c
  3823   006A7A  0B0F               	andlw	15
  3824   006A7C  0980               	iorlw	128
  3825   006A7E  6E0F               	movwf	LCD_String_xy@location^0,c
  3826   006A80                     
  3827                           ;lcd_4b.c: 72:         LCD_Command(location);
  3828   006A80  500F               	movf	LCD_String_xy@location^0,w,c
  3829   006A82  EC21  F034         	call	_LCD_Command
  3830   006A86                     l2786:
  3831                           
  3832                           ;lcd_4b.c: 74:     if(row==2)
  3833   006A86  0E02               	movlw	2
  3834   006A88  180E               	xorwf	LCD_String_xy@row^0,w,c
  3835   006A8A  A4D8               	btfss	status,2,c
  3836   006A8C  EF4A  F035         	goto	u2031
  3837   006A90  EF4C  F035         	goto	u2030
  3838   006A94                     u2031:
  3839   006A94  EF53  F035         	goto	l2792
  3840   006A98                     u2030:
  3841   006A98                     
  3842                           ;lcd_4b.c: 75:     {;lcd_4b.c: 76:         location=(0xC0) | ((pos) & 0x0f);
  3843   006A98  500B               	movf	LCD_String_xy@pos^0,w,c
  3844   006A9A  0B0F               	andlw	15
  3845   006A9C  09C0               	iorlw	192
  3846   006A9E  6E0F               	movwf	LCD_String_xy@location^0,c
  3847   006AA0                     
  3848                           ;lcd_4b.c: 77:         LCD_Command(location);
  3849   006AA0  500F               	movf	LCD_String_xy@location^0,w,c
  3850   006AA2  EC21  F034         	call	_LCD_Command
  3851   006AA6                     l2792:
  3852                           
  3853                           ;lcd_4b.c: 79:     if(row==3)
  3854   006AA6  0E03               	movlw	3
  3855   006AA8  180E               	xorwf	LCD_String_xy@row^0,w,c
  3856   006AAA  A4D8               	btfss	status,2,c
  3857   006AAC  EF5A  F035         	goto	u2041
  3858   006AB0  EF5C  F035         	goto	u2040
  3859   006AB4                     u2041:
  3860   006AB4  EF63  F035         	goto	l2798
  3861   006AB8                     u2040:
  3862   006AB8                     
  3863                           ;lcd_4b.c: 80:     {;lcd_4b.c: 81:         location=(0x94) | ((pos) & 0x0f);
  3864   006AB8  500B               	movf	LCD_String_xy@pos^0,w,c
  3865   006ABA  0B0F               	andlw	15
  3866   006ABC  0994               	iorlw	148
  3867   006ABE  6E0F               	movwf	LCD_String_xy@location^0,c
  3868   006AC0                     
  3869                           ;lcd_4b.c: 82:         LCD_Command(location);
  3870   006AC0  500F               	movf	LCD_String_xy@location^0,w,c
  3871   006AC2  EC21  F034         	call	_LCD_Command
  3872   006AC6                     l2798:
  3873                           
  3874                           ;lcd_4b.c: 84:     if(row==4)
  3875   006AC6  0E04               	movlw	4
  3876   006AC8  180E               	xorwf	LCD_String_xy@row^0,w,c
  3877   006ACA  A4D8               	btfss	status,2,c
  3878   006ACC  EF6A  F035         	goto	u2051
  3879   006AD0  EF6C  F035         	goto	u2050
  3880   006AD4                     u2051:
  3881   006AD4  EF73  F035         	goto	l2804
  3882   006AD8                     u2050:
  3883   006AD8                     
  3884                           ;lcd_4b.c: 85:     {;lcd_4b.c: 86:         location=(0xD4) | ((pos) & 0x0f);
  3885   006AD8  500B               	movf	LCD_String_xy@pos^0,w,c
  3886   006ADA  0B0F               	andlw	15
  3887   006ADC  09D4               	iorlw	212
  3888   006ADE  6E0F               	movwf	LCD_String_xy@location^0,c
  3889   006AE0                     
  3890                           ;lcd_4b.c: 87:         LCD_Command(location);
  3891   006AE0  500F               	movf	LCD_String_xy@location^0,w,c
  3892   006AE2  EC21  F034         	call	_LCD_Command
  3893   006AE6                     l2804:
  3894                           
  3895                           ;lcd_4b.c: 90:     LCD_String(msg);
  3896   006AE6  C00C  F009         	movff	LCD_String_xy@msg,LCD_String@msg
  3897   006AEA  C00D  F00A         	movff	LCD_String_xy@msg+1,LCD_String@msg+1
  3898   006AEE  ECBD  F034         	call	_LCD_String	;wreg free
  3899   006AF2  0012               	return		;funcret
  3900   006AF4                     __end_of_LCD_String_xy:
  3901                           	callstack 0
  3902                           
  3903 ;; *************** function _LCD_String *****************
  3904 ;; Defined at:
  3905 ;;		line 57 in file "lcd_4b.c"
  3906 ;; Parameters:    Size  Location     Type
  3907 ;;  msg             2    8[COMRAM] PTR const unsigned char 
  3908 ;;		 -> STR_16(20), STR_14(20), STR_13(20), STR_11(16), 
  3909 ;;		 -> lcd_buffer(21), data_buffer(11), hora_buffer(9), STR_9(16), 
  3910 ;;		 -> STR_8(16), STR_7(18), STR_6(13), STR_5(18), 
  3911 ;;		 -> STR_4(15), STR_3(18), STR_2(20), STR_1(7), 
  3912 ;; Auto vars:     Size  Location     Type
  3913 ;;		None
  3914 ;; Return value:  Size  Location     Type
  3915 ;;                  1    wreg      void 
  3916 ;; Registers used:
  3917 ;;		wreg, fsr1l, fsr1h, status,2, status,0, tblptrl, tblptrh, tblptru, cstack
  3918 ;; Tracked objects:
  3919 ;;		On entry : 0/0
  3920 ;;		On exit  : 0/0
  3921 ;;		Unchanged: 0/0
  3922 ;; Data sizes:     COMRAM   BANK0   BANK1   BANK2   BANK3   BANK4   BANK5   BANK6   BANK7
  3923 ;;      Params:         2       0       0       0       0       0       0       0       0
  3924 ;;      Locals:         0       0       0       0       0       0       0       0       0
  3925 ;;      Temps:          0       0       0       0       0       0       0       0       0
  3926 ;;      Totals:         2       0       0       0       0       0       0       0       0
  3927 ;;Total ram usage:        2 bytes
  3928 ;; Hardware stack levels used: 1
  3929 ;; Hardware stack levels required when called: 2
  3930 ;; This function calls:
  3931 ;;		_LCD_Char
  3932 ;; This function is called by:
  3933 ;;		_LCD_String_xy
  3934 ;; This function uses a non-reentrant model
  3935 ;;
  3936                           
  3937                           	psect	text25
  3938   00697A                     __ptext25:
  3939                           	callstack 0
  3940   00697A                     _LCD_String:
  3941                           	callstack 26
  3942   00697A                     
  3943                           ;lcd_4b.c: 57: void LCD_String(const char *msg);lcd_4b.c: 58: {;lcd_4b.c: 59:  while((*m
      +                          sg)!=0)
  3944   00697A  EFD3  F034         	goto	l2736
  3945   00697E                     l2732:
  3946                           
  3947                           ;lcd_4b.c: 60:  {;lcd_4b.c: 61:    LCD_Char(*msg);
  3948   00697E  C009  FFF6         	movff	LCD_String@msg,tblptrl
  3949   006982  C00A  FFF7         	movff	LCD_String@msg+1,tblptrh
  3950   006986  6AF8               	clrf	tblptru,c
  3951   006988  0E07               	movlw	(high __ramtop+-1)
  3952   00698A  64F7               	cpfsgt	tblptrh,c
  3953   00698C  D003               	bra	u1987
  3954   00698E  0008               	tblrd		*
  3955   006990  50F5               	movf	tablat,w,c
  3956   006992  D005               	bra	u1980
  3957   006994                     u1987:
  3958   006994  CFF6 FFE1          	movff	tblptrl,fsr1l
  3959   006998  CFF7 FFE2          	movff	tblptrh,fsr1h
  3960   00699C  50E7               	movf	indf1,w,c
  3961   00699E                     u1980:
  3962   00699E  EC47  F034         	call	_LCD_Char
  3963   0069A2                     
  3964                           ;lcd_4b.c: 62:    msg++;
  3965   0069A2  4A09               	infsnz	LCD_String@msg^0,f,c
  3966   0069A4  2A0A               	incf	(LCD_String@msg+1)^0,f,c
  3967   0069A6                     l2736:
  3968                           
  3969                           ;lcd_4b.c: 59:  while((*msg)!=0)
  3970   0069A6  C009  FFF6         	movff	LCD_String@msg,tblptrl
  3971   0069AA  C00A  FFF7         	movff	LCD_String@msg+1,tblptrh
  3972   0069AE  6AF8               	clrf	tblptru,c
  3973   0069B0  0E07               	movlw	(high __ramtop+-1)
  3974   0069B2  64F7               	cpfsgt	tblptrh,c
  3975   0069B4  D003               	bra	u1997
  3976   0069B6  0008               	tblrd		*
  3977   0069B8  50F5               	movf	tablat,w,c
  3978   0069BA  D005               	bra	u1990
  3979   0069BC                     u1997:
  3980   0069BC  CFF6 FFE1          	movff	tblptrl,fsr1l
  3981   0069C0  CFF7 FFE2          	movff	tblptrh,fsr1h
  3982   0069C4  50E7               	movf	indf1,w,c
  3983   0069C6                     u1990:
  3984   0069C6  0900               	iorlw	0
  3985   0069C8  A4D8               	btfss	status,2,c
  3986   0069CA  EFE9  F034         	goto	u2001
  3987   0069CE  EFEB  F034         	goto	u2000
  3988   0069D2                     u2001:
  3989   0069D2  EFBF  F034         	goto	l2732
  3990   0069D6                     u2000:
  3991   0069D6  0012               	return		;funcret
  3992   0069D8                     __end_of_LCD_String:
  3993                           	callstack 0
  3994                           
  3995 ;; *************** function _LCD_Char *****************
  3996 ;; Defined at:
  3997 ;;		line 42 in file "lcd_4b.c"
  3998 ;; Parameters:    Size  Location     Type
  3999 ;;  dat             1    wreg     unsigned char 
  4000 ;; Auto vars:     Size  Location     Type
  4001 ;;  dat             1    7[COMRAM] unsigned char 
  4002 ;; Return value:  Size  Location     Type
  4003 ;;                  1    wreg      void 
  4004 ;; Registers used:
  4005 ;;		wreg, status,2, status,0, cstack
  4006 ;; Tracked objects:
  4007 ;;		On entry : 0/0
  4008 ;;		On exit  : 0/0
  4009 ;;		Unchanged: 0/0
  4010 ;; Data sizes:     COMRAM   BANK0   BANK1   BANK2   BANK3   BANK4   BANK5   BANK6   BANK7
  4011 ;;      Params:         0       0       0       0       0       0       0       0       0
  4012 ;;      Locals:         1       0       0       0       0       0       0       0       0
  4013 ;;      Temps:          1       0       0       0       0       0       0       0       0
  4014 ;;      Totals:         2       0       0       0       0       0       0       0       0
  4015 ;;Total ram usage:        2 bytes
  4016 ;; Hardware stack levels used: 1
  4017 ;; Hardware stack levels required when called: 1
  4018 ;; This function calls:
  4019 ;;		_MSdelay
  4020 ;; This function is called by:
  4021 ;;		_LCD_String
  4022 ;; This function uses a non-reentrant model
  4023 ;;
  4024                           
  4025                           	psect	text26
  4026   00688E                     __ptext26:
  4027                           	callstack 0
  4028   00688E                     _LCD_Char:
  4029                           	callstack 26
  4030                           
  4031                           ;incstack = 0
  4032                           ;LCD_Char@dat stored from wreg
  4033   00688E  6E08               	movwf	LCD_Char@dat^0,c
  4034   006890                     
  4035                           ;lcd_4b.c: 42: void LCD_Char(unsigned char dat);lcd_4b.c: 43: {;lcd_4b.c: 44:  LATB = (L
      +                          ATB & 0x0f) | (0xF0 & dat);
  4036   006890  C008  F007         	movff	LCD_Char@dat,??_LCD_Char
  4037   006894  0EF0               	movlw	240
  4038   006896  1607               	andwf	??_LCD_Char^0,f,c
  4039   006898  508A               	movf	138,w,c	;volatile
  4040   00689A  0B0F               	andlw	15
  4041   00689C  1007               	iorwf	??_LCD_Char^0,w,c
  4042   00689E  6E8A               	movwf	138,c	;volatile
  4043   0068A0                     
  4044                           ;lcd_4b.c: 45:  LATB2 = 1;
  4045   0068A0  848A               	bsf	3978,2,c	;volatile
  4046   0068A2                     
  4047                           ;lcd_4b.c: 46:  LATB3 = 1;
  4048   0068A2  868A               	bsf	3978,3,c	;volatile
  4049   0068A4                     
  4050                           ;lcd_4b.c: 47:  __nop();
  4051   0068A4  F000               	nop	
  4052   0068A6                     
  4053                           ;lcd_4b.c: 48:  LATB3 = 0;
  4054   0068A6  968A               	bcf	3978,3,c	;volatile
  4055   0068A8                     
  4056                           ;lcd_4b.c: 49:  MSdelay(1);
  4057   0068A8  0E00               	movlw	0
  4058   0068AA  6E02               	movwf	(MSdelay@val+1)^0,c
  4059   0068AC  0E01               	movlw	1
  4060   0068AE  6E01               	movwf	MSdelay@val^0,c
  4061   0068B0  ECD6  F033         	call	_MSdelay	;wreg free
  4062   0068B4                     
  4063                           ;lcd_4b.c: 50:     LATB = (LATB & 0x0f) | (dat<<4);
  4064   0068B4  C008  F007         	movff	LCD_Char@dat,??_LCD_Char
  4065   0068B8  3A07               	swapf	??_LCD_Char^0,f,c
  4066   0068BA  0EF0               	movlw	240
  4067   0068BC  1607               	andwf	??_LCD_Char^0,f,c
  4068   0068BE  508A               	movf	138,w,c	;volatile
  4069   0068C0  0B0F               	andlw	15
  4070   0068C2  1007               	iorwf	??_LCD_Char^0,w,c
  4071   0068C4  6E8A               	movwf	138,c	;volatile
  4072   0068C6                     
  4073                           ;lcd_4b.c: 51:  LATB3 = 1;
  4074   0068C6  868A               	bsf	3978,3,c	;volatile
  4075   0068C8                     
  4076                           ;lcd_4b.c: 52:  __nop();
  4077   0068C8  F000               	nop	
  4078   0068CA                     
  4079                           ;lcd_4b.c: 53:  LATB3 = 0;
  4080   0068CA  968A               	bcf	3978,3,c	;volatile
  4081                           
  4082                           ;lcd_4b.c: 54:  MSdelay(3);
  4083   0068CC  0E00               	movlw	0
  4084   0068CE  6E02               	movwf	(MSdelay@val+1)^0,c
  4085   0068D0  0E03               	movlw	3
  4086   0068D2  6E01               	movwf	MSdelay@val^0,c
  4087   0068D4  ECD6  F033         	call	_MSdelay	;wreg free
  4088   0068D8  0012               	return		;funcret
  4089   0068DA                     __end_of_LCD_Char:
  4090                           	callstack 0
  4091                           
  4092 ;; *************** function _LCD_Clear *****************
  4093 ;; Defined at:
  4094 ;;		line 93 in file "lcd_4b.c"
  4095 ;; Parameters:    Size  Location     Type
  4096 ;;		None
  4097 ;; Auto vars:     Size  Location     Type
  4098 ;;		None
  4099 ;; Return value:  Size  Location     Type
  4100 ;;                  1    wreg      void 
  4101 ;; Registers used:
  4102 ;;		wreg, status,2, status,0, cstack
  4103 ;; Tracked objects:
  4104 ;;		On entry : 0/0
  4105 ;;		On exit  : 0/0
  4106 ;;		Unchanged: 0/0
  4107 ;; Data sizes:     COMRAM   BANK0   BANK1   BANK2   BANK3   BANK4   BANK5   BANK6   BANK7
  4108 ;;      Params:         0       0       0       0       0       0       0       0       0
  4109 ;;      Locals:         0       0       0       0       0       0       0       0       0
  4110 ;;      Temps:          0       0       0       0       0       0       0       0       0
  4111 ;;      Totals:         0       0       0       0       0       0       0       0       0
  4112 ;;Total ram usage:        0 bytes
  4113 ;; Hardware stack levels used: 1
  4114 ;; Hardware stack levels required when called: 2
  4115 ;; This function calls:
  4116 ;;		_LCD_Command
  4117 ;;		_MSdelay
  4118 ;; This function is called by:
  4119 ;;		_Display_Mensagens_Iniciais
  4120 ;; This function uses a non-reentrant model
  4121 ;;
  4122                           
  4123                           	psect	text27
  4124   006438                     __ptext27:
  4125                           	callstack 0
  4126   006438                     _LCD_Clear:
  4127                           	callstack 27
  4128   006438                     
  4129                           ;lcd_4b.c: 95:     LCD_Command(0x01);
  4130   006438  0E01               	movlw	1
  4131   00643A  EC21  F034         	call	_LCD_Command
  4132                           
  4133                           ;lcd_4b.c: 96:     MSdelay(3);
  4134   00643E  0E00               	movlw	0
  4135   006440  6E02               	movwf	(MSdelay@val+1)^0,c
  4136   006442  0E03               	movlw	3
  4137   006444  6E01               	movwf	MSdelay@val^0,c
  4138   006446  ECD6  F033         	call	_MSdelay	;wreg free
  4139   00644A  0012               	return		;funcret
  4140   00644C                     __end_of_LCD_Clear:
  4141                           	callstack 0
  4142                           
  4143 ;; *************** function _LCD_Command *****************
  4144 ;; Defined at:
  4145 ;;		line 26 in file "lcd_4b.c"
  4146 ;; Parameters:    Size  Location     Type
  4147 ;;  cmd             1    wreg     unsigned char 
  4148 ;; Auto vars:     Size  Location     Type
  4149 ;;  cmd             1    7[COMRAM] unsigned char 
  4150 ;; Return value:  Size  Location     Type
  4151 ;;                  1    wreg      void 
  4152 ;; Registers used:
  4153 ;;		wreg, status,2, status,0, cstack
  4154 ;; Tracked objects:
  4155 ;;		On entry : 0/0
  4156 ;;		On exit  : 0/0
  4157 ;;		Unchanged: 0/0
  4158 ;; Data sizes:     COMRAM   BANK0   BANK1   BANK2   BANK3   BANK4   BANK5   BANK6   BANK7
  4159 ;;      Params:         0       0       0       0       0       0       0       0       0
  4160 ;;      Locals:         1       0       0       0       0       0       0       0       0
  4161 ;;      Temps:          1       0       0       0       0       0       0       0       0
  4162 ;;      Totals:         2       0       0       0       0       0       0       0       0
  4163 ;;Total ram usage:        2 bytes
  4164 ;; Hardware stack levels used: 1
  4165 ;; Hardware stack levels required when called: 1
  4166 ;; This function calls:
  4167 ;;		_MSdelay
  4168 ;; This function is called by:
  4169 ;;		_LCD_Init
  4170 ;;		_LCD_String_xy
  4171 ;;		_LCD_Clear
  4172 ;; This function uses a non-reentrant model
  4173 ;;
  4174                           
  4175                           	psect	text28
  4176   006842                     __ptext28:
  4177                           	callstack 0
  4178   006842                     _LCD_Command:
  4179                           	callstack 27
  4180                           
  4181                           ;incstack = 0
  4182                           ;LCD_Command@cmd stored from wreg
  4183   006842  6E08               	movwf	LCD_Command@cmd^0,c
  4184   006844                     
  4185                           ;lcd_4b.c: 26: void LCD_Command(unsigned char cmd );lcd_4b.c: 27: {;lcd_4b.c: 28:  LATB 
      +                          = (LATB & 0x0f) |(0xF0 & cmd);
  4186   006844  C008  F007         	movff	LCD_Command@cmd,??_LCD_Command
  4187   006848  0EF0               	movlw	240
  4188   00684A  1607               	andwf	??_LCD_Command^0,f,c
  4189   00684C  508A               	movf	138,w,c	;volatile
  4190   00684E  0B0F               	andlw	15
  4191   006850  1007               	iorwf	??_LCD_Command^0,w,c
  4192   006852  6E8A               	movwf	138,c	;volatile
  4193   006854                     
  4194                           ;lcd_4b.c: 29:  LATB2 = 0;
  4195   006854  948A               	bcf	3978,2,c	;volatile
  4196   006856                     
  4197                           ;lcd_4b.c: 30:  LATB3 = 1;
  4198   006856  868A               	bsf	3978,3,c	;volatile
  4199   006858                     
  4200                           ;lcd_4b.c: 31:  __nop();
  4201   006858  F000               	nop	
  4202   00685A                     
  4203                           ;lcd_4b.c: 32:  LATB3 = 0;
  4204   00685A  968A               	bcf	3978,3,c	;volatile
  4205   00685C                     
  4206                           ;lcd_4b.c: 33:  MSdelay(1);
  4207   00685C  0E00               	movlw	0
  4208   00685E  6E02               	movwf	(MSdelay@val+1)^0,c
  4209   006860  0E01               	movlw	1
  4210   006862  6E01               	movwf	MSdelay@val^0,c
  4211   006864  ECD6  F033         	call	_MSdelay	;wreg free
  4212   006868                     
  4213                           ;lcd_4b.c: 34:     LATB = (LATB & 0x0f) | (cmd<<4);
  4214   006868  C008  F007         	movff	LCD_Command@cmd,??_LCD_Command
  4215   00686C  3A07               	swapf	??_LCD_Command^0,f,c
  4216   00686E  0EF0               	movlw	240
  4217   006870  1607               	andwf	??_LCD_Command^0,f,c
  4218   006872  508A               	movf	138,w,c	;volatile
  4219   006874  0B0F               	andlw	15
  4220   006876  1007               	iorwf	??_LCD_Command^0,w,c
  4221   006878  6E8A               	movwf	138,c	;volatile
  4222   00687A                     
  4223                           ;lcd_4b.c: 35:  LATB3 = 1;
  4224   00687A  868A               	bsf	3978,3,c	;volatile
  4225   00687C                     
  4226                           ;lcd_4b.c: 36:  __nop();
  4227   00687C  F000               	nop	
  4228   00687E                     
  4229                           ;lcd_4b.c: 37:  LATB3 = 0;
  4230   00687E  968A               	bcf	3978,3,c	;volatile
  4231                           
  4232                           ;lcd_4b.c: 38:  MSdelay(3);
  4233   006880  0E00               	movlw	0
  4234   006882  6E02               	movwf	(MSdelay@val+1)^0,c
  4235   006884  0E03               	movlw	3
  4236   006886  6E01               	movwf	MSdelay@val^0,c
  4237   006888  ECD6  F033         	call	_MSdelay	;wreg free
  4238   00688C  0012               	return		;funcret
  4239   00688E                     __end_of_LCD_Command:
  4240                           	callstack 0
  4241                           
  4242 ;; *************** function _Format_Hora *****************
  4243 ;; Defined at:
  4244 ;;		line 539 in file "main_piee2.c"
  4245 ;; Parameters:    Size  Location     Type
  4246 ;;  buffer          2   90[COMRAM] PTR unsigned char 
  4247 ;;		 -> hora_buffer(9), 
  4248 ;;  rtc             2   92[COMRAM] PTR struct .
  4249 ;;		 -> rtc(7), 
  4250 ;; Auto vars:     Size  Location     Type
  4251 ;;  seg             1    4[BANK0 ] unsigned char 
  4252 ;;  min             1    3[BANK0 ] unsigned char 
  4253 ;;  hora            1    2[BANK0 ] unsigned char 
  4254 ;; Return value:  Size  Location     Type
  4255 ;;                  1    wreg      void 
  4256 ;; Registers used:
  4257 ;;		wreg, fsr1l, fsr1h, fsr2l, fsr2h, status,2, status,0, tblptrl, tblptrh, tblptru, prodl, prodh, cstack
  4258 ;; Tracked objects:
  4259 ;;		On entry : 0/0
  4260 ;;		On exit  : 0/0
  4261 ;;		Unchanged: 0/0
  4262 ;; Data sizes:     COMRAM   BANK0   BANK1   BANK2   BANK3   BANK4   BANK5   BANK6   BANK7
  4263 ;;      Params:         4       0       0       0       0       0       0       0       0
  4264 ;;      Locals:         0       3       0       0       0       0       0       0       0
  4265 ;;      Temps:          0       2       0       0       0       0       0       0       0
  4266 ;;      Totals:         4       5       0       0       0       0       0       0       0
  4267 ;;Total ram usage:        9 bytes
  4268 ;; Hardware stack levels used: 1
  4269 ;; Hardware stack levels required when called: 8
  4270 ;; This function calls:
  4271 ;;		_sprintf
  4272 ;; This function is called by:
  4273 ;;		_Display_Mensagens_Iniciais
  4274 ;;		_Atualizar_Display_Principal
  4275 ;; This function uses a non-reentrant model
  4276 ;;
  4277                           
  4278                           	psect	text29
  4279   006CFA                     __ptext29:
  4280                           	callstack 0
  4281   006CFA                     _Format_Hora:
  4282                           	callstack 21
  4283   006CFA                     
  4284                           ;main_piee2.c: 541:     uint8_t hora = ((rtc->hour >> 4) * 10) + (rtc->hour & 0x0F);
  4285   006CFA  EE20 F002          	lfsr	2,2
  4286   006CFE  505D               	movf	Format_Hora@rtc^0,w,c
  4287   006D00  26D9               	addwf	fsr2l,f,c
  4288   006D02  505E               	movf	(Format_Hora@rtc+1)^0,w,c
  4289   006D04  22DA               	addwfc	fsr2h,f,c
  4290   006D06  50DF               	movf	indf2,w,c
  4291   006D08  0100               	movlb	0	; () banked
  4292   006D0A  6FD1               	movwf	??_Format_Hora& (0+255),b
  4293   006D0C  0E0F               	movlw	15
  4294   006D0E  17D1               	andwf	??_Format_Hora& (0+255),f,b
  4295   006D10  EE20 F002          	lfsr	2,2
  4296   006D14  505D               	movf	Format_Hora@rtc^0,w,c
  4297   006D16  26D9               	addwf	fsr2l,f,c
  4298   006D18  505E               	movf	(Format_Hora@rtc+1)^0,w,c
  4299   006D1A  22DA               	addwfc	fsr2h,f,c
  4300   006D1C  50DF               	movf	indf2,w,c
  4301   006D1E  6FD2               	movwf	(??_Format_Hora+1)& (0+255),b
  4302   006D20  39D2               	swapf	(??_Format_Hora+1)& (0+255),w,b
  4303   006D22  0B0F               	andlw	15
  4304   006D24  0D0A               	mullw	10
  4305   006D26  50F3               	movf	243,w,c
  4306   006D28  25D1               	addwf	??_Format_Hora& (0+255),w,b
  4307   006D2A  6FD3               	movwf	Format_Hora@hora& (0+255),b
  4308                           
  4309                           ;main_piee2.c: 542:     uint8_t min = ((rtc->min >> 4) * 10) + (rtc->min & 0x0F);
  4310   006D2C  EE20 F001          	lfsr	2,1
  4311   006D30  505D               	movf	Format_Hora@rtc^0,w,c
  4312   006D32  26D9               	addwf	fsr2l,f,c
  4313   006D34  505E               	movf	(Format_Hora@rtc+1)^0,w,c
  4314   006D36  22DA               	addwfc	fsr2h,f,c
  4315   006D38  50DF               	movf	indf2,w,c
  4316   006D3A  6FD1               	movwf	??_Format_Hora& (0+255),b
  4317   006D3C  0E0F               	movlw	15
  4318   006D3E  17D1               	andwf	??_Format_Hora& (0+255),f,b
  4319   006D40  EE20 F001          	lfsr	2,1
  4320   006D44  505D               	movf	Format_Hora@rtc^0,w,c
  4321   006D46  26D9               	addwf	fsr2l,f,c
  4322   006D48  505E               	movf	(Format_Hora@rtc+1)^0,w,c
  4323   006D4A  22DA               	addwfc	fsr2h,f,c
  4324   006D4C  50DF               	movf	indf2,w,c
  4325   006D4E  6FD2               	movwf	(??_Format_Hora+1)& (0+255),b
  4326   006D50  39D2               	swapf	(??_Format_Hora+1)& (0+255),w,b
  4327   006D52  0B0F               	andlw	15
  4328   006D54  0D0A               	mullw	10
  4329   006D56  50F3               	movf	243,w,c
  4330   006D58  25D1               	addwf	??_Format_Hora& (0+255),w,b
  4331   006D5A  6FD4               	movwf	Format_Hora@min& (0+255),b
  4332                           
  4333                           ;main_piee2.c: 543:     uint8_t seg = ((rtc->sec >> 4) * 10) + (rtc->sec & 0x0F);
  4334   006D5C  C05D  FFD9         	movff	Format_Hora@rtc,fsr2l
  4335   006D60  C05E  FFDA         	movff	Format_Hora@rtc+1,fsr2h
  4336   006D64  50DF               	movf	indf2,w,c
  4337   006D66  6FD1               	movwf	??_Format_Hora& (0+255),b
  4338   006D68  0E0F               	movlw	15
  4339   006D6A  17D1               	andwf	??_Format_Hora& (0+255),f,b
  4340   006D6C  C05D  FFD9         	movff	Format_Hora@rtc,fsr2l
  4341   006D70  C05E  FFDA         	movff	Format_Hora@rtc+1,fsr2h
  4342   006D74  50DF               	movf	indf2,w,c
  4343   006D76  6FD2               	movwf	(??_Format_Hora+1)& (0+255),b
  4344   006D78  39D2               	swapf	(??_Format_Hora+1)& (0+255),w,b
  4345   006D7A  0B0F               	andlw	15
  4346   006D7C  0D0A               	mullw	10
  4347   006D7E  50F3               	movf	243,w,c
  4348   006D80  25D1               	addwf	??_Format_Hora& (0+255),w,b
  4349   006D82  6FD5               	movwf	Format_Hora@seg& (0+255),b
  4350   006D84                     
  4351                           ; BSR set to: 0
  4352                           ;main_piee2.c: 545:     sprintf(buffer, "%02d:%02d:%02d", hora, min, seg);
  4353   006D84  C05B  F043         	movff	Format_Hora@buffer,sprintf@s
  4354   006D88  C05C  F044         	movff	Format_Hora@buffer+1,sprintf@s+1
  4355   006D8C  0EB4               	movlw	low STR_23
  4356   006D8E  6E45               	movwf	sprintf@fmt^0,c
  4357   006D90  0E7F               	movlw	high STR_23
  4358   006D92  6E46               	movwf	(sprintf@fmt+1)^0,c
  4359   006D94  C0D3  F047         	movff	Format_Hora@hora,?_sprintf+4
  4360   006D98  6A48               	clrf	(?_sprintf+5)^0,c
  4361   006D9A  C0D4  F049         	movff	Format_Hora@min,?_sprintf+6
  4362   006D9E  6A4A               	clrf	(?_sprintf+7)^0,c
  4363   006DA0  C0D5  F04B         	movff	Format_Hora@seg,?_sprintf+8
  4364   006DA4  6A4C               	clrf	(?_sprintf+9)^0,c
  4365   006DA6  ECFB  F033         	call	_sprintf	;wreg free
  4366   006DAA  0012               	return		;funcret
  4367   006DAC                     __end_of_Format_Hora:
  4368                           	callstack 0
  4369                           
  4370 ;; *************** function _Format_Data *****************
  4371 ;; Defined at:
  4372 ;;		line 548 in file "main_piee2.c"
  4373 ;; Parameters:    Size  Location     Type
  4374 ;;  buffer          2   90[COMRAM] PTR unsigned char 
  4375 ;;		 -> data_buffer(11), 
  4376 ;;  rtc             2   92[COMRAM] PTR struct .
  4377 ;;		 -> rtc(7), 
  4378 ;; Auto vars:     Size  Location     Type
  4379 ;;  ano             1    4[BANK0 ] unsigned char 
  4380 ;;  mes             1    3[BANK0 ] unsigned char 
  4381 ;;  dia             1    2[BANK0 ] unsigned char 
  4382 ;; Return value:  Size  Location     Type
  4383 ;;                  1    wreg      void 
  4384 ;; Registers used:
  4385 ;;		wreg, fsr1l, fsr1h, fsr2l, fsr2h, status,2, status,0, tblptrl, tblptrh, tblptru, prodl, prodh, cstack
  4386 ;; Tracked objects:
  4387 ;;		On entry : 0/0
  4388 ;;		On exit  : 0/0
  4389 ;;		Unchanged: 0/0
  4390 ;; Data sizes:     COMRAM   BANK0   BANK1   BANK2   BANK3   BANK4   BANK5   BANK6   BANK7
  4391 ;;      Params:         4       0       0       0       0       0       0       0       0
  4392 ;;      Locals:         0       3       0       0       0       0       0       0       0
  4393 ;;      Temps:          0       2       0       0       0       0       0       0       0
  4394 ;;      Totals:         4       5       0       0       0       0       0       0       0
  4395 ;;Total ram usage:        9 bytes
  4396 ;; Hardware stack levels used: 1
  4397 ;; Hardware stack levels required when called: 8
  4398 ;; This function calls:
  4399 ;;		_sprintf
  4400 ;; This function is called by:
  4401 ;;		_Display_Mensagens_Iniciais
  4402 ;;		_Atualizar_Display_Principal
  4403 ;; This function uses a non-reentrant model
  4404 ;;
  4405                           
  4406                           	psect	text30
  4407   006DAC                     __ptext30:
  4408                           	callstack 0
  4409   006DAC                     _Format_Data:
  4410                           	callstack 21
  4411   006DAC                     
  4412                           ;main_piee2.c: 550:     uint8_t dia = ((rtc->date >> 4) * 10) + (rtc->date & 0x0F);
  4413   006DAC  EE20 F004          	lfsr	2,4
  4414   006DB0  505D               	movf	Format_Data@rtc^0,w,c
  4415   006DB2  26D9               	addwf	fsr2l,f,c
  4416   006DB4  505E               	movf	(Format_Data@rtc+1)^0,w,c
  4417   006DB6  22DA               	addwfc	fsr2h,f,c
  4418   006DB8  50DF               	movf	indf2,w,c
  4419   006DBA  0100               	movlb	0	; () banked
  4420   006DBC  6FD1               	movwf	??_Format_Data& (0+255),b
  4421   006DBE  0E0F               	movlw	15
  4422   006DC0  17D1               	andwf	??_Format_Data& (0+255),f,b
  4423   006DC2  EE20 F004          	lfsr	2,4
  4424   006DC6  505D               	movf	Format_Data@rtc^0,w,c
  4425   006DC8  26D9               	addwf	fsr2l,f,c
  4426   006DCA  505E               	movf	(Format_Data@rtc+1)^0,w,c
  4427   006DCC  22DA               	addwfc	fsr2h,f,c
  4428   006DCE  50DF               	movf	indf2,w,c
  4429   006DD0  6FD2               	movwf	(??_Format_Data+1)& (0+255),b
  4430   006DD2  39D2               	swapf	(??_Format_Data+1)& (0+255),w,b
  4431   006DD4  0B0F               	andlw	15
  4432   006DD6  0D0A               	mullw	10
  4433   006DD8  50F3               	movf	243,w,c
  4434   006DDA  25D1               	addwf	??_Format_Data& (0+255),w,b
  4435   006DDC  6FD3               	movwf	Format_Data@dia& (0+255),b
  4436                           
  4437                           ;main_piee2.c: 551:     uint8_t mes = ((rtc->month >> 4) * 10) + (rtc->month & 0x0F);
  4438   006DDE  EE20 F005          	lfsr	2,5
  4439   006DE2  505D               	movf	Format_Data@rtc^0,w,c
  4440   006DE4  26D9               	addwf	fsr2l,f,c
  4441   006DE6  505E               	movf	(Format_Data@rtc+1)^0,w,c
  4442   006DE8  22DA               	addwfc	fsr2h,f,c
  4443   006DEA  50DF               	movf	indf2,w,c
  4444   006DEC  6FD1               	movwf	??_Format_Data& (0+255),b
  4445   006DEE  0E0F               	movlw	15
  4446   006DF0  17D1               	andwf	??_Format_Data& (0+255),f,b
  4447   006DF2  EE20 F005          	lfsr	2,5
  4448   006DF6  505D               	movf	Format_Data@rtc^0,w,c
  4449   006DF8  26D9               	addwf	fsr2l,f,c
  4450   006DFA  505E               	movf	(Format_Data@rtc+1)^0,w,c
  4451   006DFC  22DA               	addwfc	fsr2h,f,c
  4452   006DFE  50DF               	movf	indf2,w,c
  4453   006E00  6FD2               	movwf	(??_Format_Data+1)& (0+255),b
  4454   006E02  39D2               	swapf	(??_Format_Data+1)& (0+255),w,b
  4455   006E04  0B0F               	andlw	15
  4456   006E06  0D0A               	mullw	10
  4457   006E08  50F3               	movf	243,w,c
  4458   006E0A  25D1               	addwf	??_Format_Data& (0+255),w,b
  4459   006E0C  6FD4               	movwf	Format_Data@mes& (0+255),b
  4460                           
  4461                           ;main_piee2.c: 552:     uint8_t ano = ((rtc->year >> 4) * 10) + (rtc->year & 0x0F) + 200
      +                          0;
  4462   006E0E  EE20 F006          	lfsr	2,6
  4463   006E12  505D               	movf	Format_Data@rtc^0,w,c
  4464   006E14  26D9               	addwf	fsr2l,f,c
  4465   006E16  505E               	movf	(Format_Data@rtc+1)^0,w,c
  4466   006E18  22DA               	addwfc	fsr2h,f,c
  4467   006E1A  50DF               	movf	indf2,w,c
  4468   006E1C  6FD1               	movwf	??_Format_Data& (0+255),b
  4469   006E1E  0E0F               	movlw	15
  4470   006E20  17D1               	andwf	??_Format_Data& (0+255),f,b
  4471   006E22  EE20 F006          	lfsr	2,6
  4472   006E26  505D               	movf	Format_Data@rtc^0,w,c
  4473   006E28  26D9               	addwf	fsr2l,f,c
  4474   006E2A  505E               	movf	(Format_Data@rtc+1)^0,w,c
  4475   006E2C  22DA               	addwfc	fsr2h,f,c
  4476   006E2E  50DF               	movf	indf2,w,c
  4477   006E30  6FD2               	movwf	(??_Format_Data+1)& (0+255),b
  4478   006E32  39D2               	swapf	(??_Format_Data+1)& (0+255),w,b
  4479   006E34  0B0F               	andlw	15
  4480   006E36  0D0A               	mullw	10
  4481   006E38  50F3               	movf	243,w,c
  4482   006E3A  25D1               	addwf	??_Format_Data& (0+255),w,b
  4483   006E3C  0FD0               	addlw	208
  4484   006E3E  6FD5               	movwf	Format_Data@ano& (0+255),b
  4485   006E40                     
  4486                           ; BSR set to: 0
  4487                           ;main_piee2.c: 554:     sprintf(buffer, "%02d/%02d/%04d", dia, mes, ano);
  4488   006E40  C05B  F043         	movff	Format_Data@buffer,sprintf@s
  4489   006E44  C05C  F044         	movff	Format_Data@buffer+1,sprintf@s+1
  4490   006E48  0EC3               	movlw	low STR_24
  4491   006E4A  6E45               	movwf	sprintf@fmt^0,c
  4492   006E4C  0E7F               	movlw	high STR_24
  4493   006E4E  6E46               	movwf	(sprintf@fmt+1)^0,c
  4494   006E50  C0D3  F047         	movff	Format_Data@dia,?_sprintf+4
  4495   006E54  6A48               	clrf	(?_sprintf+5)^0,c
  4496   006E56  C0D4  F049         	movff	Format_Data@mes,?_sprintf+6
  4497   006E5A  6A4A               	clrf	(?_sprintf+7)^0,c
  4498   006E5C  C0D5  F04B         	movff	Format_Data@ano,?_sprintf+8
  4499   006E60  6A4C               	clrf	(?_sprintf+9)^0,c
  4500   006E62  ECFB  F033         	call	_sprintf	;wreg free
  4501   006E66  0012               	return		;funcret
  4502   006E68                     __end_of_Format_Data:
  4503                           	callstack 0
  4504                           
  4505 ;; *************** function _sprintf *****************
  4506 ;; Defined at:
  4507 ;;		line 9 in file "/Applications/microchip/xc8/v2.41/pic/sources/c99/common/nf_sprintf.c"
  4508 ;; Parameters:    Size  Location     Type
  4509 ;;  s               2   66[COMRAM] PTR unsigned char 
  4510 ;;		 -> lcd_buffer(21), data_buffer(11), hora_buffer(9), 
  4511 ;;  fmt             2   68[COMRAM] PTR const unsigned char 
  4512 ;;		 -> STR_24(15), STR_23(15), STR_22(20), STR_21(20), 
  4513 ;;		 -> STR_20(20), STR_19(20), STR_18(20), STR_17(7), 
  4514 ;;		 -> STR_15(13), STR_12(7), STR_10(13), 
  4515 ;; Auto vars:     Size  Location     Type
  4516 ;;  f              12   78[COMRAM] struct _IO_FILE
  4517 ;;  ap              2   76[COMRAM] PTR void [1]
  4518 ;;		 -> ?_sprintf(2), 
  4519 ;;  ret             2    0        int 
  4520 ;; Return value:  Size  Location     Type
  4521 ;;                  2   66[COMRAM] int 
  4522 ;; Registers used:
  4523 ;;		wreg, fsr1l, fsr1h, fsr2l, fsr2h, status,2, status,0, tblptrl, tblptrh, tblptru, prodl, prodh, cstack
  4524 ;; Tracked objects:
  4525 ;;		On entry : 0/0
  4526 ;;		On exit  : 0/0
  4527 ;;		Unchanged: 0/0
  4528 ;; Data sizes:     COMRAM   BANK0   BANK1   BANK2   BANK3   BANK4   BANK5   BANK6   BANK7
  4529 ;;      Params:        10       0       0       0       0       0       0       0       0
  4530 ;;      Locals:        14       0       0       0       0       0       0       0       0
  4531 ;;      Temps:          0       0       0       0       0       0       0       0       0
  4532 ;;      Totals:        24       0       0       0       0       0       0       0       0
  4533 ;;Total ram usage:       24 bytes
  4534 ;; Hardware stack levels used: 1
  4535 ;; Hardware stack levels required when called: 7
  4536 ;; This function calls:
  4537 ;;		_vfprintf
  4538 ;; This function is called by:
  4539 ;;		_Display_Mensagens_Iniciais
  4540 ;;		_Format_Hora
  4541 ;;		_Format_Data
  4542 ;;		_Atualizar_Display_Principal
  4543 ;; This function uses a non-reentrant model
  4544 ;;
  4545                           
  4546                           	psect	text31
  4547   0067F6                     __ptext31:
  4548                           	callstack 0
  4549   0067F6                     _sprintf:
  4550                           	callstack 22
  4551   0067F6  0E47               	movlw	low (?_sprintf+4)
  4552   0067F8  6E4D               	movwf	sprintf@ap^0,c
  4553   0067FA  0E00               	movlw	high (?_sprintf+4)
  4554   0067FC  6E4E               	movwf	(sprintf@ap+1)^0,c
  4555   0067FE  C043  F04F         	movff	sprintf@s,sprintf@f
  4556   006802  C044  F050         	movff	sprintf@s+1,sprintf@f+1
  4557   006806  0E00               	movlw	0
  4558   006808  6E53               	movwf	(sprintf@f+4)^0,c
  4559   00680A  0E00               	movlw	0
  4560   00680C  6E52               	movwf	(sprintf@f+3)^0,c
  4561   00680E  0E00               	movlw	0
  4562   006810  6E5A               	movwf	(sprintf@f+11)^0,c
  4563   006812  0E00               	movlw	0
  4564   006814  6E59               	movwf	(sprintf@f+10)^0,c
  4565   006816  0E4F               	movlw	low sprintf@f
  4566   006818  6E3B               	movwf	vfprintf@fp^0,c
  4567   00681A  0E00               	movlw	high sprintf@f
  4568   00681C  6E3C               	movwf	(vfprintf@fp+1)^0,c
  4569   00681E  C045  F03D         	movff	sprintf@fmt,vfprintf@fmt
  4570   006822  C046  F03E         	movff	sprintf@fmt+1,vfprintf@fmt+1
  4571   006826  0E4D               	movlw	low sprintf@ap
  4572   006828  6E3F               	movwf	vfprintf@ap^0,c
  4573   00682A  0E00               	movlw	high sprintf@ap
  4574   00682C  6E40               	movwf	(vfprintf@ap+1)^0,c
  4575   00682E  EC6D  F034         	call	_vfprintf	;wreg free
  4576   006832  5052               	movf	(sprintf@f+3)^0,w,c
  4577   006834  2443               	addwf	sprintf@s^0,w,c
  4578   006836  6ED9               	movwf	fsr2l,c
  4579   006838  5053               	movf	(sprintf@f+4)^0,w,c
  4580   00683A  2044               	addwfc	(sprintf@s+1)^0,w,c
  4581   00683C  6EDA               	movwf	fsr2h,c
  4582   00683E  6ADF               	clrf	indf2,c
  4583   006840  0012               	return		;funcret
  4584   006842                     __end_of_sprintf:
  4585                           	callstack 0
  4586                           
  4587 ;; *************** function _vfprintf *****************
  4588 ;; Defined at:
  4589 ;;		line 1546 in file "/Applications/microchip/xc8/v2.41/pic/sources/c99/common/doprnt.c"
  4590 ;; Parameters:    Size  Location     Type
  4591 ;;  fp              2   58[COMRAM] PTR struct _IO_FILE
  4592 ;;		 -> sprintf@f(12), 
  4593 ;;  fmt             2   60[COMRAM] PTR const unsigned char 
  4594 ;;		 -> STR_24(15), STR_23(15), STR_22(20), STR_21(20), 
  4595 ;;		 -> STR_20(20), STR_19(20), STR_18(20), STR_17(7), 
  4596 ;;		 -> STR_15(13), STR_12(7), STR_10(13), 
  4597 ;;  ap              2   62[COMRAM] PTR PTR void 
  4598 ;;		 -> sprintf@ap(2), 
  4599 ;; Auto vars:     Size  Location     Type
  4600 ;;  cfmt            2   64[COMRAM] PTR unsigned char 
  4601 ;;		 -> STR_24(15), STR_23(15), STR_22(20), STR_21(20), 
  4602 ;;		 -> STR_20(20), STR_19(20), STR_18(20), STR_17(7), 
  4603 ;;		 -> STR_15(13), STR_12(7), STR_10(13), 
  4604 ;; Return value:  Size  Location     Type
  4605 ;;                  2   58[COMRAM] int 
  4606 ;; Registers used:
  4607 ;;		wreg, fsr1l, fsr1h, fsr2l, fsr2h, status,2, status,0, tblptrl, tblptrh, tblptru, prodl, prodh, cstack
  4608 ;; Tracked objects:
  4609 ;;		On entry : 0/0
  4610 ;;		On exit  : 0/0
  4611 ;;		Unchanged: 0/0
  4612 ;; Data sizes:     COMRAM   BANK0   BANK1   BANK2   BANK3   BANK4   BANK5   BANK6   BANK7
  4613 ;;      Params:         6       0       0       0       0       0       0       0       0
  4614 ;;      Locals:         2       0       0       0       0       0       0       0       0
  4615 ;;      Temps:          0       0       0       0       0       0       0       0       0
  4616 ;;      Totals:         8       0       0       0       0       0       0       0       0
  4617 ;;Total ram usage:        8 bytes
  4618 ;; Hardware stack levels used: 1
  4619 ;; Hardware stack levels required when called: 6
  4620 ;; This function calls:
  4621 ;;		_vfpfcnvrt
  4622 ;; This function is called by:
  4623 ;;		_sprintf
  4624 ;; This function uses a non-reentrant model
  4625 ;;
  4626                           
  4627                           	psect	text32
  4628   0068DA                     __ptext32:
  4629                           	callstack 0
  4630   0068DA                     _vfprintf:
  4631                           	callstack 22
  4632   0068DA                     
  4633                           ;/Applications/microchip/xc8/v2.41/pic/sources/c99/common/doprnt.c: 1546: int vfprintf(F
      +                          ILE *fp, const char *fmt, va_list ap);/Applications/microchip/xc8/v2.41/pic/sources/c99/
      +                          common/doprnt.c: 1547: {;/Applications/microchip/xc8/v2.41/pic/sources/c99/common/doprnt
      +                          .c: 1549:     char *cfmt;;/Applications/microchip/xc8/v2.41/pic/sources/c99/common/doprn
      +                          t.c: 1551:     cfmt = (char *)fmt;
  4634   0068DA  C03D  F041         	movff	vfprintf@fmt,vfprintf@cfmt
  4635   0068DE  C03E  F042         	movff	vfprintf@fmt+1,vfprintf@cfmt+1
  4636                           
  4637                           ;/Applications/microchip/xc8/v2.41/pic/sources/c99/common/doprnt.c: 1555:     while (*cf
      +                          mt) {
  4638   0068E2  EF81  F034         	goto	l2656
  4639   0068E6                     l2654:
  4640                           
  4641                           ;/Applications/microchip/xc8/v2.41/pic/sources/c99/common/doprnt.c: 1559:    vfpfcnvrt(f
      +                          p, &cfmt, ap);
  4642   0068E6  C03B  F029         	movff	vfprintf@fp,vfpfcnvrt@fp
  4643   0068EA  C03C  F02A         	movff	vfprintf@fp+1,vfpfcnvrt@fp+1
  4644   0068EE  0E41               	movlw	low vfprintf@cfmt
  4645   0068F0  6E2B               	movwf	vfpfcnvrt@fmt^0,c
  4646   0068F2  0E00               	movlw	high vfprintf@cfmt
  4647   0068F4  6E2C               	movwf	(vfpfcnvrt@fmt+1)^0,c
  4648   0068F6  C03F  F02D         	movff	vfprintf@ap,vfpfcnvrt@ap
  4649   0068FA  C040  F02E         	movff	vfprintf@ap+1,vfpfcnvrt@ap+1
  4650   0068FE  ECD4  F03D         	call	_vfpfcnvrt	;wreg free
  4651   006902                     l2656:
  4652                           
  4653                           ;/Applications/microchip/xc8/v2.41/pic/sources/c99/common/doprnt.c: 1555:     while (*cf
      +                          mt) {
  4654   006902  C041  FFF6         	movff	vfprintf@cfmt,tblptrl
  4655   006906  C042  FFF7         	movff	vfprintf@cfmt+1,tblptrh
  4656   00690A                     	if	0	;tblptru may be non-zero
  4657   00690A                     	endif
  4658   00690A                     	if	0	;tblptru may be non-zero
  4659   00690A                     	endif
  4660   00690A  0008               	tblrd		*
  4661   00690C  50F5               	movf	tablat,w,c
  4662   00690E  0900               	iorlw	0
  4663   006910  A4D8               	btfss	status,2,c
  4664   006912  EF8D  F034         	goto	u1971
  4665   006916  EF8F  F034         	goto	u1970
  4666   00691A                     u1971:
  4667   00691A  EF73  F034         	goto	l2654
  4668   00691E                     u1970:
  4669   00691E                     
  4670                           ;/Applications/microchip/xc8/v2.41/pic/sources/c99/common/doprnt.c: 1564:  return 0;
  4671   00691E  0E00               	movlw	0
  4672   006920  6E3C               	movwf	(?_vfprintf+1)^0,c
  4673   006922  0E00               	movlw	0
  4674   006924  6E3B               	movwf	?_vfprintf^0,c
  4675   006926  0012               	return		;funcret
  4676   006928                     __end_of_vfprintf:
  4677                           	callstack 0
  4678                           
  4679 ;; *************** function _vfpfcnvrt *****************
  4680 ;; Defined at:
  4681 ;;		line 1048 in file "/Applications/microchip/xc8/v2.41/pic/sources/c99/common/doprnt.c"
  4682 ;; Parameters:    Size  Location     Type
  4683 ;;  fp              2   40[COMRAM] PTR struct _IO_FILE
  4684 ;;		 -> sprintf@f(12), 
  4685 ;;  fmt             2   42[COMRAM] PTR PTR unsigned char 
  4686 ;;		 -> vfprintf@cfmt(2), 
  4687 ;;  ap              2   44[COMRAM] PTR PTR void 
  4688 ;;		 -> sprintf@ap(2), 
  4689 ;; Auto vars:     Size  Location     Type
  4690 ;;  convarg         4   48[COMRAM] struct .
  4691 ;;  cp              2   56[COMRAM] PTR unsigned char 
  4692 ;;		 -> STR_24(15), STR_23(15), STR_22(20), STR_21(20), 
  4693 ;;		 -> STR_20(20), STR_19(20), STR_18(20), STR_17(7), 
  4694 ;;		 -> STR_15(13), STR_12(7), STR_10(13), 
  4695 ;;  done            2   52[COMRAM] int 
  4696 ;;  i               2    0        int 
  4697 ;;  c               1    0        unsigned char 
  4698 ;; Return value:  Size  Location     Type
  4699 ;;                  1    wreg      void 
  4700 ;; Registers used:
  4701 ;;		wreg, fsr1l, fsr1h, fsr2l, fsr2h, status,2, status,0, tblptrl, tblptrh, tblptru, prodl, prodh, cstack
  4702 ;; Tracked objects:
  4703 ;;		On entry : 0/0
  4704 ;;		On exit  : 0/0
  4705 ;;		Unchanged: 0/0
  4706 ;; Data sizes:     COMRAM   BANK0   BANK1   BANK2   BANK3   BANK4   BANK5   BANK6   BANK7
  4707 ;;      Params:         6       0       0       0       0       0       0       0       0
  4708 ;;      Locals:        10       0       0       0       0       0       0       0       0
  4709 ;;      Temps:          2       0       0       0       0       0       0       0       0
  4710 ;;      Totals:        18       0       0       0       0       0       0       0       0
  4711 ;;Total ram usage:       18 bytes
  4712 ;; Hardware stack levels used: 1
  4713 ;; Hardware stack levels required when called: 5
  4714 ;; This function calls:
  4715 ;;		_dtoa
  4716 ;;		_fputc
  4717 ;;		_read_prec_or_width
  4718 ;;		_stoa
  4719 ;;		_strncmp
  4720 ;; This function is called by:
  4721 ;;		_vfprintf
  4722 ;; This function uses a non-reentrant model
  4723 ;;
  4724                           
  4725                           	psect	text33
  4726   007BA8                     __ptext33:
  4727                           	callstack 0
  4728   007BA8                     _vfpfcnvrt:
  4729                           	callstack 22
  4730   007BA8                     
  4731                           ;/Applications/microchip/xc8/v2.41/pic/sources/c99/common/doprnt.c: 1048: vfpfcnvrt(FILE
      +                           *fp, char *fmt[], va_list ap);/Applications/microchip/xc8/v2.41/pic/sources/c99/common/
      +                          doprnt.c: 1049: {;/Applications/microchip/xc8/v2.41/pic/sources/c99/common/doprnt.c: 105
      +                          0:     char c, *cp;;/Applications/microchip/xc8/v2.41/pic/sources/c99/common/doprnt.c: 1
      +                          051:     int done, i;;/Applications/microchip/xc8/v2.41/pic/sources/c99/common/doprnt.c:
      +                           1059:  } convarg;;/Applications/microchip/xc8/v2.41/pic/sources/c99/common/doprnt.c: 10
      +                          62:     if ((*fmt)[0] == '%') {
  4732   007BA8  C02B  FFD9         	movff	vfpfcnvrt@fmt,fsr2l
  4733   007BAC  C02C  FFDA         	movff	vfpfcnvrt@fmt+1,fsr2h
  4734   007BB0  CFDE FFF6          	movff	postinc2,tblptrl
  4735   007BB4  CFDD FFF7          	movff	postdec2,tblptrh
  4736   007BB8                     	if	0	;tblptru may be non-zero
  4737   007BB8                     	endif
  4738   007BB8                     	if	0	;tblptru may be non-zero
  4739   007BB8                     	endif
  4740   007BB8  0008               	tblrd		*
  4741   007BBA  50F5               	movf	tablat,w,c
  4742   007BBC  0A25               	xorlw	37
  4743   007BBE  A4D8               	btfss	status,2,c
  4744   007BC0  EFE4  F03D         	goto	u1821
  4745   007BC4  EFE6  F03D         	goto	u1820
  4746   007BC8                     u1821:
  4747   007BC8  EF38  F03F         	goto	l2596
  4748   007BCC                     u1820:
  4749   007BCC                     
  4750                           ;/Applications/microchip/xc8/v2.41/pic/sources/c99/common/doprnt.c: 1063:         ++*fmt
      +                          ;
  4751   007BCC  C02B  FFD9         	movff	vfpfcnvrt@fmt,fsr2l
  4752   007BD0  C02C  FFDA         	movff	vfpfcnvrt@fmt+1,fsr2h
  4753   007BD4  2ADE               	incf	postinc2,f,c
  4754   007BD6  0E00               	movlw	0
  4755   007BD8  22DD               	addwfc	postdec2,f,c
  4756   007BDA                     
  4757                           ;/Applications/microchip/xc8/v2.41/pic/sources/c99/common/doprnt.c: 1065:         flags 
      +                          = width = 0;
  4758   007BDA  0E00               	movlw	0
  4759   007BDC  0100               	movlb	0	; () banked
  4760   007BDE  6F61               	movwf	(_width+1)& (0+255),b
  4761   007BE0  0E00               	movlw	0
  4762   007BE2  6F60               	movwf	_width& (0+255),b
  4763   007BE4  C060  F070         	movff	_width,_flags
  4764   007BE8                     
  4765                           ; BSR set to: 0
  4766                           ;/Applications/microchip/xc8/v2.41/pic/sources/c99/common/doprnt.c: 1066:         prec =
      +                           -1;
  4767   007BE8  6962               	setf	_prec& (0+255),b
  4768   007BEA  6963               	setf	(_prec+1)& (0+255),b
  4769   007BEC                     
  4770                           ; BSR set to: 0
  4771                           ;/Applications/microchip/xc8/v2.41/pic/sources/c99/common/doprnt.c: 1070:         done =
      +                           0;
  4772   007BEC  0E00               	movlw	0
  4773   007BEE  6E36               	movwf	(vfpfcnvrt@done+1)^0,c
  4774   007BF0  0E00               	movlw	0
  4775   007BF2  6E35               	movwf	vfpfcnvrt@done^0,c
  4776                           
  4777                           ;/Applications/microchip/xc8/v2.41/pic/sources/c99/common/doprnt.c: 1071:         while 
      +                          (!done) {
  4778   007BF4  EF27  F03E         	goto	l2548
  4779   007BF8                     l2538:
  4780                           
  4781                           ;/Applications/microchip/xc8/v2.41/pic/sources/c99/common/doprnt.c: 1081:               
      +                                flags |= (1 << 1);
  4782   007BF8  0100               	movlb	0	; () banked
  4783   007BFA  8370               	bsf	_flags& (0+255),1,b
  4784   007BFC                     
  4785                           ; BSR set to: 0
  4786                           ;/Applications/microchip/xc8/v2.41/pic/sources/c99/common/doprnt.c: 1082:               
      +                                ++*fmt;
  4787   007BFC  C02B  FFD9         	movff	vfpfcnvrt@fmt,fsr2l
  4788   007C00  C02C  FFDA         	movff	vfpfcnvrt@fmt+1,fsr2h
  4789   007C04  2ADE               	incf	postinc2,f,c
  4790   007C06  0E00               	movlw	0
  4791   007C08  22DD               	addwfc	postdec2,f,c
  4792                           
  4793                           ;/Applications/microchip/xc8/v2.41/pic/sources/c99/common/doprnt.c: 1083:               
      +                                break;
  4794   007C0A  EF27  F03E         	goto	l2548
  4795   007C0E                     l2542:
  4796                           
  4797                           ;/Applications/microchip/xc8/v2.41/pic/sources/c99/common/doprnt.c: 1104:               
      +                                done = 1;
  4798   007C0E  0E00               	movlw	0
  4799   007C10  6E36               	movwf	(vfpfcnvrt@done+1)^0,c
  4800   007C12  0E01               	movlw	1
  4801   007C14  6E35               	movwf	vfpfcnvrt@done^0,c
  4802                           
  4803                           ;/Applications/microchip/xc8/v2.41/pic/sources/c99/common/doprnt.c: 1105:               
      +                                break;
  4804   007C16  EF27  F03E         	goto	l2548
  4805   007C1A                     l2546:
  4806   007C1A  C02B  FFD9         	movff	vfpfcnvrt@fmt,fsr2l
  4807   007C1E  C02C  FFDA         	movff	vfpfcnvrt@fmt+1,fsr2h
  4808   007C22  CFDE FFF6          	movff	postinc2,tblptrl
  4809   007C26  CFDD FFF7          	movff	postdec2,tblptrh
  4810   007C2A                     	if	0	;tblptru may be non-zero
  4811   007C2A                     	endif
  4812   007C2A                     	if	0	;tblptru may be non-zero
  4813   007C2A                     	endif
  4814   007C2A  0008               	tblrd		*
  4815   007C2C  50F5               	movf	tablat,w,c
  4816   007C2E  6E2F               	movwf	??_vfpfcnvrt^0,c
  4817   007C30  6A30               	clrf	(??_vfpfcnvrt+1)^0,c
  4818                           
  4819                           ; Switch on 2 bytes has been partitioned into a top level switch of size 1, and 1 sub-sw
      +                          itches
  4820                           ; Switch size 1, requested type "simple"
  4821                           ; Number of cases is 1, Range of values is 0 to 0
  4822                           ; switch strategies available:
  4823                           ; Name         Instructions Cycles
  4824                           ; simple_byte            4     3 (average)
  4825                           ;	Chosen strategy is simple_byte
  4826   007C32  5030               	movf	(??_vfpfcnvrt+1)^0,w,c
  4827   007C34  0A00               	xorlw	0	; case 0
  4828   007C36  B4D8               	btfsc	status,2,c
  4829   007C38  EF20  F03E         	goto	l3326
  4830   007C3C  EF07  F03E         	goto	l2542
  4831   007C40                     l3326:
  4832                           
  4833                           ; Switch size 1, requested type "simple"
  4834                           ; Number of cases is 1, Range of values is 48 to 48
  4835                           ; switch strategies available:
  4836                           ; Name         Instructions Cycles
  4837                           ; simple_byte            4     3 (average)
  4838                           ;	Chosen strategy is simple_byte
  4839   007C40  502F               	movf	??_vfpfcnvrt^0,w,c
  4840   007C42  0A30               	xorlw	48	; case 48
  4841   007C44  B4D8               	btfsc	status,2,c
  4842   007C46  EFFC  F03D         	goto	l2538
  4843   007C4A  EF07  F03E         	goto	l2542
  4844   007C4E                     l2548:
  4845                           
  4846                           ;/Applications/microchip/xc8/v2.41/pic/sources/c99/common/doprnt.c: 1071:         while 
      +                          (!done) {
  4847   007C4E  5035               	movf	vfpfcnvrt@done^0,w,c
  4848   007C50  1036               	iorwf	(vfpfcnvrt@done+1)^0,w,c
  4849   007C52  B4D8               	btfsc	status,2,c
  4850   007C54  EF2E  F03E         	goto	u1831
  4851   007C58  EF30  F03E         	goto	u1830
  4852   007C5C                     u1831:
  4853   007C5C  EF0D  F03E         	goto	l2546
  4854   007C60                     u1830:
  4855   007C60                     
  4856                           ;/Applications/microchip/xc8/v2.41/pic/sources/c99/common/doprnt.c: 1117:   width = read
      +                          _prec_or_width(fmt, ap);
  4857   007C60  C02B  F007         	movff	vfpfcnvrt@fmt,read_prec_or_width@fmt
  4858   007C64  C02C  F008         	movff	vfpfcnvrt@fmt+1,read_prec_or_width@fmt+1
  4859   007C68  C02D  F009         	movff	vfpfcnvrt@ap,read_prec_or_width@ap
  4860   007C6C  C02E  F00A         	movff	vfpfcnvrt@ap+1,read_prec_or_width@ap+1
  4861   007C70  EC96  F037         	call	_read_prec_or_width	;wreg free
  4862   007C74  C007  F060         	movff	?_read_prec_or_width,_width
  4863   007C78  C008  F061         	movff	?_read_prec_or_width+1,_width+1
  4864   007C7C                     
  4865                           ;/Applications/microchip/xc8/v2.41/pic/sources/c99/common/doprnt.c: 1118:   if (width < 
      +                          0) {
  4866   007C7C  0100               	movlb	0	; () banked
  4867   007C7E  BF61               	btfsc	(_width+1)& (0+255),7,b
  4868   007C80  EF46  F03E         	goto	u1840
  4869   007C84  EF44  F03E         	goto	u1841
  4870   007C88                     u1841:
  4871   007C88  EF4B  F03E         	goto	l2556
  4872   007C8C                     u1840:
  4873   007C8C                     
  4874                           ; BSR set to: 0
  4875                           ;/Applications/microchip/xc8/v2.41/pic/sources/c99/common/doprnt.c: 1119:    flags |= (1
      +                           << 0);
  4876   007C8C  8170               	bsf	_flags& (0+255),0,b
  4877                           
  4878                           ;/Applications/microchip/xc8/v2.41/pic/sources/c99/common/doprnt.c: 1120:    width = -wi
      +                          dth;
  4879   007C8E  6D60               	negf	_width& (0+255),b
  4880   007C90  1F61               	comf	(_width+1)& (0+255),f,b
  4881   007C92  B0D8               	btfsc	status,0,c
  4882   007C94  2B61               	incf	(_width+1)& (0+255),f,b
  4883   007C96                     l2556:
  4884                           
  4885                           ; BSR set to: 0
  4886                           ;/Applications/microchip/xc8/v2.41/pic/sources/c99/common/doprnt.c: 1143:   cp = *fmt;
  4887   007C96  C02B  FFD9         	movff	vfpfcnvrt@fmt,fsr2l
  4888   007C9A  C02C  FFDA         	movff	vfpfcnvrt@fmt+1,fsr2h
  4889   007C9E  CFDE F039          	movff	postinc2,vfpfcnvrt@cp
  4890   007CA2  CFDD F03A          	movff	postdec2,vfpfcnvrt@cp+1
  4891   007CA6                     
  4892                           ; BSR set to: 0
  4893                           ;/Applications/microchip/xc8/v2.41/pic/sources/c99/common/doprnt.c: 1213:   if (*cp == '
      +                          d' || *cp == 'i') {
  4894   007CA6  C039  FFF6         	movff	vfpfcnvrt@cp,tblptrl
  4895   007CAA  C03A  FFF7         	movff	vfpfcnvrt@cp+1,tblptrh
  4896   007CAE                     	if	0	;tblptru may be non-zero
  4897   007CAE                     	endif
  4898   007CAE                     	if	0	;tblptru may be non-zero
  4899   007CAE                     	endif
  4900   007CAE  0008               	tblrd		*
  4901   007CB0  50F5               	movf	tablat,w,c
  4902   007CB2  0A64               	xorlw	100
  4903   007CB4  B4D8               	btfsc	status,2,c
  4904   007CB6  EF5F  F03E         	goto	u1851
  4905   007CBA  EF61  F03E         	goto	u1850
  4906   007CBE                     u1851:
  4907   007CBE  EF6F  F03E         	goto	l2562
  4908   007CC2                     u1850:
  4909   007CC2                     
  4910                           ; BSR set to: 0
  4911   007CC2  C039  FFF6         	movff	vfpfcnvrt@cp,tblptrl
  4912   007CC6  C03A  FFF7         	movff	vfpfcnvrt@cp+1,tblptrh
  4913   007CCA                     	if	0	;tblptru may be non-zero
  4914   007CCA                     	endif
  4915   007CCA                     	if	0	;tblptru may be non-zero
  4916   007CCA                     	endif
  4917   007CCA  0008               	tblrd		*
  4918   007CCC  50F5               	movf	tablat,w,c
  4919   007CCE  0A69               	xorlw	105
  4920   007CD0  A4D8               	btfss	status,2,c
  4921   007CD2  EF6D  F03E         	goto	u1861
  4922   007CD6  EF6F  F03E         	goto	u1860
  4923   007CDA                     u1861:
  4924   007CDA  EF9D  F03E         	goto	l2568
  4925   007CDE                     u1860:
  4926   007CDE                     l2562:
  4927                           
  4928                           ; BSR set to: 0
  4929                           ;/Applications/microchip/xc8/v2.41/pic/sources/c99/common/doprnt.c: 1256:    convarg.sin
      +                          t = (vfpf_sint_t)(int)(*(int *)__va_arg(*(int **)ap, (int)0));
  4930   007CDE  C02D  FFD9         	movff	vfpfcnvrt@ap,fsr2l
  4931   007CE2  C02E  FFDA         	movff	vfpfcnvrt@ap+1,fsr2h
  4932   007CE6  CFDF F02F          	movff	indf2,??_vfpfcnvrt
  4933   007CEA  0E02               	movlw	2
  4934   007CEC  26DE               	addwf	postinc2,f,c
  4935   007CEE  CFDF F030          	movff	indf2,??_vfpfcnvrt+1
  4936   007CF2  0E00               	movlw	0
  4937   007CF4  22DD               	addwfc	postdec2,f,c
  4938   007CF6  C02F  FFD9         	movff	??_vfpfcnvrt,fsr2l
  4939   007CFA  C030  FFDA         	movff	??_vfpfcnvrt+1,fsr2h
  4940   007CFE  CFDE F031          	movff	postinc2,vfpfcnvrt@convarg
  4941   007D02  CFDD F032          	movff	postdec2,vfpfcnvrt@convarg+1
  4942                           
  4943                           ;/Applications/microchip/xc8/v2.41/pic/sources/c99/common/doprnt.c: 1258:    *fmt = cp+1
      +                          ;
  4944   007D06  0E01               	movlw	1
  4945   007D08  2439               	addwf	vfpfcnvrt@cp^0,w,c
  4946   007D0A  6E2F               	movwf	??_vfpfcnvrt^0,c
  4947   007D0C  0E00               	movlw	0
  4948   007D0E  203A               	addwfc	(vfpfcnvrt@cp+1)^0,w,c
  4949   007D10  6E30               	movwf	(??_vfpfcnvrt+1)^0,c
  4950   007D12  C02B  FFD9         	movff	vfpfcnvrt@fmt,fsr2l
  4951   007D16  C02C  FFDA         	movff	vfpfcnvrt@fmt+1,fsr2h
  4952   007D1A  C02F  FFDE         	movff	??_vfpfcnvrt,postinc2
  4953   007D1E  C030  FFDD         	movff	??_vfpfcnvrt+1,postdec2
  4954   007D22                     
  4955                           ; BSR set to: 0
  4956                           ;/Applications/microchip/xc8/v2.41/pic/sources/c99/common/doprnt.c: 1259:    return (voi
      +                          d) dtoa(fp, convarg.sint);;	Return value of _vfpfcnvrt is never used
  4957   007D22  C029  F01C         	movff	vfpfcnvrt@fp,dtoa@fp
  4958   007D26  C02A  F01D         	movff	vfpfcnvrt@fp+1,dtoa@fp+1
  4959   007D2A  C031  F01E         	movff	vfpfcnvrt@convarg,dtoa@d
  4960   007D2E  C032  F01F         	movff	vfpfcnvrt@convarg+1,dtoa@d+1
  4961   007D32  ECE0  F03B         	call	_dtoa	;wreg free
  4962   007D36  EF4C  F03F         	goto	l1187
  4963   007D3A                     l2568:
  4964                           
  4965                           ; BSR set to: 0
  4966                           ;/Applications/microchip/xc8/v2.41/pic/sources/c99/common/doprnt.c: 1409:         if (*f
      +                          mt[0] == 's' || !strncmp(*fmt, "lls", ((sizeof("lls")/sizeof("lls"[0]))-1))) {
  4967   007D3A  C02B  FFD9         	movff	vfpfcnvrt@fmt,fsr2l
  4968   007D3E  C02C  FFDA         	movff	vfpfcnvrt@fmt+1,fsr2h
  4969   007D42  CFDE FFF6          	movff	postinc2,tblptrl
  4970   007D46  CFDD FFF7          	movff	postdec2,tblptrh
  4971   007D4A                     	if	0	;tblptru may be non-zero
  4972   007D4A                     	endif
  4973   007D4A                     	if	0	;tblptru may be non-zero
  4974   007D4A                     	endif
  4975   007D4A  0008               	tblrd		*
  4976   007D4C  50F5               	movf	tablat,w,c
  4977   007D4E  0A73               	xorlw	115
  4978   007D50  B4D8               	btfsc	status,2,c
  4979   007D52  EFAD  F03E         	goto	u1871
  4980   007D56  EFAF  F03E         	goto	u1870
  4981   007D5A                     u1871:
  4982   007D5A  EFCA  F03E         	goto	l2572
  4983   007D5E                     u1870:
  4984   007D5E                     
  4985                           ; BSR set to: 0
  4986   007D5E  C02B  FFD9         	movff	vfpfcnvrt@fmt,fsr2l
  4987   007D62  C02C  FFDA         	movff	vfpfcnvrt@fmt+1,fsr2h
  4988   007D66  CFDE F001          	movff	postinc2,strncmp@_l
  4989   007D6A  CFDD F002          	movff	postdec2,strncmp@_l+1
  4990   007D6E  0EFA               	movlw	low STR_25
  4991   007D70  6E03               	movwf	strncmp@_r^0,c
  4992   007D72  0E7F               	movlw	high STR_25
  4993   007D74  6E04               	movwf	(strncmp@_r+1)^0,c
  4994   007D76  0E00               	movlw	0
  4995   007D78  6E06               	movwf	(strncmp@n+1)^0,c
  4996   007D7A  0E03               	movlw	3
  4997   007D7C  6E05               	movwf	strncmp@n^0,c
  4998   007D7E  EC5E  F038         	call	_strncmp	;wreg free
  4999   007D82  5001               	movf	?_strncmp^0,w,c
  5000   007D84  1002               	iorwf	(?_strncmp+1)^0,w,c
  5001   007D86  A4D8               	btfss	status,2,c
  5002   007D88  EFC8  F03E         	goto	u1881
  5003   007D8C  EFCA  F03E         	goto	u1880
  5004   007D90                     u1881:
  5005   007D90  EF0A  F03F         	goto	l2584
  5006   007D94                     u1880:
  5007   007D94                     l2572:
  5008                           
  5009                           ;/Applications/microchip/xc8/v2.41/pic/sources/c99/common/doprnt.c: 1411:    *fmt += *fm
      +                          t[0] == 's' ? 1 : ((sizeof("lls")/sizeof("lls"[0]))-1);
  5010   007D94  C02B  FFD9         	movff	vfpfcnvrt@fmt,fsr2l
  5011   007D98  C02C  FFDA         	movff	vfpfcnvrt@fmt+1,fsr2h
  5012   007D9C  CFDE FFF6          	movff	postinc2,tblptrl
  5013   007DA0  CFDD FFF7          	movff	postdec2,tblptrh
  5014   007DA4                     	if	0	;tblptru may be non-zero
  5015   007DA4                     	endif
  5016   007DA4                     	if	0	;tblptru may be non-zero
  5017   007DA4                     	endif
  5018   007DA4  0008               	tblrd		*
  5019   007DA6  50F5               	movf	tablat,w,c
  5020   007DA8  0A73               	xorlw	115
  5021   007DAA  B4D8               	btfsc	status,2,c
  5022   007DAC  EFDA  F03E         	goto	u1891
  5023   007DB0  EFDC  F03E         	goto	u1890
  5024   007DB4                     u1891:
  5025   007DB4  EFE2  F03E         	goto	l2576
  5026   007DB8                     u1890:
  5027   007DB8  0E00               	movlw	0
  5028   007DBA  6E38               	movwf	(_vfpfcnvrt$1330+1)^0,c
  5029   007DBC  0E03               	movlw	3
  5030   007DBE  6E37               	movwf	_vfpfcnvrt$1330^0,c
  5031   007DC0  EFE6  F03E         	goto	l2578
  5032   007DC4                     l2576:
  5033   007DC4  0E00               	movlw	0
  5034   007DC6  6E38               	movwf	(_vfpfcnvrt$1330+1)^0,c
  5035   007DC8  0E01               	movlw	1
  5036   007DCA  6E37               	movwf	_vfpfcnvrt$1330^0,c
  5037   007DCC                     l2578:
  5038   007DCC  C02B  FFD9         	movff	vfpfcnvrt@fmt,fsr2l
  5039   007DD0  C02C  FFDA         	movff	vfpfcnvrt@fmt+1,fsr2h
  5040   007DD4  5037               	movf	_vfpfcnvrt$1330^0,w,c
  5041   007DD6  26DE               	addwf	postinc2,f,c
  5042   007DD8  5038               	movf	(_vfpfcnvrt$1330+1)^0,w,c
  5043   007DDA  22DD               	addwfc	postdec2,f,c
  5044   007DDC                     
  5045                           ;/Applications/microchip/xc8/v2.41/pic/sources/c99/common/doprnt.c: 1412:             re
      +                          turn (void) stoa(fp, (*(char * *)__va_arg(*(char * **)ap, (char *)0)));;	Return value of
      +                           _vfpfcnvrt is never used
  5046   007DDC  C029  F00A         	movff	vfpfcnvrt@fp,stoa@fp
  5047   007DE0  C02A  F00B         	movff	vfpfcnvrt@fp+1,stoa@fp+1
  5048   007DE4  C02D  FFD9         	movff	vfpfcnvrt@ap,fsr2l
  5049   007DE8  C02E  FFDA         	movff	vfpfcnvrt@ap+1,fsr2h
  5050   007DEC  CFDF F02F          	movff	indf2,??_vfpfcnvrt
  5051   007DF0  0E02               	movlw	2
  5052   007DF2  26DE               	addwf	postinc2,f,c
  5053   007DF4  CFDF F030          	movff	indf2,??_vfpfcnvrt+1
  5054   007DF8  0E00               	movlw	0
  5055   007DFA  22DD               	addwfc	postdec2,f,c
  5056   007DFC  C02F  FFD9         	movff	??_vfpfcnvrt,fsr2l
  5057   007E00  C030  FFDA         	movff	??_vfpfcnvrt+1,fsr2h
  5058   007E04  CFDE F00C          	movff	postinc2,stoa@s
  5059   007E08  CFDD F00D          	movff	postdec2,stoa@s+1
  5060   007E0C  EC7E  F039         	call	_stoa	;wreg free
  5061   007E10  EF4C  F03F         	goto	l1187
  5062   007E14                     l2584:
  5063                           
  5064                           ;/Applications/microchip/xc8/v2.41/pic/sources/c99/common/doprnt.c: 1527:         if ((*
      +                          fmt)[0] == '%') {
  5065   007E14  C02B  FFD9         	movff	vfpfcnvrt@fmt,fsr2l
  5066   007E18  C02C  FFDA         	movff	vfpfcnvrt@fmt+1,fsr2h
  5067   007E1C  CFDE FFF6          	movff	postinc2,tblptrl
  5068   007E20  CFDD FFF7          	movff	postdec2,tblptrh
  5069   007E24                     	if	0	;tblptru may be non-zero
  5070   007E24                     	endif
  5071   007E24                     	if	0	;tblptru may be non-zero
  5072   007E24                     	endif
  5073   007E24  0008               	tblrd		*
  5074   007E26  50F5               	movf	tablat,w,c
  5075   007E28  0A25               	xorlw	37
  5076   007E2A  A4D8               	btfss	status,2,c
  5077   007E2C  EF1A  F03F         	goto	u1901
  5078   007E30  EF1C  F03F         	goto	u1900
  5079   007E34                     u1901:
  5080   007E34  EF2F  F03F         	goto	l2592
  5081   007E38                     u1900:
  5082   007E38                     
  5083                           ;/Applications/microchip/xc8/v2.41/pic/sources/c99/common/doprnt.c: 1528:             ++
      +                          *fmt;
  5084   007E38  C02B  FFD9         	movff	vfpfcnvrt@fmt,fsr2l
  5085   007E3C  C02C  FFDA         	movff	vfpfcnvrt@fmt+1,fsr2h
  5086   007E40  2ADE               	incf	postinc2,f,c
  5087   007E42  0E00               	movlw	0
  5088   007E44  22DD               	addwfc	postdec2,f,c
  5089   007E46                     
  5090                           ;/Applications/microchip/xc8/v2.41/pic/sources/c99/common/doprnt.c: 1529:             fp
      +                          utc((int)'%', fp);
  5091   007E46  0E00               	movlw	0
  5092   007E48  6E02               	movwf	(fputc@c+1)^0,c
  5093   007E4A  0E25               	movlw	37
  5094   007E4C  6E01               	movwf	fputc@c^0,c
  5095   007E4E  C029  F003         	movff	vfpfcnvrt@fp,fputc@fp
  5096   007E52  C02A  F004         	movff	vfpfcnvrt@fp+1,fputc@fp+1
  5097   007E56  ECF9  F037         	call	_fputc	;wreg free
  5098   007E5A  EF4C  F03F         	goto	l1187
  5099   007E5E                     l2592:
  5100                           
  5101                           ;/Applications/microchip/xc8/v2.41/pic/sources/c99/common/doprnt.c: 1535:         ++*fmt
      +                          ;
  5102   007E5E  C02B  FFD9         	movff	vfpfcnvrt@fmt,fsr2l
  5103   007E62  C02C  FFDA         	movff	vfpfcnvrt@fmt+1,fsr2h
  5104   007E66  2ADE               	incf	postinc2,f,c
  5105   007E68  0E00               	movlw	0
  5106   007E6A  22DD               	addwfc	postdec2,f,c
  5107   007E6C  EF4C  F03F         	goto	l1187
  5108   007E70                     l2596:
  5109                           
  5110                           ;/Applications/microchip/xc8/v2.41/pic/sources/c99/common/doprnt.c: 1540:     fputc((int
      +                          )(*fmt)[0], fp);
  5111   007E70  C02B  FFD9         	movff	vfpfcnvrt@fmt,fsr2l
  5112   007E74  C02C  FFDA         	movff	vfpfcnvrt@fmt+1,fsr2h
  5113   007E78  CFDE FFF6          	movff	postinc2,tblptrl
  5114   007E7C  CFDD FFF7          	movff	postdec2,tblptrh
  5115   007E80                     	if	0	;tblptru may be non-zero
  5116   007E80                     	endif
  5117   007E80                     	if	0	;tblptru may be non-zero
  5118   007E80                     	endif
  5119   007E80  0008               	tblrd		*
  5120   007E82  50F5               	movf	tablat,w,c
  5121   007E84  6E01               	movwf	fputc@c^0,c
  5122   007E86  6A02               	clrf	(fputc@c+1)^0,c
  5123   007E88  C029  F003         	movff	vfpfcnvrt@fp,fputc@fp
  5124   007E8C  C02A  F004         	movff	vfpfcnvrt@fp+1,fputc@fp+1
  5125   007E90  ECF9  F037         	call	_fputc	;wreg free
  5126   007E94  EF2F  F03F         	goto	l2592
  5127   007E98                     l1187:
  5128   007E98  0012               	return		;funcret
  5129   007E9A                     __end_of_vfpfcnvrt:
  5130                           	callstack 0
  5131                           
  5132 ;; *************** function _strncmp *****************
  5133 ;; Defined at:
  5134 ;;		line 3 in file "/Applications/microchip/xc8/v2.41/pic/sources/c99/common/strncmp.c"
  5135 ;; Parameters:    Size  Location     Type
  5136 ;;  _l              2    0[COMRAM] PTR const unsigned char 
  5137 ;;		 -> STR_24(15), STR_23(15), STR_22(20), STR_21(20), 
  5138 ;;		 -> STR_20(20), STR_19(20), STR_18(20), STR_17(7), 
  5139 ;;		 -> STR_15(13), STR_12(7), STR_10(13), 
  5140 ;;  _r              2    2[COMRAM] PTR const unsigned char 
  5141 ;;		 -> STR_27(4), 
  5142 ;;  n               2    4[COMRAM] unsigned int 
  5143 ;; Auto vars:     Size  Location     Type
  5144 ;;  r               2    9[COMRAM] PTR const unsigned char 
  5145 ;;		 -> STR_27(4), 
  5146 ;;  l               2    7[COMRAM] PTR const unsigned char 
  5147 ;;		 -> STR_24(15), STR_23(15), STR_22(20), STR_21(20), 
  5148 ;;		 -> STR_20(20), STR_19(20), STR_18(20), STR_17(7), 
  5149 ;;		 -> STR_15(13), STR_12(7), STR_10(13), 
  5150 ;; Return value:  Size  Location     Type
  5151 ;;                  2    0[COMRAM] int 
  5152 ;; Registers used:
  5153 ;;		wreg, status,2, status,0, tblptrl, tblptrh, tblptru
  5154 ;; Tracked objects:
  5155 ;;		On entry : 0/0
  5156 ;;		On exit  : 0/0
  5157 ;;		Unchanged: 0/0
  5158 ;; Data sizes:     COMRAM   BANK0   BANK1   BANK2   BANK3   BANK4   BANK5   BANK6   BANK7
  5159 ;;      Params:         6       0       0       0       0       0       0       0       0
  5160 ;;      Locals:         4       0       0       0       0       0       0       0       0
  5161 ;;      Temps:          1       0       0       0       0       0       0       0       0
  5162 ;;      Totals:        11       0       0       0       0       0       0       0       0
  5163 ;;Total ram usage:       11 bytes
  5164 ;; Hardware stack levels used: 1
  5165 ;; This function calls:
  5166 ;;		Nothing
  5167 ;; This function is called by:
  5168 ;;		_vfpfcnvrt
  5169 ;; This function uses a non-reentrant model
  5170 ;;
  5171                           
  5172                           	psect	text34
  5173   0070BC                     __ptext34:
  5174                           	callstack 0
  5175   0070BC                     _strncmp:
  5176                           	callstack 26
  5177   0070BC  C001  F008         	movff	strncmp@_l,strncmp@l
  5178   0070C0  C002  F009         	movff	strncmp@_l+1,strncmp@l+1
  5179   0070C4  C003  F00A         	movff	strncmp@_r,strncmp@r
  5180   0070C8  C004  F00B         	movff	strncmp@_r+1,strncmp@r+1
  5181   0070CC  0605               	decf	strncmp@n^0,f,c
  5182   0070CE  A0D8               	btfss	status,0,c
  5183   0070D0  0606               	decf	(strncmp@n+1)^0,f,c
  5184   0070D2  2805               	incf	strncmp@n^0,w,c
  5185   0070D4  E106               	bnz	u1681
  5186   0070D6  2806               	incf	(strncmp@n+1)^0,w,c
  5187   0070D8  A4D8               	btfss	status,2,c
  5188   0070DA  EF71  F038         	goto	u1681
  5189   0070DE  EF73  F038         	goto	u1680
  5190   0070E2                     u1681:
  5191   0070E2  EF80  F038         	goto	l2486
  5192   0070E6                     u1680:
  5193   0070E6  0E00               	movlw	0
  5194   0070E8  6E02               	movwf	(?_strncmp+1)^0,c
  5195   0070EA  0E00               	movlw	0
  5196   0070EC  6E01               	movwf	?_strncmp^0,c
  5197   0070EE  EFCC  F038         	goto	l1241
  5198   0070F2                     l2484:
  5199   0070F2  4A08               	infsnz	strncmp@l^0,f,c
  5200   0070F4  2A09               	incf	(strncmp@l+1)^0,f,c
  5201   0070F6  4A0A               	infsnz	strncmp@r^0,f,c
  5202   0070F8  2A0B               	incf	(strncmp@r+1)^0,f,c
  5203   0070FA  0605               	decf	strncmp@n^0,f,c
  5204   0070FC  A0D8               	btfss	status,0,c
  5205   0070FE  0606               	decf	(strncmp@n+1)^0,f,c
  5206   007100                     l2486:
  5207   007100  C008  FFF6         	movff	strncmp@l,tblptrl
  5208   007104  C009  FFF7         	movff	strncmp@l+1,tblptrh
  5209   007108                     	if	0	;tblptru may be non-zero
  5210   007108                     	endif
  5211   007108                     	if	0	;tblptru may be non-zero
  5212   007108                     	endif
  5213   007108  0008               	tblrd		*
  5214   00710A  50F5               	movf	tablat,w,c
  5215   00710C  0900               	iorlw	0
  5216   00710E  B4D8               	btfsc	status,2,c
  5217   007110  EF8C  F038         	goto	u1691
  5218   007114  EF8E  F038         	goto	u1690
  5219   007118                     u1691:
  5220   007118  EFBA  F038         	goto	l2494
  5221   00711C                     u1690:
  5222   00711C  C00A  FFF6         	movff	strncmp@r,tblptrl
  5223   007120  C00B  FFF7         	movff	strncmp@r+1,tblptrh
  5224   007124                     	if	0	;tblptru may be non-zero
  5225   007124                     	endif
  5226   007124                     	if	0	;tblptru may be non-zero
  5227   007124                     	endif
  5228   007124  0008               	tblrd		*
  5229   007126  50F5               	movf	tablat,w,c
  5230   007128  0900               	iorlw	0
  5231   00712A  B4D8               	btfsc	status,2,c
  5232   00712C  EF9A  F038         	goto	u1701
  5233   007130  EF9C  F038         	goto	u1700
  5234   007134                     u1701:
  5235   007134  EFBA  F038         	goto	l2494
  5236   007138                     u1700:
  5237   007138  5005               	movf	strncmp@n^0,w,c
  5238   00713A  1006               	iorwf	(strncmp@n+1)^0,w,c
  5239   00713C  B4D8               	btfsc	status,2,c
  5240   00713E  EFA3  F038         	goto	u1711
  5241   007142  EFA5  F038         	goto	u1710
  5242   007146                     u1711:
  5243   007146  EFBA  F038         	goto	l2494
  5244   00714A                     u1710:
  5245   00714A  C008  FFF6         	movff	strncmp@l,tblptrl
  5246   00714E  C009  FFF7         	movff	strncmp@l+1,tblptrh
  5247   007152                     	if	0	;tblptru may be non-zero
  5248   007152                     	endif
  5249   007152                     	if	0	;tblptru may be non-zero
  5250   007152                     	endif
  5251   007152  0008               	tblrd		*
  5252   007154  CFF5 F007          	movff	tablat,??_strncmp
  5253   007158  C00A  FFF6         	movff	strncmp@r,tblptrl
  5254   00715C  C00B  FFF7         	movff	strncmp@r+1,tblptrh
  5255   007160                     	if	0	;tblptru may be non-zero
  5256   007160                     	endif
  5257   007160                     	if	0	;tblptru may be non-zero
  5258   007160                     	endif
  5259   007160  0008               	tblrd		*
  5260   007162  50F5               	movf	tablat,w,c
  5261   007164  1807               	xorwf	??_strncmp^0,w,c
  5262   007166  B4D8               	btfsc	status,2,c
  5263   007168  EFB8  F038         	goto	u1721
  5264   00716C  EFBA  F038         	goto	u1720
  5265   007170                     u1721:
  5266   007170  EF79  F038         	goto	l2484
  5267   007174                     u1720:
  5268   007174                     l2494:
  5269   007174  C008  FFF6         	movff	strncmp@l,tblptrl
  5270   007178  C009  FFF7         	movff	strncmp@l+1,tblptrh
  5271   00717C                     	if	0	;tblptru may be non-zero
  5272   00717C                     	endif
  5273   00717C                     	if	0	;tblptru may be non-zero
  5274   00717C                     	endif
  5275   00717C  0008               	tblrd		*
  5276   00717E  CFF5 F007          	movff	tablat,??_strncmp
  5277   007182  C00A  FFF6         	movff	strncmp@r,tblptrl
  5278   007186  C00B  FFF7         	movff	strncmp@r+1,tblptrh
  5279   00718A                     	if	0	;tblptru may be non-zero
  5280   00718A                     	endif
  5281   00718A                     	if	0	;tblptru may be non-zero
  5282   00718A                     	endif
  5283   00718A  0008               	tblrd		*
  5284   00718C  50F5               	movf	tablat,w,c
  5285   00718E  5C07               	subwf	??_strncmp^0,w,c
  5286   007190  6E01               	movwf	?_strncmp^0,c
  5287   007192  6A02               	clrf	(?_strncmp+1)^0,c
  5288   007194  A0D8               	btfss	status,0,c
  5289   007196  0602               	decf	(?_strncmp+1)^0,f,c
  5290   007198                     l1241:
  5291   007198  0012               	return		;funcret
  5292   00719A                     __end_of_strncmp:
  5293                           	callstack 0
  5294                           
  5295 ;; *************** function _stoa *****************
  5296 ;; Defined at:
  5297 ;;		line 862 in file "/Applications/microchip/xc8/v2.41/pic/sources/c99/common/doprnt.c"
  5298 ;; Parameters:    Size  Location     Type
  5299 ;;  fp              2    9[COMRAM] PTR struct _IO_FILE
  5300 ;;		 -> sprintf@f(12), 
  5301 ;;  s               2   11[COMRAM] PTR unsigned char 
  5302 ;;		 -> rtc.year(1), rtc.month(1), rtc.date(1), rtc.hour(1), 
  5303 ;;		 -> rtc.min(1), rtc.sec(1), ?_sprintf(2), data_buffer(11), 
  5304 ;;		 -> hora_buffer(9), 
  5305 ;; Auto vars:     Size  Location     Type
  5306 ;;  nuls            7   14[COMRAM] unsigned char [7]
  5307 ;;  l               2   29[COMRAM] int 
  5308 ;;  p               2   27[COMRAM] int 
  5309 ;;  cp              2   25[COMRAM] PTR unsigned char 
  5310 ;;		 -> rtc.year(1), rtc.month(1), rtc.date(1), rtc.hour(1), 
  5311 ;;		 -> rtc.min(1), rtc.sec(1), stoa@nuls(7), ?_sprintf(2), 
  5312 ;;		 -> data_buffer(11), hora_buffer(9), 
  5313 ;;  w               2   23[COMRAM] int 
  5314 ;;  i               2   21[COMRAM] int 
  5315 ;; Return value:  Size  Location     Type
  5316 ;;                  1    wreg      void 
  5317 ;; Registers used:
  5318 ;;		wreg, fsr1l, fsr1h, fsr2l, fsr2h, status,2, status,0, cstack
  5319 ;; Tracked objects:
  5320 ;;		On entry : 0/0
  5321 ;;		On exit  : 0/0
  5322 ;;		Unchanged: 0/0
  5323 ;; Data sizes:     COMRAM   BANK0   BANK1   BANK2   BANK3   BANK4   BANK5   BANK6   BANK7
  5324 ;;      Params:         4       0       0       0       0       0       0       0       0
  5325 ;;      Locals:        17       0       0       0       0       0       0       0       0
  5326 ;;      Temps:          1       0       0       0       0       0       0       0       0
  5327 ;;      Totals:        22       0       0       0       0       0       0       0       0
  5328 ;;Total ram usage:       22 bytes
  5329 ;; Hardware stack levels used: 1
  5330 ;; Hardware stack levels required when called: 2
  5331 ;; This function calls:
  5332 ;;		_fputc
  5333 ;;		_strlen
  5334 ;; This function is called by:
  5335 ;;		_vfpfcnvrt
  5336 ;; This function uses a non-reentrant model
  5337 ;;
  5338                           
  5339                           	psect	text35
  5340   0072FC                     __ptext35:
  5341                           	callstack 0
  5342   0072FC                     _stoa:
  5343                           	callstack 24
  5344   0072FC                     
  5345                           ;/Applications/microchip/xc8/v2.41/pic/sources/c99/common/doprnt.c: 862: static void sto
      +                          a(FILE *fp, char *s);/Applications/microchip/xc8/v2.41/pic/sources/c99/common/doprnt.c: 
      +                          863: {;/Applications/microchip/xc8/v2.41/pic/sources/c99/common/doprnt.c: 864:     char 
      +                          *cp, nuls[] = "(null)";
  5346   0072FC  EE20  F0C6         	lfsr	2,stoa@F1156
  5347   007300  EE10  F00F         	lfsr	1,stoa@nuls
  5348   007304  0E06               	movlw	6
  5349   007306                     u1571:
  5350   007306  CFDB FFE3          	movff	plusw2,plusw1
  5351   00730A  06E8               	decf	wreg,f,c
  5352   00730C  E2FC               	bc	u1571
  5353   00730E                     
  5354                           ;/Applications/microchip/xc8/v2.41/pic/sources/c99/common/doprnt.c: 865:     int i, l, p
      +                          , w;;/Applications/microchip/xc8/v2.41/pic/sources/c99/common/doprnt.c: 868:     cp = s;
  5355   00730E  C00C  F01A         	movff	stoa@s,stoa@cp
  5356   007312  C00D  F01B         	movff	stoa@s+1,stoa@cp+1
  5357   007316                     
  5358                           ;/Applications/microchip/xc8/v2.41/pic/sources/c99/common/doprnt.c: 869:     if (!cp) {
  5359   007316  501A               	movf	stoa@cp^0,w,c
  5360   007318  101B               	iorwf	(stoa@cp+1)^0,w,c
  5361   00731A  A4D8               	btfss	status,2,c
  5362   00731C  EF92  F039         	goto	u1581
  5363   007320  EF94  F039         	goto	u1580
  5364   007324                     u1581:
  5365   007324  EF98  F039         	goto	l2432
  5366   007328                     u1580:
  5367   007328                     
  5368                           ;/Applications/microchip/xc8/v2.41/pic/sources/c99/common/doprnt.c: 870:         cp = nu
      +                          ls;
  5369   007328  0E0F               	movlw	low stoa@nuls
  5370   00732A  6E1A               	movwf	stoa@cp^0,c
  5371   00732C  0E00               	movlw	high stoa@nuls
  5372   00732E  6E1B               	movwf	(stoa@cp+1)^0,c
  5373   007330                     l2432:
  5374                           
  5375                           ;/Applications/microchip/xc8/v2.41/pic/sources/c99/common/doprnt.c: 874:     l = (int)st
      +                          rlen(cp);
  5376   007330  C01A  F001         	movff	stoa@cp,strlen@s
  5377   007334  C01B  F002         	movff	stoa@cp+1,strlen@s+1
  5378   007338  ECFC  F032         	call	_strlen	;wreg free
  5379   00733C  C001  F01E         	movff	?_strlen,stoa@l
  5380   007340  C002  F01F         	movff	?_strlen+1,stoa@l+1
  5381   007344                     
  5382                           ;/Applications/microchip/xc8/v2.41/pic/sources/c99/common/doprnt.c: 875:     p = prec;
  5383   007344  C062  F01C         	movff	_prec,stoa@p
  5384   007348  C063  F01D         	movff	_prec+1,stoa@p+1
  5385   00734C                     
  5386                           ;/Applications/microchip/xc8/v2.41/pic/sources/c99/common/doprnt.c: 876:     l = (!(p < 
      +                          0) && (p < l)) ? p : l;
  5387   00734C  BE1D               	btfsc	(stoa@p+1)^0,7,c
  5388   00734E  EFAB  F039         	goto	u1591
  5389   007352  EFAD  F039         	goto	u1590
  5390   007356                     u1591:
  5391   007356  EFC2  F039         	goto	l1150
  5392   00735A                     u1590:
  5393   00735A  501E               	movf	stoa@l^0,w,c
  5394   00735C  5C1C               	subwf	stoa@p^0,w,c
  5395   00735E  501D               	movf	(stoa@p+1)^0,w,c
  5396   007360  0A80               	xorlw	128
  5397   007362  6E0E               	movwf	??_stoa^0,c
  5398   007364  501F               	movf	(stoa@l+1)^0,w,c
  5399   007366  0A80               	xorlw	128
  5400   007368  580E               	subwfb	??_stoa^0,w,c
  5401   00736A  A0D8               	btfss	status,0,c
  5402   00736C  EFBA  F039         	goto	u1601
  5403   007370  EFBC  F039         	goto	u1600
  5404   007374                     u1601:
  5405   007374  EFBE  F039         	goto	l1148
  5406   007378                     u1600:
  5407   007378  EFC2  F039         	goto	l1150
  5408   00737C                     l1148:
  5409   00737C  C01C  F01E         	movff	stoa@p,stoa@l
  5410   007380  C01D  F01F         	movff	stoa@p+1,stoa@l+1
  5411   007384                     l1150:
  5412                           
  5413                           ;/Applications/microchip/xc8/v2.41/pic/sources/c99/common/doprnt.c: 877:     p = l;
  5414   007384  C01E  F01C         	movff	stoa@l,stoa@p
  5415   007388  C01F  F01D         	movff	stoa@l+1,stoa@p+1
  5416                           
  5417                           ;/Applications/microchip/xc8/v2.41/pic/sources/c99/common/doprnt.c: 878:     w = width;
  5418   00738C  C060  F018         	movff	_width,stoa@w
  5419   007390  C061  F019         	movff	_width+1,stoa@w+1
  5420                           
  5421                           ;/Applications/microchip/xc8/v2.41/pic/sources/c99/common/doprnt.c: 882:     if (!(flags
      +                           & (1 << 0))) {
  5422   007394  0100               	movlb	0	; () banked
  5423   007396  B170               	btfsc	_flags& (0+255),0,b
  5424   007398  EFD0  F039         	goto	u1611
  5425   00739C  EFD2  F039         	goto	u1610
  5426   0073A0                     u1611:
  5427   0073A0  EFEF  F039         	goto	l2448
  5428   0073A4                     u1610:
  5429   0073A4  EFE0  F039         	goto	l2446
  5430   0073A8                     l2442:
  5431                           
  5432                           ;/Applications/microchip/xc8/v2.41/pic/sources/c99/common/doprnt.c: 885:             fpu
      +                          tc(' ', fp);
  5433   0073A8  0E00               	movlw	0
  5434   0073AA  6E02               	movwf	(fputc@c+1)^0,c
  5435   0073AC  0E20               	movlw	32
  5436   0073AE  6E01               	movwf	fputc@c^0,c
  5437   0073B0  C00A  F003         	movff	stoa@fp,fputc@fp
  5438   0073B4  C00B  F004         	movff	stoa@fp+1,fputc@fp+1
  5439   0073B8  ECF9  F037         	call	_fputc	;wreg free
  5440   0073BC                     
  5441                           ;/Applications/microchip/xc8/v2.41/pic/sources/c99/common/doprnt.c: 886:             ++l
      +                          ;
  5442   0073BC  4A1E               	infsnz	stoa@l^0,f,c
  5443   0073BE  2A1F               	incf	(stoa@l+1)^0,f,c
  5444   0073C0                     l2446:
  5445                           
  5446                           ;/Applications/microchip/xc8/v2.41/pic/sources/c99/common/doprnt.c: 884:         while (
      +                          l < w) {
  5447   0073C0  5018               	movf	stoa@w^0,w,c
  5448   0073C2  5C1E               	subwf	stoa@l^0,w,c
  5449   0073C4  501F               	movf	(stoa@l+1)^0,w,c
  5450   0073C6  0A80               	xorlw	128
  5451   0073C8  6E0E               	movwf	??_stoa^0,c
  5452   0073CA  5019               	movf	(stoa@w+1)^0,w,c
  5453   0073CC  0A80               	xorlw	128
  5454   0073CE  580E               	subwfb	??_stoa^0,w,c
  5455   0073D0  A0D8               	btfss	status,0,c
  5456   0073D2  EFED  F039         	goto	u1621
  5457   0073D6  EFEF  F039         	goto	u1620
  5458   0073DA                     u1621:
  5459   0073DA  EFD4  F039         	goto	l2442
  5460   0073DE                     u1620:
  5461   0073DE                     l2448:
  5462                           
  5463                           ;/Applications/microchip/xc8/v2.41/pic/sources/c99/common/doprnt.c: 893:     i = 0;
  5464   0073DE  0E00               	movlw	0
  5465   0073E0  6E17               	movwf	(stoa@i+1)^0,c
  5466   0073E2  0E00               	movlw	0
  5467   0073E4  6E16               	movwf	stoa@i^0,c
  5468                           
  5469                           ;/Applications/microchip/xc8/v2.41/pic/sources/c99/common/doprnt.c: 894:     while (i < 
      +                          p) {
  5470   0073E6  EF08  F03A         	goto	l2456
  5471   0073EA                     l2450:
  5472                           
  5473                           ;/Applications/microchip/xc8/v2.41/pic/sources/c99/common/doprnt.c: 895:         fputc(*
      +                          cp, fp);
  5474   0073EA  C01A  FFD9         	movff	stoa@cp,fsr2l
  5475   0073EE  C01B  FFDA         	movff	stoa@cp+1,fsr2h
  5476   0073F2  50DF               	movf	indf2,w,c
  5477   0073F4  6E0E               	movwf	??_stoa^0,c
  5478   0073F6  500E               	movf	??_stoa^0,w,c
  5479   0073F8  6E01               	movwf	fputc@c^0,c
  5480   0073FA  6A02               	clrf	(fputc@c+1)^0,c
  5481   0073FC  C00A  F003         	movff	stoa@fp,fputc@fp
  5482   007400  C00B  F004         	movff	stoa@fp+1,fputc@fp+1
  5483   007404  ECF9  F037         	call	_fputc	;wreg free
  5484   007408                     
  5485                           ;/Applications/microchip/xc8/v2.41/pic/sources/c99/common/doprnt.c: 896:         ++cp;
  5486   007408  4A1A               	infsnz	stoa@cp^0,f,c
  5487   00740A  2A1B               	incf	(stoa@cp+1)^0,f,c
  5488   00740C                     
  5489                           ;/Applications/microchip/xc8/v2.41/pic/sources/c99/common/doprnt.c: 897:         ++i;
  5490   00740C  4A16               	infsnz	stoa@i^0,f,c
  5491   00740E  2A17               	incf	(stoa@i+1)^0,f,c
  5492   007410                     l2456:
  5493                           
  5494                           ;/Applications/microchip/xc8/v2.41/pic/sources/c99/common/doprnt.c: 894:     while (i < 
      +                          p) {
  5495   007410  501C               	movf	stoa@p^0,w,c
  5496   007412  5C16               	subwf	stoa@i^0,w,c
  5497   007414  5017               	movf	(stoa@i+1)^0,w,c
  5498   007416  0A80               	xorlw	128
  5499   007418  6E0E               	movwf	??_stoa^0,c
  5500   00741A  501D               	movf	(stoa@p+1)^0,w,c
  5501   00741C  0A80               	xorlw	128
  5502   00741E  580E               	subwfb	??_stoa^0,w,c
  5503   007420  A0D8               	btfss	status,0,c
  5504   007422  EF15  F03A         	goto	u1631
  5505   007426  EF17  F03A         	goto	u1630
  5506   00742A                     u1631:
  5507   00742A  EFF5  F039         	goto	l2450
  5508   00742E                     u1630:
  5509   00742E                     
  5510                           ;/Applications/microchip/xc8/v2.41/pic/sources/c99/common/doprnt.c: 902:     if (flags &
      +                           (1 << 0)) {
  5511   00742E  0100               	movlb	0	; () banked
  5512   007430  A170               	btfss	_flags& (0+255),0,b
  5513   007432  EF1D  F03A         	goto	u1641
  5514   007436  EF1F  F03A         	goto	u1640
  5515   00743A                     u1641:
  5516   00743A  EF3C  F03A         	goto	l1164
  5517   00743E                     u1640:
  5518   00743E  EF2D  F03A         	goto	l2464
  5519   007442                     l2460:
  5520                           
  5521                           ;/Applications/microchip/xc8/v2.41/pic/sources/c99/common/doprnt.c: 904:             fpu
      +                          tc(' ', fp);
  5522   007442  0E00               	movlw	0
  5523   007444  6E02               	movwf	(fputc@c+1)^0,c
  5524   007446  0E20               	movlw	32
  5525   007448  6E01               	movwf	fputc@c^0,c
  5526   00744A  C00A  F003         	movff	stoa@fp,fputc@fp
  5527   00744E  C00B  F004         	movff	stoa@fp+1,fputc@fp+1
  5528   007452  ECF9  F037         	call	_fputc	;wreg free
  5529   007456                     
  5530                           ;/Applications/microchip/xc8/v2.41/pic/sources/c99/common/doprnt.c: 905:             ++l
      +                          ;
  5531   007456  4A1E               	infsnz	stoa@l^0,f,c
  5532   007458  2A1F               	incf	(stoa@l+1)^0,f,c
  5533   00745A                     l2464:
  5534                           
  5535                           ;/Applications/microchip/xc8/v2.41/pic/sources/c99/common/doprnt.c: 903:         while (
      +                          l < w) {
  5536   00745A  5018               	movf	stoa@w^0,w,c
  5537   00745C  5C1E               	subwf	stoa@l^0,w,c
  5538   00745E  501F               	movf	(stoa@l+1)^0,w,c
  5539   007460  0A80               	xorlw	128
  5540   007462  6E0E               	movwf	??_stoa^0,c
  5541   007464  5019               	movf	(stoa@w+1)^0,w,c
  5542   007466  0A80               	xorlw	128
  5543   007468  580E               	subwfb	??_stoa^0,w,c
  5544   00746A  A0D8               	btfss	status,0,c
  5545   00746C  EF3A  F03A         	goto	u1651
  5546   007470  EF3C  F03A         	goto	u1650
  5547   007474                     u1651:
  5548   007474  EF21  F03A         	goto	l2460
  5549   007478                     u1650:
  5550   007478                     l1164:
  5551   007478  0012               	return		;funcret
  5552   00747A                     __end_of_stoa:
  5553                           	callstack 0
  5554                           
  5555 ;; *************** function _strlen *****************
  5556 ;; Defined at:
  5557 ;;		line 5 in file "/Applications/microchip/xc8/v2.41/pic/sources/c99/common/strlen.c"
  5558 ;; Parameters:    Size  Location     Type
  5559 ;;  s               2    0[COMRAM] PTR const unsigned char 
  5560 ;;		 -> rtc.year(1), rtc.month(1), rtc.date(1), rtc.hour(1), 
  5561 ;;		 -> rtc.min(1), rtc.sec(1), stoa@nuls(7), ?_sprintf(2), 
  5562 ;;		 -> data_buffer(11), hora_buffer(9), 
  5563 ;; Auto vars:     Size  Location     Type
  5564 ;;  a               2    2[COMRAM] PTR const unsigned char 
  5565 ;;		 -> rtc.year(1), rtc.month(1), rtc.date(1), rtc.hour(1), 
  5566 ;;		 -> rtc.min(1), rtc.sec(1), stoa@nuls(7), ?_sprintf(2), 
  5567 ;;		 -> data_buffer(11), hora_buffer(9), 
  5568 ;; Return value:  Size  Location     Type
  5569 ;;                  2    0[COMRAM] unsigned int 
  5570 ;; Registers used:
  5571 ;;		wreg, fsr2l, fsr2h, status,2, status,0
  5572 ;; Tracked objects:
  5573 ;;		On entry : 0/0
  5574 ;;		On exit  : 0/0
  5575 ;;		Unchanged: 0/0
  5576 ;; Data sizes:     COMRAM   BANK0   BANK1   BANK2   BANK3   BANK4   BANK5   BANK6   BANK7
  5577 ;;      Params:         2       0       0       0       0       0       0       0       0
  5578 ;;      Locals:         2       0       0       0       0       0       0       0       0
  5579 ;;      Temps:          0       0       0       0       0       0       0       0       0
  5580 ;;      Totals:         4       0       0       0       0       0       0       0       0
  5581 ;;Total ram usage:        4 bytes
  5582 ;; Hardware stack levels used: 1
  5583 ;; This function calls:
  5584 ;;		Nothing
  5585 ;; This function is called by:
  5586 ;;		_stoa
  5587 ;; This function uses a non-reentrant model
  5588 ;;
  5589                           
  5590                           	psect	text36
  5591   0065F8                     __ptext36:
  5592                           	callstack 0
  5593   0065F8                     _strlen:
  5594                           	callstack 25
  5595   0065F8  C001  F003         	movff	strlen@s,strlen@a
  5596   0065FC  C002  F004         	movff	strlen@s+1,strlen@a+1
  5597   006600  EF04  F033         	goto	l2360
  5598   006604                     l2358:
  5599   006604  4A01               	infsnz	strlen@s^0,f,c
  5600   006606  2A02               	incf	(strlen@s+1)^0,f,c
  5601   006608                     l2360:
  5602   006608  C001  FFD9         	movff	strlen@s,fsr2l
  5603   00660C  C002  FFDA         	movff	strlen@s+1,fsr2h
  5604   006610  50DF               	movf	indf2,w,c
  5605   006612  A4D8               	btfss	status,2,c
  5606   006614  EF0E  F033         	goto	u1431
  5607   006618  EF10  F033         	goto	u1430
  5608   00661C                     u1431:
  5609   00661C  EF02  F033         	goto	l2358
  5610   006620                     u1430:
  5611   006620  5003               	movf	strlen@a^0,w,c
  5612   006622  5C01               	subwf	strlen@s^0,w,c
  5613   006624  6E01               	movwf	?_strlen^0,c
  5614   006626  5004               	movf	(strlen@a+1)^0,w,c
  5615   006628  5802               	subwfb	(strlen@s+1)^0,w,c
  5616   00662A  6E02               	movwf	(?_strlen+1)^0,c
  5617   00662C  0012               	return		;funcret
  5618   00662E                     __end_of_strlen:
  5619                           	callstack 0
  5620                           
  5621 ;; *************** function _read_prec_or_width *****************
  5622 ;; Defined at:
  5623 ;;		line 1029 in file "/Applications/microchip/xc8/v2.41/pic/sources/c99/common/doprnt.c"
  5624 ;; Parameters:    Size  Location     Type
  5625 ;;  fmt             2    6[COMRAM] PTR PTR const unsigned c
  5626 ;;		 -> vfprintf@cfmt(2), 
  5627 ;;  ap              2    8[COMRAM] PTR PTR void [1]
  5628 ;;		 -> sprintf@ap(2), 
  5629 ;; Auto vars:     Size  Location     Type
  5630 ;;  c               1   12[COMRAM] unsigned char 
  5631 ;;  n               2   13[COMRAM] int 
  5632 ;; Return value:  Size  Location     Type
  5633 ;;                  2    6[COMRAM] int 
  5634 ;; Registers used:
  5635 ;;		wreg, fsr2l, fsr2h, status,2, status,0, tblptrl, tblptrh, tblptru, prodl, prodh, cstack
  5636 ;; Tracked objects:
  5637 ;;		On entry : 0/0
  5638 ;;		On exit  : 0/0
  5639 ;;		Unchanged: 0/0
  5640 ;; Data sizes:     COMRAM   BANK0   BANK1   BANK2   BANK3   BANK4   BANK5   BANK6   BANK7
  5641 ;;      Params:         4       0       0       0       0       0       0       0       0
  5642 ;;      Locals:         3       0       0       0       0       0       0       0       0
  5643 ;;      Temps:          2       0       0       0       0       0       0       0       0
  5644 ;;      Totals:         9       0       0       0       0       0       0       0       0
  5645 ;;Total ram usage:        9 bytes
  5646 ;; Hardware stack levels used: 1
  5647 ;; Hardware stack levels required when called: 1
  5648 ;; This function calls:
  5649 ;;		___wmul
  5650 ;; This function is called by:
  5651 ;;		_vfpfcnvrt
  5652 ;; This function uses a non-reentrant model
  5653 ;;
  5654                           
  5655                           	psect	text37
  5656   006F2C                     __ptext37:
  5657                           	callstack 0
  5658   006F2C                     _read_prec_or_width:
  5659                           	callstack 25
  5660   006F2C                     
  5661                           ;/Applications/microchip/xc8/v2.41/pic/sources/c99/common/doprnt.c: 1030:     int n = 0;
  5662   006F2C  0E00               	movlw	0
  5663   006F2E  6E0F               	movwf	(read_prec_or_width@n+1)^0,c
  5664   006F30  0E00               	movlw	0
  5665   006F32  6E0E               	movwf	read_prec_or_width@n^0,c
  5666   006F34                     
  5667                           ;/Applications/microchip/xc8/v2.41/pic/sources/c99/common/doprnt.c: 1031:     if ((*fmt)
      +                          [0] == '*') {
  5668   006F34  C007  FFD9         	movff	read_prec_or_width@fmt,fsr2l
  5669   006F38  C008  FFDA         	movff	read_prec_or_width@fmt+1,fsr2h
  5670   006F3C  CFDE FFF6          	movff	postinc2,tblptrl
  5671   006F40  CFDD FFF7          	movff	postdec2,tblptrh
  5672   006F44                     	if	0	;tblptru may be non-zero
  5673   006F44                     	endif
  5674   006F44                     	if	0	;tblptru may be non-zero
  5675   006F44                     	endif
  5676   006F44  0008               	tblrd		*
  5677   006F46  50F5               	movf	tablat,w,c
  5678   006F48  0A2A               	xorlw	42
  5679   006F4A  A4D8               	btfss	status,2,c
  5680   006F4C  EFAA  F037         	goto	u1661
  5681   006F50  EFAC  F037         	goto	u1660
  5682   006F54                     u1661:
  5683   006F54  EFE0  F037         	goto	l2476
  5684   006F58                     u1660:
  5685   006F58                     
  5686                           ;/Applications/microchip/xc8/v2.41/pic/sources/c99/common/doprnt.c: 1032:         ++*fmt
      +                          ;
  5687   006F58  C007  FFD9         	movff	read_prec_or_width@fmt,fsr2l
  5688   006F5C  C008  FFDA         	movff	read_prec_or_width@fmt+1,fsr2h
  5689   006F60  2ADE               	incf	postinc2,f,c
  5690   006F62  0E00               	movlw	0
  5691   006F64  22DD               	addwfc	postdec2,f,c
  5692                           
  5693                           ;/Applications/microchip/xc8/v2.41/pic/sources/c99/common/doprnt.c: 1033:         n = (*
      +                          (int *)__va_arg(*(int **)*ap, (int)0));
  5694   006F66  C009  FFD9         	movff	read_prec_or_width@ap,fsr2l
  5695   006F6A  C00A  FFDA         	movff	read_prec_or_width@ap+1,fsr2h
  5696   006F6E  CFDF F00B          	movff	indf2,??_read_prec_or_width
  5697   006F72  0E02               	movlw	2
  5698   006F74  26DE               	addwf	postinc2,f,c
  5699   006F76  CFDF F00C          	movff	indf2,??_read_prec_or_width+1
  5700   006F7A  0E00               	movlw	0
  5701   006F7C  22DD               	addwfc	postdec2,f,c
  5702   006F7E  C00B  FFD9         	movff	??_read_prec_or_width,fsr2l
  5703   006F82  C00C  FFDA         	movff	??_read_prec_or_width+1,fsr2h
  5704   006F86  CFDE F00E          	movff	postinc2,read_prec_or_width@n
  5705   006F8A  CFDD F00F          	movff	postdec2,read_prec_or_width@n+1
  5706                           
  5707                           ;/Applications/microchip/xc8/v2.41/pic/sources/c99/common/doprnt.c: 1034:     } else {
  5708   006F8E  EFF4  F037         	goto	l1168
  5709   006F92                     l2472:
  5710                           
  5711                           ;/Applications/microchip/xc8/v2.41/pic/sources/c99/common/doprnt.c: 1037:             n 
      +                          = n * 10 + c;
  5712   006F92  C00E  F001         	movff	read_prec_or_width@n,___wmul@multiplier
  5713   006F96  C00F  F002         	movff	read_prec_or_width@n+1,___wmul@multiplier+1
  5714   006F9A  0E00               	movlw	0
  5715   006F9C  6E04               	movwf	(___wmul@multiplicand+1)^0,c
  5716   006F9E  0E0A               	movlw	10
  5717   006FA0  6E03               	movwf	___wmul@multiplicand^0,c
  5718   006FA2  EC74  F032         	call	___wmul	;wreg free
  5719   006FA6  500D               	movf	read_prec_or_width@c^0,w,c
  5720   006FA8  2401               	addwf	?___wmul^0,w,c
  5721   006FAA  6E0E               	movwf	read_prec_or_width@n^0,c
  5722   006FAC  0E00               	movlw	0
  5723   006FAE  2002               	addwfc	(?___wmul+1)^0,w,c
  5724   006FB0  6E0F               	movwf	(read_prec_or_width@n+1)^0,c
  5725   006FB2                     
  5726                           ;/Applications/microchip/xc8/v2.41/pic/sources/c99/common/doprnt.c: 1038:             ++
      +                          *fmt;
  5727   006FB2  C007  FFD9         	movff	read_prec_or_width@fmt,fsr2l
  5728   006FB6  C008  FFDA         	movff	read_prec_or_width@fmt+1,fsr2h
  5729   006FBA  2ADE               	incf	postinc2,f,c
  5730   006FBC  0E00               	movlw	0
  5731   006FBE  22DD               	addwfc	postdec2,f,c
  5732   006FC0                     l2476:
  5733                           
  5734                           ;/Applications/microchip/xc8/v2.41/pic/sources/c99/common/doprnt.c: 1036:         while 
      +                          ((c = ((unsigned)(*fmt)[0]) - '0') < 10) {
  5735   006FC0  C007  FFD9         	movff	read_prec_or_width@fmt,fsr2l
  5736   006FC4  C008  FFDA         	movff	read_prec_or_width@fmt+1,fsr2h
  5737   006FC8  CFDE FFF6          	movff	postinc2,tblptrl
  5738   006FCC  CFDD FFF7          	movff	postdec2,tblptrh
  5739   006FD0                     	if	0	;tblptru may be non-zero
  5740   006FD0                     	endif
  5741   006FD0                     	if	0	;tblptru may be non-zero
  5742   006FD0                     	endif
  5743   006FD0  0008               	tblrd		*
  5744   006FD2  50F5               	movf	tablat,w,c
  5745   006FD4  0FD0               	addlw	208
  5746   006FD6  6E0D               	movwf	read_prec_or_width@c^0,c
  5747   006FD8  0E09               	movlw	9
  5748   006FDA  640D               	cpfsgt	read_prec_or_width@c^0,c
  5749   006FDC  EFF2  F037         	goto	u1671
  5750   006FE0  EFF4  F037         	goto	u1670
  5751   006FE4                     u1671:
  5752   006FE4  EFC9  F037         	goto	l2472
  5753   006FE8                     u1670:
  5754   006FE8                     l1168:
  5755                           
  5756                           ;/Applications/microchip/xc8/v2.41/pic/sources/c99/common/doprnt.c: 1041:     return n;
  5757   006FE8  C00E  F007         	movff	read_prec_or_width@n,?_read_prec_or_width
  5758   006FEC  C00F  F008         	movff	read_prec_or_width@n+1,?_read_prec_or_width+1
  5759   006FF0  0012               	return		;funcret
  5760   006FF2                     __end_of_read_prec_or_width:
  5761                           	callstack 0
  5762                           
  5763 ;; *************** function ___wmul *****************
  5764 ;; Defined at:
  5765 ;;		line 15 in file "/Applications/microchip/xc8/v2.41/pic/sources/c99/common/Umul16.c"
  5766 ;; Parameters:    Size  Location     Type
  5767 ;;  multiplier      2    0[COMRAM] unsigned int 
  5768 ;;  multiplicand    2    2[COMRAM] unsigned int 
  5769 ;; Auto vars:     Size  Location     Type
  5770 ;;  product         2    4[COMRAM] unsigned int 
  5771 ;; Return value:  Size  Location     Type
  5772 ;;                  2    0[COMRAM] unsigned int 
  5773 ;; Registers used:
  5774 ;;		wreg, status,2, status,0, prodl, prodh
  5775 ;; Tracked objects:
  5776 ;;		On entry : 0/0
  5777 ;;		On exit  : 0/0
  5778 ;;		Unchanged: 0/0
  5779 ;; Data sizes:     COMRAM   BANK0   BANK1   BANK2   BANK3   BANK4   BANK5   BANK6   BANK7
  5780 ;;      Params:         4       0       0       0       0       0       0       0       0
  5781 ;;      Locals:         2       0       0       0       0       0       0       0       0
  5782 ;;      Temps:          0       0       0       0       0       0       0       0       0
  5783 ;;      Totals:         6       0       0       0       0       0       0       0       0
  5784 ;;Total ram usage:        6 bytes
  5785 ;; Hardware stack levels used: 1
  5786 ;; This function calls:
  5787 ;;		Nothing
  5788 ;; This function is called by:
  5789 ;;		_read_prec_or_width
  5790 ;;		_Atualizar_Display_Principal
  5791 ;; This function uses a non-reentrant model
  5792 ;;
  5793                           
  5794                           	psect	text38
  5795   0064E8                     __ptext38:
  5796                           	callstack 0
  5797   0064E8                     ___wmul:
  5798                           	callstack 25
  5799   0064E8  5001               	movf	___wmul@multiplier^0,w,c
  5800   0064EA  0203               	mulwf	___wmul@multiplicand^0,c
  5801   0064EC  CFF3 F005          	movff	prodl,___wmul@product
  5802   0064F0  CFF4 F006          	movff	prodh,___wmul@product+1
  5803   0064F4  5001               	movf	___wmul@multiplier^0,w,c
  5804   0064F6  0204               	mulwf	(___wmul@multiplicand+1)^0,c
  5805   0064F8  50F3               	movf	243,w,c
  5806   0064FA  2606               	addwf	(___wmul@product+1)^0,f,c
  5807   0064FC  5002               	movf	(___wmul@multiplier+1)^0,w,c
  5808   0064FE  0203               	mulwf	___wmul@multiplicand^0,c
  5809   006500  50F3               	movf	243,w,c
  5810   006502  2606               	addwf	(___wmul@product+1)^0,f,c
  5811   006504  C005  F001         	movff	___wmul@product,?___wmul
  5812   006508  C006  F002         	movff	___wmul@product+1,?___wmul+1
  5813   00650C  0012               	return		;funcret
  5814   00650E                     __end_of___wmul:
  5815                           	callstack 0
  5816                           
  5817 ;; *************** function _dtoa *****************
  5818 ;; Defined at:
  5819 ;;		line 470 in file "/Applications/microchip/xc8/v2.41/pic/sources/c99/common/doprnt.c"
  5820 ;; Parameters:    Size  Location     Type
  5821 ;;  fp              2   27[COMRAM] PTR struct _IO_FILE
  5822 ;;		 -> sprintf@f(12), 
  5823 ;;  d               2   29[COMRAM] int 
  5824 ;; Auto vars:     Size  Location     Type
  5825 ;;  i               2   37[COMRAM] int 
  5826 ;;  w               2   35[COMRAM] int 
  5827 ;;  p               2   33[COMRAM] int 
  5828 ;;  s               1   39[COMRAM] unsigned char 
  5829 ;; Return value:  Size  Location     Type
  5830 ;;                  1    wreg      void 
  5831 ;; Registers used:
  5832 ;;		wreg, fsr1l, fsr1h, fsr2l, fsr2h, status,2, status,0, cstack
  5833 ;; Tracked objects:
  5834 ;;		On entry : 0/0
  5835 ;;		On exit  : 0/0
  5836 ;;		Unchanged: 0/0
  5837 ;; Data sizes:     COMRAM   BANK0   BANK1   BANK2   BANK3   BANK4   BANK5   BANK6   BANK7
  5838 ;;      Params:         4       0       0       0       0       0       0       0       0
  5839 ;;      Locals:         9       0       0       0       0       0       0       0       0
  5840 ;;      Temps:          0       0       0       0       0       0       0       0       0
  5841 ;;      Totals:        13       0       0       0       0       0       0       0       0
  5842 ;;Total ram usage:       13 bytes
  5843 ;; Hardware stack levels used: 1
  5844 ;; Hardware stack levels required when called: 4
  5845 ;; This function calls:
  5846 ;;		___awdiv
  5847 ;;		___awmod
  5848 ;;		_abs
  5849 ;;		_pad
  5850 ;; This function is called by:
  5851 ;;		_vfpfcnvrt
  5852 ;; This function uses a non-reentrant model
  5853 ;;
  5854                           
  5855                           	psect	text39
  5856   0077C0                     __ptext39:
  5857                           	callstack 0
  5858   0077C0                     _dtoa:
  5859                           	callstack 22
  5860   0077C0                     
  5861                           ;/Applications/microchip/xc8/v2.41/pic/sources/c99/common/doprnt.c: 470: static void dto
      +                          a(FILE *fp, vfpf_sint_t d);/Applications/microchip/xc8/v2.41/pic/sources/c99/common/dopr
      +                          nt.c: 471: {;/Applications/microchip/xc8/v2.41/pic/sources/c99/common/doprnt.c: 472:  ch
      +                          ar s;;/Applications/microchip/xc8/v2.41/pic/sources/c99/common/doprnt.c: 473:     int i,
      +                           p, w;;/Applications/microchip/xc8/v2.41/pic/sources/c99/common/doprnt.c: 476:     s = d
      +                           < 0 ? 1 : 0;
  5862   0077C0  BE1F               	btfsc	(dtoa@d+1)^0,7,c
  5863   0077C2  EFE5  F03B         	goto	u1441
  5864   0077C6  EFE8  F03B         	goto	u1440
  5865   0077CA                     u1441:
  5866   0077CA  0E01               	movlw	1
  5867   0077CC  EFE9  F03B         	goto	u1450
  5868   0077D0                     u1440:
  5869   0077D0  0E00               	movlw	0
  5870   0077D2                     u1450:
  5871   0077D2  6E28               	movwf	dtoa@s^0,c
  5872   0077D4                     
  5873                           ;/Applications/microchip/xc8/v2.41/pic/sources/c99/common/doprnt.c: 477:     if (s) {
  5874   0077D4  5028               	movf	dtoa@s^0,w,c
  5875   0077D6  B4D8               	btfsc	status,2,c
  5876   0077D8  EFF0  F03B         	goto	u1461
  5877   0077DC  EFF2  F03B         	goto	u1460
  5878   0077E0                     u1461:
  5879   0077E0  EFF6  F03B         	goto	l2372
  5880   0077E4                     u1460:
  5881   0077E4                     
  5882                           ;/Applications/microchip/xc8/v2.41/pic/sources/c99/common/doprnt.c: 478:         d = -d;
  5883   0077E4  6C1E               	negf	dtoa@d^0,c
  5884   0077E6  1E1F               	comf	(dtoa@d+1)^0,f,c
  5885   0077E8  B0D8               	btfsc	status,0,c
  5886   0077EA  2A1F               	incf	(dtoa@d+1)^0,f,c
  5887   0077EC                     l2372:
  5888                           
  5889                           ;/Applications/microchip/xc8/v2.41/pic/sources/c99/common/doprnt.c: 483:     if (!(prec 
      +                          < 0)) {
  5890   0077EC  0100               	movlb	0	; () banked
  5891   0077EE  BF63               	btfsc	(_prec+1)& (0+255),7,b
  5892   0077F0  EFFC  F03B         	goto	u1471
  5893   0077F4  EFFE  F03B         	goto	u1470
  5894   0077F8                     u1471:
  5895   0077F8  EFFF  F03B         	goto	l2376
  5896   0077FC                     u1470:
  5897   0077FC                     
  5898                           ; BSR set to: 0
  5899                           ;/Applications/microchip/xc8/v2.41/pic/sources/c99/common/doprnt.c: 484:         flags &
      +                          = ~(1 << 1);
  5900   0077FC  9370               	bcf	_flags& (0+255),1,b
  5901   0077FE                     l2376:
  5902                           
  5903                           ; BSR set to: 0
  5904                           ;/Applications/microchip/xc8/v2.41/pic/sources/c99/common/doprnt.c: 487:     p = (0 <= p
      +                          rec) ? prec : 1;
  5905   0077FE  BF63               	btfsc	(_prec+1)& (0+255),7,b
  5906   007800  EF06  F03C         	goto	u1480
  5907   007804  EF04  F03C         	goto	u1481
  5908   007808                     u1481:
  5909   007808  EF0C  F03C         	goto	l1125
  5910   00780C                     u1480:
  5911   00780C                     
  5912                           ; BSR set to: 0
  5913   00780C  0E00               	movlw	0
  5914   00780E  6E23               	movwf	(dtoa@p+1)^0,c
  5915   007810  0E01               	movlw	1
  5916   007812  6E22               	movwf	dtoa@p^0,c
  5917   007814  EF10  F03C         	goto	l1127
  5918   007818                     l1125:
  5919                           
  5920                           ; BSR set to: 0
  5921   007818  C062  F022         	movff	_prec,dtoa@p
  5922   00781C  C063  F023         	movff	_prec+1,dtoa@p+1
  5923   007820                     l1127:
  5924                           
  5925                           ; BSR set to: 0
  5926                           ;/Applications/microchip/xc8/v2.41/pic/sources/c99/common/doprnt.c: 488:     w = width;
  5927   007820  C060  F024         	movff	_width,dtoa@w
  5928   007824  C061  F025         	movff	_width+1,dtoa@w+1
  5929   007828                     
  5930                           ; BSR set to: 0
  5931                           ;/Applications/microchip/xc8/v2.41/pic/sources/c99/common/doprnt.c: 489:     if (s
  5932   007828  5028               	movf	dtoa@s^0,w,c
  5933   00782A  B4D8               	btfsc	status,2,c
  5934   00782C  EF1A  F03C         	goto	u1491
  5935   007830  EF1C  F03C         	goto	u1490
  5936   007834                     u1491:
  5937   007834  EF33  F03C         	goto	l1128
  5938   007838                     u1490:
  5939   007838                     
  5940                           ; BSR set to: 0
  5941                           ;/Applications/microchip/xc8/v2.41/pic/sources/c99/common/doprnt.c: 493:     ) {;/Applic
      +                          ations/microchip/xc8/v2.41/pic/sources/c99/common/doprnt.c: 494:         --w;
  5942   007838  0624               	decf	dtoa@w^0,f,c
  5943   00783A  A0D8               	btfss	status,0,c
  5944   00783C  0625               	decf	(dtoa@w+1)^0,f,c
  5945   00783E                     
  5946                           ; BSR set to: 0
  5947                           ;/Applications/microchip/xc8/v2.41/pic/sources/c99/common/doprnt.c: 495:   s = s ? '-' :
      +                           '+';
  5948   00783E  5028               	movf	dtoa@s^0,w,c
  5949   007840  A4D8               	btfss	status,2,c
  5950   007842  EF25  F03C         	goto	u1501
  5951   007846  EF27  F03C         	goto	u1500
  5952   00784A                     u1501:
  5953   00784A  EF2D  F03C         	goto	l2388
  5954   00784E                     u1500:
  5955   00784E                     
  5956                           ; BSR set to: 0
  5957   00784E  0E00               	movlw	0
  5958   007850  6E21               	movwf	(_dtoa$1292+1)^0,c
  5959   007852  0E2B               	movlw	43
  5960   007854  6E20               	movwf	_dtoa$1292^0,c
  5961   007856  EF31  F03C         	goto	l2390
  5962   00785A                     l2388:
  5963                           
  5964                           ; BSR set to: 0
  5965   00785A  0E00               	movlw	0
  5966   00785C  6E21               	movwf	(_dtoa$1292+1)^0,c
  5967   00785E  0E2D               	movlw	45
  5968   007860  6E20               	movwf	_dtoa$1292^0,c
  5969   007862                     l2390:
  5970                           
  5971                           ; BSR set to: 0
  5972   007862  C020  F028         	movff	_dtoa$1292,dtoa@s
  5973   007866                     l1128:
  5974                           
  5975                           ; BSR set to: 0
  5976                           ;/Applications/microchip/xc8/v2.41/pic/sources/c99/common/doprnt.c: 505:     i = sizeof(
      +                          dbuf) - 1;
  5977   007866  0E00               	movlw	0
  5978   007868  6E27               	movwf	(dtoa@i+1)^0,c
  5979   00786A  0E1F               	movlw	31
  5980   00786C  6E26               	movwf	dtoa@i^0,c
  5981   00786E                     
  5982                           ; BSR set to: 0
  5983                           ;/Applications/microchip/xc8/v2.41/pic/sources/c99/common/doprnt.c: 506:     dbuf[i] = '
      +                          \0';
  5984   00786E  0E00               	movlw	0
  5985   007870  6F95               	movwf	(_dbuf+31)& (0+255),b
  5986                           
  5987                           ;/Applications/microchip/xc8/v2.41/pic/sources/c99/common/doprnt.c: 507:     while (!(i 
      +                          < 1) && (d || (0 < p)
  5988   007872  EF6B  F03C         	goto	l2404
  5989   007876                     l2394:
  5990                           
  5991                           ;/Applications/microchip/xc8/v2.41/pic/sources/c99/common/doprnt.c: 511:     )) {;/Appli
      +                          cations/microchip/xc8/v2.41/pic/sources/c99/common/doprnt.c: 512:         --i;
  5992   007876  0626               	decf	dtoa@i^0,f,c
  5993   007878  A0D8               	btfss	status,0,c
  5994   00787A  0627               	decf	(dtoa@i+1)^0,f,c
  5995   00787C                     
  5996                           ;/Applications/microchip/xc8/v2.41/pic/sources/c99/common/doprnt.c: 513:         dbuf[i]
      +                           = (char)((int)'0' + abs(d % 10));
  5997   00787C  0E76               	movlw	low _dbuf
  5998   00787E  2426               	addwf	dtoa@i^0,w,c
  5999   007880  6ED9               	movwf	fsr2l,c
  6000   007882  0E00               	movlw	high _dbuf
  6001   007884  2027               	addwfc	(dtoa@i+1)^0,w,c
  6002   007886  6EDA               	movwf	fsr2h,c
  6003   007888  C01E  F001         	movff	dtoa@d,___awmod@dividend
  6004   00788C  C01F  F002         	movff	dtoa@d+1,___awmod@dividend+1
  6005   007890  0E00               	movlw	0
  6006   007892  6E04               	movwf	(___awmod@divisor+1)^0,c
  6007   007894  0E0A               	movlw	10
  6008   007896  6E03               	movwf	___awmod@divisor^0,c
  6009   007898  EC25  F036         	call	___awmod	;wreg free
  6010   00789C  C001  F007         	movff	?___awmod,abs@a
  6011   0078A0  C002  F008         	movff	?___awmod+1,abs@a+1
  6012   0078A4  EC50  F033         	call	_abs	;wreg free
  6013   0078A8  5007               	movf	?_abs^0,w,c
  6014   0078AA  0F30               	addlw	48
  6015   0078AC  6EDF               	movwf	indf2,c
  6016   0078AE                     
  6017                           ;/Applications/microchip/xc8/v2.41/pic/sources/c99/common/doprnt.c: 514:         --p;
  6018   0078AE  0622               	decf	dtoa@p^0,f,c
  6019   0078B0  A0D8               	btfss	status,0,c
  6020   0078B2  0623               	decf	(dtoa@p+1)^0,f,c
  6021   0078B4                     
  6022                           ;/Applications/microchip/xc8/v2.41/pic/sources/c99/common/doprnt.c: 515:         --w;
  6023   0078B4  0624               	decf	dtoa@w^0,f,c
  6024   0078B6  A0D8               	btfss	status,0,c
  6025   0078B8  0625               	decf	(dtoa@w+1)^0,f,c
  6026   0078BA                     
  6027                           ;/Applications/microchip/xc8/v2.41/pic/sources/c99/common/doprnt.c: 516:         d = d /
      +                           10;
  6028   0078BA  C01E  F001         	movff	dtoa@d,___awdiv@dividend
  6029   0078BE  C01F  F002         	movff	dtoa@d+1,___awdiv@dividend+1
  6030   0078C2  0E00               	movlw	0
  6031   0078C4  6E04               	movwf	(___awdiv@divisor+1)^0,c
  6032   0078C6  0E0A               	movlw	10
  6033   0078C8  6E03               	movwf	___awdiv@divisor^0,c
  6034   0078CA  EC34  F037         	call	___awdiv	;wreg free
  6035   0078CE  C001  F01E         	movff	?___awdiv,dtoa@d
  6036   0078D2  C002  F01F         	movff	?___awdiv+1,dtoa@d+1
  6037   0078D6                     l2404:
  6038                           
  6039                           ;/Applications/microchip/xc8/v2.41/pic/sources/c99/common/doprnt.c: 507:     while (!(i 
      +                          < 1) && (d || (0 < p)
  6040   0078D6  BE27               	btfsc	(dtoa@i+1)^0,7,c
  6041   0078D8  EF76  F03C         	goto	u1511
  6042   0078DC  5027               	movf	(dtoa@i+1)^0,w,c
  6043   0078DE  E108               	bnz	u1510
  6044   0078E0  0426               	decf	dtoa@i^0,w,c
  6045   0078E2  A0D8               	btfss	status,0,c
  6046   0078E4  EF76  F03C         	goto	u1511
  6047   0078E8  EF78  F03C         	goto	u1510
  6048   0078EC                     u1511:
  6049   0078EC  EFA3  F03C         	goto	l2414
  6050   0078F0                     u1510:
  6051   0078F0  501E               	movf	dtoa@d^0,w,c
  6052   0078F2  101F               	iorwf	(dtoa@d+1)^0,w,c
  6053   0078F4  A4D8               	btfss	status,2,c
  6054   0078F6  EF7F  F03C         	goto	u1521
  6055   0078FA  EF81  F03C         	goto	u1520
  6056   0078FE                     u1521:
  6057   0078FE  EF3B  F03C         	goto	l2394
  6058   007902                     u1520:
  6059   007902  BE23               	btfsc	(dtoa@p+1)^0,7,c
  6060   007904  EF8E  F03C         	goto	u1530
  6061   007908  5023               	movf	(dtoa@p+1)^0,w,c
  6062   00790A  E106               	bnz	u1531
  6063   00790C  0422               	decf	dtoa@p^0,w,c
  6064   00790E  B0D8               	btfsc	status,0,c
  6065   007910  EF8C  F03C         	goto	u1531
  6066   007914  EF8E  F03C         	goto	u1530
  6067   007918                     u1531:
  6068   007918  EF3B  F03C         	goto	l2394
  6069   00791C                     u1530:
  6070   00791C  BE25               	btfsc	(dtoa@w+1)^0,7,c
  6071   00791E  EF99  F03C         	goto	u1541
  6072   007922  5025               	movf	(dtoa@w+1)^0,w,c
  6073   007924  E108               	bnz	u1540
  6074   007926  0424               	decf	dtoa@w^0,w,c
  6075   007928  A0D8               	btfss	status,0,c
  6076   00792A  EF99  F03C         	goto	u1541
  6077   00792E  EF9B  F03C         	goto	u1540
  6078   007932                     u1541:
  6079   007932  EFA3  F03C         	goto	l2414
  6080   007936                     u1540:
  6081   007936  0100               	movlb	0	; () banked
  6082   007938  B370               	btfsc	_flags& (0+255),1,b
  6083   00793A  EFA1  F03C         	goto	u1551
  6084   00793E  EFA3  F03C         	goto	u1550
  6085   007942                     u1551:
  6086   007942  EF3B  F03C         	goto	l2394
  6087   007946                     u1550:
  6088   007946                     l2414:
  6089                           
  6090                           ;/Applications/microchip/xc8/v2.41/pic/sources/c99/common/doprnt.c: 520:     if (s != 0)
      +                           {
  6091   007946  5028               	movf	dtoa@s^0,w,c
  6092   007948  B4D8               	btfsc	status,2,c
  6093   00794A  EFA9  F03C         	goto	u1561
  6094   00794E  EFAB  F03C         	goto	u1560
  6095   007952                     u1561:
  6096   007952  EFB6  F03C         	goto	l2420
  6097   007956                     u1560:
  6098   007956                     
  6099                           ;/Applications/microchip/xc8/v2.41/pic/sources/c99/common/doprnt.c: 521:         --i;
  6100   007956  0626               	decf	dtoa@i^0,f,c
  6101   007958  A0D8               	btfss	status,0,c
  6102   00795A  0627               	decf	(dtoa@i+1)^0,f,c
  6103   00795C                     
  6104                           ;/Applications/microchip/xc8/v2.41/pic/sources/c99/common/doprnt.c: 522:         dbuf[i]
      +                           = s;
  6105   00795C  0E76               	movlw	low _dbuf
  6106   00795E  2426               	addwf	dtoa@i^0,w,c
  6107   007960  6ED9               	movwf	fsr2l,c
  6108   007962  0E00               	movlw	high _dbuf
  6109   007964  2027               	addwfc	(dtoa@i+1)^0,w,c
  6110   007966  6EDA               	movwf	fsr2h,c
  6111   007968  C028  FFDF         	movff	dtoa@s,indf2
  6112   00796C                     l2420:
  6113                           
  6114                           ;/Applications/microchip/xc8/v2.41/pic/sources/c99/common/doprnt.c: 526:     return (voi
      +                          d) pad(fp, &dbuf[i], w);
  6115   00796C  C01C  F011         	movff	dtoa@fp,pad@fp
  6116   007970  C01D  F012         	movff	dtoa@fp+1,pad@fp+1
  6117   007974  0E76               	movlw	low _dbuf
  6118   007976  2426               	addwf	dtoa@i^0,w,c
  6119   007978  6E13               	movwf	pad@buf^0,c
  6120   00797A  0E00               	movlw	high _dbuf
  6121   00797C  2027               	addwfc	(dtoa@i+1)^0,w,c
  6122   00797E  6E14               	movwf	(pad@buf+1)^0,c
  6123   007980  C024  F015         	movff	dtoa@w,pad@p
  6124   007984  C025  F016         	movff	dtoa@w+1,pad@p+1
  6125   007988  ECCE  F035         	call	_pad	;wreg free
  6126   00798C  0012               	return		;funcret
  6127   00798E                     __end_of_dtoa:
  6128                           	callstack 0
  6129                           
  6130 ;; *************** function _pad *****************
  6131 ;; Defined at:
  6132 ;;		line 152 in file "/Applications/microchip/xc8/v2.41/pic/sources/c99/common/doprnt.c"
  6133 ;; Parameters:    Size  Location     Type
  6134 ;;  fp              2   16[COMRAM] PTR struct _IO_FILE
  6135 ;;		 -> sprintf@f(12), 
  6136 ;;  buf             2   18[COMRAM] PTR unsigned char 
  6137 ;;		 -> dbuf(32), 
  6138 ;;  p               2   20[COMRAM] int 
  6139 ;; Auto vars:     Size  Location     Type
  6140 ;;  w               2   25[COMRAM] int 
  6141 ;;  i               2   23[COMRAM] int 
  6142 ;; Return value:  Size  Location     Type
  6143 ;;                  1    wreg      void 
  6144 ;; Registers used:
  6145 ;;		wreg, fsr1l, fsr1h, fsr2l, fsr2h, status,2, status,0, cstack
  6146 ;; Tracked objects:
  6147 ;;		On entry : 0/0
  6148 ;;		On exit  : 0/0
  6149 ;;		Unchanged: 0/0
  6150 ;; Data sizes:     COMRAM   BANK0   BANK1   BANK2   BANK3   BANK4   BANK5   BANK6   BANK7
  6151 ;;      Params:         6       0       0       0       0       0       0       0       0
  6152 ;;      Locals:         4       0       0       0       0       0       0       0       0
  6153 ;;      Temps:          1       0       0       0       0       0       0       0       0
  6154 ;;      Totals:        11       0       0       0       0       0       0       0       0
  6155 ;;Total ram usage:       11 bytes
  6156 ;; Hardware stack levels used: 1
  6157 ;; Hardware stack levels required when called: 3
  6158 ;; This function calls:
  6159 ;;		_fputc
  6160 ;;		_fputs
  6161 ;; This function is called by:
  6162 ;;		_dtoa
  6163 ;; This function uses a non-reentrant model
  6164 ;;
  6165                           
  6166                           	psect	text40
  6167   006B9C                     __ptext40:
  6168                           	callstack 0
  6169   006B9C                     _pad:
  6170                           	callstack 22
  6171   006B9C                     
  6172                           ;/Applications/microchip/xc8/v2.41/pic/sources/c99/common/doprnt.c: 152: static void pad
      +                          (FILE *fp, char *buf, int p);/Applications/microchip/xc8/v2.41/pic/sources/c99/common/do
      +                          prnt.c: 153: {;/Applications/microchip/xc8/v2.41/pic/sources/c99/common/doprnt.c: 154:  
      +                             int i, w;;/Applications/microchip/xc8/v2.41/pic/sources/c99/common/doprnt.c: 158:    
      +                           if (flags & (1 << 0)) {
  6173   006B9C  0100               	movlb	0	; () banked
  6174   006B9E  A170               	btfss	_flags& (0+255),0,b
  6175   006BA0  EFD4  F035         	goto	u1381
  6176   006BA4  EFD6  F035         	goto	u1380
  6177   006BA8                     u1381:
  6178   006BA8  EFE0  F035         	goto	l2338
  6179   006BAC                     u1380:
  6180   006BAC                     
  6181                           ; BSR set to: 0
  6182                           ;/Applications/microchip/xc8/v2.41/pic/sources/c99/common/doprnt.c: 159:         fputs((
      +                          const char *)buf, fp);
  6183   006BAC  C013  F00A         	movff	pad@buf,fputs@s
  6184   006BB0  C014  F00B         	movff	pad@buf+1,fputs@s+1
  6185   006BB4  C011  F00C         	movff	pad@fp,fputs@fp
  6186   006BB8  C012  F00D         	movff	pad@fp+1,fputs@fp+1
  6187   006BBC  EC90  F033         	call	_fputs	;wreg free
  6188   006BC0                     l2338:
  6189                           
  6190                           ;/Applications/microchip/xc8/v2.41/pic/sources/c99/common/doprnt.c: 164:     w = (p < 0)
      +                           ? 0 : p;
  6191   006BC0  BE16               	btfsc	(pad@p+1)^0,7,c
  6192   006BC2  EFE5  F035         	goto	u1391
  6193   006BC6  EFE7  F035         	goto	u1390
  6194   006BCA                     u1391:
  6195   006BCA  EFED  F035         	goto	l2342
  6196   006BCE                     u1390:
  6197   006BCE  C015  F01A         	movff	pad@p,pad@w
  6198   006BD2  C016  F01B         	movff	pad@p+1,pad@w+1
  6199   006BD6  EFF1  F035         	goto	l1114
  6200   006BDA                     l2342:
  6201   006BDA  0E00               	movlw	0
  6202   006BDC  6E1B               	movwf	(pad@w+1)^0,c
  6203   006BDE  0E00               	movlw	0
  6204   006BE0  6E1A               	movwf	pad@w^0,c
  6205   006BE2                     l1114:
  6206                           
  6207                           ;/Applications/microchip/xc8/v2.41/pic/sources/c99/common/doprnt.c: 165:     i = 0;
  6208   006BE2  0E00               	movlw	0
  6209   006BE4  6E19               	movwf	(pad@i+1)^0,c
  6210   006BE6  0E00               	movlw	0
  6211   006BE8  6E18               	movwf	pad@i^0,c
  6212                           
  6213                           ;/Applications/microchip/xc8/v2.41/pic/sources/c99/common/doprnt.c: 166:     while (i < 
      +                          w) {
  6214   006BEA  EF03  F036         	goto	l2348
  6215   006BEE                     l2344:
  6216                           
  6217                           ;/Applications/microchip/xc8/v2.41/pic/sources/c99/common/doprnt.c: 167:         fputc('
      +                           ', fp);
  6218   006BEE  0E00               	movlw	0
  6219   006BF0  6E02               	movwf	(fputc@c+1)^0,c
  6220   006BF2  0E20               	movlw	32
  6221   006BF4  6E01               	movwf	fputc@c^0,c
  6222   006BF6  C011  F003         	movff	pad@fp,fputc@fp
  6223   006BFA  C012  F004         	movff	pad@fp+1,fputc@fp+1
  6224   006BFE  ECF9  F037         	call	_fputc	;wreg free
  6225   006C02                     
  6226                           ;/Applications/microchip/xc8/v2.41/pic/sources/c99/common/doprnt.c: 168:         ++i;
  6227   006C02  4A18               	infsnz	pad@i^0,f,c
  6228   006C04  2A19               	incf	(pad@i+1)^0,f,c
  6229   006C06                     l2348:
  6230                           
  6231                           ;/Applications/microchip/xc8/v2.41/pic/sources/c99/common/doprnt.c: 166:     while (i < 
      +                          w) {
  6232   006C06  501A               	movf	pad@w^0,w,c
  6233   006C08  5C18               	subwf	pad@i^0,w,c
  6234   006C0A  5019               	movf	(pad@i+1)^0,w,c
  6235   006C0C  0A80               	xorlw	128
  6236   006C0E  6E17               	movwf	??_pad^0,c
  6237   006C10  501B               	movf	(pad@w+1)^0,w,c
  6238   006C12  0A80               	xorlw	128
  6239   006C14  5817               	subwfb	??_pad^0,w,c
  6240   006C16  A0D8               	btfss	status,0,c
  6241   006C18  EF10  F036         	goto	u1401
  6242   006C1C  EF12  F036         	goto	u1400
  6243   006C20                     u1401:
  6244   006C20  EFF7  F035         	goto	l2344
  6245   006C24                     u1400:
  6246   006C24                     
  6247                           ;/Applications/microchip/xc8/v2.41/pic/sources/c99/common/doprnt.c: 173:     if (!(flags
      +                           & (1 << 0))) {
  6248   006C24  0100               	movlb	0	; () banked
  6249   006C26  B170               	btfsc	_flags& (0+255),0,b
  6250   006C28  EF18  F036         	goto	u1411
  6251   006C2C  EF1A  F036         	goto	u1410
  6252   006C30                     u1411:
  6253   006C30  EF24  F036         	goto	l1119
  6254   006C34                     u1410:
  6255   006C34                     
  6256                           ; BSR set to: 0
  6257                           ;/Applications/microchip/xc8/v2.41/pic/sources/c99/common/doprnt.c: 175:         fputs((
      +                          const char *)buf, fp);
  6258   006C34  C013  F00A         	movff	pad@buf,fputs@s
  6259   006C38  C014  F00B         	movff	pad@buf+1,fputs@s+1
  6260   006C3C  C011  F00C         	movff	pad@fp,fputs@fp
  6261   006C40  C012  F00D         	movff	pad@fp+1,fputs@fp+1
  6262   006C44  EC90  F033         	call	_fputs	;wreg free
  6263   006C48                     l1119:
  6264   006C48  0012               	return		;funcret
  6265   006C4A                     __end_of_pad:
  6266                           	callstack 0
  6267                           
  6268 ;; *************** function _fputs *****************
  6269 ;; Defined at:
  6270 ;;		line 8 in file "/Applications/microchip/xc8/v2.41/pic/sources/c99/common/nf_fputs.c"
  6271 ;; Parameters:    Size  Location     Type
  6272 ;;  s               2    9[COMRAM] PTR const unsigned char 
  6273 ;;		 -> dbuf(32), 
  6274 ;;  fp              2   11[COMRAM] PTR struct _IO_FILE
  6275 ;;		 -> sprintf@f(12), 
  6276 ;; Auto vars:     Size  Location     Type
  6277 ;;  i               2   14[COMRAM] int 
  6278 ;;  c               1   13[COMRAM] unsigned char 
  6279 ;; Return value:  Size  Location     Type
  6280 ;;                  2    9[COMRAM] int 
  6281 ;; Registers used:
  6282 ;;		wreg, fsr1l, fsr1h, fsr2l, fsr2h, status,2, status,0, cstack
  6283 ;; Tracked objects:
  6284 ;;		On entry : 0/0
  6285 ;;		On exit  : 0/0
  6286 ;;		Unchanged: 0/0
  6287 ;; Data sizes:     COMRAM   BANK0   BANK1   BANK2   BANK3   BANK4   BANK5   BANK6   BANK7
  6288 ;;      Params:         4       0       0       0       0       0       0       0       0
  6289 ;;      Locals:         3       0       0       0       0       0       0       0       0
  6290 ;;      Temps:          0       0       0       0       0       0       0       0       0
  6291 ;;      Totals:         7       0       0       0       0       0       0       0       0
  6292 ;;Total ram usage:        7 bytes
  6293 ;; Hardware stack levels used: 1
  6294 ;; Hardware stack levels required when called: 2
  6295 ;; This function calls:
  6296 ;;		_fputc
  6297 ;; This function is called by:
  6298 ;;		_pad
  6299 ;; This function uses a non-reentrant model
  6300 ;;
  6301                           
  6302                           	psect	text41
  6303   006720                     __ptext41:
  6304                           	callstack 0
  6305   006720                     _fputs:
  6306                           	callstack 22
  6307   006720  0E00               	movlw	0
  6308   006722  6E10               	movwf	(fputs@i+1)^0,c
  6309   006724  0E00               	movlw	0
  6310   006726  6E0F               	movwf	fputs@i^0,c
  6311   006728  EFA1  F033         	goto	l2246
  6312   00672C                     l2242:
  6313   00672C  C00E  F001         	movff	fputs@c,fputc@c
  6314   006730  6A02               	clrf	(fputc@c+1)^0,c
  6315   006732  C00C  F003         	movff	fputs@fp,fputc@fp
  6316   006736  C00D  F004         	movff	fputs@fp+1,fputc@fp+1
  6317   00673A  ECF9  F037         	call	_fputc	;wreg free
  6318   00673E  4A0F               	infsnz	fputs@i^0,f,c
  6319   006740  2A10               	incf	(fputs@i+1)^0,f,c
  6320   006742                     l2246:
  6321   006742  500F               	movf	fputs@i^0,w,c
  6322   006744  240A               	addwf	fputs@s^0,w,c
  6323   006746  6ED9               	movwf	fsr2l,c
  6324   006748  5010               	movf	(fputs@i+1)^0,w,c
  6325   00674A  200B               	addwfc	(fputs@s+1)^0,w,c
  6326   00674C  6EDA               	movwf	fsr2h,c
  6327   00674E  50DF               	movf	indf2,w,c
  6328   006750  6E0E               	movwf	fputs@c^0,c
  6329   006752  500E               	movf	fputs@c^0,w,c
  6330   006754  A4D8               	btfss	status,2,c
  6331   006756  EFAF  F033         	goto	u1251
  6332   00675A  EFB1  F033         	goto	u1250
  6333   00675E                     u1251:
  6334   00675E  EF96  F033         	goto	l2242
  6335   006762                     u1250:
  6336   006762  0012               	return		;funcret
  6337   006764                     __end_of_fputs:
  6338                           	callstack 0
  6339                           
  6340 ;; *************** function _fputc *****************
  6341 ;; Defined at:
  6342 ;;		line 8 in file "/Applications/microchip/xc8/v2.41/pic/sources/c99/common/nf_fputc.c"
  6343 ;; Parameters:    Size  Location     Type
  6344 ;;  c               2    0[COMRAM] int 
  6345 ;;  fp              2    2[COMRAM] PTR struct _IO_FILE
  6346 ;;		 -> sprintf@f(12), 
  6347 ;; Auto vars:     Size  Location     Type
  6348 ;;		None
  6349 ;; Return value:  Size  Location     Type
  6350 ;;                  2    0[COMRAM] int 
  6351 ;; Registers used:
  6352 ;;		wreg, fsr1l, fsr1h, fsr2l, fsr2h, status,2, status,0, cstack
  6353 ;; Tracked objects:
  6354 ;;		On entry : 0/0
  6355 ;;		On exit  : 0/0
  6356 ;;		Unchanged: 0/0
  6357 ;; Data sizes:     COMRAM   BANK0   BANK1   BANK2   BANK3   BANK4   BANK5   BANK6   BANK7
  6358 ;;      Params:         4       0       0       0       0       0       0       0       0
  6359 ;;      Locals:         0       0       0       0       0       0       0       0       0
  6360 ;;      Temps:          5       0       0       0       0       0       0       0       0
  6361 ;;      Totals:         9       0       0       0       0       0       0       0       0
  6362 ;;Total ram usage:        9 bytes
  6363 ;; Hardware stack levels used: 1
  6364 ;; Hardware stack levels required when called: 1
  6365 ;; This function calls:
  6366 ;;		_putch
  6367 ;; This function is called by:
  6368 ;;		_pad
  6369 ;;		_stoa
  6370 ;;		_vfpfcnvrt
  6371 ;;		_fputs
  6372 ;; This function uses a non-reentrant model
  6373 ;;
  6374                           
  6375                           	psect	text42
  6376   006FF2                     __ptext42:
  6377                           	callstack 0
  6378   006FF2                     _fputc:
  6379                           	callstack 24
  6380   006FF2  5003               	movf	fputc@fp^0,w,c
  6381   006FF4  1004               	iorwf	(fputc@fp+1)^0,w,c
  6382   006FF6  B4D8               	btfsc	status,2,c
  6383   006FF8  EF00  F038         	goto	u1211
  6384   006FFC  EF02  F038         	goto	u1210
  6385   007000                     u1211:
  6386   007000  EF0B  F038         	goto	l2230
  6387   007004                     u1210:
  6388   007004  5003               	movf	fputc@fp^0,w,c
  6389   007006  1004               	iorwf	(fputc@fp+1)^0,w,c
  6390   007008  A4D8               	btfss	status,2,c
  6391   00700A  EF09  F038         	goto	u1221
  6392   00700E  EF0B  F038         	goto	u1220
  6393   007012                     u1221:
  6394   007012  EF10  F038         	goto	l2232
  6395   007016                     u1220:
  6396   007016                     l2230:
  6397   007016  5001               	movf	fputc@c^0,w,c
  6398   007018  ECF5  F031         	call	_putch
  6399   00701C  EF5D  F038         	goto	l1220
  6400   007020                     l2232:
  6401   007020  EE20 F00A          	lfsr	2,10
  6402   007024  5003               	movf	fputc@fp^0,w,c
  6403   007026  26D9               	addwf	fsr2l,f,c
  6404   007028  5004               	movf	(fputc@fp+1)^0,w,c
  6405   00702A  22DA               	addwfc	fsr2h,f,c
  6406   00702C  50DE               	movf	postinc2,w,c
  6407   00702E  10DE               	iorwf	postinc2,w,c
  6408   007030  B4D8               	btfsc	status,2,c
  6409   007032  EF1D  F038         	goto	u1231
  6410   007036  EF1F  F038         	goto	u1230
  6411   00703A                     u1231:
  6412   00703A  EF3A  F038         	goto	l2236
  6413   00703E                     u1230:
  6414   00703E  EE20 F00A          	lfsr	2,10
  6415   007042  5003               	movf	fputc@fp^0,w,c
  6416   007044  26D9               	addwf	fsr2l,f,c
  6417   007046  5004               	movf	(fputc@fp+1)^0,w,c
  6418   007048  22DA               	addwfc	fsr2h,f,c
  6419   00704A  EE10 F003          	lfsr	1,3
  6420   00704E  5003               	movf	fputc@fp^0,w,c
  6421   007050  26E1               	addwf	fsr1l,f,c
  6422   007052  5004               	movf	(fputc@fp+1)^0,w,c
  6423   007054  22E2               	addwfc	fsr1h,f,c
  6424   007056  50DE               	movf	postinc2,w,c
  6425   007058  5CE6               	subwf	postinc1,w,c
  6426   00705A  50E6               	movf	postinc1,w,c
  6427   00705C  0A80               	xorlw	128
  6428   00705E  6E09               	movwf	(??_fputc+4)^0,c
  6429   007060  50DE               	movf	postinc2,w,c
  6430   007062  0A80               	xorlw	128
  6431   007064  5809               	subwfb	(??_fputc+4)^0,w,c
  6432   007066  B0D8               	btfsc	status,0,c
  6433   007068  EF38  F038         	goto	u1241
  6434   00706C  EF3A  F038         	goto	u1240
  6435   007070                     u1241:
  6436   007070  EF5D  F038         	goto	l1220
  6437   007074                     u1240:
  6438   007074                     l2236:
  6439   007074  EE20 F003          	lfsr	2,3
  6440   007078  5003               	movf	fputc@fp^0,w,c
  6441   00707A  26D9               	addwf	fsr2l,f,c
  6442   00707C  5004               	movf	(fputc@fp+1)^0,w,c
  6443   00707E  22DA               	addwfc	fsr2h,f,c
  6444   007080  CFDE F005          	movff	postinc2,??_fputc
  6445   007084  CFDD F006          	movff	postdec2,??_fputc+1
  6446   007088  C003  FFD9         	movff	fputc@fp,fsr2l
  6447   00708C  C004  FFDA         	movff	fputc@fp+1,fsr2h
  6448   007090  CFDE F007          	movff	postinc2,??_fputc+2
  6449   007094  CFDD F008          	movff	postdec2,??_fputc+3
  6450   007098  5005               	movf	??_fputc^0,w,c
  6451   00709A  2407               	addwf	(??_fputc+2)^0,w,c
  6452   00709C  6ED9               	movwf	fsr2l,c
  6453   00709E  5006               	movf	(??_fputc+1)^0,w,c
  6454   0070A0  2008               	addwfc	(??_fputc+3)^0,w,c
  6455   0070A2  6EDA               	movwf	fsr2h,c
  6456   0070A4  C001  FFDF         	movff	fputc@c,indf2
  6457   0070A8  EE20 F003          	lfsr	2,3
  6458   0070AC  5003               	movf	fputc@fp^0,w,c
  6459   0070AE  26D9               	addwf	fsr2l,f,c
  6460   0070B0  5004               	movf	(fputc@fp+1)^0,w,c
  6461   0070B2  22DA               	addwfc	fsr2h,f,c
  6462   0070B4  2ADE               	incf	postinc2,f,c
  6463   0070B6  0E00               	movlw	0
  6464   0070B8  22DD               	addwfc	postdec2,f,c
  6465   0070BA                     l1220:
  6466   0070BA  0012               	return		;funcret
  6467   0070BC                     __end_of_fputc:
  6468                           	callstack 0
  6469                           
  6470 ;; *************** function _putch *****************
  6471 ;; Defined at:
  6472 ;;		line 7 in file "/Applications/microchip/xc8/v2.41/pic/sources/c99/common/putch.c"
  6473 ;; Parameters:    Size  Location     Type
  6474 ;;  c               1    wreg     unsigned char 
  6475 ;; Auto vars:     Size  Location     Type
  6476 ;;  c               1    0[COMRAM] unsigned char 
  6477 ;; Return value:  Size  Location     Type
  6478 ;;                  1    wreg      void 
  6479 ;; Registers used:
  6480 ;;		wreg
  6481 ;; Tracked objects:
  6482 ;;		On entry : 0/0
  6483 ;;		On exit  : 0/0
  6484 ;;		Unchanged: 0/0
  6485 ;; Data sizes:     COMRAM   BANK0   BANK1   BANK2   BANK3   BANK4   BANK5   BANK6   BANK7
  6486 ;;      Params:         0       0       0       0       0       0       0       0       0
  6487 ;;      Locals:         0       0       0       0       0       0       0       0       0
  6488 ;;      Temps:          0       0       0       0       0       0       0       0       0
  6489 ;;      Totals:         0       0       0       0       0       0       0       0       0
  6490 ;;Total ram usage:        0 bytes
  6491 ;; Hardware stack levels used: 1
  6492 ;; This function calls:
  6493 ;;		Nothing
  6494 ;; This function is called by:
  6495 ;;		_fputc
  6496 ;; This function uses a non-reentrant model
  6497 ;;
  6498                           
  6499                           	psect	text43
  6500   0063EA                     __ptext43:
  6501                           	callstack 0
  6502   0063EA                     _putch:
  6503                           	callstack 24
  6504   0063EA  0012               	return		;funcret
  6505   0063EC                     __end_of_putch:
  6506                           	callstack 0
  6507                           
  6508 ;; *************** function _abs *****************
  6509 ;; Defined at:
  6510 ;;		line 1 in file "/Applications/microchip/xc8/v2.41/pic/sources/c99/common/abs.c"
  6511 ;; Parameters:    Size  Location     Type
  6512 ;;  a               2    6[COMRAM] int 
  6513 ;; Auto vars:     Size  Location     Type
  6514 ;;		None
  6515 ;; Return value:  Size  Location     Type
  6516 ;;                  2    6[COMRAM] int 
  6517 ;; Registers used:
  6518 ;;		wreg, status,2, status,0
  6519 ;; Tracked objects:
  6520 ;;		On entry : 0/0
  6521 ;;		On exit  : 0/0
  6522 ;;		Unchanged: 0/0
  6523 ;; Data sizes:     COMRAM   BANK0   BANK1   BANK2   BANK3   BANK4   BANK5   BANK6   BANK7
  6524 ;;      Params:         2       0       0       0       0       0       0       0       0
  6525 ;;      Locals:         0       0       0       0       0       0       0       0       0
  6526 ;;      Temps:          2       0       0       0       0       0       0       0       0
  6527 ;;      Totals:         4       0       0       0       0       0       0       0       0
  6528 ;;Total ram usage:        4 bytes
  6529 ;; Hardware stack levels used: 1
  6530 ;; This function calls:
  6531 ;;		Nothing
  6532 ;; This function is called by:
  6533 ;;		_dtoa
  6534 ;; This function uses a non-reentrant model
  6535 ;;
  6536                           
  6537                           	psect	text44
  6538   0066A0                     __ptext44:
  6539                           	callstack 0
  6540   0066A0                     _abs:
  6541                           	callstack 25
  6542   0066A0  BE08               	btfsc	(abs@a+1)^0,7,c
  6543   0066A2  EF5D  F033         	goto	u1420
  6544   0066A6  5008               	movf	(abs@a+1)^0,w,c
  6545   0066A8  E106               	bnz	u1421
  6546   0066AA  0407               	decf	abs@a^0,w,c
  6547   0066AC  B0D8               	btfsc	status,0,c
  6548   0066AE  EF5B  F033         	goto	u1421
  6549   0066B2  EF5D  F033         	goto	u1420
  6550   0066B6                     u1421:
  6551   0066B6  EF6B  F033         	goto	l1205
  6552   0066BA                     u1420:
  6553   0066BA  C007  F009         	movff	abs@a,??_abs
  6554   0066BE  C008  F00A         	movff	abs@a+1,??_abs+1
  6555   0066C2  1E09               	comf	??_abs^0,f,c
  6556   0066C4  1E0A               	comf	(??_abs+1)^0,f,c
  6557   0066C6  4A09               	infsnz	??_abs^0,f,c
  6558   0066C8  2A0A               	incf	(??_abs+1)^0,f,c
  6559   0066CA  C009  F007         	movff	??_abs,?_abs
  6560   0066CE  C00A  F008         	movff	??_abs+1,?_abs+1
  6561   0066D2  EF6F  F033         	goto	l1208
  6562   0066D6                     l1205:
  6563   0066D6  C007  F007         	movff	abs@a,?_abs
  6564   0066DA  C008  F008         	movff	abs@a+1,?_abs+1
  6565   0066DE                     l1208:
  6566   0066DE  0012               	return		;funcret
  6567   0066E0                     __end_of_abs:
  6568                           	callstack 0
  6569                           
  6570 ;; *************** function ___awmod *****************
  6571 ;; Defined at:
  6572 ;;		line 7 in file "/Applications/microchip/xc8/v2.41/pic/sources/c99/common/awmod.c"
  6573 ;; Parameters:    Size  Location     Type
  6574 ;;  dividend        2    0[COMRAM] int 
  6575 ;;  divisor         2    2[COMRAM] int 
  6576 ;; Auto vars:     Size  Location     Type
  6577 ;;  sign            1    5[COMRAM] unsigned char 
  6578 ;;  counter         1    4[COMRAM] unsigned char 
  6579 ;; Return value:  Size  Location     Type
  6580 ;;                  2    0[COMRAM] int 
  6581 ;; Registers used:
  6582 ;;		wreg, status,2, status,0
  6583 ;; Tracked objects:
  6584 ;;		On entry : 0/0
  6585 ;;		On exit  : 0/0
  6586 ;;		Unchanged: 0/0
  6587 ;; Data sizes:     COMRAM   BANK0   BANK1   BANK2   BANK3   BANK4   BANK5   BANK6   BANK7
  6588 ;;      Params:         4       0       0       0       0       0       0       0       0
  6589 ;;      Locals:         2       0       0       0       0       0       0       0       0
  6590 ;;      Temps:          0       0       0       0       0       0       0       0       0
  6591 ;;      Totals:         6       0       0       0       0       0       0       0       0
  6592 ;;Total ram usage:        6 bytes
  6593 ;; Hardware stack levels used: 1
  6594 ;; This function calls:
  6595 ;;		Nothing
  6596 ;; This function is called by:
  6597 ;;		_dtoa
  6598 ;; This function uses a non-reentrant model
  6599 ;;
  6600                           
  6601                           	psect	text45
  6602   006C4A                     __ptext45:
  6603                           	callstack 0
  6604   006C4A                     ___awmod:
  6605                           	callstack 25
  6606   006C4A  0E00               	movlw	0
  6607   006C4C  6E06               	movwf	___awmod@sign^0,c
  6608   006C4E  BE02               	btfsc	(___awmod@dividend+1)^0,7,c
  6609   006C50  EF2E  F036         	goto	u1320
  6610   006C54  EF2C  F036         	goto	u1321
  6611   006C58                     u1321:
  6612   006C58  EF34  F036         	goto	l2306
  6613   006C5C                     u1320:
  6614   006C5C  6C01               	negf	___awmod@dividend^0,c
  6615   006C5E  1E02               	comf	(___awmod@dividend+1)^0,f,c
  6616   006C60  B0D8               	btfsc	status,0,c
  6617   006C62  2A02               	incf	(___awmod@dividend+1)^0,f,c
  6618   006C64  0E01               	movlw	1
  6619   006C66  6E06               	movwf	___awmod@sign^0,c
  6620   006C68                     l2306:
  6621   006C68  BE04               	btfsc	(___awmod@divisor+1)^0,7,c
  6622   006C6A  EF3B  F036         	goto	u1330
  6623   006C6E  EF39  F036         	goto	u1331
  6624   006C72                     u1331:
  6625   006C72  EF3F  F036         	goto	l2310
  6626   006C76                     u1330:
  6627   006C76  6C03               	negf	___awmod@divisor^0,c
  6628   006C78  1E04               	comf	(___awmod@divisor+1)^0,f,c
  6629   006C7A  B0D8               	btfsc	status,0,c
  6630   006C7C  2A04               	incf	(___awmod@divisor+1)^0,f,c
  6631   006C7E                     l2310:
  6632   006C7E  5003               	movf	___awmod@divisor^0,w,c
  6633   006C80  1004               	iorwf	(___awmod@divisor+1)^0,w,c
  6634   006C82  B4D8               	btfsc	status,2,c
  6635   006C84  EF46  F036         	goto	u1341
  6636   006C88  EF48  F036         	goto	u1340
  6637   006C8C                     u1341:
  6638   006C8C  EF6C  F036         	goto	l2326
  6639   006C90                     u1340:
  6640   006C90  0E01               	movlw	1
  6641   006C92  6E05               	movwf	___awmod@counter^0,c
  6642   006C94  EF50  F036         	goto	l2316
  6643   006C98                     l2314:
  6644   006C98  90D8               	bcf	status,0,c
  6645   006C9A  3603               	rlcf	___awmod@divisor^0,f,c
  6646   006C9C  3604               	rlcf	(___awmod@divisor+1)^0,f,c
  6647   006C9E  2A05               	incf	___awmod@counter^0,f,c
  6648   006CA0                     l2316:
  6649   006CA0  AE04               	btfss	(___awmod@divisor+1)^0,7,c
  6650   006CA2  EF55  F036         	goto	u1351
  6651   006CA6  EF57  F036         	goto	u1350
  6652   006CAA                     u1351:
  6653   006CAA  EF4C  F036         	goto	l2314
  6654   006CAE                     u1350:
  6655   006CAE                     l2318:
  6656   006CAE  5003               	movf	___awmod@divisor^0,w,c
  6657   006CB0  5C01               	subwf	___awmod@dividend^0,w,c
  6658   006CB2  5004               	movf	(___awmod@divisor+1)^0,w,c
  6659   006CB4  5802               	subwfb	(___awmod@dividend+1)^0,w,c
  6660   006CB6  A0D8               	btfss	status,0,c
  6661   006CB8  EF60  F036         	goto	u1361
  6662   006CBC  EF62  F036         	goto	u1360
  6663   006CC0                     u1361:
  6664   006CC0  EF66  F036         	goto	l2322
  6665   006CC4                     u1360:
  6666   006CC4  5003               	movf	___awmod@divisor^0,w,c
  6667   006CC6  5E01               	subwf	___awmod@dividend^0,f,c
  6668   006CC8  5004               	movf	(___awmod@divisor+1)^0,w,c
  6669   006CCA  5A02               	subwfb	(___awmod@dividend+1)^0,f,c
  6670   006CCC                     l2322:
  6671   006CCC  90D8               	bcf	status,0,c
  6672   006CCE  3204               	rrcf	(___awmod@divisor+1)^0,f,c
  6673   006CD0  3203               	rrcf	___awmod@divisor^0,f,c
  6674   006CD2  2E05               	decfsz	___awmod@counter^0,f,c
  6675   006CD4  EF57  F036         	goto	l2318
  6676   006CD8                     l2326:
  6677   006CD8  5006               	movf	___awmod@sign^0,w,c
  6678   006CDA  B4D8               	btfsc	status,2,c
  6679   006CDC  EF72  F036         	goto	u1371
  6680   006CE0  EF74  F036         	goto	u1370
  6681   006CE4                     u1371:
  6682   006CE4  EF78  F036         	goto	l2330
  6683   006CE8                     u1370:
  6684   006CE8  6C01               	negf	___awmod@dividend^0,c
  6685   006CEA  1E02               	comf	(___awmod@dividend+1)^0,f,c
  6686   006CEC  B0D8               	btfsc	status,0,c
  6687   006CEE  2A02               	incf	(___awmod@dividend+1)^0,f,c
  6688   006CF0                     l2330:
  6689   006CF0  C001  F001         	movff	___awmod@dividend,?___awmod
  6690   006CF4  C002  F002         	movff	___awmod@dividend+1,?___awmod+1
  6691   006CF8  0012               	return		;funcret
  6692   006CFA                     __end_of___awmod:
  6693                           	callstack 0
  6694                           
  6695 ;; *************** function ___awdiv *****************
  6696 ;; Defined at:
  6697 ;;		line 7 in file "/Applications/microchip/xc8/v2.41/pic/sources/c99/common/awdiv.c"
  6698 ;; Parameters:    Size  Location     Type
  6699 ;;  dividend        2    0[COMRAM] int 
  6700 ;;  divisor         2    2[COMRAM] int 
  6701 ;; Auto vars:     Size  Location     Type
  6702 ;;  quotient        2    6[COMRAM] int 
  6703 ;;  sign            1    5[COMRAM] unsigned char 
  6704 ;;  counter         1    4[COMRAM] unsigned char 
  6705 ;; Return value:  Size  Location     Type
  6706 ;;                  2    0[COMRAM] int 
  6707 ;; Registers used:
  6708 ;;		wreg, status,2, status,0
  6709 ;; Tracked objects:
  6710 ;;		On entry : 0/0
  6711 ;;		On exit  : 0/0
  6712 ;;		Unchanged: 0/0
  6713 ;; Data sizes:     COMRAM   BANK0   BANK1   BANK2   BANK3   BANK4   BANK5   BANK6   BANK7
  6714 ;;      Params:         4       0       0       0       0       0       0       0       0
  6715 ;;      Locals:         4       0       0       0       0       0       0       0       0
  6716 ;;      Temps:          0       0       0       0       0       0       0       0       0
  6717 ;;      Totals:         8       0       0       0       0       0       0       0       0
  6718 ;;Total ram usage:        8 bytes
  6719 ;; Hardware stack levels used: 1
  6720 ;; This function calls:
  6721 ;;		Nothing
  6722 ;; This function is called by:
  6723 ;;		_dtoa
  6724 ;; This function uses a non-reentrant model
  6725 ;;
  6726                           
  6727                           	psect	text46
  6728   006E68                     __ptext46:
  6729                           	callstack 0
  6730   006E68                     ___awdiv:
  6731                           	callstack 25
  6732   006E68  0E00               	movlw	0
  6733   006E6A  6E06               	movwf	___awdiv@sign^0,c
  6734   006E6C  BE04               	btfsc	(___awdiv@divisor+1)^0,7,c
  6735   006E6E  EF3D  F037         	goto	u1260
  6736   006E72  EF3B  F037         	goto	u1261
  6737   006E76                     u1261:
  6738   006E76  EF43  F037         	goto	l2262
  6739   006E7A                     u1260:
  6740   006E7A  6C03               	negf	___awdiv@divisor^0,c
  6741   006E7C  1E04               	comf	(___awdiv@divisor+1)^0,f,c
  6742   006E7E  B0D8               	btfsc	status,0,c
  6743   006E80  2A04               	incf	(___awdiv@divisor+1)^0,f,c
  6744   006E82  0E01               	movlw	1
  6745   006E84  6E06               	movwf	___awdiv@sign^0,c
  6746   006E86                     l2262:
  6747   006E86  BE02               	btfsc	(___awdiv@dividend+1)^0,7,c
  6748   006E88  EF4A  F037         	goto	u1270
  6749   006E8C  EF48  F037         	goto	u1271
  6750   006E90                     u1271:
  6751   006E90  EF50  F037         	goto	l2268
  6752   006E94                     u1270:
  6753   006E94  6C01               	negf	___awdiv@dividend^0,c
  6754   006E96  1E02               	comf	(___awdiv@dividend+1)^0,f,c
  6755   006E98  B0D8               	btfsc	status,0,c
  6756   006E9A  2A02               	incf	(___awdiv@dividend+1)^0,f,c
  6757   006E9C  0E01               	movlw	1
  6758   006E9E  1A06               	xorwf	___awdiv@sign^0,f,c
  6759   006EA0                     l2268:
  6760   006EA0  0E00               	movlw	0
  6761   006EA2  6E08               	movwf	(___awdiv@quotient+1)^0,c
  6762   006EA4  0E00               	movlw	0
  6763   006EA6  6E07               	movwf	___awdiv@quotient^0,c
  6764   006EA8  5003               	movf	___awdiv@divisor^0,w,c
  6765   006EAA  1004               	iorwf	(___awdiv@divisor+1)^0,w,c
  6766   006EAC  B4D8               	btfsc	status,2,c
  6767   006EAE  EF5B  F037         	goto	u1281
  6768   006EB2  EF5D  F037         	goto	u1280
  6769   006EB6                     u1281:
  6770   006EB6  EF85  F037         	goto	l2290
  6771   006EBA                     u1280:
  6772   006EBA  0E01               	movlw	1
  6773   006EBC  6E05               	movwf	___awdiv@counter^0,c
  6774   006EBE  EF65  F037         	goto	l2276
  6775   006EC2                     l2274:
  6776   006EC2  90D8               	bcf	status,0,c
  6777   006EC4  3603               	rlcf	___awdiv@divisor^0,f,c
  6778   006EC6  3604               	rlcf	(___awdiv@divisor+1)^0,f,c
  6779   006EC8  2A05               	incf	___awdiv@counter^0,f,c
  6780   006ECA                     l2276:
  6781   006ECA  AE04               	btfss	(___awdiv@divisor+1)^0,7,c
  6782   006ECC  EF6A  F037         	goto	u1291
  6783   006ED0  EF6C  F037         	goto	u1290
  6784   006ED4                     u1291:
  6785   006ED4  EF61  F037         	goto	l2274
  6786   006ED8                     u1290:
  6787   006ED8                     l2278:
  6788   006ED8  90D8               	bcf	status,0,c
  6789   006EDA  3607               	rlcf	___awdiv@quotient^0,f,c
  6790   006EDC  3608               	rlcf	(___awdiv@quotient+1)^0,f,c
  6791   006EDE  5003               	movf	___awdiv@divisor^0,w,c
  6792   006EE0  5C01               	subwf	___awdiv@dividend^0,w,c
  6793   006EE2  5004               	movf	(___awdiv@divisor+1)^0,w,c
  6794   006EE4  5802               	subwfb	(___awdiv@dividend+1)^0,w,c
  6795   006EE6  A0D8               	btfss	status,0,c
  6796   006EE8  EF78  F037         	goto	u1301
  6797   006EEC  EF7A  F037         	goto	u1300
  6798   006EF0                     u1301:
  6799   006EF0  EF7F  F037         	goto	l2286
  6800   006EF4                     u1300:
  6801   006EF4  5003               	movf	___awdiv@divisor^0,w,c
  6802   006EF6  5E01               	subwf	___awdiv@dividend^0,f,c
  6803   006EF8  5004               	movf	(___awdiv@divisor+1)^0,w,c
  6804   006EFA  5A02               	subwfb	(___awdiv@dividend+1)^0,f,c
  6805   006EFC  8007               	bsf	___awdiv@quotient^0,0,c
  6806   006EFE                     l2286:
  6807   006EFE  90D8               	bcf	status,0,c
  6808   006F00  3204               	rrcf	(___awdiv@divisor+1)^0,f,c
  6809   006F02  3203               	rrcf	___awdiv@divisor^0,f,c
  6810   006F04  2E05               	decfsz	___awdiv@counter^0,f,c
  6811   006F06  EF6C  F037         	goto	l2278
  6812   006F0A                     l2290:
  6813   006F0A  5006               	movf	___awdiv@sign^0,w,c
  6814   006F0C  B4D8               	btfsc	status,2,c
  6815   006F0E  EF8B  F037         	goto	u1311
  6816   006F12  EF8D  F037         	goto	u1310
  6817   006F16                     u1311:
  6818   006F16  EF91  F037         	goto	l2294
  6819   006F1A                     u1310:
  6820   006F1A  6C07               	negf	___awdiv@quotient^0,c
  6821   006F1C  1E08               	comf	(___awdiv@quotient+1)^0,f,c
  6822   006F1E  B0D8               	btfsc	status,0,c
  6823   006F20  2A08               	incf	(___awdiv@quotient+1)^0,f,c
  6824   006F22                     l2294:
  6825   006F22  C007  F001         	movff	___awdiv@quotient,?___awdiv
  6826   006F26  C008  F002         	movff	___awdiv@quotient+1,?___awdiv+1
  6827   006F2A  0012               	return		;funcret
  6828   006F2C                     __end_of___awdiv:
  6829                           	callstack 0
  6830                           
  6831 ;; *************** function _Beep *****************
  6832 ;; Defined at:
  6833 ;;		line 304 in file "main_piee2.c"
  6834 ;; Parameters:    Size  Location     Type
  6835 ;;  tipo            1    wreg     unsigned char 
  6836 ;; Auto vars:     Size  Location     Type
  6837 ;;  tipo            1    8[COMRAM] unsigned char 
  6838 ;; Return value:  Size  Location     Type
  6839 ;;                  1    wreg      void 
  6840 ;; Registers used:
  6841 ;;		wreg, status,2, status,0, cstack
  6842 ;; Tracked objects:
  6843 ;;		On entry : 0/0
  6844 ;;		On exit  : 0/0
  6845 ;;		Unchanged: 0/0
  6846 ;; Data sizes:     COMRAM   BANK0   BANK1   BANK2   BANK3   BANK4   BANK5   BANK6   BANK7
  6847 ;;      Params:         0       0       0       0       0       0       0       0       0
  6848 ;;      Locals:         1       0       0       0       0       0       0       0       0
  6849 ;;      Temps:          2       0       0       0       0       0       0       0       0
  6850 ;;      Totals:         3       0       0       0       0       0       0       0       0
  6851 ;;Total ram usage:        3 bytes
  6852 ;; Hardware stack levels used: 1
  6853 ;; Hardware stack levels required when called: 1
  6854 ;; This function calls:
  6855 ;;		_MSdelay
  6856 ;; This function is called by:
  6857 ;;		_main
  6858 ;; This function uses a non-reentrant model
  6859 ;;
  6860                           
  6861                           	psect	text47
  6862   0069D8                     __ptext47:
  6863                           	callstack 0
  6864   0069D8                     _Beep:
  6865                           	callstack 29
  6866                           
  6867                           ;incstack = 0
  6868                           ;Beep@tipo stored from wreg
  6869   0069D8  6E09               	movwf	Beep@tipo^0,c
  6870   0069DA                     
  6871                           ;main_piee2.c: 305:     switch(tipo) {
  6872   0069DA  EF19  F035         	goto	l2882
  6873   0069DE                     l168:
  6874                           
  6875                           ;main_piee2.c: 307:             LATD0 = 1;
  6876   0069DE  808C               	bsf	3980,0,c	;volatile
  6877   0069E0                     
  6878                           ;main_piee2.c: 308:             MSdelay(2000);
  6879   0069E0  0E07               	movlw	7
  6880   0069E2  6E02               	movwf	(MSdelay@val+1)^0,c
  6881   0069E4  0ED0               	movlw	208
  6882   0069E6  6E01               	movwf	MSdelay@val^0,c
  6883   0069E8  ECD6  F033         	call	_MSdelay	;wreg free
  6884   0069EC                     l2866:
  6885                           
  6886                           ;main_piee2.c: 309:             LATD0 = 0;
  6887   0069EC  908C               	bcf	3980,0,c	;volatile
  6888                           
  6889                           ;main_piee2.c: 310:             break;
  6890   0069EE  EF32  F035         	goto	l172
  6891   0069F2                     l170:
  6892                           
  6893                           ;main_piee2.c: 313:             LATD0 = 1; MSdelay(250); LATD0 = 0; MSdelay(100);
  6894   0069F2  808C               	bsf	3980,0,c	;volatile
  6895   0069F4  0E00               	movlw	0
  6896   0069F6  6E02               	movwf	(MSdelay@val+1)^0,c
  6897   0069F8  0EFA               	movlw	250
  6898   0069FA  6E01               	movwf	MSdelay@val^0,c
  6899   0069FC  ECD6  F033         	call	_MSdelay	;wreg free
  6900   006A00  908C               	bcf	3980,0,c	;volatile
  6901   006A02  0E00               	movlw	0
  6902   006A04  6E02               	movwf	(MSdelay@val+1)^0,c
  6903   006A06  0E64               	movlw	100
  6904   006A08  6E01               	movwf	MSdelay@val^0,c
  6905   006A0A  ECD6  F033         	call	_MSdelay	;wreg free
  6906   006A0E                     
  6907                           ;main_piee2.c: 314:             LATD0 = 1; MSdelay(250); LATD0 = 0;
  6908   006A0E  808C               	bsf	3980,0,c	;volatile
  6909   006A10  0E00               	movlw	0
  6910   006A12  6E02               	movwf	(MSdelay@val+1)^0,c
  6911   006A14  0EFA               	movlw	250
  6912   006A16  6E01               	movwf	MSdelay@val^0,c
  6913   006A18  ECD6  F033         	call	_MSdelay	;wreg free
  6914   006A1C  EFF6  F034         	goto	l2866
  6915   006A20                     l171:
  6916                           
  6917                           ;main_piee2.c: 318:             LATD0 = 1;
  6918   006A20  808C               	bsf	3980,0,c	;volatile
  6919   006A22                     
  6920                           ;main_piee2.c: 319:             MSdelay(100);
  6921   006A22  0E00               	movlw	0
  6922   006A24  6E02               	movwf	(MSdelay@val+1)^0,c
  6923   006A26  0E64               	movlw	100
  6924   006A28  6E01               	movwf	MSdelay@val^0,c
  6925   006A2A  ECD6  F033         	call	_MSdelay	;wreg free
  6926   006A2E  EFF6  F034         	goto	l2866
  6927   006A32                     l2882:
  6928   006A32  5009               	movf	Beep@tipo^0,w,c
  6929   006A34  6E07               	movwf	??_Beep^0,c
  6930   006A36  6A08               	clrf	(??_Beep+1)^0,c
  6931                           
  6932                           ; Switch on 2 bytes has been partitioned into a top level switch of size 1, and 1 sub-sw
      +                          itches
  6933                           ; Switch size 1, requested type "simple"
  6934                           ; Number of cases is 1, Range of values is 0 to 0
  6935                           ; switch strategies available:
  6936                           ; Name         Instructions Cycles
  6937                           ; simple_byte            4     3 (average)
  6938                           ;	Chosen strategy is simple_byte
  6939   006A38  5008               	movf	(??_Beep+1)^0,w,c
  6940   006A3A  0A00               	xorlw	0	; case 0
  6941   006A3C  B4D8               	btfsc	status,2,c
  6942   006A3E  EF23  F035         	goto	l3328
  6943   006A42  EF32  F035         	goto	l172
  6944   006A46                     l3328:
  6945                           
  6946                           ; Switch size 1, requested type "simple"
  6947                           ; Number of cases is 3, Range of values is 1 to 3
  6948                           ; switch strategies available:
  6949                           ; Name         Instructions Cycles
  6950                           ; simple_byte           10     6 (average)
  6951                           ;	Chosen strategy is simple_byte
  6952   006A46  5007               	movf	??_Beep^0,w,c
  6953   006A48  0A01               	xorlw	1	; case 1
  6954   006A4A  B4D8               	btfsc	status,2,c
  6955   006A4C  EFEF  F034         	goto	l168
  6956   006A50  0A03               	xorlw	3	; case 2
  6957   006A52  B4D8               	btfsc	status,2,c
  6958   006A54  EFF9  F034         	goto	l170
  6959   006A58  0A01               	xorlw	1	; case 3
  6960   006A5A  B4D8               	btfsc	status,2,c
  6961   006A5C  EF10  F035         	goto	l171
  6962   006A60  EF32  F035         	goto	l172
  6963   006A64                     l172:
  6964   006A64  0012               	return		;funcret
  6965   006A66                     __end_of_Beep:
  6966                           	callstack 0
  6967                           
  6968 ;; *************** function _MSdelay *****************
  6969 ;; Defined at:
  6970 ;;		line 10 in file "msdelay.c"
  6971 ;; Parameters:    Size  Location     Type
  6972 ;;  val             2    0[COMRAM] unsigned int 
  6973 ;; Auto vars:     Size  Location     Type
  6974 ;;  j               2    4[COMRAM] unsigned int 
  6975 ;;  i               2    2[COMRAM] unsigned int 
  6976 ;; Return value:  Size  Location     Type
  6977 ;;                  1    wreg      void 
  6978 ;; Registers used:
  6979 ;;		wreg, status,2, status,0
  6980 ;; Tracked objects:
  6981 ;;		On entry : 0/0
  6982 ;;		On exit  : 0/0
  6983 ;;		Unchanged: 0/0
  6984 ;; Data sizes:     COMRAM   BANK0   BANK1   BANK2   BANK3   BANK4   BANK5   BANK6   BANK7
  6985 ;;      Params:         2       0       0       0       0       0       0       0       0
  6986 ;;      Locals:         4       0       0       0       0       0       0       0       0
  6987 ;;      Temps:          0       0       0       0       0       0       0       0       0
  6988 ;;      Totals:         6       0       0       0       0       0       0       0       0
  6989 ;;Total ram usage:        6 bytes
  6990 ;; Hardware stack levels used: 1
  6991 ;; This function calls:
  6992 ;;		Nothing
  6993 ;; This function is called by:
  6994 ;;		_main
  6995 ;;		_Display_Mensagens_Iniciais
  6996 ;;		_Beep
  6997 ;;		_Modo_Manual
  6998 ;;		_Escrever_EEPROM
  6999 ;;		_Ler_ADC
  7000 ;;		_LCD_Init
  7001 ;;		_LCD_Command
  7002 ;;		_LCD_Char
  7003 ;;		_LCD_Clear
  7004 ;; This function uses a non-reentrant model
  7005 ;;
  7006                           
  7007                           	psect	text48
  7008   0067AC                     __ptext48:
  7009                           	callstack 0
  7010   0067AC                     _MSdelay:
  7011                           	callstack 28
  7012   0067AC                     
  7013                           ;msdelay.c: 11:     unsigned int i, j;;msdelay.c: 12:     for(i = 0; i < val; i++)
  7014   0067AC  0E00               	movlw	0
  7015   0067AE  6E04               	movwf	(MSdelay@i+1)^0,c
  7016   0067B0  0E00               	movlw	0
  7017   0067B2  6E03               	movwf	MSdelay@i^0,c
  7018   0067B4  EFEF  F033         	goto	l2512
  7019   0067B8                     l2500:
  7020                           
  7021                           ;msdelay.c: 13:         for(j = 0; j < 165; j++);
  7022   0067B8  0E00               	movlw	0
  7023   0067BA  6E06               	movwf	(MSdelay@j+1)^0,c
  7024   0067BC  0E00               	movlw	0
  7025   0067BE  6E05               	movwf	MSdelay@j^0,c
  7026   0067C0                     l2506:
  7027   0067C0  4A05               	infsnz	MSdelay@j^0,f,c
  7028   0067C2  2A06               	incf	(MSdelay@j+1)^0,f,c
  7029   0067C4  5006               	movf	(MSdelay@j+1)^0,w,c
  7030   0067C6  E109               	bnz	u1730
  7031   0067C8  0EA5               	movlw	165
  7032   0067CA  5C05               	subwf	MSdelay@j^0,w,c
  7033   0067CC  A0D8               	btfss	status,0,c
  7034   0067CE  EFEB  F033         	goto	u1731
  7035   0067D2  EFED  F033         	goto	u1730
  7036   0067D6                     u1731:
  7037   0067D6  EFE0  F033         	goto	l2506
  7038   0067DA                     u1730:
  7039   0067DA  4A03               	infsnz	MSdelay@i^0,f,c
  7040   0067DC  2A04               	incf	(MSdelay@i+1)^0,f,c
  7041   0067DE                     l2512:
  7042   0067DE  5001               	movf	MSdelay@val^0,w,c
  7043   0067E0  5C03               	subwf	MSdelay@i^0,w,c
  7044   0067E2  5002               	movf	(MSdelay@val+1)^0,w,c
  7045   0067E4  5804               	subwfb	(MSdelay@i+1)^0,w,c
  7046   0067E6  A0D8               	btfss	status,0,c
  7047   0067E8  EFF8  F033         	goto	u1741
  7048   0067EC  EFFA  F033         	goto	u1740
  7049   0067F0                     u1741:
  7050   0067F0  EFDC  F033         	goto	l2500
  7051   0067F4                     u1740:
  7052   0067F4  0012               	return		;funcret
  7053   0067F6                     __end_of_MSdelay:
  7054                           	callstack 0
  7055                           
  7056                           	psect	rparam
  7057   000000                     
  7058                           	psect	config
  7059                           
  7060                           ;Config register CONFIG1L @ 0x300000
  7061                           ;	PLL Prescaler Selection bits
  7062                           ;	PLLDIV = 1, No prescale (4 MHz oscillator input drives PLL directly)
  7063                           ;	System Clock Postscaler Selection bits
  7064                           ;	CPUDIV = OSC1_PLL2, [Primary Oscillator Src: /1][96 MHz PLL Src: /2]
  7065                           ;	USB Clock Selection bit (used in Full-Speed USB mode only; UCFG:FSEN = 1)
  7066                           ;	USBDIV = 1, USB clock source comes directly from the primary oscillator block with no 
      +                          postscale
  7067   300000                     	org	3145728
  7068   300000  00                 	db	0
  7069                           
  7070                           ;Config register CONFIG1H @ 0x300001
  7071                           ;	Oscillator Selection bits
  7072                           ;	FOSC = INTOSC_EC, Internal oscillator, CLKO function on RA6, EC used by USB (INTCKO)
  7073                           ;	Fail-Safe Clock Monitor Enable bit
  7074                           ;	FCMEN = OFF, Fail-Safe Clock Monitor disabled
  7075                           ;	Internal/External Oscillator Switchover bit
  7076                           ;	IESO = OFF, Oscillator Switchover mode disabled
  7077   300001                     	org	3145729
  7078   300001  09                 	db	9
  7079                           
  7080                           ;Config register CONFIG2L @ 0x300002
  7081                           ;	Power-up Timer Enable bit
  7082                           ;	PWRT = OFF, PWRT disabled
  7083                           ;	Brown-out Reset Enable bits
  7084                           ;	BOR = OFF, Brown-out Reset disabled in hardware and software
  7085                           ;	Brown-out Reset Voltage bits
  7086                           ;	BORV = 3, Minimum setting 2.05V
  7087                           ;	USB Voltage Regulator Enable bit
  7088                           ;	VREGEN = OFF, USB voltage regulator disabled
  7089   300002                     	org	3145730
  7090   300002  19                 	db	25
  7091                           
  7092                           ;Config register CONFIG2H @ 0x300003
  7093                           ;	Watchdog Timer Enable bit
  7094                           ;	WDT = OFF, WDT disabled (control is placed on the SWDTEN bit)
  7095                           ;	Watchdog Timer Postscale Select bits
  7096                           ;	WDTPS = 32768, 1:32768
  7097   300003                     	org	3145731
  7098   300003  1E                 	db	30
  7099                           
  7100                           ; Padding undefined space
  7101   300004                     	org	3145732
  7102   300004  FF                 	db	255
  7103                           
  7104                           ;Config register CONFIG3H @ 0x300005
  7105                           ;	CCP2 MUX bit
  7106                           ;	CCP2MX = ON, CCP2 input/output is multiplexed with RC1
  7107                           ;	PORTB A/D Enable bit
  7108                           ;	PBADEN = OFF, PORTB<4:0> pins are configured as digital I/O on Reset
  7109                           ;	Low-Power Timer 1 Oscillator Enable bit
  7110                           ;	LPT1OSC = OFF, Timer1 configured for higher power operation
  7111                           ;	MCLR Pin Enable bit
  7112                           ;	MCLRE = OFF, RE3 input pin enabled; MCLR pin disabled
  7113   300005                     	org	3145733
  7114   300005  01                 	db	1
  7115                           
  7116                           ;Config register CONFIG4L @ 0x300006
  7117                           ;	Stack Full/Underflow Reset Enable bit
  7118                           ;	STVREN = ON, Stack full/underflow will cause Reset
  7119                           ;	Single-Supply ICSP Enable bit
  7120                           ;	LVP = OFF, Single-Supply ICSP disabled
  7121                           ;	Dedicated In-Circuit Debug/Programming Port (ICPORT) Enable bit
  7122                           ;	ICPRT = OFF, ICPORT disabled
  7123                           ;	Extended Instruction Set Enable bit
  7124                           ;	XINST = OFF, Instruction set extension and Indexed Addressing mode disabled (Legacy mo
      +                          de)
  7125                           ;	Background Debugger Enable bit
  7126                           ;	DEBUG = 0x1, unprogrammed default
  7127   300006                     	org	3145734
  7128   300006  81                 	db	129
  7129                           
  7130                           ; Padding undefined space
  7131   300007                     	org	3145735
  7132   300007  FF                 	db	255
  7133                           
  7134                           ;Config register CONFIG5L @ 0x300008
  7135                           ;	Code Protection bit
  7136                           ;	CP0 = OFF, Block 0 (000800-001FFFh) is not code-protected
  7137                           ;	Code Protection bit
  7138                           ;	CP1 = OFF, Block 1 (002000-003FFFh) is not code-protected
  7139                           ;	Code Protection bit
  7140                           ;	CP2 = OFF, Block 2 (004000-005FFFh) is not code-protected
  7141                           ;	Code Protection bit
  7142                           ;	CP3 = OFF, Block 3 (006000-007FFFh) is not code-protected
  7143   300008                     	org	3145736
  7144   300008  0F                 	db	15
  7145                           
  7146                           ;Config register CONFIG5H @ 0x300009
  7147                           ;	Boot Block Code Protection bit
  7148                           ;	CPB = OFF, Boot block (000000-0007FFh) is not code-protected
  7149                           ;	Data EEPROM Code Protection bit
  7150                           ;	CPD = OFF, Data EEPROM is not code-protected
  7151   300009                     	org	3145737
  7152   300009  C0                 	db	192
  7153                           
  7154                           ;Config register CONFIG6L @ 0x30000A
  7155                           ;	Write Protection bit
  7156                           ;	WRT0 = OFF, Block 0 (000800-001FFFh) is not write-protected
  7157                           ;	Write Protection bit
  7158                           ;	WRT1 = OFF, Block 1 (002000-003FFFh) is not write-protected
  7159                           ;	Write Protection bit
  7160                           ;	WRT2 = OFF, Block 2 (004000-005FFFh) is not write-protected
  7161                           ;	Write Protection bit
  7162                           ;	WRT3 = OFF, Block 3 (006000-007FFFh) is not write-protected
  7163   30000A                     	org	3145738
  7164   30000A  0F                 	db	15
  7165                           
  7166                           ;Config register CONFIG6H @ 0x30000B
  7167                           ;	Configuration Register Write Protection bit
  7168                           ;	WRTC = OFF, Configuration registers (300000-3000FFh) are not write-protected
  7169                           ;	Boot Block Write Protection bit
  7170                           ;	WRTB = OFF, Boot block (000000-0007FFh) is not write-protected
  7171                           ;	Data EEPROM Write Protection bit
  7172                           ;	WRTD = OFF, Data EEPROM is not write-protected
  7173   30000B                     	org	3145739
  7174   30000B  E0                 	db	224
  7175                           
  7176                           ;Config register CONFIG7L @ 0x30000C
  7177                           ;	Table Read Protection bit
  7178                           ;	EBTR0 = OFF, Block 0 (000800-001FFFh) is not protected from table reads executed in ot
      +                          her blocks
  7179                           ;	Table Read Protection bit
  7180                           ;	EBTR1 = OFF, Block 1 (002000-003FFFh) is not protected from table reads executed in ot
      +                          her blocks
  7181                           ;	Table Read Protection bit
  7182                           ;	EBTR2 = OFF, Block 2 (004000-005FFFh) is not protected from table reads executed in ot
      +                          her blocks
  7183                           ;	Table Read Protection bit
  7184                           ;	EBTR3 = OFF, Block 3 (006000-007FFFh) is not protected from table reads executed in ot
      +                          her blocks
  7185   30000C                     	org	3145740
  7186   30000C  0F                 	db	15
  7187                           
  7188                           ;Config register CONFIG7H @ 0x30000D
  7189                           ;	Boot Block Table Read Protection bit
  7190                           ;	EBTRB = OFF, Boot block (000000-0007FFh) is not protected from table reads executed in
      +                           other blocks
  7191   30000D                     	org	3145741
  7192   30000D  40                 	db	64
  7193                           tosu	equ	0xFFF
  7194                           tosh	equ	0xFFE
  7195                           tosl	equ	0xFFD
  7196                           stkptr	equ	0xFFC
  7197                           pclatu	equ	0xFFB
  7198                           pclath	equ	0xFFA
  7199                           pcl	equ	0xFF9
  7200                           tblptru	equ	0xFF8
  7201                           tblptrh	equ	0xFF7
  7202                           tblptrl	equ	0xFF6
  7203                           tablat	equ	0xFF5
  7204                           prodh	equ	0xFF4
  7205                           prodl	equ	0xFF3
  7206                           indf0	equ	0xFEF
  7207                           postinc0	equ	0xFEE
  7208                           postdec0	equ	0xFED
  7209                           preinc0	equ	0xFEC
  7210                           plusw0	equ	0xFEB
  7211                           fsr0h	equ	0xFEA
  7212                           fsr0l	equ	0xFE9
  7213                           wreg	equ	0xFE8
  7214                           indf1	equ	0xFE7
  7215                           postinc1	equ	0xFE6
  7216                           postdec1	equ	0xFE5
  7217                           preinc1	equ	0xFE4
  7218                           plusw1	equ	0xFE3
  7219                           fsr1h	equ	0xFE2
  7220                           fsr1l	equ	0xFE1
  7221                           bsr	equ	0xFE0
  7222                           indf2	equ	0xFDF
  7223                           postinc2	equ	0xFDE
  7224                           postdec2	equ	0xFDD
  7225                           preinc2	equ	0xFDC
  7226                           plusw2	equ	0xFDB
  7227                           fsr2h	equ	0xFDA
  7228                           fsr2l	equ	0xFD9
  7229                           status	equ	0xFD8

Data Sizes:
    Strings     355
    Constant    0
    Data        11
    BSS         103
    Persistent  0
    Stack       0

Auto Spaces:
    Space          Size  Autos    Used
    COMRAM           95     94      95
    BANK0           160      9     122
    BANK1           256      0       0
    BANK2           256      0       0
    BANK3           256      0       0
    BANK4           256      0       0
    BANK5           256      0       0
    BANK6           256      0       0
    BANK7           256      0       0

Pointer List with Targets:

    strncmp@_r	PTR const unsigned char  size(2) Largest target is 4
		 -> STR_27(CODE[4]), 

    strncmp@r	PTR const unsigned char  size(2) Largest target is 4
		 -> STR_27(CODE[4]), 

    strncmp@_l	PTR const unsigned char  size(2) Largest target is 20
		 -> STR_24(CODE[15]), STR_23(CODE[15]), STR_22(CODE[20]), STR_21(CODE[20]), 
		 -> STR_20(CODE[20]), STR_19(CODE[20]), STR_18(CODE[20]), STR_17(CODE[7]), 
		 -> STR_15(CODE[13]), STR_12(CODE[7]), STR_10(CODE[13]), 

    strncmp@l	PTR const unsigned char  size(2) Largest target is 20
		 -> STR_24(CODE[15]), STR_23(CODE[15]), STR_22(CODE[20]), STR_21(CODE[20]), 
		 -> STR_20(CODE[20]), STR_19(CODE[20]), STR_18(CODE[20]), STR_17(CODE[7]), 
		 -> STR_15(CODE[13]), STR_12(CODE[7]), STR_10(CODE[13]), 

    strlen@s	PTR const unsigned char  size(2) Largest target is 7
		 -> rtc.year(BANK0[1]), rtc.month(BANK0[1]), rtc.date(BANK0[1]), rtc.hour(BANK0[1]), 
		 -> rtc.min(BANK0[1]), rtc.sec(BANK0[1]), stoa@nuls(COMRAM[7]), ?_sprintf(COMRAM[2]), 
		 -> data_buffer(BANK0[11]), hora_buffer(BANK0[9]), 

    strlen@a	PTR const unsigned char  size(2) Largest target is 7
		 -> rtc.year(BANK0[1]), rtc.month(BANK0[1]), rtc.date(BANK0[1]), rtc.hour(BANK0[1]), 
		 -> rtc.min(BANK0[1]), rtc.sec(BANK0[1]), stoa@nuls(COMRAM[7]), ?_sprintf(COMRAM[2]), 
		 -> data_buffer(BANK0[11]), hora_buffer(BANK0[9]), 

    fputs@s	PTR const unsigned char  size(2) Largest target is 32
		 -> dbuf(BANK0[32]), 

    fputs@fp	PTR struct _IO_FILE size(2) Largest target is 12
		 -> sprintf@f(COMRAM[12]), 

    fputc@fp...source	PTR const unsigned char  size(2) Largest target is 0

    fputc@fp...buffer	PTR unsigned char  size(2) Largest target is 0

    fputc@fp	PTR struct _IO_FILE size(2) Largest target is 12
		 -> sprintf@f(COMRAM[12]), 

    vfprintf@ap	PTR PTR void  size(2) Largest target is 2
		 -> sprintf@ap(COMRAM[2]), 

    vfprintf@fp	PTR struct _IO_FILE size(2) Largest target is 12
		 -> sprintf@f(COMRAM[12]), 

    vfprintf@fmt	PTR const unsigned char  size(2) Largest target is 20
		 -> STR_24(CODE[15]), STR_23(CODE[15]), STR_22(CODE[20]), STR_21(CODE[20]), 
		 -> STR_20(CODE[20]), STR_19(CODE[20]), STR_18(CODE[20]), STR_17(CODE[7]), 
		 -> STR_15(CODE[13]), STR_12(CODE[7]), STR_10(CODE[13]), 

    vfprintf@cfmt	PTR unsigned char  size(2) Largest target is 20
		 -> STR_24(CODE[15]), STR_23(CODE[15]), STR_22(CODE[20]), STR_21(CODE[20]), 
		 -> STR_20(CODE[20]), STR_19(CODE[20]), STR_18(CODE[20]), STR_17(CODE[7]), 
		 -> STR_15(CODE[13]), STR_12(CODE[7]), STR_10(CODE[13]), 

    vfpfcnvrt@fp	PTR struct _IO_FILE size(2) Largest target is 12
		 -> sprintf@f(COMRAM[12]), 

    vfpfcnvrt@cp	PTR unsigned char  size(2) Largest target is 20
		 -> STR_24(CODE[15]), STR_23(CODE[15]), STR_22(CODE[20]), STR_21(CODE[20]), 
		 -> STR_20(CODE[20]), STR_19(CODE[20]), STR_18(CODE[20]), STR_17(CODE[7]), 
		 -> STR_15(CODE[13]), STR_12(CODE[7]), STR_10(CODE[13]), 

    vfpfcnvrt@ap	PTR PTR void  size(2) Largest target is 2
		 -> sprintf@ap(COMRAM[2]), 

    vfpfcnvrt@fmt	PTR PTR unsigned char  size(2) Largest target is 2
		 -> vfprintf@cfmt(COMRAM[2]), 

    S1263$vp	PTR void  size(2) Largest target is 0

    convarg.vp	PTR void  size(2) Largest target is 0

    read_prec_or_width@ap	PTR PTR void [1] size(2) Largest target is 2
		 -> sprintf@ap(COMRAM[2]), 

    read_prec_or_width@fmt	PTR PTR const unsigned char  size(2) Largest target is 2
		 -> vfprintf@cfmt(COMRAM[2]), 

    stoa@fp	PTR struct _IO_FILE size(2) Largest target is 12
		 -> sprintf@f(COMRAM[12]), 

    stoa@s	PTR unsigned char  size(2) Largest target is 2
		 -> rtc.year(BANK0[1]), rtc.month(BANK0[1]), rtc.date(BANK0[1]), rtc.hour(BANK0[1]), 
		 -> rtc.min(BANK0[1]), rtc.sec(BANK0[1]), ?_sprintf(COMRAM[2]), data_buffer(BANK0[11]), 
		 -> hora_buffer(BANK0[9]), 

    stoa@cp	PTR unsigned char  size(2) Largest target is 7
		 -> rtc.year(BANK0[1]), rtc.month(BANK0[1]), rtc.date(BANK0[1]), rtc.hour(BANK0[1]), 
		 -> rtc.min(BANK0[1]), rtc.sec(BANK0[1]), stoa@nuls(COMRAM[7]), ?_sprintf(COMRAM[2]), 
		 -> data_buffer(BANK0[11]), hora_buffer(BANK0[9]), 

    dtoa@fp	PTR struct _IO_FILE size(2) Largest target is 12
		 -> sprintf@f(COMRAM[12]), 

    pad@fp	PTR struct _IO_FILE size(2) Largest target is 12
		 -> sprintf@f(COMRAM[12]), 

    pad@buf	PTR unsigned char  size(2) Largest target is 32
		 -> dbuf(BANK0[32]), 

    sprintf@fmt	PTR const unsigned char  size(2) Largest target is 20
		 -> STR_24(CODE[15]), STR_23(CODE[15]), STR_22(CODE[20]), STR_21(CODE[20]), 
		 -> STR_20(CODE[20]), STR_19(CODE[20]), STR_18(CODE[20]), STR_17(CODE[7]), 
		 -> STR_15(CODE[13]), STR_12(CODE[7]), STR_10(CODE[13]), 

    sprintf@s	PTR unsigned char  size(2) Largest target is 21
		 -> lcd_buffer(BANK0[21]), data_buffer(BANK0[11]), hora_buffer(BANK0[9]), 

    sprintf@ap	PTR void [1] size(2) Largest target is 2
		 -> ?_sprintf(COMRAM[2]), 

    S1199$source	PTR const unsigned char  size(2) Largest target is 0

    f...source	PTR const unsigned char  size(2) Largest target is 0

    S1199$buffer	PTR unsigned char  size(2) Largest target is 0

    f...buffer	PTR unsigned char  size(2) Largest target is 0

    LCD_String_xy@msg	PTR const unsigned char  size(2) Largest target is 21
		 -> STR_16(CODE[20]), STR_14(CODE[20]), STR_13(CODE[20]), STR_11(CODE[16]), 
		 -> lcd_buffer(BANK0[21]), data_buffer(BANK0[11]), hora_buffer(BANK0[9]), STR_9(CODE[16]), 
		 -> STR_8(CODE[16]), STR_7(CODE[18]), STR_6(CODE[13]), STR_5(CODE[18]), 
		 -> STR_4(CODE[15]), STR_3(CODE[18]), STR_2(CODE[20]), STR_1(CODE[7]), 

    LCD_String@msg	PTR const unsigned char  size(2) Largest target is 21
		 -> STR_16(CODE[20]), STR_14(CODE[20]), STR_13(CODE[20]), STR_11(CODE[16]), 
		 -> lcd_buffer(BANK0[21]), data_buffer(BANK0[11]), hora_buffer(BANK0[9]), STR_9(CODE[16]), 
		 -> STR_8(CODE[16]), STR_7(CODE[18]), STR_6(CODE[13]), STR_5(CODE[18]), 
		 -> STR_4(CODE[15]), STR_3(CODE[18]), STR_2(CODE[20]), STR_1(CODE[7]), 

    Format_Data@buffer	PTR unsigned char  size(2) Largest target is 11
		 -> data_buffer(BANK0[11]), 

    Format_Data@rtc	PTR struct . size(2) Largest target is 7
		 -> rtc(BANK0[7]), 

    Format_Hora@buffer	PTR unsigned char  size(2) Largest target is 9
		 -> hora_buffer(BANK0[9]), 

    Format_Hora@rtc	PTR struct . size(2) Largest target is 7
		 -> rtc(BANK0[7]), 

    RTC_GetDateTime@rtc	PTR struct . size(2) Largest target is 7
		 -> rtc(BANK0[7]), 

    Display_Mensagens_Iniciais$388	PTR const unsigned char  size(2) Largest target is 20
		 -> STR_14(CODE[20]), STR_13(CODE[20]), 


Critical Paths under _main in COMRAM

    _System_Init->_Ler_Contador_EEPROM
    _RTC_Init->_I2C_Write
    _Ler_Contador_EEPROM->_Ler_EEPROM
    _Ler_EEPROM->_I2C_Read
    _LCD_Init->_LCD_Command
    _Salvar_Contador_EEPROM->_Escrever_EEPROM
    _Escrever_EEPROM->_MSdelay
    _Modo_Manual->_MSdelay
    _Ler_ADC->_MSdelay
    _Display_Mensagens_Iniciais->_Format_Data
    _Display_Mensagens_Iniciais->_Format_Hora
    _RTC_GetDateTime->_I2C_Read
    _LCD_String_xy->_LCD_String
    _LCD_String->_LCD_Char
    _LCD_Char->_MSdelay
    _LCD_Clear->_LCD_Command
    _LCD_Command->_MSdelay
    _Format_Hora->_sprintf
    _Format_Data->_sprintf
    _sprintf->_vfprintf
    _vfprintf->_vfpfcnvrt
    _vfpfcnvrt->_dtoa
    _stoa->_fputc
    _read_prec_or_width->___wmul
    _dtoa->_pad
    _pad->_fputs
    _fputs->_fputc
    _abs->___awmod
    _Beep->_MSdelay

Critical Paths under _main in BANK0

    _main->_Display_Mensagens_Iniciais
    _Display_Mensagens_Iniciais->_Format_Data
    _Display_Mensagens_Iniciais->_Format_Hora

Critical Paths under _main in BANK1

    None.

Critical Paths under _main in BANK2

    None.

Critical Paths under _main in BANK3

    None.

Critical Paths under _main in BANK4

    None.

Critical Paths under _main in BANK5

    None.

Critical Paths under _main in BANK6

    None.

Critical Paths under _main in BANK7

    None.

Call Graph Tables:

 ---------------------------------------------------------------------------------
 (Depth) Function   	        Calls       Base Space   Used Autos Params    Refs
 ---------------------------------------------------------------------------------
 (0) _main                                                 2     2      0   70694
                                              7 BANK0      2     2      0
                               _Beep
         _Display_Mensagens_Iniciais
                            _Ler_ADC
                            _MSdelay
                        _Modo_Manual
             _Salvar_Contador_EEPROM
            _Sequenciador_Automatico
                        _System_Init
            _Verificar_Falha_Pressao
 ---------------------------------------------------------------------------------
 (1) _Verificar_Falha_Pressao                              0     0      0       0
 ---------------------------------------------------------------------------------
 (1) _System_Init                                          0     0      0    4383
                           _ADC_Init
                           _I2C_Init
                           _LCD_Init
                _Ler_Contador_EEPROM
                           _RTC_Init
 ---------------------------------------------------------------------------------
 (2) _RTC_Init                                             0     0      0      22
                           _I2C_Init
                          _I2C_Start
                           _I2C_Stop
                          _I2C_Write
 ---------------------------------------------------------------------------------
 (3) _I2C_Init                                             0     0      0       0
 ---------------------------------------------------------------------------------
 (2) _Ler_Contador_EEPROM                                  4     4      0     333
                                              5 COMRAM     4     4      0
                         _Ler_EEPROM
 ---------------------------------------------------------------------------------
 (3) _Ler_EEPROM                                           3     1      2     287
                                              2 COMRAM     3     1      2
                           _I2C_Read
                        _I2C_Restart
                          _I2C_Start
                           _I2C_Stop
                          _I2C_Write
 ---------------------------------------------------------------------------------
 (2) _LCD_Init                                             0     0      0    4028
                        _LCD_Command
                            _MSdelay
 ---------------------------------------------------------------------------------
 (2) _ADC_Init                                             0     0      0       0
 ---------------------------------------------------------------------------------
 (1) _Sequenciador_Automatico                              2     2      0    2384
                                              9 COMRAM     2     2      0
             _Salvar_Contador_EEPROM
 ---------------------------------------------------------------------------------
 (2) _Salvar_Contador_EEPROM                               0     0      0    2384
                    _Escrever_EEPROM
 ---------------------------------------------------------------------------------
 (3) _Escrever_EEPROM                                      3     0      3    2384
                                              6 COMRAM     3     0      3
                          _I2C_Start
                           _I2C_Stop
                          _I2C_Write
                            _MSdelay
 ---------------------------------------------------------------------------------
 (1) _Modo_Manual                                          2     2      0    1992
                                              6 COMRAM     2     2      0
                            _MSdelay
 ---------------------------------------------------------------------------------
 (1) _Ler_ADC                                              5     3      2    2014
                                              6 COMRAM     5     3      2
                            _MSdelay
 ---------------------------------------------------------------------------------
 (1) _Display_Mensagens_Iniciais                           2     2      0   53531
                                              5 BANK0      2     2      0
                        _Format_Data
                        _Format_Hora
                          _LCD_Clear
                      _LCD_String_xy
                            _MSdelay
                    _RTC_GetDateTime
                            _sprintf
 ---------------------------------------------------------------------------------
 (2) _RTC_GetDateTime                                      2     0      2     374
                                              2 COMRAM     2     0      2
                           _I2C_Read
                        _I2C_Restart
                          _I2C_Start
                           _I2C_Stop
                          _I2C_Write
 ---------------------------------------------------------------------------------
 (3) _I2C_Write                                            1     1      0      22
                                              0 COMRAM     1     1      0
                    _i2c_WaitForIdle
 ---------------------------------------------------------------------------------
 (3) _I2C_Stop                                             0     0      0       0
 ---------------------------------------------------------------------------------
 (3) _I2C_Start                                            0     0      0       0
 ---------------------------------------------------------------------------------
 (4) _I2C_Restart                                          0     0      0       0
 ---------------------------------------------------------------------------------
 (4) _I2C_Read                                             2     2      0      46
                                              0 COMRAM     2     2      0
                            _i2c_Ack
                          _i2c_NoAck
                    _i2c_WaitForIdle
 ---------------------------------------------------------------------------------
 (4) _i2c_WaitForIdle                                      0     0      0       0
 ---------------------------------------------------------------------------------
 (5) _i2c_NoAck                                            0     0      0       0
 ---------------------------------------------------------------------------------
 (5) _i2c_Ack                                              0     0      0       0
 ---------------------------------------------------------------------------------
 (2) _LCD_String_xy                                        5     2      3    7524
                                             10 COMRAM     5     2      3
                        _LCD_Command
                         _LCD_String
 ---------------------------------------------------------------------------------
 (3) _LCD_String                                           2     0      2    2157
                                              8 COMRAM     2     0      2
                           _LCD_Char
 ---------------------------------------------------------------------------------
 (4) _LCD_Char                                             2     2      0    2036
                                              6 COMRAM     2     2      0
                            _MSdelay
 ---------------------------------------------------------------------------------
 (2) _LCD_Clear                                            0     0      0    4028
                        _LCD_Command
                            _MSdelay
 ---------------------------------------------------------------------------------
 (3) _LCD_Command                                          2     2      0    2036
                                              6 COMRAM     2     2      0
                            _MSdelay
 ---------------------------------------------------------------------------------
 (2) _Format_Hora                                          9     5      4   13372
                                             90 COMRAM     4     0      4
                                              0 BANK0      5     5      0
                            _sprintf
 ---------------------------------------------------------------------------------
 (2) _Format_Data                                          9     5      4   13372
                                             90 COMRAM     4     0      4
                                              0 BANK0      5     5      0
                            _sprintf
 ---------------------------------------------------------------------------------
 (2) _sprintf                                             26    16     10   12845
                                             66 COMRAM    24    14     10
                           _vfprintf
 ---------------------------------------------------------------------------------
 (3) _vfprintf                                             8     2      6   10970
                                             58 COMRAM     8     2      6
                          _vfpfcnvrt
 ---------------------------------------------------------------------------------
 (4) _vfpfcnvrt                                           21    15      6   10603
                                             40 COMRAM    18    12      6
                               _dtoa
                              _fputc
                 _read_prec_or_width
                               _stoa
                            _strncmp
 ---------------------------------------------------------------------------------
 (5) _strncmp                                             11     5      6     453
                                              0 COMRAM    11     5      6
 ---------------------------------------------------------------------------------
 (5) _stoa                                                22    18      4    2041
                                              9 COMRAM    22    18      4
                              _fputc
                             _strlen
 ---------------------------------------------------------------------------------
 (6) _strlen                                               4     2      2     166
                                              0 COMRAM     4     2      2
 ---------------------------------------------------------------------------------
 (5) _read_prec_or_width                                   9     5      4     887
                                              6 COMRAM     9     5      4
                             ___wmul
 ---------------------------------------------------------------------------------
 (6) ___wmul                                               6     2      4     555
                                              0 COMRAM     6     2      4
 ---------------------------------------------------------------------------------
 (5) _dtoa                                                13     9      4    5060
                                             27 COMRAM    13     9      4
                            ___awdiv
                            ___awmod
                                _abs
                                _pad
 ---------------------------------------------------------------------------------
 (6) _pad                                                 11     5      6    3411
                                             16 COMRAM    11     5      6
                              _fputc
                              _fputs
 ---------------------------------------------------------------------------------
 (7) _fputs                                                7     3      4    1691
                                              9 COMRAM     7     3      4
                              _fputc
 ---------------------------------------------------------------------------------
 (6) _fputc                                                9     5      4    1290
                                              0 COMRAM     9     5      4
                              _putch
 ---------------------------------------------------------------------------------
 (7) _putch                                                1     1      0       0
 ---------------------------------------------------------------------------------
 (6) _abs                                                  4     2      2     142
                                              6 COMRAM     4     2      2
                            ___awmod (ARG)
 ---------------------------------------------------------------------------------
 (6) ___awmod                                              6     2      4     448
                                              0 COMRAM     6     2      4
 ---------------------------------------------------------------------------------
 (6) ___awdiv                                              8     4      4     452
                                              0 COMRAM     8     4      4
 ---------------------------------------------------------------------------------
 (1) _Beep                                                 3     3      0    2014
                                              6 COMRAM     3     3      0
                            _MSdelay
 ---------------------------------------------------------------------------------
 (3) _MSdelay                                              6     4      2    1992
                                              0 COMRAM     6     4      2
 ---------------------------------------------------------------------------------
 Estimated maximum stack depth 7
 ---------------------------------------------------------------------------------

 Call Graph Graphs:

 _main (ROOT)
   _Beep
     _MSdelay
   _Display_Mensagens_Iniciais
     _Format_Data
       _sprintf
         _vfprintf
           _vfpfcnvrt
             _dtoa
               ___awdiv
               ___awmod
               _abs
                 ___awmod (ARG)
               _pad
                 _fputc
                   _putch
                 _fputs
                   _fputc
             _fputc
             _read_prec_or_width
               ___wmul
             _stoa
               _fputc
               _strlen
             _strncmp
     _Format_Hora
       _sprintf
     _LCD_Clear
       _LCD_Command
         _MSdelay
       _MSdelay
     _LCD_String_xy
       _LCD_Command
       _LCD_String
         _LCD_Char
           _MSdelay
     _MSdelay
     _RTC_GetDateTime
       _I2C_Read
         _i2c_Ack
         _i2c_NoAck
         _i2c_WaitForIdle
       _I2C_Restart
       _I2C_Start
       _I2C_Stop
       _I2C_Write
         _i2c_WaitForIdle
     _sprintf
   _Ler_ADC
     _MSdelay
   _MSdelay
   _Modo_Manual
     _MSdelay
   _Salvar_Contador_EEPROM
     _Escrever_EEPROM
       _I2C_Start
       _I2C_Stop
       _I2C_Write
       _MSdelay
   _Sequenciador_Automatico
     _Salvar_Contador_EEPROM
   _System_Init
     _ADC_Init
     _I2C_Init
     _LCD_Init
       _LCD_Command
       _MSdelay
     _Ler_Contador_EEPROM
       _Ler_EEPROM
         _I2C_Read
         _I2C_Restart
         _I2C_Start
         _I2C_Stop
         _I2C_Write
     _RTC_Init
       _I2C_Init
       _I2C_Start
       _I2C_Stop
       _I2C_Write
   _Verificar_Falha_Pressao

 Address spaces:
Name               Size   Autos  Total    Cost      Usage
BIGRAM             7FF      0       0      28        0.0%
EEDATA             100      0       0       0        0.0%
BITBANK7           100      0       0      18        0.0%
BANK7              100      0       0      19        0.0%
BITBANK6           100      0       0      16        0.0%
BANK6              100      0       0      17        0.0%
BITBANK5           100      0       0      14        0.0%
BANK5              100      0       0      15        0.0%
BITBANK4           100      0       0      12        0.0%
BANK4              100      0       0      13        0.0%
BITBANK3           100      0       0      10        0.0%
BANK3              100      0       0      11        0.0%
BITBANK2           100      0       0       8        0.0%
BANK2              100      0       0       9        0.0%
BITBANK1           100      0       0       6        0.0%
BANK1              100      0       0       7        0.0%
BITBANK0            A0      0       0       4        0.0%
BANK0               A0      9      7A       5       76.2%
BITCOMRAM           5F      0       0       0        0.0%
COMRAM              5F     5E      5F       1      100.0%
BITBIGSFRh          2C      0       0      20        0.0%
BITBIGSFRlhhhhl     2A      0       0      22        0.0%
BITBIGSFRll         20      0       0      26        0.0%
BITBIGSFRlhhhhh      9      0       0      21        0.0%
BITBIGSFRlhhl        6      0       0      24        0.0%
BITBIGSFRlhhhll      5      0       0      23        0.0%
BITBIGSFRlhl         1      0       0      25        0.0%
BIGSFR               0      0       0     200        0.0%
BITSFR               0      0       0     200        0.0%
SFR                  0      0       0     200        0.0%
STACK                0      0       0       2        0.0%
NULL                 0      0       0       0        0.0%
ABS                  0      0      D9      27        0.0%
DATA                 0      0      D9       3        0.0%
CODE                 0      0       0       0        0.0%


Microchip Technology PIC18 Macro Assembler V2.41 build 20230208172133 
Symbol Table                                                                                   Sun Dec  7 17:20:49 2025

                        ?_i2c_WaitForIdle 0001                              ?_LCD_Command 0001  
                             _SSPSTATbits 0FC7                                        _BF 7E38  
                            ___awdiv@sign 0006                       ___wmul@multiplicand 0003  
                             ?_LCD_String 0009                                       l220 7576  
                                     l124 7232                                       l222 757C  
                                     l126 720E                                       l223 7582  
                                     l312 6412                                       l152 7BA6  
                                     l232 65C4                                       l128 7224  
                                     l321 6424                                       l145 65F6  
                                     l170 69F2                                       l330 6490  
                                     l226 7588                                       l242 64E6  
                                     l171 6A20                                       l251 6DAA  
                                     l227 758E                                       l235 6564  
                                     l315 6488                                       l172 6A64  
                                     l324 6428                                       l260 66FA  
                                     l228 7594                                       l341 669E  
                                     l309 6404                                       l333 64A2  
                                     l229 7612                                       l245 64C2  
                                     l406 67F4                                       l254 6E66  
                                     l350 6450                                       l318 6416  
                                     l182 77BE                                       l327 6436  
                                     l263 671E                                       l191 7686  
                                     l239 6978                                       l168 69DE  
                                     l344 6764                                       l336 666A  
                                     l248 6B9A                                       l192 768C  
                                     l409 650C                                       l353 645E  
                                     l257 63F4                                       l338 6678  
                                     l347 67AA                                       l195 7692  
                                     l356 6464                                       l196 7698  
                                     l268 6536                                       l197 769E  
                                     l189 7680                                       l382 68D8  
                                     l359 6472                                       l640 6F2A  
                                     l376 6594                                       l379 688C  
                                     l395 6AF2                                       l388 69D6  
                                     l653 6CF8                                       l398 644A  
                                     _PEN 7E2A                                       _SEN 7E28  
                                     _R_W 7E3A                                       _abs 66A0  
                                     _pad 6B9C                                       _rtc 00BF  
                            ___awmod@sign 0006                                       wreg 0FE8  
                             LCD_Char@dat 0008                                      l1201 6926  
                                    l1114 6BE2                                      ?_abs 0007  
                                    l1220 70BA                                      l1205 66D6  
                                    l1117 6C24                                      l1141 798C  
                                    l1125 7818                                      l1150 7384  
                                    l1231 63EA                                      l1119 6C48  
                                    l1127 7820                                      l1208 66DE  
                                    l1128 7866                                      l3000 7542  
                                    l1241 7198                                      l3002 7552  
                                    l2300 6C4E                                      l1228 6762  
                                    l1172 6FF0                                      l1164 7478  
                                    l1148 737C                                      l3012 759A  
                                    l3004 755E                                      l3020 7608  
                                    l3100 71B2                                      l1237 662C  
                                    l2310 6C7E                                      l2302 6C5C  
                                    l2230 7016                                      l3014 75F6  
                                    l3006 756C                                      l3030 7626  
                                    l3110 71EC                                      l3102 71C0  
                                    l1159 742E                                      l1087 6840  
                                    l2320 6CC4                                      l2312 6C90  
                                    l2304 6C64                                      l2232 7020  
                                    l2240 6720                                      l2400 78B4  
                                    l1168 6FE8                                      l3016 7602  
                                    l3008 7570                                      l3040 763A  
                                    l3032 762A                                      l3120 7222  
                                    l3112 71FC                                      l3104 71C4  
                                    l2330 6CF0                                      l2322 6CCC  
                                    l2314 6C98                                      l2306 6C68  
                                    l2234 703E                                      l2226 6FF2  
                                    l2242 672C                                      l2410 791C  
                                    l2402 78BA                                      l2250 6504  
                                    l3018 7606                                      l3050 7678  
                                    l3042 763C                                      l3034 7630  
                                    l3130 728A                                      l3122 7240  
                                    l3114 7206                                      l3106 71D2  
                                    l1187 7E98                                      l2500 67B8  
                                    l2260 6E82                                      l2324 6CD2  
                                    l2316 6CA0                                      l2308 6C76  
                                    l2236 7074                                      l2228 7004  
                                    l2244 673E                                      l2340 6BCE  
                                    l2420 796C                                      l2412 7936  
                                    l2404 78D6                                      l3060 7724  
                                    l3044 765E                                      l3028 7614  
                                    l3140 72B0                                      l3132 728C  
                                    l3124 7250                                      l3116 7212  
                                    l3108 71DE                                      l2510 67DA  
                                    l2270 6EA8                                      l2262 6E86  
                                    l2254 6E68                                      l2318 6CAE  
                                    l2326 6CD8                                      l2246 6742  
                                    l2350 6C34                                      l2342 6BDA  
                                    l2334 6B9C                                      l2406 78F0  
                                    l2414 7946                                      l2430 7328  
                                    l3070 775A                                      l3062 7732  
                                    l3054 76A4                                      l3046 7672  
                                    l3038 7636                                      l3150 72EE  
                                    l3142 72B4                                      l3126 725C  
                                    l3134 728E                                      l3118 721E  
                                    l2512 67DE                                      l2280 6EDE  
                                    l2272 6EBA                                      l2264 6E94  
                                    l2256 6E6C                                      l2328 6CE8  
                                    l2352 66A0                                      l2344 6BEE  
                                    l2336 6BAC                                      l2416 7956  
                                    l2408 7902                                      l2248 64E8  
                                    l2360 6608                                      l2432 7330  
                                    l2424 72FC                                      l2520 678E  
                                    l3072 777C                                      l3064 7734  
                                    l3320 76B8                                      l3056 76FE  
                                    l3048 7674                                      l3144 72D8  
                                    l3136 7298                                      l3128 726A  
                                    l2506 67C0                                      l2282 6EF4  
                                    l2274 6EC2                                      l2290 6F0A  
                                    l2266 6E9C                                      l2258 6E7A  
                                    l2354 66BA                                      l2346 6C02  
                                    l2338 6BC0                                      l2418 795C  
                                    l2370 77E4                                      l2362 6620  
                                    l2450 73EA                                      l2442 73A8  
                                    l2434 7344                                      l2426 730E  
                                    l2530 7BCC                                      l2522 679C  
                                    l2514 6764                                      l2610 649E  
                                    l3322 77A0                                      l3066 7744  
                                    l3058 7720                                      l3146 72E0  
                                    l3138 72A8                                      l3090 719A  
                                    l2508 67C4                                      l2292 6F1A  
                                    l2284 6EFC                                      l2276 6ECA  
                                    l2268 6EA0                                      l2348 6C06  
                                    l2380 7828                                      l2372 77EC  
                                    l2356 65F8                                      l2460 7442  
                                    l2452 7408                                      l2444 73BC  
                                    l2436 734C                                      l2428 7316  
                                    l2540 7BFC                                      l2532 7BDA  
                                    l2524 644C                                      l2516 6772  
                                    l2620 6680                                      l2612 6402  
                                    l3324 75B0                                      l2700 6542  
                                    l3068 7754                                      l3076 778C  
                                    l3148 72E2                                      l3092 719E  
                                    l2294 6F22                                      l2286 6EFE  
                                    l2278 6ED8                                      l2390 7862  
                                    l2382 7838                                      l2374 77FC  
                                    l2366 77C0                                      l2470 6F58  
                                    l2358 6604                                      l2462 7456  
                                    l2454 740C                                      l2446 73C0  
                                    l2438 735A                                      l2550 7C60  
                                    l3326 7C40                                      l2542 7C0E  
                                    l2534 7BE8                                      l2710 6844  
                                    l2526 6460                                      l2518 6780  
                                    l2622 6690                                      l2614 6668  
                                    l2606 6414                                      l2630 6426  
                                    l2702 6548                                      l3094 71A2  
                                    l3328 6A46                                      l2288 6F04  
                                    l2392 786E                                      l2384 783E  
                                    l2376 77FE                                      l2368 77D4  
                                    l2472 6F92                                      l2464 745A  
                                    l2456 7410                                      l2448 73DE  
                                    l2480 70E6                                      l2560 7CC2  
                                    l2552 7C7C                                      l2536 7BEC  
                                    l2528 7BA8                                      l2720 685C  
                                    l2712 6854                                      l2640 68A6  
                                    l2632 6890                                      l2800 6AD8  
                                    l2624 6698                                      l2616 6668  
                                    l2608 648C                                      l2704 654E  
                                    l3096 71A8                                      l2298 6C4A  
                                    l2394 7876                                      l2386 784E  
                                    l2378 780C                                      l2474 6FB2  
                                    l2466 6F2C                                      l2490 7138  
                                    l2570 7D5E                                      l2562 7CDE  
                                    l2554 7C8C                                      l2546 7C1A  
                                    l2538 7BF8                                      l2722 6868  
                                    l2714 6856                                      l2650 68CA  
                                    l2642 68A8                                      l2634 68A0  
                                    l2730 697A                                      l2802 6AE0  
                                    l2626 669C                                      l2618 667C  
                                    l2810 6AFE                                      l2706 6554  
                                    l3098 71AC                                      l2396 787C  
                                    l2388 785A                                      l2476 6FC0  
                                    l2468 6F34                                      l2492 714A  
                                    l2484 70F2                                      l2580 7DDC  
                                    l2572 7D94                                      l2564 7D22  
                                    l2556 7C96                                      l2548 7C4E  
                                    l2652 68DA                                      l2724 687A  
                                    l2716 6858                                      l2644 68B4  
                                    l2636 68A2                                      l2732 697E  
                                    l2804 6AE6                                      l2820 6B46  
                                    l2812 6B08                                      l2900 79FC  
                                    l2708 6558                                      l2740 6566  
                                    l2398 78AE                                      l2494 7174  
                                    l2486 7100                                      l2478 70BC  
                                    l2574 7DB8                                      l2558 7CA6  
                                    l2654 68E6                                      l2670 680E  
                                    l2830 6CFA                                      l2726 687C  
                                    l2718 685A                                      l2646 68C6  
                                    l2638 68A4                                      l2734 69A2  
                                    l2822 6B5A                                      l2814 6B0E  
                                    l2806 6AF4                                      l2910 7A60  
                                    l2902 7A0E                                      l2750 6588  
                                    l2742 656A                                      l2662 6474  
                                    l2488 711C                                      l2592 7E5E  
                                    l2576 7DC4                                      l2584 7E14  
                                    l2568 7D3A                                      l2656 6902  
                                    l2672 6816                                      l2832 6D84  
                                    l2728 687E                                      l2648 68C8  
                                    l2736 69A6                                      l2824 6B6E  
                                    l2816 6B1E                                      l2808 6AF8  
                                    l2920 7AC8                                      l2912 7A74  
                                    l2904 7A20                                      l2752 658E  
                                    l2744 6576                                      l2680 659A  
                                    l2664 6478                                      l2760 64B2  
                                    l2840 65D6                                      l2498 67AC  
                                    l2586 7E38                                      l2578 7DCC  
                                    l2658 691E                                      l2674 6832  
                                    l2666 67F6                                      l2834 6DAC  
                                    l2826 6B82                                      l2818 6B32  
                                    l2930 7B20                                      l2922 7ADA  
                                    l2914 7A88                                      l2906 7A42  
                                    l2738 64C4                                      l2746 657C  
                                    l2690 65BE                                      l2682 65A0  
                                    l2770 6944                                      l2762 64B8  
                                    l2754 64A4                                      l2850 65E0  
                                    l2842 65D8                                      l2588 7E46  
                                    l2596 7E70                                      l2668 6806  
                                    l2836 6E40                                      l2780 6A68  
                                    l2828 6B96                                      l2940 7B6C  
                                    l2932 7B32                                      l2924 7AE6  
                                    l2916 7A9A                                      l2908 7A54  
                                    l2748 6582                                      l2692 65C2  
                                    l2684 65A6                                      l2772 695C  
                                    l2764 64BE                                      l2756 64A8  
                                    l2860 65F2                                      l2852 65E2  
                                    l2844 65DA                                      l2870 6A00  
                                    l2862 69DA                                      l2790 6AA0  
                                    l2782 6A78                                      l2942 7B88  
                                    l2934 7B42                                      l2926 7AEA  
                                    l2918 7AAC                                      l2950 66F8  
                                    l2766 63EC                                      l2686 65AC  
                                    l2678 6596                                      l2774 6970  
                                    l2758 64AC                                      l2854 65E6  
                                    l2846 65DC                                      l2838 65C6  
                                    ?_pad 0011                                      l2872 6A0E  
                                    l2864 69E0                                      l2776 6438  
                                    l2792 6AA6                                      l2784 6A80  
                                    l2944 7B9A                                      l2936 7B50  
                                    l2928 7AFC                                      l2952 6708  
                                    l2696 6538                                      l2688 65B6  
                                    l2768 6928                                      l2856 65EA  
                                    l2848 65DE                                      l2960 652A  
                                    l2866 69EC                                      l2882 6A32  
                                    l2794 6AB8                                      l2786 6A86  
                                    l2778 6A68                                      l2938 7B5A  
                                    l2890 7992                                      l2946 66E2  
                                    l2970 749A                                      l2698 653C  
                                    l2858 65EE                                      l2962 6530  
                                    l2876 6A22                                      l2868 69F4  
                                    l2796 6AC0                                      l2788 6A98  
                                    l2892 79A4                                      l2948 66EC  
                                    l2972 74A6                                      l2980 74CC  
                                    l2964 6534                                      l2956 650E  
                                    l2798 6AC6                                      l2894 79B6  
                                    l2990 750E                                      l2982 74D6  
                                    l2974 74B4                                      l2966 747A  
                                    l2958 6526                                      l2896 79C8  
                                    l2888 798E                                      l2992 7520  
                                    l2984 74E4                                      l2976 74B8  
                                    l2968 7488                                      l2898 79EA  
                                    l2994 7528                                      l2986 74F4  
                                    l2978 74C8                                      l2988 7500  
                                    l2996 752A                                      l2998 7534  
                                    STR_1 7FEC                                      STR_2 7F3B  
                                    STR_3 7F73                                      STR_4 7FA5  
                                    STR_5 7F4F                                      STR_6 7FD2  
                                    STR_7 7F61                                      STR_8 7F95  
                                    STR_9 7F85                                      u2000 69D6  
                                    u2001 69D2                                      u1210 7004  
                                    u2010 6970                                      u1211 7000  
                                    u2011 696C                                      u1300 6EF4  
                                    u1220 7016                                      u2020 6A78  
                                    u2100 749A                                      u1301 6EF0  
                                    u1221 7012                                      u2021 6A74  
                                    u2101 7496                                      u1310 6F1A  
                                    u1230 703E                                      u2030 6A98  
                                    u2110 74B4                                      u1311 6F16  
                                    u1231 703A                                      u2031 6A94  
                                    u2111 74B0                                      u1320 6C5C  
                                    u1240 7074                                      u1400 6C24  
                                    u2040 6AB8                                      u2120 74C8  
                                    u2200 7626                                      u1321 6C58  
                                    u1241 7070                                      u1401 6C20  
                                    u2041 6AB4                                      u2121 74C4  
                                    u2201 7622                                      u1330 6C76  
                                    u1250 6762                                      u1410 6C34  
                                    u2050 6AD8                                      u2130 74E4  
                                    u2210 765E                                      u1331 6C72  
                                    u1251 675E                                      u1411 6C30  
                                    u2051 6AD4                                      u2131 74E0  
                                    u2211 765A                                      u1260 6E7A  
                                    u1340 6C90                                      u1420 66BA  
                                    u1500 784E                                      u2060 7B42  
                                    u2140 74F4                                      u2220 7720  
                                    u2300 7250                                      u1261 6E76  
                                    u1341 6C8C                                      u1421 66B6  
                                    u1501 784A                                      u2061 7B3E  
                                    u2141 74F0                                      u2221 771C  
                                    u2301 724C                                      u1270 6E94  
                                    u1350 6CAE                                      u1510 78F0  
                                    u1430 6620                                      u2070 6708  
                                    u2150 750E                                      u2230 7744  
                                    u2310 726A                                      _LATB 0F8A  
                                    u1271 6E90                                      u1351 6CAA  
                                    u1511 78EC                                      u1431 661C  
                                    u2071 6704                                      u2151 750A  
                                    u2231 7740                                      u2311 7266  
                                    u1280 6EBA                                      u1360 6CC4  
                                    u1520 7902                                      u1440 77D0  
                                    u1600 7378                                      u2160 7520  
                                    u2240 777C                                      u2080 6526  
                                    u2320 727C                                      u1281 6EB6  
                                    u1361 6CC0                                      u1521 78FE  
                                    u1441 77CA                                      u1601 7374  
                                    u2161 751C                                      u2241 7778  
                                    u2081 6522                                      u2321 7276  
                                    u1290 6ED8                                      u1370 6CE8  
                                    u1530 791C                                      u1450 77D2  
                                    u1610 73A4                                      u2170 7542  
                                    u2090 7488                                      u2330 727E  
                                    u2250 71D2                                      u1291 6ED4  
                                    u1371 6CE4                                      u1531 7918  
                                    u1611 73A0                                      u2171 753E  
                                    u2091 7484                                      u2251 71CE  
                                    u1380 6BAC                                      u1540 7936  
                                    u1460 77E4                                      u1620 73DE  
                                    u1700 7138                                      u2180 7552  
                                    u2340 72A8                                      u2260 71EC  
                                    u1381 6BA8                                      u1541 7932  
                                    u1461 77E0                                      u1621 73DA  
                                    u1701 7134                                      u2181 754E  
                                    u2341 72A4                                      u2261 71E8  
                                    u1390 6BCE                                      u1550 7946  
                                    u1470 77FC                                      u1630 742E  
                                    u1710 714A                                      u2190 756C  
                                    u2350 72D8                                      u2270 71FC  
                                    u1391 6BCA                                      u1551 7942  
                                    u1471 77F8                                      u1631 742A  
                                    u1711 7146                                      u2191 7568  
                                    u2351 72D4                                      u2271 71F8  
                                    u1560 7956                                      u1480 780C  
                                    u1640 743E                                      u1720 7174  
                                    u1800 645E                                      u2280 7232  
                                    u1561 7952                                      u1481 7808  
                                    u1641 743A                                      u1721 7170  
                                    u1801 645A                                      u2281 722E  
                                    u1730 67DA                                      u1490 7838  
                                    u1650 7478                                      u1810 6472  
                                    u2290 7240                                      u1731 67D6  
                                    u1491 7834                                      u1651 7474  
                                    u1571 7306                                      u1811 646E  
                                    u2291 723C                                      u1740 67F4  
                                    u1660 6F58                                      u1580 7328  
                                    u1900 7E38                                      u1820 7BCC  
                                    u1741 67F0                                      u1661 6F54  
                                    u1581 7324                                      u1901 7E34  
                                    u1821 7BC8                                      u1670 6FE8  
                                    u1590 735A                                      u1830 7C60  
                                    u1750 6772                                      u1910 6424  
                                    u1671 6FE4                                      u1591 7356  
                                    u1831 7C5C                                      u1751 676E  
                                    u1911 6420                                      u1680 70E6  
                                    u1840 7C8C                                      u1760 6780  
                                    u1920 649E                                      u1681 70E2  
                                    u1841 7C88                                      u1761 677C  
                                    u1921 649A                                      u1690 711C  
                                    u1850 7CC2                                      u1770 678E  
                                    u1930 6412                                      u1691 7118  
                                    u1851 7CBE                                      u1771 678A  
                                    u1931 640E                                      u1860 7CDE  
                                    u1780 679C                                      u1940 6678  
                                    u1861 7CDA                                      u1781 6798  
                                    u1941 6674                                      u1870 7D5E  
                                    u1790 67AA                                      u1950 6690  
                                    u1871 7D5A                                      u1791 67A6  
                                    u1951 668C                                      u1880 7D94  
                                    u1960 6436                                      u1881 7D90  
                                    u1961 6432                                      u1890 7DB8  
                                    u1970 691E                                      u1891 7DB4  
                                    u1971 691A                                      u1980 699E  
                                    u1990 69C6                                      u1987 6994  
                                    _RCEN 7E2B                                      u1997 69BC  
                                    _RSEN 7E29                                      _Beep 69D8  
                                    abs@a 0007                                      _dbuf 0076  
                                    _main 719A                                      _dtoa 77C0  
                                    _prec 0062                          __end_of_I2C_Init 648A  
                        __end_of_I2C_Read 66A0                                      pad@i 0018  
                                    pad@p 0015                                      fsr1h 0FE2  
                                    fsr2h 0FDA                                      indf1 0FE7  
                                    indf2 0FDF                                      fsr1l 0FE1  
                                    pad@w 001A                                      fsr2l 0FD9  
                                    _stoa 72FC                          __end_of_I2C_Stop 6438  
                        __end_of_ADC_Init 63F6                                      prodh 0FF4  
                                    prodl 0FF3                                      start 0000  
                         __end_of_MSdelay 67F6                             ??_Format_Data 00D1  
                           _LCD_String_xy 6A66                             ??_Format_Hora 00D1  
                         __end_of_Ler_ADC 6720                              ___param_bank 0000  
                         __end_of_i2c_Ack 6460                        Ler_EEPROM@endereco 0003  
                                   ??_abs 0009                                     ??_pad 0017  
                        __end_of_LCD_Char 68DA                          __end_of_LCD_Init 6596  
                                   ?_Beep 0001                                     ?_main 0001  
                                   ?_dtoa 001C                                     _ACKEN 7E2C  
                                   _ACKDT 7E2D                           __end_of___awdiv 6F2C  
                                   STR_10 7FDF                                     STR_11 7F95  
                                   STR_12 7FF3                                     STR_20 7F13  
                                   STR_13 7EEB                                     STR_21 7EAF  
                                   STR_22 7EC3                                     STR_14 7E9B  
                                   STR_15 7FDF                                     STR_23 7FB4  
                                   STR_24 7FC3                                     STR_16 7ED7  
                                   STR_25 7FFA                                     STR_18 7EFF  
                                   STR_27 7FFA                                     STR_19 7F27  
                         __end_of___awmod 6CFA                           _contador_ciclos 006E  
                                   ?_stoa 000A                           ___awdiv@divisor 0003  
                     Escrever_EEPROM@dado 0009                                     _LATC0 7C58  
                                   _LATB2 7C52                                     _LATC1 7C59  
                                   _LATB3 7C53                                     _LATD0 7C60  
                                   _LATC2 7C5A                                     _LATD1 7C61  
                                   _LATD2 7C62                                     _LATD3 7C63  
                                   _LATC6 7C5E                                     _LATC7 7C5F  
                                   _LATD7 7C67                          ?_Escrever_EEPROM 0007  
                         ___awdiv@counter 0005                              vfpfcnvrt@fmt 002B  
                                   _PORTC 0F82                                     _PORTD 0F83  
                                   _TRISB 0F93                                     _TRISC 0F94  
                                   _TRISD 0F95                                _Ler_EEPROM 6596  
                  _Salvar_Contador_EEPROM 64C4                                     _flags 0070  
                     read_prec_or_width@c 000D                       read_prec_or_width@n 000E  
                                   _fputc 6FF2                                     _fputs 6720  
                        __end_of_RTC_Init 64C4                                     pad@fp 0011  
                                   _width 0060                                     _putch 63EA  
                                   dtoa@d 001E                                     dtoa@i 0026  
                           ??_Modo_Manual 0007                                     dtoa@p 0022  
                                   dtoa@s 0028                                     dtoa@w 0024  
                       __end_of_I2C_Start 6426                         __end_of_I2C_Write 64A4  
                                   tablat 0FF5                                     plusw1 0FE3  
                                   plusw2 0FDB                                     stoa@i 0016  
                                   stoa@l 001E                                     stoa@p 001C  
                                   stoa@s 000C                                     stoa@w 0018  
                                   status 0FD8                           __end_of_sprintf 6842  
                         __end_of_strncmp 719A                            ?_LCD_String_xy 000B  
                            __end_of_Beep 6A66                           __initialization 662E  
                            __end_of_main 72FC                              __end_of_dtoa 798E  
                            __end_of_stoa 747A                                    ??_Beep 0007  
                     __end_of_Format_Data 6E68                       __end_of_Format_Hora 6DAC  
                                  ??_main 00D8                                    ??_dtoa 0020  
                                  ??_stoa 000E                         __end_of_LCD_Clear 644C  
                           __activetblptr 0002                __end_of_read_prec_or_width 6FF2  
                                  _ADCON0 0FC2                                    _ADCON1 0FC1  
                                  _ADCON2 0FC0       Sequenciador_Automatico@estado_timer 0064  
                                  ?_fputc 0001                                    ?_fputs 000A  
                                  _ADRESH 0FC4                                    _ADRESL 0FC3  
                        ___awdiv@dividend 0001                                    ?_putch 0001  
                        LCD_String_xy@msg 000C                          LCD_String_xy@pos 000B  
                        LCD_String_xy@row 000E                                 ??_MSdelay 0003  
                                  _OSCCON 0FD3               ?_Display_Mensagens_Iniciais 0001  
                           vfpfcnvrt@done 0035                                    _SSPADD 0FC8  
                               ??_Ler_ADC 0009                                    _SSPBUF 0FC9  
                               ??_i2c_Ack 0001                  ?_Verificar_Falha_Pressao 0001  
                     __end_of_Modo_Manual 7614                              vfprintf@cfmt 0041  
                   I2C_Write@v_i2cData_u8 0001                        _ciclo_em_andamento 0074  
                                  ___wmul 64E8                                 ??___awdiv 0005  
                  Ler_Contador_EEPROM@low 0009                                 ??___awmod 0005  
                 _Sequenciador_Automatico 7614                      read_prec_or_width@ap 0009  
                                  clear_0 6654                          ___awdiv@quotient 0007  
                         ___awmod@divisor 0003                                    isa$std 0001  
                         ___awmod@counter 0005                                    pad@buf 0013  
                                  dtoa@fp 001C                                    _strlen 65F8  
                                  fputc@c 0001                                    fputs@c 000E  
                                  fputs@i 000F                                    fputs@s 000A  
                               ?_I2C_Init 0001                                 ?_I2C_Read 0001  
                               ?_I2C_Stop 0001                                 ?_ADC_Init 0001  
                             ?_Ler_EEPROM 0003                              __mediumconst 7E9A  
                                  tblptrh 0FF7                                    tblptrl 0FF6  
                                  tblptru 0FF8                                    stoa@cp 001A  
                                  stoa@fp 000A                                    putch@c 0001  
                        __end_of_vfprintf 6928                                 ??_sprintf 004D  
                               ??_strncmp 0007                         Format_Data@buffer 005B  
                               ?_LCD_Char 0001                                __accesstop 0060  
                 __end_of__initialization 665C                                 ?_LCD_Init 0001  
                         ??_LCD_String_xy 000E                             ___rparam_used 0001  
                             _Format_Data 6DAC                               _Format_Hora 6CFA  
                          __pcstackCOMRAM 0001                              __pidataBANK0 63F7  
                       __end_of_i2c_NoAck 6474                             __end_of_fputc 70BC  
                           __end_of_fputs 6764                             __end_of_putch 63EC  
                            ??_LCD_String 000B                                 ?_RTC_Init 0001  
                              ??_I2C_Init 0001                                ??_I2C_Read 0001  
                              ??_I2C_Stop 0001                                ??_ADC_Init 0001  
                                 ??_fputc 0005                                   ??_fputs 000E  
          _Display_Mensagens_Iniciais$388 00D6                                   ??_putch 0001  
                              __pbssBANK0 0060           __end_of_Verificar_Falha_Pressao 6538  
                             _Modo_Manual 747A                                ??_LCD_Char 0007  
                              ??_LCD_Init 0009                        __end_of_LCD_String 69D8  
               ??_Sequenciador_Automatico 000A                                   ?___wmul 0001  
                              ??_RTC_Init 0002                                   ?_strlen 0001  
                 ?_Salvar_Contador_EEPROM 0001                             ??_I2C_Restart 0001  
                              _lcd_buffer 0096                                   _SSPCON1 0FC6  
                                 _SSPCON2 0FC5                                   _SSPSTAT 0FC7  
                                 _MSdelay 67AC                                   _Ler_ADC 66E0  
                                 _i2c_Ack 644C                             ??_System_Init 000A  
                               _I2C_Start 6414                                 _I2C_Write 648A  
                           LCD_String@msg 0009                                   __Hparam 0000  
                                 __Lparam 0000                                   ___awdiv 6E68  
                                 ___awmod 6C4A                                 ?_vfprintf 003B  
                 Ler_Contador_EEPROM@high 0008                                   __pcinit 662E  
          __end_of_Salvar_Contador_EEPROM 64E8                                   __ramtop 0800  
                                 __ptext0 719A                                   __ptext1 650E  
                                 __ptext2 65C6                                   __ptext3 64A4  
                                 __ptext4 6474                                   __ptext5 6928  
                                 __ptext6 6596                                   __ptext7 6566  
                                 __ptext8 63EC                                   __ptext9 7614  
                   read_prec_or_width@fmt 0007                         Format_Hora@buffer 005B  
                        ___awmod@dividend 0001                       Modo_Manual@last_inc 00CF  
                     Modo_Manual@last_ent 00CD                       Modo_Manual@last_dow 00CE  
                     _Ler_Contador_EEPROM 6928                                 _LCD_Clear 6438  
                 Escrever_EEPROM@endereco 0007                                   _sprintf 67F6  
                     __end_of_I2C_Restart 6414                                   _strncmp 70BC  
                    end_of_initialization 665C                    I2C_Read@v_ackOption_u8 0001  
                                 fputc@fp 0003                            LCD_Command@cmd 0008  
                           __Lmediumconst 7E9A                                   fputs@fp 000C  
                      _read_prec_or_width 6F2C                                ?_I2C_Start 0001  
                              ?_I2C_Write 0001             Sequenciador_Automatico@estado 0071  
                       ??_RTC_GetDateTime 0005                      ?_Ler_Contador_EEPROM 0001  
                       __end_of_vfpfcnvrt 7E9A                                   postdec1 0FE5  
                                 postdec2 0FDD                       ?_read_prec_or_width 0007  
                                 postinc0 0FEE                                   postinc1 0FE6  
                                 postinc2 0FDE                       __end_of_System_Init 65F8  
                        vfpfcnvrt@convarg 0031                                ??_vfprintf 0041  
                                 strlen@a 0003                                   strlen@s 0001  
                        main@last_man_aut 00D0                                 _PORTAbits 0F80  
                            ??_Ler_EEPROM 0005                                 _TRISAbits 0F92  
                               _TRISBbits 0F93                             _modo_operacao 005F  
                              ?_LCD_Clear 0001                      ??_read_prec_or_width 000B  
                       ??_i2c_WaitForIdle 0001                     ??_Ler_Contador_EEPROM 0006  
                            ?_Format_Data 005B                              ?_Format_Hora 005B  
                      __end_of_Ler_EEPROM 65C6                             ??_LCD_Command 0007  
                             vfpfcnvrt@ap 002D                               vfpfcnvrt@cp 0039  
                             vfpfcnvrt@fp 0029                            __end_of___wmul 650E  
                               _i2c_NoAck 6460                               _I2C_Restart 6402  
                             _adc_pressao 006A                            __end_of_strlen 662E  
                     start_initialization 662E                               __end_of_abs 66E0  
                             __end_of_pad 6C4A                              ?_Modo_Manual 0001  
                     _valvula_selecionada 0075                               ??_I2C_Start 0001  
                             _System_Init 65C6                               ??_I2C_Write 0001  
                   __end_of_LCD_String_xy 6AF4                         ??_Escrever_EEPROM 000A  
                             vfprintf@fmt 003D                                  ??___wmul 0005  
                         Format_Hora@hora 00D3                             _falha_pressao 0073  
                             __pdataBANK0 00C6                                  ??_strlen 0003  
                         main@blink_timer 0068                                ?_i2c_NoAck 0001  
                     __end_of_LCD_Command 688E                            Ler_EEPROM@dado 0005  
                             __pbssCOMRAM 005F                             __pcstackBANK0 00D1  
                             ??_LCD_Clear 0009                               _data_buffer 00AB  
                                ?_MSdelay 0001                                  ?_Ler_ADC 0007  
                                ?_i2c_Ack 0001  Atualizar_Display_Principal@display_timer 0066  
                               _dtoa$1292 0020                             __pmediumconst 7E9A  
                                ?___awdiv 0001                                  ?___awmod 0001  
                 _Verificar_Falha_Pressao 650E                      I2C_Read@v_i2cData_u8 0002  
                                _I2C_Init 6474                                  _I2C_Read 6666  
                                _I2C_Stop 6426                                  _ADC_Init 63EC  
                         _RTC_GetDateTime 6AF4                                  Beep@tipo 0009  
                   LCD_String_xy@location 000F                                  ?_sprintf 0043  
                                ?_strncmp 0001                                  MSdelay@i 0003  
                                MSdelay@j 0005                                  _LCD_Char 688E  
                                _LCD_Init 6566                            ___wmul@product 0005  
            ??_Display_Mensagens_Iniciais 005F                  ?_Sequenciador_Automatico 0001  
                             _LCD_Command 6842                                 _vfpfcnvrt 7BA8  
                                _RTC_Init 64A4                                _ADCON0bits 0FC2  
                       ___wmul@multiplier 0001                               ??_i2c_NoAck 0001  
                         _i2c_WaitForIdle 6764                                 copy_data0 6642  
                          Format_Data@dia 00D3                            Format_Data@ano 00D5  
                          Format_Data@mes 00D4                            Format_Data@rtc 005D  
                                __Hrparam 0000                                vfprintf@ap 003F  
                                __Lrparam 0000                                vfprintf@fp 003B  
                          Format_Hora@min 00D4                            Format_Hora@seg 00D5  
                          Format_Hora@rtc 005D                 ??_Verificar_Falha_Pressao 0001  
                              ?_vfpfcnvrt 0029                               _hora_buffer 00B6  
                 __end_of_RTC_GetDateTime 6B9C                              ?_I2C_Restart 0001  
                              sprintf@fmt 0045                                  __ptext10 64C4  
                                __ptext11 6538                                  __ptext20 6666  
                                __ptext12 747A                                  __ptext21 6764  
                                __ptext13 66E0                                  __ptext30 6DAC  
                                __ptext22 6460                                  __ptext14 798E  
                                __ptext31 67F6                                  __ptext23 644C  
                                __ptext15 6AF4                                  __ptext40 6B9C  
                                __ptext32 68DA                                  __ptext24 6A66  
                                __ptext16 648A                                  __ptext41 6720  
                                __ptext33 7BA8                                  __ptext25 697A  
                                __ptext17 6426                                  __ptext42 6FF2  
                                __ptext34 70BC                                  __ptext26 688E  
                                __ptext18 6414                                  __ptext43 63EA  
                                __ptext35 72FC                                  __ptext27 6438  
                                __ptext19 6402                                  __ptext44 66A0  
                                __ptext36 65F8                                  __ptext28 6842  
                                __ptext45 6C4A                                  __ptext37 6F2C  
                                __ptext29 6CFA                                  __ptext46 6E68  
                                __ptext38 64E8                                  __ptext47 69D8  
                                __ptext39 77C0                                  __ptext48 67AC  
                         _Escrever_EEPROM 6538           __end_of_Sequenciador_Automatico 77C0  
             __end_of_Ler_Contador_EEPROM 697A                              ?_System_Init 0001  
                              MSdelay@val 0001                  ??_Salvar_Contador_EEPROM 000A  
                               stoa@F1156 00C6                                  isa$xinst 0000  
                 __end_of_i2c_WaitForIdle 67AC                              Ler_ADC@canal 000B  
                                _vfprintf 68DA                                _LCD_String 697A  
                          _vfpfcnvrt$1330 0037                        RTC_GetDateTime@rtc 0003  
                               sprintf@ap 004D        __end_of_Display_Mensagens_Iniciais 7BA8  
              _Display_Mensagens_Iniciais 798E                                 strncmp@_l 0001  
                               strncmp@_r 0003                              _temporizador 006C  
                             ??_vfpfcnvrt 002F                                  stoa@nuls 000F  
                 __end_of_Escrever_EEPROM 6566                          ?_RTC_GetDateTime 0003  
                                sprintf@f 004F                                  sprintf@s 0043  
                                strncmp@l 0008                                  strncmp@n 0005  
                                strncmp@r 000A                               _SSPCON2bits 0FC5  
    Sequenciador_Automatico@valvula_atual 0072  
