

Microchip MPLAB XC8 Assembler V2.41 build 20230208172133 
                                                                                               Sun Dec  7 18:00:31 2025

Microchip MPLAB XC8 C Compiler v2.41 (Free license) build 20230208172133 Og1 
     1                           	processor	18F4550
     2                           	fnconf	rparam,??,?,0
     3                           	pagewidth 120
     4                           	opt	flic
     5                           	psect	idataBANK0,global,class=CODE,delta=1,noexec
     6                           	psect	mediumconst,global,reloc=2,class=MEDIUMCONST,delta=1,noexec
     7                           	psect	cinit,global,reloc=2,class=CODE,delta=1
     8                           	psect	bssCOMRAM,global,class=COMRAM,space=1,delta=1,lowdata,noexec
     9                           	psect	bssBANK0,global,class=BANK0,space=1,delta=1,lowdata,noexec
    10                           	psect	dataBANK0,global,class=BANK0,space=1,delta=1,lowdata,noexec
    11                           	psect	cstackBANK0,global,class=BANK0,space=1,delta=1,lowdata,noexec
    12                           	psect	cstackCOMRAM,global,class=COMRAM,space=1,delta=1,lowdata,noexec
    13                           	psect	text0,global,reloc=2,class=CODE,delta=1
    14                           	psect	text1,global,reloc=2,class=CODE,delta=1
    15                           	psect	text2,global,reloc=2,class=CODE,delta=1
    16                           	psect	text3,global,reloc=2,class=CODE,delta=1
    17                           	psect	text4,global,reloc=2,class=CODE,delta=1
    18                           	psect	text5,global,reloc=2,class=CODE,delta=1
    19                           	psect	text6,global,reloc=2,class=CODE,delta=1
    20                           	psect	text7,global,reloc=2,class=CODE,delta=1
    21                           	psect	text8,global,reloc=2,class=CODE,delta=1
    22                           	psect	text9,global,reloc=2,class=CODE,delta=1
    23                           	psect	text10,global,reloc=2,class=CODE,delta=1
    24                           	psect	text11,global,reloc=2,class=CODE,delta=1
    25                           	psect	text12,global,reloc=2,class=CODE,delta=1
    26                           	psect	text13,global,reloc=2,class=CODE,delta=1
    27                           	psect	text14,global,reloc=2,class=CODE,delta=1
    28                           	psect	text15,global,reloc=2,class=CODE,delta=1
    29                           	psect	text16,global,reloc=2,class=CODE,delta=1
    30                           	psect	text17,global,reloc=2,class=CODE,delta=1
    31                           	psect	text18,global,reloc=2,class=CODE,delta=1
    32                           	psect	text19,global,reloc=2,class=CODE,delta=1
    33                           	psect	text20,global,reloc=2,class=CODE,delta=1
    34                           	psect	text21,global,reloc=2,class=CODE,delta=1
    35                           	psect	text22,global,reloc=2,class=CODE,delta=1
    36                           	psect	text23,global,reloc=2,class=CODE,delta=1
    37                           	psect	text24,global,reloc=2,class=CODE,delta=1
    38                           	psect	text25,global,reloc=2,class=CODE,delta=1,group=3
    39                           	psect	text26,global,reloc=2,class=CODE,delta=1,group=1
    40                           	psect	text27,global,reloc=2,class=CODE,delta=1,group=1
    41                           	psect	text28,global,reloc=2,class=CODE,delta=1,group=3
    42                           	psect	text29,global,reloc=2,class=CODE,delta=1,group=1
    43                           	psect	text30,global,reloc=2,class=CODE,delta=1,group=3
    44                           	psect	text31,global,reloc=2,class=CODE,delta=1,group=1
    45                           	psect	text32,global,reloc=2,class=CODE,delta=1,group=2
    46                           	psect	text33,global,reloc=2,class=CODE,delta=1,group=1
    47                           	psect	text34,global,reloc=2,class=CODE,delta=1,group=1
    48                           	psect	text35,global,reloc=2,class=CODE,delta=1,group=3
    49                           	psect	text36,global,reloc=2,class=CODE,delta=1,group=3
    50                           	psect	text37,global,reloc=2,class=CODE,delta=1,group=3
    51                           	psect	text38,global,reloc=2,class=CODE,delta=1,group=3
    52                           	psect	text39,global,reloc=2,class=CODE,delta=1,group=2
    53                           	psect	text40,global,reloc=2,class=CODE,delta=1,group=2
    54                           	psect	text41,global,reloc=2,class=CODE,delta=1
    55                           	psect	text42,global,reloc=2,class=CODE,delta=1
    56                           	psect	intsave_regs,global,class=BIGRAM,space=1,delta=1,noexec
    57                           	psect	rparam,global,class=COMRAM,space=1,delta=1,noexec
    58                           	psect	config,global,abs,ovrld,class=CONFIG,space=4,delta=1,noexec
    59   000000                     
    60                           ; Generated 23/03/2023 GMT
    61                           ; 
    62                           ; Copyright © 2023, Microchip Technology Inc. and its subsidiaries ("Microchip")
    63                           ; All rights reserved.
    64                           ; 
    65                           ; This software is developed by Microchip Technology Inc. and its subsidiaries ("Microch
      +                          ip").
    66                           ; 
    67                           ; Redistribution and use in source and binary forms, with or without modification, are
    68                           ; permitted provided that the following conditions are met:
    69                           ; 
    70                           ;     1. Redistributions of source code must retain the above copyright notice, this lis
      +                          t of
    71                           ;        conditions and the following disclaimer.
    72                           ; 
    73                           ;     2. Redistributions in binary form must reproduce the above copyright notice, this 
      +                          list
    74                           ;        of conditions and the following disclaimer in the documentation and/or other
    75                           ;        materials provided with the distribution. Publication is not required when
    76                           ;        this file is used in an embedded application.
    77                           ; 
    78                           ;     3. Microchip's name may not be used to endorse or promote products derived from th
      +                          is
    79                           ;        software without specific prior written permission.
    80                           ; 
    81                           ; THIS SOFTWARE IS PROVIDED BY MICROCHIP "AS IS" AND ANY EXPRESS OR IMPLIED WARRANTIES,
    82                           ; INCLUDING, BUT NOT LIMITED TO, THE IMPLIED WARRANTIES OF MERCHANTABILITY AND FITNESS F
      +                          OR
    83                           ; PURPOSE ARE DISCLAIMED.  IN NO EVENT SHALL MICROCHIP BE LIABLE FOR ANY DIRECT, INDIREC
      +                          T,
    84                           ; INCIDENTAL, SPECIAL, EXEMPLARY, OR CONSEQUENTIAL DAMAGES (INCLUDING BUT NOT LIMITED TO
    85                           ; PROCUREMENT OF SUBSTITUTE GOODS OR SERVICES; LOSS OF USE, DATA OR PROFITS; OR BUSINESS
    86                           ; INTERRUPTION) HOWSOEVER CAUSED AND ON ANY THEORY OF LIABILITY, WHETHER IN CONTRACT, ST
      +                          RICT
    87                           ; LIABILITY, OR TORT (INCLUDING NEGLIGENCE OR OTHERWISE) ARISING IN ANY WAY OUT OF THE U
      +                          SE OF
    88                           ; THIS SOFTWARE, EVEN IF ADVISED OF THE POSSIBILITY OF SUCH DAMAGE.
    89                           ; 
    90                           ; 
    91                           ; Code-generator required, PIC18F4550 Definitions
    92                           ; 
    93                           ; SFR Addresses
    94   000000                     
    95                           	psect	idataBANK0
    96   006926                     __pidataBANK0:
    97                           	callstack 0
    98                           
    99                           ;initializer for stoa@F1156
   100   006926  28                 	db	40
   101   006927  6E                 	db	110
   102   006928  75                 	db	117
   103   006929  6C                 	db	108
   104   00692A  6C                 	db	108
   105   00692B  29                 	db	41
   106   00692C  00                 	db	0
   107                           
   108                           ;initializer for Modo_Manual@last_ent
   109   00692D  01                 	db	1
   110                           
   111                           ;initializer for Modo_Manual@last_dow
   112   00692E  01                 	db	1
   113                           
   114                           ;initializer for Modo_Manual@last_inc
   115   00692F  01                 	db	1
   116   000000                     _SSPCON1	set	4038
   117   000000                     _SSPSTAT	set	4039
   118   000000                     _TRISBbits	set	3987
   119   000000                     _ADRESL	set	4035
   120   000000                     _ADRESH	set	4036
   121   000000                     _ADCON0	set	4034
   122   000000                     _RSEN	set	32297
   123   000000                     _TRISB	set	3987
   124   000000                     _SSPSTATbits	set	4039
   125   000000                     _SSPCON2bits	set	4037
   126   000000                     _SSPCON2	set	4037
   127   000000                     _ADCON0bits	set	4034
   128   000000                     _LATB3	set	31827
   129   000000                     _LATB2	set	31826
   130   000000                     _ACKEN	set	32300
   131   000000                     _ACKDT	set	32301
   132   000000                     _R_W	set	32314
   133   000000                     _SEN	set	32296
   134   000000                     _RCEN	set	32299
   135   000000                     _BF	set	32312
   136   000000                     _PEN	set	32298
   137   000000                     _LATD2	set	31842
   138   000000                     _LATC7	set	31839
   139   000000                     _LATC6	set	31838
   140   000000                     _LATC2	set	31834
   141   000000                     _LATC1	set	31833
   142   000000                     _LATD7	set	31847
   143   000000                     _LATD3	set	31843
   144   000000                     _LATD0	set	31840
   145   000000                     _PORTAbits	set	3968
   146   000000                     _PORTC	set	3970
   147   000000                     _OSCCON	set	4051
   148   000000                     _LATD1	set	31841
   149   000000                     _TRISAbits	set	3986
   150   000000                     _TRISC	set	3988
   151   000000                     _TRISD	set	3989
   152   000000                     _ADCON2	set	4032
   153   000000                     _ADCON1	set	4033
   154   000000                     _LATB	set	3978
   155   000000                     _PORTD	set	3971
   156   000000                     _LATC0	set	31832
   157   000000                     _SSPBUF	set	4041
   158   000000                     _SSPADD	set	4040
   159                           
   160                           	psect	mediumconst
   161   007E9A                     __pmediumconst:
   162                           	callstack 0
   163   007E9A  00                 	db	0
   164   007E9B                     STR_14:
   165   007E9B  4D                 	db	77	;'M'
   166   007E9C  6F                 	db	111	;'o'
   167   007E9D  64                 	db	100	;'d'
   168   007E9E  6F                 	db	111	;'o'
   169   007E9F  3A                 	db	58	;':'
   170   007EA0  20                 	db	32
   171   007EA1  4D                 	db	77	;'M'
   172   007EA2  61                 	db	97	;'a'
   173   007EA3  6E                 	db	110	;'n'
   174   007EA4  75                 	db	117	;'u'
   175   007EA5  61                 	db	97	;'a'
   176   007EA6  6C                 	db	108	;'l'
   177   007EA7  20                 	db	32
   178   007EA8  20                 	db	32
   179   007EA9  20                 	db	32
   180   007EAA  20                 	db	32
   181   007EAB  20                 	db	32
   182   007EAC  20                 	db	32
   183   007EAD  20                 	db	32
   184   007EAE  00                 	db	0
   185   007EAF  4D                 	db	77	;'M'
   186   007EB0  61                 	db	97	;'a'
   187   007EB1  6E                 	db	110	;'n'
   188   007EB2  75                 	db	117	;'u'
   189   007EB3  61                 	db	97	;'a'
   190   007EB4  6C                 	db	108	;'l'
   191   007EB5  20                 	db	32
   192   007EB6  2D                 	db	45
   193   007EB7  20                 	db	32
   194   007EB8  56                 	db	86	;'V'
   195   007EB9  3A                 	db	58	;':'
   196   007EBA  25                 	db	37
   197   007EBB  64                 	db	100	;'d'
   198   007EBC  20                 	db	32
   199   007EBD  20                 	db	32
   200   007EBE  20                 	db	32
   201   007EBF  20                 	db	32
   202   007EC0  20                 	db	32
   203   007EC1  20                 	db	32
   204   007EC2  00                 	db	0
   205   007EC3  43                 	db	67	;'C'
   206   007EC4  3A                 	db	58	;':'
   207   007EC5  25                 	db	37
   208   007EC6  30                 	db	48	;'0'
   209   007EC7  34                 	db	52	;'4'
   210   007EC8  64                 	db	100	;'d'
   211   007EC9  20                 	db	32
   212   007ECA  50                 	db	80	;'P'
   213   007ECB  3A                 	db	58	;':'
   214   007ECC  25                 	db	37
   215   007ECD  33                 	db	51	;'3'
   216   007ECE  64                 	db	100	;'d'
   217   007ECF  25                 	db	37
   218   007ED0  25                 	db	37
   219   007ED1  20                 	db	32
   220   007ED2  20                 	db	32
   221   007ED3  20                 	db	32
   222   007ED4  20                 	db	32
   223   007ED5  20                 	db	32
   224   007ED6  00                 	db	0
   225   007ED7  46                 	db	70	;'F'
   226   007ED8  69                 	db	105	;'i'
   227   007ED9  6C                 	db	108	;'l'
   228   007EDA  74                 	db	116	;'t'
   229   007EDB  72                 	db	114	;'r'
   230   007EDC  6F                 	db	111	;'o'
   231   007EDD  20                 	db	32
   232   007EDE  64                 	db	100	;'d'
   233   007EDF  65                 	db	101	;'e'
   234   007EE0  20                 	db	32
   235   007EE1  4D                 	db	77	;'M'
   236   007EE2  61                 	db	97	;'a'
   237   007EE3  6E                 	db	110	;'n'
   238   007EE4  67                 	db	103	;'g'
   239   007EE5  61                 	db	97	;'a'
   240   007EE6  20                 	db	32
   241   007EE7  20                 	db	32
   242   007EE8  20                 	db	32
   243   007EE9  20                 	db	32
   244   007EEA  00                 	db	0
   245   007EEB  4D                 	db	77	;'M'
   246   007EEC  6F                 	db	111	;'o'
   247   007EED  64                 	db	100	;'d'
   248   007EEE  6F                 	db	111	;'o'
   249   007EEF  3A                 	db	58	;':'
   250   007EF0  20                 	db	32
   251   007EF1  41                 	db	65	;'A'
   252   007EF2  75                 	db	117	;'u'
   253   007EF3  74                 	db	116	;'t'
   254   007EF4  6F                 	db	111	;'o'
   255   007EF5  6D                 	db	109	;'m'
   256   007EF6  61                 	db	97	;'a'
   257   007EF7  74                 	db	116	;'t'
   258   007EF8  69                 	db	105	;'i'
   259   007EF9  63                 	db	99	;'c'
   260   007EFA  6F                 	db	111	;'o'
   261   007EFB  20                 	db	32
   262   007EFC  20                 	db	32
   263   007EFD  20                 	db	32
   264   007EFE  00                 	db	0
   265   007EFF  46                 	db	70	;'F'
   266   007F00  41                 	db	65	;'A'
   267   007F01  4C                 	db	76	;'L'
   268   007F02  48                 	db	72	;'H'
   269   007F03  41                 	db	65	;'A'
   270   007F04  21                 	db	33
   271   007F05  20                 	db	32
   272   007F06  50                 	db	80	;'P'
   273   007F07  72                 	db	114	;'r'
   274   007F08  65                 	db	101	;'e'
   275   007F09  73                 	db	115	;'s'
   276   007F0A  73                 	db	115	;'s'
   277   007F0B  20                 	db	32
   278   007F0C  41                 	db	65	;'A'
   279   007F0D  6C                 	db	108	;'l'
   280   007F0E  74                 	db	116	;'t'
   281   007F0F  61                 	db	97	;'a'
   282   007F10  20                 	db	32
   283   007F11  20                 	db	32
   284   007F12  00                 	db	0
   285   007F13  41                 	db	65	;'A'
   286   007F14  75                 	db	117	;'u'
   287   007F15  74                 	db	116	;'t'
   288   007F16  6F                 	db	111	;'o'
   289   007F17  20                 	db	32
   290   007F18  2D                 	db	45
   291   007F19  20                 	db	32
   292   007F1A  41                 	db	65	;'A'
   293   007F1B  67                 	db	103	;'g'
   294   007F1C  75                 	db	117	;'u'
   295   007F1D  61                 	db	97	;'a'
   296   007F1E  72                 	db	114	;'r'
   297   007F1F  64                 	db	100	;'d'
   298   007F20  61                 	db	97	;'a'
   299   007F21  6E                 	db	110	;'n'
   300   007F22  64                 	db	100	;'d'
   301   007F23  6F                 	db	111	;'o'
   302   007F24  20                 	db	32
   303   007F25  20                 	db	32
   304   007F26  00                 	db	0
   305   007F27  41                 	db	65	;'A'
   306   007F28  75                 	db	117	;'u'
   307   007F29  74                 	db	116	;'t'
   308   007F2A  6F                 	db	111	;'o'
   309   007F2B  20                 	db	32
   310   007F2C  2D                 	db	45
   311   007F2D  20                 	db	32
   312   007F2E  43                 	db	67	;'C'
   313   007F2F  69                 	db	105	;'i'
   314   007F30  63                 	db	99	;'c'
   315   007F31  6C                 	db	108	;'l'
   316   007F32  6F                 	db	111	;'o'
   317   007F33  20                 	db	32
   318   007F34  41                 	db	65	;'A'
   319   007F35  74                 	db	116	;'t'
   320   007F36  69                 	db	105	;'i'
   321   007F37  76                 	db	118	;'v'
   322   007F38  6F                 	db	111	;'o'
   323   007F39  20                 	db	32
   324   007F3A  00                 	db	0
   325   007F3B                     STR_2:
   326   007F3B  45                 	db	69	;'E'
   327   007F3C  6E                 	db	110	;'n'
   328   007F3D  67                 	db	103	;'g'
   329   007F3E  65                 	db	101	;'e'
   330   007F3F  6E                 	db	110	;'n'
   331   007F40  68                 	db	104	;'h'
   332   007F41  61                 	db	97	;'a'
   333   007F42  72                 	db	114	;'r'
   334   007F43  69                 	db	105	;'i'
   335   007F44  61                 	db	97	;'a'
   336   007F45  20                 	db	32
   337   007F46  45                 	db	69	;'E'
   338   007F47  6C                 	db	108	;'l'
   339   007F48  65                 	db	101	;'e'
   340   007F49  74                 	db	116	;'t'
   341   007F4A  72                 	db	114	;'r'
   342   007F4B  69                 	db	105	;'i'
   343   007F4C  63                 	db	99	;'c'
   344   007F4D  61                 	db	97	;'a'
   345   007F4E  00                 	db	0
   346   007F4F                     STR_5:
   347   007F4F  57                 	db	87	;'W'
   348   007F50  65                 	db	101	;'e'
   349   007F51  6C                 	db	108	;'l'
   350   007F52  69                 	db	105	;'i'
   351   007F53  6E                 	db	110	;'n'
   352   007F54  67                 	db	103	;'g'
   353   007F55  74                 	db	116	;'t'
   354   007F56  6F                 	db	111	;'o'
   355   007F57  6E                 	db	110	;'n'
   356   007F58  20                 	db	32
   357   007F59  43                 	db	67	;'C'
   358   007F5A  6F                 	db	111	;'o'
   359   007F5B  72                 	db	114	;'r'
   360   007F5C  72                 	db	114	;'r'
   361   007F5D  65                 	db	101	;'e'
   362   007F5E  69                 	db	105	;'i'
   363   007F5F  61                 	db	97	;'a'
   364   007F60  00                 	db	0
   365   007F61                     STR_7:
   366   007F61  53                 	db	83	;'S'
   367   007F62  65                 	db	101	;'e'
   368   007F63  71                 	db	113	;'q'
   369   007F64  2E                 	db	46
   370   007F65  45                 	db	69	;'E'
   371   007F66  6C                 	db	108	;'l'
   372   007F67  65                 	db	101	;'e'
   373   007F68  74                 	db	116	;'t'
   374   007F69  72                 	db	114	;'r'
   375   007F6A  2E                 	db	46
   376   007F6B  4C                 	db	76	;'L'
   377   007F6C  69                 	db	105	;'i'
   378   007F6D  6D                 	db	109	;'m'
   379   007F6E  70                 	db	112	;'p'
   380   007F6F  65                 	db	101	;'e'
   381   007F70  7A                 	db	122	;'z'
   382   007F71  61                 	db	97	;'a'
   383   007F72  00                 	db	0
   384   007F73                     STR_3:
   385   007F73  50                 	db	80	;'P'
   386   007F74  72                 	db	114	;'r'
   387   007F75  6F                 	db	111	;'o'
   388   007F76  6A                 	db	106	;'j'
   389   007F77  65                 	db	101	;'e'
   390   007F78  74                 	db	116	;'t'
   391   007F79  6F                 	db	111	;'o'
   392   007F7A  20                 	db	32
   393   007F7B  49                 	db	73	;'I'
   394   007F7C  6E                 	db	110	;'n'
   395   007F7D  74                 	db	116	;'t'
   396   007F7E  65                 	db	101	;'e'
   397   007F7F  67                 	db	103	;'g'
   398   007F80  72                 	db	114	;'r'
   399   007F81  61                 	db	97	;'a'
   400   007F82  64                 	db	100	;'d'
   401   007F83  6F                 	db	111	;'o'
   402   007F84  00                 	db	0
   403   007F85                     STR_9:
   404   007F85  53                 	db	83	;'S'
   405   007F86  65                 	db	101	;'e'
   406   007F87  6A                 	db	106	;'j'
   407   007F88  61                 	db	97	;'a'
   408   007F89  20                 	db	32
   409   007F8A  42                 	db	66	;'B'
   410   007F8B  65                 	db	101	;'e'
   411   007F8C  6D                 	db	109	;'m'
   412   007F8D  20                 	db	32
   413   007F8E  56                 	db	86	;'V'
   414   007F8F  69                 	db	105	;'i'
   415   007F90  6E                 	db	110	;'n'
   416   007F91  64                 	db	100	;'d'
   417   007F92  6F                 	db	111	;'o'
   418   007F93  21                 	db	33
   419   007F94  00                 	db	0
   420   007F95                     STR_8:
   421   007F95  46                 	db	70	;'F'
   422   007F96  69                 	db	105	;'i'
   423   007F97  6C                 	db	108	;'l'
   424   007F98  74                 	db	116	;'t'
   425   007F99  72                 	db	114	;'r'
   426   007F9A  6F                 	db	111	;'o'
   427   007F9B  20                 	db	32
   428   007F9C  64                 	db	100	;'d'
   429   007F9D  65                 	db	101	;'e'
   430   007F9E  20                 	db	32
   431   007F9F  4D                 	db	77	;'M'
   432   007FA0  61                 	db	97	;'a'
   433   007FA1  6E                 	db	110	;'n'
   434   007FA2  67                 	db	103	;'g'
   435   007FA3  61                 	db	97	;'a'
   436   007FA4  00                 	db	0
   437   007FA5                     STR_4:
   438   007FA5  45                 	db	69	;'E'
   439   007FA6  6D                 	db	109	;'m'
   440   007FA7  20                 	db	32
   441   007FA8  45                 	db	69	;'E'
   442   007FA9  6C                 	db	108	;'l'
   443   007FAA  65                 	db	101	;'e'
   444   007FAB  74                 	db	116	;'t'
   445   007FAC  72                 	db	114	;'r'
   446   007FAD  69                 	db	105	;'i'
   447   007FAE  63                 	db	99	;'c'
   448   007FAF  61                 	db	97	;'a'
   449   007FB0  20                 	db	32
   450   007FB1  49                 	db	73	;'I'
   451   007FB2  49                 	db	73	;'I'
   452   007FB3  00                 	db	0
   453   007FB4                     STR_23:
   454   007FB4  25                 	db	37
   455   007FB5  30                 	db	48	;'0'
   456   007FB6  32                 	db	50	;'2'
   457   007FB7  64                 	db	100	;'d'
   458   007FB8  3A                 	db	58	;':'
   459   007FB9  25                 	db	37
   460   007FBA  30                 	db	48	;'0'
   461   007FBB  32                 	db	50	;'2'
   462   007FBC  64                 	db	100	;'d'
   463   007FBD  3A                 	db	58	;':'
   464   007FBE  25                 	db	37
   465   007FBF  30                 	db	48	;'0'
   466   007FC0  32                 	db	50	;'2'
   467   007FC1  64                 	db	100	;'d'
   468   007FC2  00                 	db	0
   469   007FC3                     STR_24:
   470   007FC3  25                 	db	37
   471   007FC4  30                 	db	48	;'0'
   472   007FC5  32                 	db	50	;'2'
   473   007FC6  64                 	db	100	;'d'
   474   007FC7  2F                 	db	47
   475   007FC8  25                 	db	37
   476   007FC9  30                 	db	48	;'0'
   477   007FCA  32                 	db	50	;'2'
   478   007FCB  64                 	db	100	;'d'
   479   007FCC  2F                 	db	47
   480   007FCD  25                 	db	37
   481   007FCE  30                 	db	48	;'0'
   482   007FCF  34                 	db	52	;'4'
   483   007FD0  64                 	db	100	;'d'
   484   007FD1  00                 	db	0
   485   007FD2                     STR_6:
   486   007FD2  52                 	db	82	;'R'
   487   007FD3  41                 	db	65	;'A'
   488   007FD4  20                 	db	32
   489   007FD5  3A                 	db	58	;':'
   490   007FD6  20                 	db	32
   491   007FD7  31                 	db	49	;'1'
   492   007FD8  30                 	db	48	;'0'
   493   007FD9  36                 	db	54	;'6'
   494   007FDA  33                 	db	51	;'3'
   495   007FDB  36                 	db	54	;'6'
   496   007FDC  37                 	db	55	;'7'
   497   007FDD  37                 	db	55	;'7'
   498   007FDE  00                 	db	0
   499   007FDF                     STR_10:
   500   007FDF  43                 	db	67	;'C'
   501   007FE0  69                 	db	105	;'i'
   502   007FE1  63                 	db	99	;'c'
   503   007FE2  6C                 	db	108	;'l'
   504   007FE3  6F                 	db	111	;'o'
   505   007FE4  73                 	db	115	;'s'
   506   007FE5  3A                 	db	58	;':'
   507   007FE6  20                 	db	32
   508   007FE7  25                 	db	37
   509   007FE8  30                 	db	48	;'0'
   510   007FE9  34                 	db	52	;'4'
   511   007FEA  64                 	db	100	;'d'
   512   007FEB  00                 	db	0
   513   007FEC                     STR_1:
   514   007FEC  55                 	db	85	;'U'
   515   007FED  4E                 	db	78	;'N'
   516   007FEE  49                 	db	73	;'I'
   517   007FEF  55                 	db	85	;'U'
   518   007FF0  42                 	db	66	;'B'
   519   007FF1  45                 	db	69	;'E'
   520   007FF2  00                 	db	0
   521   007FF3                     STR_12:
   522   007FF3  25                 	db	37
   523   007FF4  73                 	db	115	;'s'
   524   007FF5  20                 	db	32
   525   007FF6  20                 	db	32
   526   007FF7  25                 	db	37
   527   007FF8  73                 	db	115	;'s'
   528   007FF9  00                 	db	0
   529   007FFA                     STR_25:
   530   007FFA  6C                 	db	108	;'l'
   531   007FFB  6C                 	db	108	;'l'
   532   007FFC  73                 	db	115	;'s'
   533   007FFD  00                 	db	0
   534   007FFE  00                 	db	0	; dummy byte at the end
   535   000000                     
   536                           ; #config settings
   537                           
   538                           	psect	cinit
   539   006AE0                     __pcinit:
   540                           	callstack 0
   541   006AE0                     start_initialization:
   542                           	callstack 0
   543   006AE0                     __initialization:
   544                           	callstack 0
   545                           
   546                           ; Initialize objects allocated to BANK0 (10 bytes)
   547                           ; load TBLPTR registers with __pidataBANK0
   548   006AE0  0E26               	movlw	low __pidataBANK0
   549   006AE2  6EF6               	movwf	tblptrl,c
   550   006AE4  0E69               	movlw	high __pidataBANK0
   551   006AE6  6EF7               	movwf	tblptrh,c
   552   006AE8  0E00               	movlw	low (__pidataBANK0 shr (0+16))
   553   006AEA  6EF8               	movwf	tblptru,c
   554   006AEC  EE00  F0C6         	lfsr	0,__pdataBANK0
   555   006AF0  EE10 F00A          	lfsr	1,10
   556   006AF4                     copy_data0:
   557   006AF4  0009               	tblrd		*+
   558   006AF6  CFF5 FFEE          	movff	tablat,postinc0
   559   006AFA  50E5               	movf	postdec1,w,c
   560   006AFC  50E1               	movf	fsr1l,w,c
   561   006AFE  E1FA               	bnz	copy_data0
   562                           
   563                           ; Clear objects allocated to BANK0 (102 bytes)
   564   006B00  EE00  F060         	lfsr	0,__pbssBANK0
   565   006B04  0E66               	movlw	102
   566   006B06                     clear_0:
   567   006B06  6AEE               	clrf	postinc0,c
   568   006B08  06E8               	decf	wreg,f,c
   569   006B0A  E1FD               	bnz	clear_0
   570                           
   571                           ; Clear objects allocated to COMRAM (1 bytes)
   572   006B0C  6A5F               	clrf	__pbssCOMRAM& (0+255),c
   573   006B0E                     end_of_initialization:
   574                           	callstack 0
   575   006B0E                     __end_of__initialization:
   576                           	callstack 0
   577   006B0E  0E00               	movlw	low (__Lmediumconst shr (0+16))
   578   006B10  6EF8               	movwf	tblptru,c
   579   006B12  0100               	movlb	0
   580   006B14  EF25  F037         	goto	_main	;jump to C main() function
   581                           
   582                           	psect	bssCOMRAM
   583   00005F                     __pbssCOMRAM:
   584                           	callstack 0
   585   00005F                     _flags:
   586                           	callstack 0
   587   00005F                     	ds	1
   588                           
   589                           	psect	bssBANK0
   590   000060                     __pbssBANK0:
   591                           	callstack 0
   592   000060                     _width:
   593                           	callstack 0
   594   000060                     	ds	2
   595   000062                     _prec:
   596                           	callstack 0
   597   000062                     	ds	2
   598   000064                     Sequenciador_Automatico@estado_timer:
   599                           	callstack 0
   600   000064                     	ds	2
   601   000066                     Atualizar_Display_Principal@display_timer:
   602                           	callstack 0
   603   000066                     	ds	2
   604   000068                     main@blink_timer:
   605                           	callstack 0
   606   000068                     	ds	2
   607   00006A                     _adc_pressao:
   608                           	callstack 0
   609   00006A                     	ds	2
   610   00006C                     _temporizador:
   611                           	callstack 0
   612   00006C                     	ds	2
   613   00006E                     _contador_ciclos:
   614                           	callstack 0
   615   00006E                     	ds	2
   616   000070                     Sequenciador_Automatico@estado:
   617                           	callstack 0
   618   000070                     	ds	1
   619   000071                     Sequenciador_Automatico@valvula_atual:
   620                           	callstack 0
   621   000071                     	ds	1
   622   000072                     _falha_pressao:
   623                           	callstack 0
   624   000072                     	ds	1
   625   000073                     _ciclo_em_andamento:
   626                           	callstack 0
   627   000073                     	ds	1
   628   000074                     _valvula_selecionada:
   629                           	callstack 0
   630   000074                     	ds	1
   631   000075                     _modo_operacao:
   632                           	callstack 0
   633   000075                     	ds	1
   634   000076                     _dbuf:
   635                           	callstack 0
   636   000076                     	ds	32
   637   000096                     _lcd_buffer:
   638                           	callstack 0
   639   000096                     	ds	21
   640   0000AB                     _data_buffer:
   641                           	callstack 0
   642   0000AB                     	ds	11
   643   0000B6                     _hora_buffer:
   644                           	callstack 0
   645   0000B6                     	ds	9
   646   0000BF                     _rtc:
   647                           	callstack 0
   648   0000BF                     	ds	7
   649                           
   650                           	psect	dataBANK0
   651   0000C6                     __pdataBANK0:
   652                           	callstack 0
   653   0000C6                     stoa@F1156:
   654                           	callstack 0
   655   0000C6                     	ds	7
   656   0000CD                     Modo_Manual@last_ent:
   657                           	callstack 0
   658   0000CD                     	ds	1
   659   0000CE                     Modo_Manual@last_dow:
   660                           	callstack 0
   661   0000CE                     	ds	1
   662   0000CF                     Modo_Manual@last_inc:
   663                           	callstack 0
   664   0000CF                     	ds	1
   665                           
   666                           	psect	cstackBANK0
   667   0000D0                     __pcstackBANK0:
   668                           	callstack 0
   669   0000D0                     ??_Format_Hora:
   670   0000D0                     ??_Format_Data:
   671                           
   672                           ; 1 bytes @ 0x0
   673   0000D0                     	ds	2
   674   0000D2                     Format_Hora@hora:
   675                           	callstack 0
   676   0000D2                     Format_Data@dia:
   677                           	callstack 0
   678                           
   679                           ; 1 bytes @ 0x2
   680   0000D2                     	ds	1
   681   0000D3                     Format_Hora@min:
   682                           	callstack 0
   683   0000D3                     Format_Data@mes:
   684                           	callstack 0
   685                           
   686                           ; 1 bytes @ 0x3
   687   0000D3                     	ds	1
   688   0000D4                     Format_Hora@seg:
   689                           	callstack 0
   690   0000D4                     Format_Data@ano:
   691                           	callstack 0
   692                           
   693                           ; 1 bytes @ 0x4
   694   0000D4                     	ds	1
   695   0000D5                     _Display_Mensagens_Iniciais$363:
   696                           	callstack 0
   697                           
   698                           ; 2 bytes @ 0x5
   699   0000D5                     	ds	2
   700   0000D7                     ??_main:
   701                           
   702                           ; 1 bytes @ 0x7
   703   0000D7                     	ds	2
   704                           
   705                           	psect	cstackCOMRAM
   706   000001                     __pcstackCOMRAM:
   707                           	callstack 0
   708   000001                     ?_strlen:
   709                           	callstack 0
   710   000001                     ?_strncmp:
   711                           	callstack 0
   712   000001                     ?___wmul:
   713                           	callstack 0
   714   000001                     ?___awdiv:
   715                           	callstack 0
   716   000001                     ?___awmod:
   717                           	callstack 0
   718   000001                     I2C_Write@v_i2cData_u8:
   719                           	callstack 0
   720   000001                     I2C_Read@v_ackOption_u8:
   721                           	callstack 0
   722   000001                     MSdelay@val:
   723                           	callstack 0
   724   000001                     ___wmul@multiplier:
   725                           	callstack 0
   726   000001                     ___awdiv@dividend:
   727                           	callstack 0
   728   000001                     ___awmod@dividend:
   729                           	callstack 0
   730   000001                     fputc@c:
   731                           	callstack 0
   732   000001                     strlen@s:
   733                           	callstack 0
   734   000001                     strncmp@_l:
   735                           	callstack 0
   736                           
   737                           ; 2 bytes @ 0x0
   738   000001                     	ds	1
   739   000002                     I2C_Read@v_i2cData_u8:
   740                           	callstack 0
   741                           
   742                           ; 1 bytes @ 0x1
   743   000002                     	ds	1
   744   000003                     Ler_EEPROM@endereco:
   745                           	callstack 0
   746   000003                     RTC_GetDateTime@rtc:
   747                           	callstack 0
   748   000003                     MSdelay@i:
   749                           	callstack 0
   750   000003                     ___wmul@multiplicand:
   751                           	callstack 0
   752   000003                     ___awdiv@divisor:
   753                           	callstack 0
   754   000003                     ___awmod@divisor:
   755                           	callstack 0
   756   000003                     fputc@fp:
   757                           	callstack 0
   758   000003                     strlen@a:
   759                           	callstack 0
   760   000003                     strncmp@_r:
   761                           	callstack 0
   762                           
   763                           ; 2 bytes @ 0x2
   764   000003                     	ds	2
   765   000005                     ??_fputc:
   766   000005                     Ler_EEPROM@dado:
   767                           	callstack 0
   768   000005                     ___awdiv@counter:
   769                           	callstack 0
   770   000005                     ___awmod@counter:
   771                           	callstack 0
   772   000005                     MSdelay@j:
   773                           	callstack 0
   774   000005                     ___wmul@product:
   775                           	callstack 0
   776   000005                     strncmp@n:
   777                           	callstack 0
   778                           
   779                           ; 2 bytes @ 0x4
   780   000005                     	ds	1
   781   000006                     ??_Ler_Contador_EEPROM:
   782   000006                     ___awdiv@sign:
   783                           	callstack 0
   784   000006                     ___awmod@sign:
   785                           	callstack 0
   786                           
   787                           ; 1 bytes @ 0x5
   788   000006                     	ds	1
   789   000007                     ??_Beep:
   790   000007                     ??_LCD_Command:
   791   000007                     ??_strncmp:
   792   000007                     ??_LCD_Char:
   793   000007                     ?_abs:
   794                           	callstack 0
   795   000007                     ?_read_prec_or_width:
   796                           	callstack 0
   797   000007                     ___awdiv@quotient:
   798                           	callstack 0
   799   000007                     read_prec_or_width@fmt:
   800                           	callstack 0
   801   000007                     abs@a:
   802                           	callstack 0
   803                           
   804                           ; 2 bytes @ 0x6
   805   000007                     	ds	1
   806   000008                     Ler_Contador_EEPROM@high:
   807                           	callstack 0
   808   000008                     LCD_Command@cmd:
   809                           	callstack 0
   810   000008                     LCD_Char@dat:
   811                           	callstack 0
   812   000008                     strncmp@l:
   813                           	callstack 0
   814                           
   815                           ; 2 bytes @ 0x7
   816   000008                     	ds	1
   817   000009                     ??_abs:
   818   000009                     Beep@tipo:
   819                           	callstack 0
   820   000009                     Ler_Contador_EEPROM@low:
   821                           	callstack 0
   822   000009                     LCD_String@msg:
   823                           	callstack 0
   824   000009                     read_prec_or_width@ap:
   825                           	callstack 0
   826                           
   827                           ; 2 bytes @ 0x8
   828   000009                     	ds	1
   829   00000A                     stoa@fp:
   830                           	callstack 0
   831   00000A                     fputs@s:
   832                           	callstack 0
   833   00000A                     strncmp@r:
   834                           	callstack 0
   835                           
   836                           ; 2 bytes @ 0x9
   837   00000A                     	ds	1
   838   00000B                     ??_read_prec_or_width:
   839   00000B                     LCD_String_xy@pos:
   840                           	callstack 0
   841                           
   842                           ; 1 bytes @ 0xA
   843   00000B                     	ds	1
   844   00000C                     LCD_String_xy@msg:
   845                           	callstack 0
   846   00000C                     stoa@s:
   847                           	callstack 0
   848   00000C                     fputs@fp:
   849                           	callstack 0
   850                           
   851                           ; 2 bytes @ 0xB
   852   00000C                     	ds	1
   853   00000D                     read_prec_or_width@c:
   854                           	callstack 0
   855                           
   856                           ; 1 bytes @ 0xC
   857   00000D                     	ds	1
   858   00000E                     ??_stoa:
   859   00000E                     LCD_String_xy@row:
   860                           	callstack 0
   861   00000E                     fputs@c:
   862                           	callstack 0
   863   00000E                     read_prec_or_width@n:
   864                           	callstack 0
   865                           
   866                           ; 2 bytes @ 0xD
   867   00000E                     	ds	1
   868   00000F                     LCD_String_xy@location:
   869                           	callstack 0
   870   00000F                     fputs@i:
   871                           	callstack 0
   872   00000F                     stoa@nuls:
   873                           	callstack 0
   874                           
   875                           ; 7 bytes @ 0xE
   876   00000F                     	ds	2
   877   000011                     pad@fp:
   878                           	callstack 0
   879                           
   880                           ; 2 bytes @ 0x10
   881   000011                     	ds	2
   882   000013                     pad@buf:
   883                           	callstack 0
   884                           
   885                           ; 2 bytes @ 0x12
   886   000013                     	ds	2
   887   000015                     pad@p:
   888                           	callstack 0
   889                           
   890                           ; 2 bytes @ 0x14
   891   000015                     	ds	1
   892   000016                     stoa@i:
   893                           	callstack 0
   894                           
   895                           ; 2 bytes @ 0x15
   896   000016                     	ds	1
   897   000017                     ??_pad:
   898                           
   899                           ; 1 bytes @ 0x16
   900   000017                     	ds	1
   901   000018                     pad@i:
   902                           	callstack 0
   903   000018                     stoa@w:
   904                           	callstack 0
   905                           
   906                           ; 2 bytes @ 0x17
   907   000018                     	ds	2
   908   00001A                     pad@w:
   909                           	callstack 0
   910   00001A                     stoa@cp:
   911                           	callstack 0
   912                           
   913                           ; 2 bytes @ 0x19
   914   00001A                     	ds	2
   915   00001C                     dtoa@fp:
   916                           	callstack 0
   917   00001C                     stoa@p:
   918                           	callstack 0
   919                           
   920                           ; 2 bytes @ 0x1B
   921   00001C                     	ds	2
   922   00001E                     dtoa@d:
   923                           	callstack 0
   924   00001E                     stoa@l:
   925                           	callstack 0
   926                           
   927                           ; 2 bytes @ 0x1D
   928   00001E                     	ds	2
   929   000020                     _dtoa$1274:
   930                           	callstack 0
   931                           
   932                           ; 2 bytes @ 0x1F
   933   000020                     	ds	2
   934   000022                     dtoa@p:
   935                           	callstack 0
   936                           
   937                           ; 2 bytes @ 0x21
   938   000022                     	ds	2
   939   000024                     dtoa@w:
   940                           	callstack 0
   941                           
   942                           ; 2 bytes @ 0x23
   943   000024                     	ds	2
   944   000026                     dtoa@i:
   945                           	callstack 0
   946                           
   947                           ; 2 bytes @ 0x25
   948   000026                     	ds	2
   949   000028                     dtoa@s:
   950                           	callstack 0
   951                           
   952                           ; 1 bytes @ 0x27
   953   000028                     	ds	1
   954   000029                     vfpfcnvrt@fp:
   955                           	callstack 0
   956                           
   957                           ; 2 bytes @ 0x28
   958   000029                     	ds	2
   959   00002B                     vfpfcnvrt@fmt:
   960                           	callstack 0
   961                           
   962                           ; 2 bytes @ 0x2A
   963   00002B                     	ds	2
   964   00002D                     vfpfcnvrt@ap:
   965                           	callstack 0
   966                           
   967                           ; 2 bytes @ 0x2C
   968   00002D                     	ds	2
   969   00002F                     ??_vfpfcnvrt:
   970                           
   971                           ; 1 bytes @ 0x2E
   972   00002F                     	ds	2
   973   000031                     vfpfcnvrt@convarg:
   974                           	callstack 0
   975                           
   976                           ; 4 bytes @ 0x30
   977   000031                     	ds	4
   978   000035                     vfpfcnvrt@done:
   979                           	callstack 0
   980                           
   981                           ; 2 bytes @ 0x34
   982   000035                     	ds	2
   983   000037                     _vfpfcnvrt$1312:
   984                           	callstack 0
   985                           
   986                           ; 2 bytes @ 0x36
   987   000037                     	ds	2
   988   000039                     vfpfcnvrt@cp:
   989                           	callstack 0
   990                           
   991                           ; 2 bytes @ 0x38
   992   000039                     	ds	2
   993   00003B                     ?_vfprintf:
   994                           	callstack 0
   995   00003B                     vfprintf@fp:
   996                           	callstack 0
   997                           
   998                           ; 2 bytes @ 0x3A
   999   00003B                     	ds	2
  1000   00003D                     vfprintf@fmt:
  1001                           	callstack 0
  1002                           
  1003                           ; 2 bytes @ 0x3C
  1004   00003D                     	ds	2
  1005   00003F                     vfprintf@ap:
  1006                           	callstack 0
  1007                           
  1008                           ; 2 bytes @ 0x3E
  1009   00003F                     	ds	2
  1010   000041                     vfprintf@cfmt:
  1011                           	callstack 0
  1012                           
  1013                           ; 2 bytes @ 0x40
  1014   000041                     	ds	2
  1015   000043                     ?_sprintf:
  1016                           	callstack 0
  1017   000043                     sprintf@s:
  1018                           	callstack 0
  1019                           
  1020                           ; 2 bytes @ 0x42
  1021   000043                     	ds	2
  1022   000045                     sprintf@fmt:
  1023                           	callstack 0
  1024                           
  1025                           ; 2 bytes @ 0x44
  1026   000045                     	ds	8
  1027   00004D                     sprintf@ap:
  1028                           	callstack 0
  1029                           
  1030                           ; 2 bytes @ 0x4C
  1031   00004D                     	ds	2
  1032   00004F                     sprintf@f:
  1033                           	callstack 0
  1034                           
  1035                           ; 12 bytes @ 0x4E
  1036   00004F                     	ds	12
  1037   00005B                     Format_Hora@buffer:
  1038                           	callstack 0
  1039   00005B                     Format_Data@buffer:
  1040                           	callstack 0
  1041                           
  1042                           ; 2 bytes @ 0x5A
  1043   00005B                     	ds	2
  1044   00005D                     Format_Hora@rtc:
  1045                           	callstack 0
  1046   00005D                     Format_Data@rtc:
  1047                           	callstack 0
  1048                           
  1049                           ; 2 bytes @ 0x5C
  1050   00005D                     	ds	2
  1051   00005F                     
  1052                           ; 1 bytes @ 0x5E
  1053 ;;
  1054 ;;Main: autosize = 0, tempsize = 2, incstack = 0, save=0
  1055 ;;
  1056 ;; *************** function _main *****************
  1057 ;; Defined at:
  1058 ;;		line 105 in file "main_piee2.c"
  1059 ;; Parameters:    Size  Location     Type
  1060 ;;		None
  1061 ;; Auto vars:     Size  Location     Type
  1062 ;;		None
  1063 ;; Return value:  Size  Location     Type
  1064 ;;                  2  114[None  ] int 
  1065 ;; Registers used:
  1066 ;;		wreg, fsr0l, fsr0h, fsr1l, fsr1h, fsr2l, fsr2h, status,2, status,0, tblptrl, tblptrh, tblptru, prodl, prodh, cstack
  1067 ;; Tracked objects:
  1068 ;;		On entry : 0/0
  1069 ;;		On exit  : 0/0
  1070 ;;		Unchanged: 0/0
  1071 ;; Data sizes:     COMRAM   BANK0   BANK1   BANK2   BANK3   BANK4   BANK5   BANK6   BANK7
  1072 ;;      Params:         0       0       0       0       0       0       0       0       0
  1073 ;;      Locals:         0       0       0       0       0       0       0       0       0
  1074 ;;      Temps:          0       2       0       0       0       0       0       0       0
  1075 ;;      Totals:         0       2       0       0       0       0       0       0       0
  1076 ;;Total ram usage:        2 bytes
  1077 ;; Hardware stack levels required when called: 10
  1078 ;; This function calls:
  1079 ;;		_Beep
  1080 ;;		_Display_Mensagens_Iniciais
  1081 ;;		_MSdelay
  1082 ;;		_System_Init
  1083 ;; This function is called by:
  1084 ;;		Startup code after reset
  1085 ;; This function uses a non-reentrant model
  1086 ;;
  1087                           
  1088                           	psect	text0
  1089   006E4A                     __ptext0:
  1090                           	callstack 0
  1091   006E4A                     _main:
  1092                           	callstack 21
  1093   006E4A                     
  1094                           ;main_piee2.c: 107:     OSCCON = 0x72;
  1095   006E4A  0E72               	movlw	114
  1096   006E4C  6ED3               	movwf	211,c	;volatile
  1097   006E4E                     
  1098                           ;main_piee2.c: 108:     System_Init();
  1099   006E4E  EC3C  F035         	call	_System_Init	;wreg free
  1100   006E52                     
  1101                           ;main_piee2.c: 112:     Beep(1);
  1102   006E52  0E01               	movlw	1
  1103   006E54  EC55  F037         	call	_Beep
  1104   006E58                     
  1105                           ;main_piee2.c: 113:     Display_Mensagens_Iniciais();
  1106   006E58  ECD7  F03C         	call	_Display_Mensagens_Iniciais	;wreg free
  1107   006E5C                     
  1108                           ;main_piee2.c: 114:     Beep(2);
  1109   006E5C  0E02               	movlw	2
  1110   006E5E  EC55  F037         	call	_Beep
  1111   006E62                     l2873:
  1112                           
  1113                           ;main_piee2.c: 176:         static uint16_t blink_timer = 0;;main_piee2.c: 177:         
      +                          if(blink_timer++ >= 50) {
  1114   006E62  0100               	movlb	0	; () banked
  1115   006E64  5168               	movf	main@blink_timer& (0+255),w,b
  1116   006E66  6FD7               	movwf	??_main& (0+255),b
  1117   006E68  5169               	movf	(main@blink_timer+1)& (0+255),w,b
  1118   006E6A  6FD8               	movwf	(??_main+1)& (0+255),b
  1119   006E6C  4B68               	infsnz	main@blink_timer& (0+255),f,b
  1120   006E6E  2B69               	incf	(main@blink_timer+1)& (0+255),f,b
  1121   006E70  51D8               	movf	(??_main+1)& (0+255),w,b
  1122   006E72  E109               	bnz	u1910
  1123   006E74  0E32               	movlw	50
  1124   006E76  5DD7               	subwf	??_main& (0+255),w,b
  1125   006E78  A0D8               	btfss	status,0,c
  1126   006E7A  EF41  F037         	goto	u1911
  1127   006E7E  EF43  F037         	goto	u1910
  1128   006E82                     u1911:
  1129   006E82  EF48  F037         	goto	l2879
  1130   006E86                     u1910:
  1131   006E86                     
  1132                           ; BSR set to: 0
  1133                           ;main_piee2.c: 178:             blink_timer = 0;
  1134   006E86  0E00               	movlw	0
  1135   006E88  6F69               	movwf	(main@blink_timer+1)& (0+255),b
  1136   006E8A  0E00               	movlw	0
  1137   006E8C  6F68               	movwf	main@blink_timer& (0+255),b
  1138   006E8E                     
  1139                           ; BSR set to: 0
  1140                           ;main_piee2.c: 179:             LATD1 ^= 1;
  1141   006E8E  728C               	btg	3980,1,c	;volatile
  1142   006E90                     l2879:
  1143                           
  1144                           ; BSR set to: 0
  1145                           ;main_piee2.c: 183:         MSdelay(10);
  1146   006E90  0E00               	movlw	0
  1147   006E92  6E02               	movwf	(MSdelay@val+1)^0,c
  1148   006E94  0E0A               	movlw	10
  1149   006E96  6E01               	movwf	MSdelay@val^0,c
  1150   006E98  EC0F  F036         	call	_MSdelay	;wreg free
  1151   006E9C                     
  1152                           ;main_piee2.c: 184:         temporizador++;
  1153   006E9C  0100               	movlb	0	; () banked
  1154   006E9E  4B6C               	infsnz	_temporizador& (0+255),f,b
  1155   006EA0  2B6D               	incf	(_temporizador+1)& (0+255),f,b
  1156   006EA2  EF31  F037         	goto	l2873
  1157   006EA6  EF00  F000         	goto	start
  1158   006EAA                     __end_of_main:
  1159                           	callstack 0
  1160                           
  1161 ;; *************** function _System_Init *****************
  1162 ;; Defined at:
  1163 ;;		line 191 in file "main_piee2.c"
  1164 ;; Parameters:    Size  Location     Type
  1165 ;;		None
  1166 ;; Auto vars:     Size  Location     Type
  1167 ;;		None
  1168 ;; Return value:  Size  Location     Type
  1169 ;;                  1    wreg      void 
  1170 ;; Registers used:
  1171 ;;		wreg, status,2, status,0, cstack
  1172 ;; Tracked objects:
  1173 ;;		On entry : 0/0
  1174 ;;		On exit  : 0/0
  1175 ;;		Unchanged: 0/0
  1176 ;; Data sizes:     COMRAM   BANK0   BANK1   BANK2   BANK3   BANK4   BANK5   BANK6   BANK7
  1177 ;;      Params:         0       0       0       0       0       0       0       0       0
  1178 ;;      Locals:         0       0       0       0       0       0       0       0       0
  1179 ;;      Temps:          0       0       0       0       0       0       0       0       0
  1180 ;;      Totals:         0       0       0       0       0       0       0       0       0
  1181 ;;Total ram usage:        0 bytes
  1182 ;; Hardware stack levels used: 1
  1183 ;; Hardware stack levels required when called: 4
  1184 ;; This function calls:
  1185 ;;		_ADC_Init
  1186 ;;		_I2C_Init
  1187 ;;		_LCD_Init
  1188 ;;		_Ler_Contador_EEPROM
  1189 ;;		_RTC_Init
  1190 ;; This function is called by:
  1191 ;;		_main
  1192 ;; This function uses a non-reentrant model
  1193 ;;
  1194                           
  1195                           	psect	text1
  1196   006A78                     __ptext1:
  1197                           	callstack 0
  1198   006A78                     _System_Init:
  1199                           	callstack 26
  1200   006A78                     
  1201                           ;main_piee2.c: 193:     TRISD = 0x00;
  1202   006A78  0E00               	movlw	0
  1203   006A7A  6E95               	movwf	149,c	;volatile
  1204                           
  1205                           ;main_piee2.c: 194:     TRISC = 0x00;
  1206   006A7C  0E00               	movlw	0
  1207   006A7E  6E94               	movwf	148,c	;volatile
  1208                           
  1209                           ;main_piee2.c: 195:     PORTC = 0x00;
  1210   006A80  0E00               	movlw	0
  1211   006A82  6E82               	movwf	130,c	;volatile
  1212                           
  1213                           ;main_piee2.c: 196:     PORTD = 0x00;
  1214   006A84  0E00               	movlw	0
  1215   006A86  6E83               	movwf	131,c	;volatile
  1216   006A88                     
  1217                           ;main_piee2.c: 199:     TRISAbits.TRISA2 = 1;
  1218   006A88  8492               	bsf	146,2,c	;volatile
  1219   006A8A                     
  1220                           ;main_piee2.c: 200:     TRISAbits.TRISA3 = 1;
  1221   006A8A  8692               	bsf	146,3,c	;volatile
  1222   006A8C                     
  1223                           ;main_piee2.c: 201:     TRISAbits.TRISA4 = 1;
  1224   006A8C  8892               	bsf	146,4,c	;volatile
  1225   006A8E                     
  1226                           ;main_piee2.c: 202:     TRISAbits.TRISA5 = 1;
  1227   006A8E  8A92               	bsf	146,5,c	;volatile
  1228   006A90                     
  1229                           ;main_piee2.c: 203:     TRISAbits.TRISA6 = 1;
  1230   006A90  8C92               	bsf	146,6,c	;volatile
  1231   006A92                     
  1232                           ;main_piee2.c: 204:     TRISAbits.TRISA0 = 1;
  1233   006A92  8092               	bsf	146,0,c	;volatile
  1234   006A94                     
  1235                           ;main_piee2.c: 207:     LCD_Init();
  1236   006A94  EC0C  F035         	call	_LCD_Init	;wreg free
  1237   006A98                     
  1238                           ;main_piee2.c: 208:     RTC_Init();
  1239   006A98  ECE9  F034         	call	_RTC_Init	;wreg free
  1240   006A9C                     
  1241                           ;main_piee2.c: 209:     ADC_Init();
  1242   006A9C  EC8E  F034         	call	_ADC_Init	;wreg free
  1243   006AA0                     
  1244                           ;main_piee2.c: 210:     I2C_Init();
  1245   006AA0  ECD1  F034         	call	_I2C_Init	;wreg free
  1246   006AA4                     
  1247                           ;main_piee2.c: 213:     Ler_Contador_EEPROM();
  1248   006AA4  ECCD  F036         	call	_Ler_Contador_EEPROM	;wreg free
  1249   006AA8  0012               	return		;funcret
  1250   006AAA                     __end_of_System_Init:
  1251                           	callstack 0
  1252                           
  1253 ;; *************** function _RTC_Init *****************
  1254 ;; Defined at:
  1255 ;;		line 513 in file "main_piee2.c"
  1256 ;; Parameters:    Size  Location     Type
  1257 ;;		None
  1258 ;; Auto vars:     Size  Location     Type
  1259 ;;		None
  1260 ;; Return value:  Size  Location     Type
  1261 ;;                  1    wreg      void 
  1262 ;; Registers used:
  1263 ;;		wreg, status,2, cstack
  1264 ;; Tracked objects:
  1265 ;;		On entry : 0/0
  1266 ;;		On exit  : 0/0
  1267 ;;		Unchanged: 0/0
  1268 ;; Data sizes:     COMRAM   BANK0   BANK1   BANK2   BANK3   BANK4   BANK5   BANK6   BANK7
  1269 ;;      Params:         0       0       0       0       0       0       0       0       0
  1270 ;;      Locals:         0       0       0       0       0       0       0       0       0
  1271 ;;      Temps:          0       0       0       0       0       0       0       0       0
  1272 ;;      Totals:         0       0       0       0       0       0       0       0       0
  1273 ;;Total ram usage:        0 bytes
  1274 ;; Hardware stack levels used: 1
  1275 ;; Hardware stack levels required when called: 2
  1276 ;; This function calls:
  1277 ;;		_I2C_Init
  1278 ;;		_I2C_Start
  1279 ;;		_I2C_Stop
  1280 ;;		_I2C_Write
  1281 ;; This function is called by:
  1282 ;;		_System_Init
  1283 ;; This function uses a non-reentrant model
  1284 ;;
  1285                           
  1286                           	psect	text2
  1287   0069D2                     __ptext2:
  1288                           	callstack 0
  1289   0069D2                     _RTC_Init:
  1290                           	callstack 27
  1291   0069D2                     
  1292                           ;main_piee2.c: 514:     I2C_Init();
  1293   0069D2  ECD1  F034         	call	_I2C_Init	;wreg free
  1294   0069D6                     
  1295                           ;main_piee2.c: 516:     I2C_Start();
  1296   0069D6  ECA1  F034         	call	_I2C_Start	;wreg free
  1297   0069DA                     
  1298                           ;main_piee2.c: 517:     I2C_Write(0xD0);
  1299   0069DA  0ED0               	movlw	208
  1300   0069DC  ECDC  F034         	call	_I2C_Write
  1301   0069E0                     
  1302                           ;main_piee2.c: 518:     I2C_Write(0x07);
  1303   0069E0  0E07               	movlw	7
  1304   0069E2  ECDC  F034         	call	_I2C_Write
  1305   0069E6                     
  1306                           ;main_piee2.c: 519:     I2C_Write(0x00);
  1307   0069E6  0E00               	movlw	0
  1308   0069E8  ECDC  F034         	call	_I2C_Write
  1309   0069EC                     
  1310                           ;main_piee2.c: 520:     I2C_Stop();
  1311   0069EC  ECAA  F034         	call	_I2C_Stop	;wreg free
  1312   0069F0  0012               	return		;funcret
  1313   0069F2                     __end_of_RTC_Init:
  1314                           	callstack 0
  1315                           
  1316 ;; *************** function _I2C_Init *****************
  1317 ;; Defined at:
  1318 ;;		line 46 in file "i2c.c"
  1319 ;; Parameters:    Size  Location     Type
  1320 ;;		None
  1321 ;; Auto vars:     Size  Location     Type
  1322 ;;		None
  1323 ;; Return value:  Size  Location     Type
  1324 ;;                  1    wreg      void 
  1325 ;; Registers used:
  1326 ;;		wreg, status,2
  1327 ;; Tracked objects:
  1328 ;;		On entry : 0/0
  1329 ;;		On exit  : 0/0
  1330 ;;		Unchanged: 0/0
  1331 ;; Data sizes:     COMRAM   BANK0   BANK1   BANK2   BANK3   BANK4   BANK5   BANK6   BANK7
  1332 ;;      Params:         0       0       0       0       0       0       0       0       0
  1333 ;;      Locals:         0       0       0       0       0       0       0       0       0
  1334 ;;      Temps:          0       0       0       0       0       0       0       0       0
  1335 ;;      Totals:         0       0       0       0       0       0       0       0       0
  1336 ;;Total ram usage:        0 bytes
  1337 ;; Hardware stack levels used: 1
  1338 ;; This function calls:
  1339 ;;		Nothing
  1340 ;; This function is called by:
  1341 ;;		_System_Init
  1342 ;;		_RTC_Init
  1343 ;; This function uses a non-reentrant model
  1344 ;;
  1345                           
  1346                           	psect	text3
  1347   0069A2                     __ptext3:
  1348                           	callstack 0
  1349   0069A2                     _I2C_Init:
  1350                           	callstack 28
  1351   0069A2                     
  1352                           ;i2c.c: 48:  (TRISBbits.TRISB1) = 0x01u;
  1353   0069A2  8293               	bsf	147,1,c	;volatile
  1354                           
  1355                           ;i2c.c: 49:  (TRISBbits.TRISB0) = 0x01u;
  1356   0069A4  8093               	bsf	147,0,c	;volatile
  1357   0069A6                     
  1358                           ;i2c.c: 51:  SSPSTAT = 0x80;
  1359   0069A6  0E80               	movlw	128
  1360   0069A8  6EC7               	movwf	199,c	;volatile
  1361                           
  1362                           ;i2c.c: 52:  SSPCON1 = 0x28;
  1363   0069AA  0E28               	movlw	40
  1364   0069AC  6EC6               	movwf	198,c	;volatile
  1365                           
  1366                           ;i2c.c: 53:     SSPCON2 = 0x00;
  1367   0069AE  0E00               	movlw	0
  1368   0069B0  6EC5               	movwf	197,c	;volatile
  1369                           
  1370                           ;i2c.c: 59:  SSPADD = 4;
  1371   0069B2  0E04               	movlw	4
  1372   0069B4  6EC8               	movwf	200,c	;volatile
  1373   0069B6  0012               	return		;funcret
  1374   0069B8                     __end_of_I2C_Init:
  1375                           	callstack 0
  1376                           
  1377 ;; *************** function _Ler_Contador_EEPROM *****************
  1378 ;; Defined at:
  1379 ;;		line 496 in file "main_piee2.c"
  1380 ;; Parameters:    Size  Location     Type
  1381 ;;		None
  1382 ;; Auto vars:     Size  Location     Type
  1383 ;;  low             1    8[COMRAM] unsigned char 
  1384 ;;  high            1    7[COMRAM] unsigned char 
  1385 ;; Return value:  Size  Location     Type
  1386 ;;                  1    wreg      void 
  1387 ;; Registers used:
  1388 ;;		wreg, status,2, status,0, cstack
  1389 ;; Tracked objects:
  1390 ;;		On entry : 0/0
  1391 ;;		On exit  : 0/0
  1392 ;;		Unchanged: 0/0
  1393 ;; Data sizes:     COMRAM   BANK0   BANK1   BANK2   BANK3   BANK4   BANK5   BANK6   BANK7
  1394 ;;      Params:         0       0       0       0       0       0       0       0       0
  1395 ;;      Locals:         2       0       0       0       0       0       0       0       0
  1396 ;;      Temps:          2       0       0       0       0       0       0       0       0
  1397 ;;      Totals:         4       0       0       0       0       0       0       0       0
  1398 ;;Total ram usage:        4 bytes
  1399 ;; Hardware stack levels used: 1
  1400 ;; Hardware stack levels required when called: 3
  1401 ;; This function calls:
  1402 ;;		_Ler_EEPROM
  1403 ;; This function is called by:
  1404 ;;		_System_Init
  1405 ;; This function uses a non-reentrant model
  1406 ;;
  1407                           
  1408                           	psect	text4
  1409   006D9A                     __ptext4:
  1410                           	callstack 0
  1411   006D9A                     _Ler_Contador_EEPROM:
  1412                           	callstack 26
  1413   006D9A                     
  1414                           ;main_piee2.c: 497:     uint8_t high = Ler_EEPROM(0x0000);
  1415   006D9A  0E00               	movlw	0
  1416   006D9C  6E04               	movwf	(Ler_EEPROM@endereco+1)^0,c
  1417   006D9E  0E00               	movlw	0
  1418   006DA0  6E03               	movwf	Ler_EEPROM@endereco^0,c
  1419   006DA2  EC24  F035         	call	_Ler_EEPROM	;wreg free
  1420   006DA6  6E08               	movwf	Ler_Contador_EEPROM@high^0,c
  1421                           
  1422                           ;main_piee2.c: 498:     uint8_t low = Ler_EEPROM(0x0000 + 1);
  1423   006DA8  0E00               	movlw	0
  1424   006DAA  6E04               	movwf	(Ler_EEPROM@endereco+1)^0,c
  1425   006DAC  0E01               	movlw	1
  1426   006DAE  6E03               	movwf	Ler_EEPROM@endereco^0,c
  1427   006DB0  EC24  F035         	call	_Ler_EEPROM	;wreg free
  1428   006DB4  6E09               	movwf	Ler_Contador_EEPROM@low^0,c
  1429   006DB6                     
  1430                           ;main_piee2.c: 499:     contador_ciclos = (high << 8) | low;
  1431   006DB6  5009               	movf	Ler_Contador_EEPROM@low^0,w,c
  1432   006DB8  C008  F006         	movff	Ler_Contador_EEPROM@high,??_Ler_Contador_EEPROM
  1433   006DBC  6A07               	clrf	(??_Ler_Contador_EEPROM+1)^0,c
  1434   006DBE  C006  F007         	movff	??_Ler_Contador_EEPROM,??_Ler_Contador_EEPROM+1
  1435   006DC2  6A06               	clrf	??_Ler_Contador_EEPROM^0,c
  1436   006DC4  1006               	iorwf	??_Ler_Contador_EEPROM^0,w,c
  1437   006DC6  0100               	movlb	0	; () banked
  1438   006DC8  6F6E               	movwf	_contador_ciclos& (0+255),b
  1439   006DCA  5007               	movf	(??_Ler_Contador_EEPROM+1)^0,w,c
  1440   006DCC  6F6F               	movwf	(_contador_ciclos+1)& (0+255),b
  1441   006DCE                     
  1442                           ; BSR set to: 0
  1443                           ;main_piee2.c: 502:     if(contador_ciclos == 0xFFFF) {
  1444   006DCE  296E               	incf	_contador_ciclos& (0+255),w,b
  1445   006DD0  E106               	bnz	u1861
  1446   006DD2  296F               	incf	(_contador_ciclos+1)& (0+255),w,b
  1447   006DD4  A4D8               	btfss	status,2,c
  1448   006DD6  EFEF  F036         	goto	u1861
  1449   006DDA  EFF1  F036         	goto	u1860
  1450   006DDE                     u1861:
  1451   006DDE  EFF5  F036         	goto	l218
  1452   006DE2                     u1860:
  1453   006DE2                     
  1454                           ; BSR set to: 0
  1455                           ;main_piee2.c: 503:         contador_ciclos = 0;
  1456   006DE2  0E00               	movlw	0
  1457   006DE4  6F6F               	movwf	(_contador_ciclos+1)& (0+255),b
  1458   006DE6  0E00               	movlw	0
  1459   006DE8  6F6E               	movwf	_contador_ciclos& (0+255),b
  1460   006DEA                     l218:
  1461                           
  1462                           ; BSR set to: 0
  1463   006DEA  0012               	return		;funcret
  1464   006DEC                     __end_of_Ler_Contador_EEPROM:
  1465                           	callstack 0
  1466                           
  1467 ;; *************** function _Ler_EEPROM *****************
  1468 ;; Defined at:
  1469 ;;		line 470 in file "main_piee2.c"
  1470 ;; Parameters:    Size  Location     Type
  1471 ;;  endereco        2    2[COMRAM] unsigned short 
  1472 ;; Auto vars:     Size  Location     Type
  1473 ;;  dado            1    4[COMRAM] unsigned char 
  1474 ;; Return value:  Size  Location     Type
  1475 ;;                  1    wreg      unsigned char 
  1476 ;; Registers used:
  1477 ;;		wreg, status,2, status,0, cstack
  1478 ;; Tracked objects:
  1479 ;;		On entry : 0/0
  1480 ;;		On exit  : 0/0
  1481 ;;		Unchanged: 0/0
  1482 ;; Data sizes:     COMRAM   BANK0   BANK1   BANK2   BANK3   BANK4   BANK5   BANK6   BANK7
  1483 ;;      Params:         2       0       0       0       0       0       0       0       0
  1484 ;;      Locals:         1       0       0       0       0       0       0       0       0
  1485 ;;      Temps:          0       0       0       0       0       0       0       0       0
  1486 ;;      Totals:         3       0       0       0       0       0       0       0       0
  1487 ;;Total ram usage:        3 bytes
  1488 ;; Hardware stack levels used: 1
  1489 ;; Hardware stack levels required when called: 2
  1490 ;; This function calls:
  1491 ;;		_I2C_Read
  1492 ;;		_I2C_Restart
  1493 ;;		_I2C_Start
  1494 ;;		_I2C_Stop
  1495 ;;		_I2C_Write
  1496 ;; This function is called by:
  1497 ;;		_Ler_Contador_EEPROM
  1498 ;; This function uses a non-reentrant model
  1499 ;;
  1500                           
  1501                           	psect	text5
  1502   006A48                     __ptext5:
  1503                           	callstack 0
  1504   006A48                     _Ler_EEPROM:
  1505                           	callstack 26
  1506   006A48                     
  1507                           ;main_piee2.c: 471:     uint8_t dado;;main_piee2.c: 473:     I2C_Start();
  1508   006A48  ECA1  F034         	call	_I2C_Start	;wreg free
  1509   006A4C                     
  1510                           ;main_piee2.c: 474:     I2C_Write(0xA0);
  1511   006A4C  0EA0               	movlw	160
  1512   006A4E  ECDC  F034         	call	_I2C_Write
  1513   006A52                     
  1514                           ;main_piee2.c: 475:     I2C_Write((endereco >> 8) & 0xFF);
  1515   006A52  5004               	movf	(Ler_EEPROM@endereco+1)^0,w,c
  1516   006A54  ECDC  F034         	call	_I2C_Write
  1517   006A58                     
  1518                           ;main_piee2.c: 476:     I2C_Write(endereco & 0xFF);
  1519   006A58  5003               	movf	Ler_EEPROM@endereco^0,w,c
  1520   006A5A  ECDC  F034         	call	_I2C_Write
  1521   006A5E                     
  1522                           ;main_piee2.c: 477:     I2C_Restart();
  1523   006A5E  EC98  F034         	call	_I2C_Restart	;wreg free
  1524                           
  1525                           ;main_piee2.c: 478:     I2C_Write(0xA1);
  1526   006A62  0EA1               	movlw	161
  1527   006A64  ECDC  F034         	call	_I2C_Write
  1528   006A68                     
  1529                           ;main_piee2.c: 479:     dado = I2C_Read(0);
  1530   006A68  0E00               	movlw	0
  1531   006A6A  EC8C  F035         	call	_I2C_Read
  1532   006A6E  6E05               	movwf	Ler_EEPROM@dado^0,c
  1533   006A70                     
  1534                           ;main_piee2.c: 480:     I2C_Stop();
  1535   006A70  ECAA  F034         	call	_I2C_Stop	;wreg free
  1536   006A74                     
  1537                           ;main_piee2.c: 482:     return dado;
  1538   006A74  5005               	movf	Ler_EEPROM@dado^0,w,c
  1539   006A76  0012               	return		;funcret
  1540   006A78                     __end_of_Ler_EEPROM:
  1541                           	callstack 0
  1542                           
  1543 ;; *************** function _LCD_Init *****************
  1544 ;; Defined at:
  1545 ;;		line 14 in file "lcd_4b.c"
  1546 ;; Parameters:    Size  Location     Type
  1547 ;;		None
  1548 ;; Auto vars:     Size  Location     Type
  1549 ;;		None
  1550 ;; Return value:  Size  Location     Type
  1551 ;;                  1    wreg      void 
  1552 ;; Registers used:
  1553 ;;		wreg, status,2, status,0, cstack
  1554 ;; Tracked objects:
  1555 ;;		On entry : 0/0
  1556 ;;		On exit  : 0/0
  1557 ;;		Unchanged: 0/0
  1558 ;; Data sizes:     COMRAM   BANK0   BANK1   BANK2   BANK3   BANK4   BANK5   BANK6   BANK7
  1559 ;;      Params:         0       0       0       0       0       0       0       0       0
  1560 ;;      Locals:         0       0       0       0       0       0       0       0       0
  1561 ;;      Temps:          0       0       0       0       0       0       0       0       0
  1562 ;;      Totals:         0       0       0       0       0       0       0       0       0
  1563 ;;Total ram usage:        0 bytes
  1564 ;; Hardware stack levels used: 1
  1565 ;; Hardware stack levels required when called: 2
  1566 ;; This function calls:
  1567 ;;		_LCD_Command
  1568 ;;		_MSdelay
  1569 ;; This function is called by:
  1570 ;;		_System_Init
  1571 ;; This function uses a non-reentrant model
  1572 ;;
  1573                           
  1574                           	psect	text6
  1575   006A18                     __ptext6:
  1576                           	callstack 0
  1577   006A18                     _LCD_Init:
  1578                           	callstack 27
  1579   006A18                     
  1580                           ;lcd_4b.c: 16:     TRISB = 0;
  1581   006A18  0E00               	movlw	0
  1582   006A1A  6E93               	movwf	147,c	;volatile
  1583   006A1C                     
  1584                           ;lcd_4b.c: 17:     MSdelay(15);
  1585   006A1C  0E00               	movlw	0
  1586   006A1E  6E02               	movwf	(MSdelay@val+1)^0,c
  1587   006A20  0E0F               	movlw	15
  1588   006A22  6E01               	movwf	MSdelay@val^0,c
  1589   006A24  EC0F  F036         	call	_MSdelay	;wreg free
  1590   006A28                     
  1591                           ;lcd_4b.c: 18:     LCD_Command(0x02);
  1592   006A28  0E02               	movlw	2
  1593   006A2A  EC5A  F036         	call	_LCD_Command
  1594   006A2E                     
  1595                           ;lcd_4b.c: 19:     LCD_Command(0x28);
  1596   006A2E  0E28               	movlw	40
  1597   006A30  EC5A  F036         	call	_LCD_Command
  1598   006A34                     
  1599                           ;lcd_4b.c: 21:  LCD_Command(0x01);
  1600   006A34  0E01               	movlw	1
  1601   006A36  EC5A  F036         	call	_LCD_Command
  1602   006A3A                     
  1603                           ;lcd_4b.c: 22:     LCD_Command(0x0c);
  1604   006A3A  0E0C               	movlw	12
  1605   006A3C  EC5A  F036         	call	_LCD_Command
  1606   006A40                     
  1607                           ;lcd_4b.c: 23:  LCD_Command(0x06);
  1608   006A40  0E06               	movlw	6
  1609   006A42  EC5A  F036         	call	_LCD_Command
  1610   006A46  0012               	return		;funcret
  1611   006A48                     __end_of_LCD_Init:
  1612                           	callstack 0
  1613                           
  1614 ;; *************** function _ADC_Init *****************
  1615 ;; Defined at:
  1616 ;;		line 560 in file "main_piee2.c"
  1617 ;; Parameters:    Size  Location     Type
  1618 ;;		None
  1619 ;; Auto vars:     Size  Location     Type
  1620 ;;		None
  1621 ;; Return value:  Size  Location     Type
  1622 ;;                  1    wreg      void 
  1623 ;; Registers used:
  1624 ;;		wreg, status,2
  1625 ;; Tracked objects:
  1626 ;;		On entry : 0/0
  1627 ;;		On exit  : 0/0
  1628 ;;		Unchanged: 0/0
  1629 ;; Data sizes:     COMRAM   BANK0   BANK1   BANK2   BANK3   BANK4   BANK5   BANK6   BANK7
  1630 ;;      Params:         0       0       0       0       0       0       0       0       0
  1631 ;;      Locals:         0       0       0       0       0       0       0       0       0
  1632 ;;      Temps:          0       0       0       0       0       0       0       0       0
  1633 ;;      Totals:         0       0       0       0       0       0       0       0       0
  1634 ;;Total ram usage:        0 bytes
  1635 ;; Hardware stack levels used: 1
  1636 ;; This function calls:
  1637 ;;		Nothing
  1638 ;; This function is called by:
  1639 ;;		_System_Init
  1640 ;; This function uses a non-reentrant model
  1641 ;;
  1642                           
  1643                           	psect	text7
  1644   00691C                     __ptext7:
  1645                           	callstack 0
  1646   00691C                     _ADC_Init:
  1647                           	callstack 29
  1648   00691C                     
  1649                           ;main_piee2.c: 561:     ADCON1 = 0x0E;
  1650   00691C  0E0E               	movlw	14
  1651   00691E  6EC1               	movwf	193,c	;volatile
  1652                           
  1653                           ;main_piee2.c: 562:     ADCON2 = 0xBE;
  1654   006920  0EBE               	movlw	190
  1655   006922  6EC0               	movwf	192,c	;volatile
  1656   006924  0012               	return		;funcret
  1657   006926                     __end_of_ADC_Init:
  1658                           	callstack 0
  1659                           
  1660 ;; *************** function _Display_Mensagens_Iniciais *****************
  1661 ;; Defined at:
  1662 ;;		line 216 in file "main_piee2.c"
  1663 ;; Parameters:    Size  Location     Type
  1664 ;;		None
  1665 ;; Auto vars:     Size  Location     Type
  1666 ;;		None
  1667 ;; Return value:  Size  Location     Type
  1668 ;;                  1    wreg      void 
  1669 ;; Registers used:
  1670 ;;		wreg, fsr0l, fsr0h, fsr1l, fsr1h, fsr2l, fsr2h, status,2, status,0, tblptrl, tblptrh, tblptru, prodl, prodh, cstack
  1671 ;; Tracked objects:
  1672 ;;		On entry : 0/0
  1673 ;;		On exit  : 0/0
  1674 ;;		Unchanged: 0/0
  1675 ;; Data sizes:     COMRAM   BANK0   BANK1   BANK2   BANK3   BANK4   BANK5   BANK6   BANK7
  1676 ;;      Params:         0       0       0       0       0       0       0       0       0
  1677 ;;      Locals:         0       2       0       0       0       0       0       0       0
  1678 ;;      Temps:          0       0       0       0       0       0       0       0       0
  1679 ;;      Totals:         0       2       0       0       0       0       0       0       0
  1680 ;;Total ram usage:        2 bytes
  1681 ;; Hardware stack levels used: 1
  1682 ;; Hardware stack levels required when called: 9
  1683 ;; This function calls:
  1684 ;;		_Format_Data
  1685 ;;		_Format_Hora
  1686 ;;		_LCD_Clear
  1687 ;;		_LCD_String_xy
  1688 ;;		_MSdelay
  1689 ;;		_RTC_GetDateTime
  1690 ;;		_sprintf
  1691 ;; This function is called by:
  1692 ;;		_main
  1693 ;; This function uses a non-reentrant model
  1694 ;;
  1695                           
  1696                           	psect	text8
  1697   0079AE                     __ptext8:
  1698                           	callstack 0
  1699   0079AE                     _Display_Mensagens_Iniciais:
  1700                           	callstack 21
  1701   0079AE                     
  1702                           ;main_piee2.c: 218:     LCD_Clear();
  1703   0079AE  ECB3  F034         	call	_LCD_Clear	;wreg free
  1704   0079B2                     
  1705                           ;main_piee2.c: 219:     LCD_String_xy(1, 7, "UNIUBE");
  1706   0079B2  0E07               	movlw	7
  1707   0079B4  6E0B               	movwf	LCD_String_xy@pos^0,c
  1708   0079B6  0EEC               	movlw	low STR_1
  1709   0079B8  6E0C               	movwf	LCD_String_xy@msg^0,c
  1710   0079BA  0E7F               	movlw	high STR_1
  1711   0079BC  6E0D               	movwf	(LCD_String_xy@msg+1)^0,c
  1712   0079BE  0E01               	movlw	1
  1713   0079C0  EC9C  F037         	call	_LCD_String_xy
  1714   0079C4                     
  1715                           ;main_piee2.c: 220:     LCD_String_xy(2, 0, "Engenharia Eletrica");
  1716   0079C4  0E00               	movlw	0
  1717   0079C6  6E0B               	movwf	LCD_String_xy@pos^0,c
  1718   0079C8  0E3B               	movlw	low STR_2
  1719   0079CA  6E0C               	movwf	LCD_String_xy@msg^0,c
  1720   0079CC  0E7F               	movlw	high STR_2
  1721   0079CE  6E0D               	movwf	(LCD_String_xy@msg+1)^0,c
  1722   0079D0  0E02               	movlw	2
  1723   0079D2  EC9C  F037         	call	_LCD_String_xy
  1724   0079D6                     
  1725                           ;main_piee2.c: 221:     LCD_String_xy(3, 2, "Projeto Integrado");
  1726   0079D6  0E02               	movlw	2
  1727   0079D8  6E0B               	movwf	LCD_String_xy@pos^0,c
  1728   0079DA  0E73               	movlw	low STR_3
  1729   0079DC  6E0C               	movwf	LCD_String_xy@msg^0,c
  1730   0079DE  0E7F               	movlw	high STR_3
  1731   0079E0  6E0D               	movwf	(LCD_String_xy@msg+1)^0,c
  1732   0079E2  0E03               	movlw	3
  1733   0079E4  EC9C  F037         	call	_LCD_String_xy
  1734   0079E8                     
  1735                           ;main_piee2.c: 222:     LCD_String_xy(4, 3, "Em Eletrica II");
  1736   0079E8  0E03               	movlw	3
  1737   0079EA  6E0B               	movwf	LCD_String_xy@pos^0,c
  1738   0079EC  0EA5               	movlw	low STR_4
  1739   0079EE  6E0C               	movwf	LCD_String_xy@msg^0,c
  1740   0079F0  0E7F               	movlw	high STR_4
  1741   0079F2  6E0D               	movwf	(LCD_String_xy@msg+1)^0,c
  1742   0079F4  0E04               	movlw	4
  1743   0079F6  EC9C  F037         	call	_LCD_String_xy
  1744                           
  1745                           ;main_piee2.c: 223:     MSdelay(3000);
  1746   0079FA  0E0B               	movlw	11
  1747   0079FC  6E02               	movwf	(MSdelay@val+1)^0,c
  1748   0079FE  0EB8               	movlw	184
  1749   007A00  6E01               	movwf	MSdelay@val^0,c
  1750   007A02  EC0F  F036         	call	_MSdelay	;wreg free
  1751                           
  1752                           ;main_piee2.c: 226:     LCD_Clear();
  1753   007A06  ECB3  F034         	call	_LCD_Clear	;wreg free
  1754   007A0A                     
  1755                           ;main_piee2.c: 227:     LCD_String_xy(1, 2, "Welington Correia");
  1756   007A0A  0E02               	movlw	2
  1757   007A0C  6E0B               	movwf	LCD_String_xy@pos^0,c
  1758   007A0E  0E4F               	movlw	low STR_5
  1759   007A10  6E0C               	movwf	LCD_String_xy@msg^0,c
  1760   007A12  0E7F               	movlw	high STR_5
  1761   007A14  6E0D               	movwf	(LCD_String_xy@msg+1)^0,c
  1762   007A16  0E01               	movlw	1
  1763   007A18  EC9C  F037         	call	_LCD_String_xy
  1764   007A1C                     
  1765                           ;main_piee2.c: 228:     LCD_String_xy(2, 4, "RA : 1063677");
  1766   007A1C  0E04               	movlw	4
  1767   007A1E  6E0B               	movwf	LCD_String_xy@pos^0,c
  1768   007A20  0ED2               	movlw	low STR_6
  1769   007A22  6E0C               	movwf	LCD_String_xy@msg^0,c
  1770   007A24  0E7F               	movlw	high STR_6
  1771   007A26  6E0D               	movwf	(LCD_String_xy@msg+1)^0,c
  1772   007A28  0E02               	movlw	2
  1773   007A2A  EC9C  F037         	call	_LCD_String_xy
  1774   007A2E                     
  1775                           ;main_piee2.c: 229:     LCD_String_xy(3, 1, "Seq.Eletr.Limpeza");
  1776   007A2E  0E01               	movlw	1
  1777   007A30  6E0B               	movwf	LCD_String_xy@pos^0,c
  1778   007A32  0E61               	movlw	low STR_7
  1779   007A34  6E0C               	movwf	LCD_String_xy@msg^0,c
  1780   007A36  0E7F               	movlw	high STR_7
  1781   007A38  6E0D               	movwf	(LCD_String_xy@msg+1)^0,c
  1782   007A3A  0E03               	movlw	3
  1783   007A3C  EC9C  F037         	call	_LCD_String_xy
  1784   007A40                     
  1785                           ;main_piee2.c: 230:     LCD_String_xy(4, 3, "Filtro de Manga");
  1786   007A40  0E03               	movlw	3
  1787   007A42  6E0B               	movwf	LCD_String_xy@pos^0,c
  1788   007A44  0E95               	movlw	low STR_8
  1789   007A46  6E0C               	movwf	LCD_String_xy@msg^0,c
  1790   007A48  0E7F               	movlw	high STR_8
  1791   007A4A  6E0D               	movwf	(LCD_String_xy@msg+1)^0,c
  1792   007A4C  0E04               	movlw	4
  1793   007A4E  EC9C  F037         	call	_LCD_String_xy
  1794                           
  1795                           ;main_piee2.c: 231:     MSdelay(3000);
  1796   007A52  0E0B               	movlw	11
  1797   007A54  6E02               	movwf	(MSdelay@val+1)^0,c
  1798   007A56  0EB8               	movlw	184
  1799   007A58  6E01               	movwf	MSdelay@val^0,c
  1800   007A5A  EC0F  F036         	call	_MSdelay	;wreg free
  1801                           
  1802                           ;main_piee2.c: 234:     LCD_Clear();
  1803   007A5E  ECB3  F034         	call	_LCD_Clear	;wreg free
  1804   007A62                     
  1805                           ;main_piee2.c: 235:     LCD_String_xy(1, 2, "Seja Bem Vindo!");
  1806   007A62  0E02               	movlw	2
  1807   007A64  6E0B               	movwf	LCD_String_xy@pos^0,c
  1808   007A66  0E85               	movlw	low STR_9
  1809   007A68  6E0C               	movwf	LCD_String_xy@msg^0,c
  1810   007A6A  0E7F               	movlw	high STR_9
  1811   007A6C  6E0D               	movwf	(LCD_String_xy@msg+1)^0,c
  1812   007A6E  0E01               	movlw	1
  1813   007A70  EC9C  F037         	call	_LCD_String_xy
  1814   007A74                     
  1815                           ;main_piee2.c: 238:     RTC_GetDateTime(&rtc);
  1816   007A74  0EBF               	movlw	low _rtc
  1817   007A76  6E03               	movwf	RTC_GetDateTime@rtc^0,c
  1818   007A78  0E00               	movlw	high _rtc
  1819   007A7A  6E04               	movwf	(RTC_GetDateTime@rtc+1)^0,c
  1820   007A7C  ECE3  F037         	call	_RTC_GetDateTime	;wreg free
  1821   007A80                     
  1822                           ;main_piee2.c: 239:     Format_Hora(hora_buffer, &rtc);
  1823   007A80  0EB6               	movlw	low _hora_buffer
  1824   007A82  6E5B               	movwf	Format_Hora@buffer^0,c
  1825   007A84  0E00               	movlw	high _hora_buffer
  1826   007A86  6E5C               	movwf	(Format_Hora@buffer+1)^0,c
  1827   007A88  0EBF               	movlw	low _rtc
  1828   007A8A  6E5D               	movwf	Format_Hora@rtc^0,c
  1829   007A8C  0E00               	movlw	high _rtc
  1830   007A8E  6E5E               	movwf	(Format_Hora@rtc+1)^0,c
  1831   007A90  ECE4  F038         	call	_Format_Hora	;wreg free
  1832   007A94                     
  1833                           ;main_piee2.c: 240:     Format_Data(data_buffer, &rtc);
  1834   007A94  0EAB               	movlw	low _data_buffer
  1835   007A96  6E5B               	movwf	Format_Data@buffer^0,c
  1836   007A98  0E00               	movlw	high _data_buffer
  1837   007A9A  6E5C               	movwf	(Format_Data@buffer+1)^0,c
  1838   007A9C  0EBF               	movlw	low _rtc
  1839   007A9E  6E5D               	movwf	Format_Data@rtc^0,c
  1840   007AA0  0E00               	movlw	high _rtc
  1841   007AA2  6E5E               	movwf	(Format_Data@rtc+1)^0,c
  1842   007AA4  EC3D  F039         	call	_Format_Data	;wreg free
  1843   007AA8                     
  1844                           ;main_piee2.c: 242:     LCD_String_xy(2, 0, hora_buffer);
  1845   007AA8  0E00               	movlw	0
  1846   007AAA  6E0B               	movwf	LCD_String_xy@pos^0,c
  1847   007AAC  0EB6               	movlw	low _hora_buffer
  1848   007AAE  6E0C               	movwf	LCD_String_xy@msg^0,c
  1849   007AB0  0E00               	movlw	high _hora_buffer
  1850   007AB2  6E0D               	movwf	(LCD_String_xy@msg+1)^0,c
  1851   007AB4  0E02               	movlw	2
  1852   007AB6  EC9C  F037         	call	_LCD_String_xy
  1853   007ABA                     
  1854                           ;main_piee2.c: 243:     LCD_String_xy(3, 0, data_buffer);
  1855   007ABA  0E00               	movlw	0
  1856   007ABC  6E0B               	movwf	LCD_String_xy@pos^0,c
  1857   007ABE  0EAB               	movlw	low _data_buffer
  1858   007AC0  6E0C               	movwf	LCD_String_xy@msg^0,c
  1859   007AC2  0E00               	movlw	high _data_buffer
  1860   007AC4  6E0D               	movwf	(LCD_String_xy@msg+1)^0,c
  1861   007AC6  0E03               	movlw	3
  1862   007AC8  EC9C  F037         	call	_LCD_String_xy
  1863   007ACC                     
  1864                           ;main_piee2.c: 246:     sprintf(lcd_buffer, "Ciclos: %04d", contador_ciclos);
  1865   007ACC  0E96               	movlw	low _lcd_buffer
  1866   007ACE  6E43               	movwf	sprintf@s^0,c
  1867   007AD0  0E00               	movlw	high _lcd_buffer
  1868   007AD2  6E44               	movwf	(sprintf@s+1)^0,c
  1869   007AD4  0EDF               	movlw	low STR_10
  1870   007AD6  6E45               	movwf	sprintf@fmt^0,c
  1871   007AD8  0E7F               	movlw	high STR_10
  1872   007ADA  6E46               	movwf	(sprintf@fmt+1)^0,c
  1873   007ADC  C06E  F047         	movff	_contador_ciclos,?_sprintf+4
  1874   007AE0  C06F  F048         	movff	_contador_ciclos+1,?_sprintf+5
  1875   007AE4  EC34  F036         	call	_sprintf	;wreg free
  1876   007AE8                     
  1877                           ;main_piee2.c: 247:     LCD_String_xy(4, 0, lcd_buffer);
  1878   007AE8  0E00               	movlw	0
  1879   007AEA  6E0B               	movwf	LCD_String_xy@pos^0,c
  1880   007AEC  0E96               	movlw	low _lcd_buffer
  1881   007AEE  6E0C               	movwf	LCD_String_xy@msg^0,c
  1882   007AF0  0E00               	movlw	high _lcd_buffer
  1883   007AF2  6E0D               	movwf	(LCD_String_xy@msg+1)^0,c
  1884   007AF4  0E04               	movlw	4
  1885   007AF6  EC9C  F037         	call	_LCD_String_xy
  1886   007AFA                     
  1887                           ;main_piee2.c: 248:     MSdelay(3000);
  1888   007AFA  0E0B               	movlw	11
  1889   007AFC  6E02               	movwf	(MSdelay@val+1)^0,c
  1890   007AFE  0EB8               	movlw	184
  1891   007B00  6E01               	movwf	MSdelay@val^0,c
  1892   007B02  EC0F  F036         	call	_MSdelay	;wreg free
  1893   007B06                     
  1894                           ;main_piee2.c: 251:     LCD_Clear();
  1895   007B06  ECB3  F034         	call	_LCD_Clear	;wreg free
  1896   007B0A                     
  1897                           ;main_piee2.c: 252:     LCD_String_xy(1, 3, "Filtro de Manga");
  1898   007B0A  0E03               	movlw	3
  1899   007B0C  6E0B               	movwf	LCD_String_xy@pos^0,c
  1900   007B0E  0E95               	movlw	low STR_8
  1901   007B10  6E0C               	movwf	LCD_String_xy@msg^0,c
  1902   007B12  0E7F               	movlw	high STR_8
  1903   007B14  6E0D               	movwf	(LCD_String_xy@msg+1)^0,c
  1904   007B16  0E01               	movlw	1
  1905   007B18  EC9C  F037         	call	_LCD_String_xy
  1906   007B1C                     
  1907                           ;main_piee2.c: 255:     sprintf(lcd_buffer, "%s  %s", hora_buffer, data_buffer);
  1908   007B1C  0E96               	movlw	low _lcd_buffer
  1909   007B1E  6E43               	movwf	sprintf@s^0,c
  1910   007B20  0E00               	movlw	high _lcd_buffer
  1911   007B22  6E44               	movwf	(sprintf@s+1)^0,c
  1912   007B24  0EF3               	movlw	low STR_12
  1913   007B26  6E45               	movwf	sprintf@fmt^0,c
  1914   007B28  0E7F               	movlw	high STR_12
  1915   007B2A  6E46               	movwf	(sprintf@fmt+1)^0,c
  1916   007B2C  0EB6               	movlw	low _hora_buffer
  1917   007B2E  6E47               	movwf	(?_sprintf+4)^0,c
  1918   007B30  0E00               	movlw	high _hora_buffer
  1919   007B32  6E48               	movwf	(?_sprintf+5)^0,c
  1920   007B34  0EAB               	movlw	low _data_buffer
  1921   007B36  6E49               	movwf	(?_sprintf+6)^0,c
  1922   007B38  0E00               	movlw	high _data_buffer
  1923   007B3A  6E4A               	movwf	(?_sprintf+7)^0,c
  1924   007B3C  EC34  F036         	call	_sprintf	;wreg free
  1925   007B40                     
  1926                           ;main_piee2.c: 259:     LCD_String_xy(3, 0, modo_operacao ? "Modo: Automatico   " : "Mod
      +                          o: Manual       ");
  1927   007B40  0E00               	movlw	0
  1928   007B42  6E0B               	movwf	LCD_String_xy@pos^0,c
  1929   007B44  0E96               	movlw	low _lcd_buffer
  1930   007B46  6E0C               	movwf	LCD_String_xy@msg^0,c
  1931   007B48  0E00               	movlw	high _lcd_buffer
  1932   007B4A  6E0D               	movwf	(LCD_String_xy@msg+1)^0,c
  1933   007B4C  0E02               	movlw	2
  1934   007B4E  EC9C  F037         	call	_LCD_String_xy
  1935   007B52  0E9B               	movlw	low STR_14
  1936   007B54  0100               	movlb	0	; () banked
  1937   007B56  6FD5               	movwf	_Display_Mensagens_Iniciais$363& (0+255),b
  1938   007B58  0E7E               	movlw	high STR_14
  1939   007B5A  6FD6               	movwf	(_Display_Mensagens_Iniciais$363+1)& (0+255),b
  1940   007B5C                     
  1941                           ; BSR set to: 0
  1942   007B5C  0E00               	movlw	0
  1943   007B5E  6E0B               	movwf	LCD_String_xy@pos^0,c
  1944   007B60  C0D5  F00C         	movff	_Display_Mensagens_Iniciais$363,LCD_String_xy@msg
  1945   007B64  C0D6  F00D         	movff	_Display_Mensagens_Iniciais$363+1,LCD_String_xy@msg+1
  1946   007B68  0E03               	movlw	3
  1947   007B6A  EC9C  F037         	call	_LCD_String_xy
  1948   007B6E                     
  1949                           ;main_piee2.c: 262:     sprintf(lcd_buffer, "Ciclos: %04d", contador_ciclos);
  1950   007B6E  0E96               	movlw	low _lcd_buffer
  1951   007B70  6E43               	movwf	sprintf@s^0,c
  1952   007B72  0E00               	movlw	high _lcd_buffer
  1953   007B74  6E44               	movwf	(sprintf@s+1)^0,c
  1954   007B76  0EDF               	movlw	low STR_10
  1955   007B78  6E45               	movwf	sprintf@fmt^0,c
  1956   007B7A  0E7F               	movlw	high STR_10
  1957   007B7C  6E46               	movwf	(sprintf@fmt+1)^0,c
  1958   007B7E  C06E  F047         	movff	_contador_ciclos,?_sprintf+4
  1959   007B82  C06F  F048         	movff	_contador_ciclos+1,?_sprintf+5
  1960   007B86  EC34  F036         	call	_sprintf	;wreg free
  1961   007B8A                     
  1962                           ;main_piee2.c: 263:     LCD_String_xy(4, 0, lcd_buffer);
  1963   007B8A  0E00               	movlw	0
  1964   007B8C  6E0B               	movwf	LCD_String_xy@pos^0,c
  1965   007B8E  0E96               	movlw	low _lcd_buffer
  1966   007B90  6E0C               	movwf	LCD_String_xy@msg^0,c
  1967   007B92  0E00               	movlw	high _lcd_buffer
  1968   007B94  6E0D               	movwf	(LCD_String_xy@msg+1)^0,c
  1969   007B96  0E04               	movlw	4
  1970   007B98  EC9C  F037         	call	_LCD_String_xy
  1971   007B9C                     
  1972                           ;main_piee2.c: 264:     MSdelay(3000);
  1973   007B9C  0E0B               	movlw	11
  1974   007B9E  6E02               	movwf	(MSdelay@val+1)^0,c
  1975   007BA0  0EB8               	movlw	184
  1976   007BA2  6E01               	movwf	MSdelay@val^0,c
  1977   007BA4  EC0F  F036         	call	_MSdelay	;wreg free
  1978   007BA8  0012               	return		;funcret
  1979   007BAA                     __end_of_Display_Mensagens_Iniciais:
  1980                           	callstack 0
  1981                           
  1982 ;; *************** function _RTC_GetDateTime *****************
  1983 ;; Defined at:
  1984 ;;		line 523 in file "main_piee2.c"
  1985 ;; Parameters:    Size  Location     Type
  1986 ;;  rtc             2    2[COMRAM] PTR struct .
  1987 ;;		 -> rtc(7), 
  1988 ;; Auto vars:     Size  Location     Type
  1989 ;;		None
  1990 ;; Return value:  Size  Location     Type
  1991 ;;                  1    wreg      void 
  1992 ;; Registers used:
  1993 ;;		wreg, fsr2l, fsr2h, status,2, status,0, cstack
  1994 ;; Tracked objects:
  1995 ;;		On entry : 0/0
  1996 ;;		On exit  : 0/0
  1997 ;;		Unchanged: 0/0
  1998 ;; Data sizes:     COMRAM   BANK0   BANK1   BANK2   BANK3   BANK4   BANK5   BANK6   BANK7
  1999 ;;      Params:         2       0       0       0       0       0       0       0       0
  2000 ;;      Locals:         0       0       0       0       0       0       0       0       0
  2001 ;;      Temps:          0       0       0       0       0       0       0       0       0
  2002 ;;      Totals:         2       0       0       0       0       0       0       0       0
  2003 ;;Total ram usage:        2 bytes
  2004 ;; Hardware stack levels used: 1
  2005 ;; Hardware stack levels required when called: 2
  2006 ;; This function calls:
  2007 ;;		_I2C_Read
  2008 ;;		_I2C_Restart
  2009 ;;		_I2C_Start
  2010 ;;		_I2C_Stop
  2011 ;;		_I2C_Write
  2012 ;; This function is called by:
  2013 ;;		_Display_Mensagens_Iniciais
  2014 ;;		_Atualizar_Display_Principal
  2015 ;; This function uses a non-reentrant model
  2016 ;;
  2017                           
  2018                           	psect	text9
  2019   006FC6                     __ptext9:
  2020                           	callstack 0
  2021   006FC6                     _RTC_GetDateTime:
  2022                           	callstack 27
  2023   006FC6                     
  2024                           ;main_piee2.c: 524:     I2C_Start();
  2025   006FC6  ECA1  F034         	call	_I2C_Start	;wreg free
  2026   006FCA                     
  2027                           ;main_piee2.c: 525:     I2C_Write(0xD0);
  2028   006FCA  0ED0               	movlw	208
  2029   006FCC  ECDC  F034         	call	_I2C_Write
  2030   006FD0                     
  2031                           ;main_piee2.c: 526:     I2C_Write(0x00);
  2032   006FD0  0E00               	movlw	0
  2033   006FD2  ECDC  F034         	call	_I2C_Write
  2034                           
  2035                           ;main_piee2.c: 527:     I2C_Restart();
  2036   006FD6  EC98  F034         	call	_I2C_Restart	;wreg free
  2037   006FDA                     
  2038                           ;main_piee2.c: 528:     I2C_Write(0xD1);
  2039   006FDA  0ED1               	movlw	209
  2040   006FDC  ECDC  F034         	call	_I2C_Write
  2041   006FE0                     
  2042                           ;main_piee2.c: 530:     rtc->sec = I2C_Read(1);
  2043   006FE0  0E01               	movlw	1
  2044   006FE2  EC8C  F035         	call	_I2C_Read
  2045   006FE6  C003  FFD9         	movff	RTC_GetDateTime@rtc,fsr2l
  2046   006FEA  C004  FFDA         	movff	RTC_GetDateTime@rtc+1,fsr2h
  2047   006FEE  6EDF               	movwf	indf2,c
  2048   006FF0                     
  2049                           ;main_piee2.c: 531:     rtc->min = I2C_Read(1);
  2050   006FF0  EE20 F001          	lfsr	2,1
  2051   006FF4  5003               	movf	RTC_GetDateTime@rtc^0,w,c
  2052   006FF6  26D9               	addwf	fsr2l,f,c
  2053   006FF8  5004               	movf	(RTC_GetDateTime@rtc+1)^0,w,c
  2054   006FFA  22DA               	addwfc	fsr2h,f,c
  2055   006FFC  0E01               	movlw	1
  2056   006FFE  EC8C  F035         	call	_I2C_Read
  2057   007002  6EDF               	movwf	indf2,c
  2058   007004                     
  2059                           ;main_piee2.c: 532:     rtc->hour = I2C_Read(1);
  2060   007004  EE20 F002          	lfsr	2,2
  2061   007008  5003               	movf	RTC_GetDateTime@rtc^0,w,c
  2062   00700A  26D9               	addwf	fsr2l,f,c
  2063   00700C  5004               	movf	(RTC_GetDateTime@rtc+1)^0,w,c
  2064   00700E  22DA               	addwfc	fsr2h,f,c
  2065   007010  0E01               	movlw	1
  2066   007012  EC8C  F035         	call	_I2C_Read
  2067   007016  6EDF               	movwf	indf2,c
  2068   007018                     
  2069                           ;main_piee2.c: 533:     rtc->weekDay = I2C_Read(1);
  2070   007018  EE20 F003          	lfsr	2,3
  2071   00701C  5003               	movf	RTC_GetDateTime@rtc^0,w,c
  2072   00701E  26D9               	addwf	fsr2l,f,c
  2073   007020  5004               	movf	(RTC_GetDateTime@rtc+1)^0,w,c
  2074   007022  22DA               	addwfc	fsr2h,f,c
  2075   007024  0E01               	movlw	1
  2076   007026  EC8C  F035         	call	_I2C_Read
  2077   00702A  6EDF               	movwf	indf2,c
  2078   00702C                     
  2079                           ;main_piee2.c: 534:     rtc->date = I2C_Read(1);
  2080   00702C  EE20 F004          	lfsr	2,4
  2081   007030  5003               	movf	RTC_GetDateTime@rtc^0,w,c
  2082   007032  26D9               	addwf	fsr2l,f,c
  2083   007034  5004               	movf	(RTC_GetDateTime@rtc+1)^0,w,c
  2084   007036  22DA               	addwfc	fsr2h,f,c
  2085   007038  0E01               	movlw	1
  2086   00703A  EC8C  F035         	call	_I2C_Read
  2087   00703E  6EDF               	movwf	indf2,c
  2088   007040                     
  2089                           ;main_piee2.c: 535:     rtc->month = I2C_Read(1);
  2090   007040  EE20 F005          	lfsr	2,5
  2091   007044  5003               	movf	RTC_GetDateTime@rtc^0,w,c
  2092   007046  26D9               	addwf	fsr2l,f,c
  2093   007048  5004               	movf	(RTC_GetDateTime@rtc+1)^0,w,c
  2094   00704A  22DA               	addwfc	fsr2h,f,c
  2095   00704C  0E01               	movlw	1
  2096   00704E  EC8C  F035         	call	_I2C_Read
  2097   007052  6EDF               	movwf	indf2,c
  2098   007054                     
  2099                           ;main_piee2.c: 536:     rtc->year = I2C_Read(0);
  2100   007054  EE20 F006          	lfsr	2,6
  2101   007058  5003               	movf	RTC_GetDateTime@rtc^0,w,c
  2102   00705A  26D9               	addwf	fsr2l,f,c
  2103   00705C  5004               	movf	(RTC_GetDateTime@rtc+1)^0,w,c
  2104   00705E  22DA               	addwfc	fsr2h,f,c
  2105   007060  0E00               	movlw	0
  2106   007062  EC8C  F035         	call	_I2C_Read
  2107   007066  6EDF               	movwf	indf2,c
  2108   007068                     
  2109                           ;main_piee2.c: 538:     I2C_Stop();
  2110   007068  ECAA  F034         	call	_I2C_Stop	;wreg free
  2111   00706C  0012               	return		;funcret
  2112   00706E                     __end_of_RTC_GetDateTime:
  2113                           	callstack 0
  2114                           
  2115 ;; *************** function _I2C_Write *****************
  2116 ;; Defined at:
  2117 ;;		line 126 in file "i2c.c"
  2118 ;; Parameters:    Size  Location     Type
  2119 ;;  v_i2cData_u8    1    wreg     unsigned char 
  2120 ;; Auto vars:     Size  Location     Type
  2121 ;;  v_i2cData_u8    1    0[COMRAM] unsigned char 
  2122 ;; Return value:  Size  Location     Type
  2123 ;;                  1    wreg      void 
  2124 ;; Registers used:
  2125 ;;		wreg, cstack
  2126 ;; Tracked objects:
  2127 ;;		On entry : 0/0
  2128 ;;		On exit  : 0/0
  2129 ;;		Unchanged: 0/0
  2130 ;; Data sizes:     COMRAM   BANK0   BANK1   BANK2   BANK3   BANK4   BANK5   BANK6   BANK7
  2131 ;;      Params:         0       0       0       0       0       0       0       0       0
  2132 ;;      Locals:         1       0       0       0       0       0       0       0       0
  2133 ;;      Temps:          0       0       0       0       0       0       0       0       0
  2134 ;;      Totals:         1       0       0       0       0       0       0       0       0
  2135 ;;Total ram usage:        1 bytes
  2136 ;; Hardware stack levels used: 1
  2137 ;; Hardware stack levels required when called: 1
  2138 ;; This function calls:
  2139 ;;		_i2c_WaitForIdle
  2140 ;; This function is called by:
  2141 ;;		_Ler_EEPROM
  2142 ;;		_RTC_Init
  2143 ;;		_RTC_GetDateTime
  2144 ;;		_Escrever_EEPROM
  2145 ;; This function uses a non-reentrant model
  2146 ;;
  2147                           
  2148                           	psect	text10
  2149   0069B8                     __ptext10:
  2150                           	callstack 0
  2151   0069B8                     _I2C_Write:
  2152                           	callstack 27
  2153                           
  2154                           ;incstack = 0
  2155                           ;I2C_Write@v_i2cData_u8 stored from wreg
  2156   0069B8  6E01               	movwf	I2C_Write@v_i2cData_u8^0,c
  2157   0069BA                     
  2158                           ;i2c.c: 126: void I2C_Write(uint8_t v_i2cData_u8);i2c.c: 127: {;i2c.c: 130:     SSPBUF =
      +                           v_i2cData_u8;
  2159   0069BA  C001  FFC9         	movff	I2C_Write@v_i2cData_u8,4041	;volatile
  2160   0069BE                     l309:
  2161   0069BE  B0C7               	btfsc	4039,0,c	;volatile
  2162   0069C0  EFE4  F034         	goto	u1771
  2163   0069C4  EFE6  F034         	goto	u1770
  2164   0069C8                     u1771:
  2165   0069C8  EFDF  F034         	goto	l309
  2166   0069CC                     u1770:
  2167   0069CC                     
  2168                           ;i2c.c: 132:     i2c_WaitForIdle();
  2169   0069CC  ECEB  F035         	call	_i2c_WaitForIdle	;wreg free
  2170   0069D0  0012               	return		;funcret
  2171   0069D2                     __end_of_I2C_Write:
  2172                           	callstack 0
  2173                           
  2174 ;; *************** function _I2C_Stop *****************
  2175 ;; Defined at:
  2176 ;;		line 102 in file "i2c.c"
  2177 ;; Parameters:    Size  Location     Type
  2178 ;;		None
  2179 ;; Auto vars:     Size  Location     Type
  2180 ;;		None
  2181 ;; Return value:  Size  Location     Type
  2182 ;;                  1    wreg      void 
  2183 ;; Registers used:
  2184 ;;		None
  2185 ;; Tracked objects:
  2186 ;;		On entry : 0/0
  2187 ;;		On exit  : 0/0
  2188 ;;		Unchanged: 0/0
  2189 ;; Data sizes:     COMRAM   BANK0   BANK1   BANK2   BANK3   BANK4   BANK5   BANK6   BANK7
  2190 ;;      Params:         0       0       0       0       0       0       0       0       0
  2191 ;;      Locals:         0       0       0       0       0       0       0       0       0
  2192 ;;      Temps:          0       0       0       0       0       0       0       0       0
  2193 ;;      Totals:         0       0       0       0       0       0       0       0       0
  2194 ;;Total ram usage:        0 bytes
  2195 ;; Hardware stack levels used: 1
  2196 ;; This function calls:
  2197 ;;		Nothing
  2198 ;; This function is called by:
  2199 ;;		_Ler_EEPROM
  2200 ;;		_RTC_Init
  2201 ;;		_RTC_GetDateTime
  2202 ;;		_Escrever_EEPROM
  2203 ;; This function uses a non-reentrant model
  2204 ;;
  2205                           
  2206                           	psect	text11
  2207   006954                     __ptext11:
  2208                           	callstack 0
  2209   006954                     _I2C_Stop:
  2210                           	callstack 28
  2211   006954                     
  2212                           ;i2c.c: 104:  PEN = 1;
  2213   006954  84C5               	bsf	4037,2,c	;volatile
  2214   006956                     l303:
  2215   006956  B4C5               	btfsc	4037,2,c	;volatile
  2216   006958  EFB0  F034         	goto	u1811
  2217   00695C  EFB2  F034         	goto	u1810
  2218   006960                     u1811:
  2219   006960  EFAB  F034         	goto	l303
  2220   006964                     u1810:
  2221   006964  0012               	return		;funcret
  2222   006966                     __end_of_I2C_Stop:
  2223                           	callstack 0
  2224                           
  2225 ;; *************** function _I2C_Start *****************
  2226 ;; Defined at:
  2227 ;;		line 78 in file "i2c.c"
  2228 ;; Parameters:    Size  Location     Type
  2229 ;;		None
  2230 ;; Auto vars:     Size  Location     Type
  2231 ;;		None
  2232 ;; Return value:  Size  Location     Type
  2233 ;;                  1    wreg      void 
  2234 ;; Registers used:
  2235 ;;		None
  2236 ;; Tracked objects:
  2237 ;;		On entry : 0/0
  2238 ;;		On exit  : 0/0
  2239 ;;		Unchanged: 0/0
  2240 ;; Data sizes:     COMRAM   BANK0   BANK1   BANK2   BANK3   BANK4   BANK5   BANK6   BANK7
  2241 ;;      Params:         0       0       0       0       0       0       0       0       0
  2242 ;;      Locals:         0       0       0       0       0       0       0       0       0
  2243 ;;      Temps:          0       0       0       0       0       0       0       0       0
  2244 ;;      Totals:         0       0       0       0       0       0       0       0       0
  2245 ;;Total ram usage:        0 bytes
  2246 ;; Hardware stack levels used: 1
  2247 ;; This function calls:
  2248 ;;		Nothing
  2249 ;; This function is called by:
  2250 ;;		_Ler_EEPROM
  2251 ;;		_RTC_Init
  2252 ;;		_RTC_GetDateTime
  2253 ;;		_Escrever_EEPROM
  2254 ;; This function uses a non-reentrant model
  2255 ;;
  2256                           
  2257                           	psect	text12
  2258   006942                     __ptext12:
  2259                           	callstack 0
  2260   006942                     _I2C_Start:
  2261                           	callstack 28
  2262   006942                     
  2263                           ;i2c.c: 80:  SSPCON2bits.SEN = 1;
  2264   006942  80C5               	bsf	197,0,c	;volatile
  2265   006944                     l297:
  2266   006944  B0C5               	btfsc	197,0,c	;volatile
  2267   006946  EFA7  F034         	goto	u1761
  2268   00694A  EFA9  F034         	goto	u1760
  2269   00694E                     u1761:
  2270   00694E  EFA2  F034         	goto	l297
  2271   006952                     u1760:
  2272   006952  0012               	return		;funcret
  2273   006954                     __end_of_I2C_Start:
  2274                           	callstack 0
  2275                           
  2276 ;; *************** function _I2C_Restart *****************
  2277 ;; Defined at:
  2278 ;;		line 33 in file "i2c.c"
  2279 ;; Parameters:    Size  Location     Type
  2280 ;;		None
  2281 ;; Auto vars:     Size  Location     Type
  2282 ;;		None
  2283 ;; Return value:  Size  Location     Type
  2284 ;;                  1    wreg      void 
  2285 ;; Registers used:
  2286 ;;		None
  2287 ;; Tracked objects:
  2288 ;;		On entry : 0/0
  2289 ;;		On exit  : 0/0
  2290 ;;		Unchanged: 0/0
  2291 ;; Data sizes:     COMRAM   BANK0   BANK1   BANK2   BANK3   BANK4   BANK5   BANK6   BANK7
  2292 ;;      Params:         0       0       0       0       0       0       0       0       0
  2293 ;;      Locals:         0       0       0       0       0       0       0       0       0
  2294 ;;      Temps:          0       0       0       0       0       0       0       0       0
  2295 ;;      Totals:         0       0       0       0       0       0       0       0       0
  2296 ;;Total ram usage:        0 bytes
  2297 ;; Hardware stack levels used: 1
  2298 ;; This function calls:
  2299 ;;		Nothing
  2300 ;; This function is called by:
  2301 ;;		_Ler_EEPROM
  2302 ;;		_RTC_GetDateTime
  2303 ;; This function uses a non-reentrant model
  2304 ;;
  2305                           
  2306                           	psect	text13
  2307   006930                     __ptext13:
  2308                           	callstack 0
  2309   006930                     _I2C_Restart:
  2310                           	callstack 27
  2311   006930                     
  2312                           ;i2c.c: 35:  RSEN = 1;
  2313   006930  82C5               	bsf	4037,1,c	;volatile
  2314   006932                     l288:
  2315   006932  B2C5               	btfsc	4037,1,c	;volatile
  2316   006934  EF9E  F034         	goto	u1781
  2317   006938  EFA0  F034         	goto	u1780
  2318   00693C                     u1781:
  2319   00693C  EF99  F034         	goto	l288
  2320   006940                     u1780:
  2321   006940  0012               	return		;funcret
  2322   006942                     __end_of_I2C_Restart:
  2323                           	callstack 0
  2324                           
  2325 ;; *************** function _I2C_Read *****************
  2326 ;; Defined at:
  2327 ;;		line 155 in file "i2c.c"
  2328 ;; Parameters:    Size  Location     Type
  2329 ;;  v_ackOption_    1    wreg     unsigned char 
  2330 ;; Auto vars:     Size  Location     Type
  2331 ;;  v_ackOption_    1    0[COMRAM] unsigned char 
  2332 ;;  v_i2cData_u8    1    1[COMRAM] unsigned char 
  2333 ;; Return value:  Size  Location     Type
  2334 ;;                  1    wreg      unsigned char 
  2335 ;; Registers used:
  2336 ;;		wreg, status,2, status,0, cstack
  2337 ;; Tracked objects:
  2338 ;;		On entry : 0/0
  2339 ;;		On exit  : 0/0
  2340 ;;		Unchanged: 0/0
  2341 ;; Data sizes:     COMRAM   BANK0   BANK1   BANK2   BANK3   BANK4   BANK5   BANK6   BANK7
  2342 ;;      Params:         0       0       0       0       0       0       0       0       0
  2343 ;;      Locals:         2       0       0       0       0       0       0       0       0
  2344 ;;      Temps:          0       0       0       0       0       0       0       0       0
  2345 ;;      Totals:         2       0       0       0       0       0       0       0       0
  2346 ;;Total ram usage:        2 bytes
  2347 ;; Hardware stack levels used: 1
  2348 ;; Hardware stack levels required when called: 1
  2349 ;; This function calls:
  2350 ;;		_i2c_Ack
  2351 ;;		_i2c_NoAck
  2352 ;;		_i2c_WaitForIdle
  2353 ;; This function is called by:
  2354 ;;		_Ler_EEPROM
  2355 ;;		_RTC_GetDateTime
  2356 ;; This function uses a non-reentrant model
  2357 ;;
  2358                           
  2359                           	psect	text14
  2360   006B18                     __ptext14:
  2361                           	callstack 0
  2362   006B18                     _I2C_Read:
  2363                           	callstack 26
  2364                           
  2365                           ;incstack = 0
  2366                           ;I2C_Read@v_ackOption_u8 stored from wreg
  2367   006B18  6E01               	movwf	I2C_Read@v_ackOption_u8^0,c
  2368   006B1A                     
  2369                           ;i2c.c: 159:  RCEN = 1;
  2370   006B1A  86C5               	bsf	4037,3,c	;volatile
  2371   006B1C                     l315:
  2372   006B1C  A0C7               	btfss	199,0,c	;volatile
  2373   006B1E  EF93  F035         	goto	u1791
  2374   006B22  EF95  F035         	goto	u1790
  2375   006B26                     u1791:
  2376   006B26  EF8E  F035         	goto	l315
  2377   006B2A                     u1790:
  2378   006B2A                     
  2379                           ;i2c.c: 161:  v_i2cData_u8 = SSPBUF;
  2380   006B2A  CFC9 F002          	movff	4041,I2C_Read@v_i2cData_u8	;volatile
  2381   006B2E                     
  2382                           ;i2c.c: 162:  i2c_WaitForIdle();
  2383   006B2E  ECEB  F035         	call	_i2c_WaitForIdle	;wreg free
  2384   006B32                     
  2385                           ;i2c.c: 164:  if(v_ackOption_u8==1)
  2386   006B32  0401               	decf	I2C_Read@v_ackOption_u8^0,w,c
  2387   006B34  A4D8               	btfss	status,2,c
  2388   006B36  EF9F  F035         	goto	u1801
  2389   006B3A  EFA1  F035         	goto	u1800
  2390   006B3E                     u1801:
  2391   006B3E  EFA5  F035         	goto	l2545
  2392   006B42                     u1800:
  2393   006B42                     
  2394                           ;i2c.c: 165:  {;i2c.c: 166:   i2c_Ack();
  2395   006B42  ECBD  F034         	call	_i2c_Ack	;wreg free
  2396                           
  2397                           ;i2c.c: 167:  }
  2398   006B46  EFA7  F035         	goto	l2547
  2399   006B4A                     l2545:
  2400                           
  2401                           ;i2c.c: 169:  {;i2c.c: 170:   i2c_NoAck();
  2402   006B4A  ECC7  F034         	call	_i2c_NoAck	;wreg free
  2403   006B4E                     l2547:
  2404                           
  2405                           ;i2c.c: 173:  return v_i2cData_u8;
  2406   006B4E  5002               	movf	I2C_Read@v_i2cData_u8^0,w,c
  2407   006B50  0012               	return		;funcret
  2408   006B52                     __end_of_I2C_Read:
  2409                           	callstack 0
  2410                           
  2411 ;; *************** function _i2c_WaitForIdle *****************
  2412 ;; Defined at:
  2413 ;;		line 186 in file "i2c.c"
  2414 ;; Parameters:    Size  Location     Type
  2415 ;;		None
  2416 ;; Auto vars:     Size  Location     Type
  2417 ;;		None
  2418 ;; Return value:  Size  Location     Type
  2419 ;;                  1    wreg      void 
  2420 ;; Registers used:
  2421 ;;		None
  2422 ;; Tracked objects:
  2423 ;;		On entry : 0/0
  2424 ;;		On exit  : 0/0
  2425 ;;		Unchanged: 0/0
  2426 ;; Data sizes:     COMRAM   BANK0   BANK1   BANK2   BANK3   BANK4   BANK5   BANK6   BANK7
  2427 ;;      Params:         0       0       0       0       0       0       0       0       0
  2428 ;;      Locals:         0       0       0       0       0       0       0       0       0
  2429 ;;      Temps:          0       0       0       0       0       0       0       0       0
  2430 ;;      Totals:         0       0       0       0       0       0       0       0       0
  2431 ;;Total ram usage:        0 bytes
  2432 ;; Hardware stack levels used: 1
  2433 ;; This function calls:
  2434 ;;		Nothing
  2435 ;; This function is called by:
  2436 ;;		_I2C_Write
  2437 ;;		_I2C_Read
  2438 ;; This function uses a non-reentrant model
  2439 ;;
  2440                           
  2441                           	psect	text15
  2442   006BD6                     __ptext15:
  2443                           	callstack 0
  2444   006BD6                     _i2c_WaitForIdle:
  2445                           	callstack 27
  2446   006BD6                     l323:
  2447   006BD6  B0C5               	btfsc	4037,0,c	;volatile
  2448   006BD8  EFF0  F035         	goto	u1601
  2449   006BDC  EFF2  F035         	goto	u1600
  2450   006BE0                     u1601:
  2451   006BE0  EFEB  F035         	goto	l323
  2452   006BE4                     u1600:
  2453   006BE4  B2C5               	btfsc	4037,1,c	;volatile
  2454   006BE6  EFF7  F035         	goto	u1611
  2455   006BEA  EFF9  F035         	goto	u1610
  2456   006BEE                     u1611:
  2457   006BEE  EFEB  F035         	goto	l323
  2458   006BF2                     u1610:
  2459   006BF2  B4C5               	btfsc	4037,2,c	;volatile
  2460   006BF4  EFFE  F035         	goto	u1621
  2461   006BF8  EF00  F036         	goto	u1620
  2462   006BFC                     u1621:
  2463   006BFC  EFEB  F035         	goto	l323
  2464   006C00                     u1620:
  2465   006C00  B6C5               	btfsc	4037,3,c	;volatile
  2466   006C02  EF05  F036         	goto	u1631
  2467   006C06  EF07  F036         	goto	u1630
  2468   006C0A                     u1631:
  2469   006C0A  EFEB  F035         	goto	l323
  2470   006C0E                     u1630:
  2471   006C0E  B4C7               	btfsc	4039,2,c	;volatile
  2472   006C10  EF0C  F036         	goto	u1641
  2473   006C14  EF0E  F036         	goto	u1640
  2474   006C18                     u1641:
  2475   006C18  EFEB  F035         	goto	l323
  2476   006C1C                     u1640:
  2477   006C1C  0012               	return		;funcret
  2478   006C1E                     __end_of_i2c_WaitForIdle:
  2479                           	callstack 0
  2480                           
  2481 ;; *************** function _i2c_NoAck *****************
  2482 ;; Defined at:
  2483 ;;		line 218 in file "i2c.c"
  2484 ;; Parameters:    Size  Location     Type
  2485 ;;		None
  2486 ;; Auto vars:     Size  Location     Type
  2487 ;;		None
  2488 ;; Return value:  Size  Location     Type
  2489 ;;                  1    wreg      void 
  2490 ;; Registers used:
  2491 ;;		None
  2492 ;; Tracked objects:
  2493 ;;		On entry : 0/0
  2494 ;;		On exit  : 0/0
  2495 ;;		Unchanged: 0/0
  2496 ;; Data sizes:     COMRAM   BANK0   BANK1   BANK2   BANK3   BANK4   BANK5   BANK6   BANK7
  2497 ;;      Params:         0       0       0       0       0       0       0       0       0
  2498 ;;      Locals:         0       0       0       0       0       0       0       0       0
  2499 ;;      Temps:          0       0       0       0       0       0       0       0       0
  2500 ;;      Totals:         0       0       0       0       0       0       0       0       0
  2501 ;;Total ram usage:        0 bytes
  2502 ;; Hardware stack levels used: 1
  2503 ;; This function calls:
  2504 ;;		Nothing
  2505 ;; This function is called by:
  2506 ;;		_I2C_Read
  2507 ;; This function uses a non-reentrant model
  2508 ;;
  2509                           
  2510                           	psect	text16
  2511   00698E                     __ptext16:
  2512                           	callstack 0
  2513   00698E                     _i2c_NoAck:
  2514                           	callstack 26
  2515   00698E                     
  2516                           ;i2c.c: 220:  ACKDT = 1;
  2517   00698E  8AC5               	bsf	4037,5,c	;volatile
  2518                           
  2519                           ;i2c.c: 221:  ACKEN = 1;
  2520   006990  88C5               	bsf	4037,4,c	;volatile
  2521   006992                     l335:
  2522   006992  B8C5               	btfsc	4037,4,c	;volatile
  2523   006994  EFCE  F034         	goto	u1661
  2524   006998  EFD0  F034         	goto	u1660
  2525   00699C                     u1661:
  2526   00699C  EFC9  F034         	goto	l335
  2527   0069A0                     u1660:
  2528   0069A0  0012               	return		;funcret
  2529   0069A2                     __end_of_i2c_NoAck:
  2530                           	callstack 0
  2531                           
  2532 ;; *************** function _i2c_Ack *****************
  2533 ;; Defined at:
  2534 ;;		line 203 in file "i2c.c"
  2535 ;; Parameters:    Size  Location     Type
  2536 ;;		None
  2537 ;; Auto vars:     Size  Location     Type
  2538 ;;		None
  2539 ;; Return value:  Size  Location     Type
  2540 ;;                  1    wreg      void 
  2541 ;; Registers used:
  2542 ;;		None
  2543 ;; Tracked objects:
  2544 ;;		On entry : 0/0
  2545 ;;		On exit  : 0/0
  2546 ;;		Unchanged: 0/0
  2547 ;; Data sizes:     COMRAM   BANK0   BANK1   BANK2   BANK3   BANK4   BANK5   BANK6   BANK7
  2548 ;;      Params:         0       0       0       0       0       0       0       0       0
  2549 ;;      Locals:         0       0       0       0       0       0       0       0       0
  2550 ;;      Temps:          0       0       0       0       0       0       0       0       0
  2551 ;;      Totals:         0       0       0       0       0       0       0       0       0
  2552 ;;Total ram usage:        0 bytes
  2553 ;; Hardware stack levels used: 1
  2554 ;; This function calls:
  2555 ;;		Nothing
  2556 ;; This function is called by:
  2557 ;;		_I2C_Read
  2558 ;; This function uses a non-reentrant model
  2559 ;;
  2560                           
  2561                           	psect	text17
  2562   00697A                     __ptext17:
  2563                           	callstack 0
  2564   00697A                     _i2c_Ack:
  2565                           	callstack 26
  2566   00697A                     
  2567                           ;i2c.c: 205:  ACKDT = 0;
  2568   00697A  9AC5               	bcf	4037,5,c	;volatile
  2569                           
  2570                           ;i2c.c: 206:  ACKEN = 1;
  2571   00697C  88C5               	bsf	4037,4,c	;volatile
  2572   00697E                     l329:
  2573   00697E  B8C5               	btfsc	4037,4,c	;volatile
  2574   006980  EFC4  F034         	goto	u1651
  2575   006984  EFC6  F034         	goto	u1650
  2576   006988                     u1651:
  2577   006988  EFBF  F034         	goto	l329
  2578   00698C                     u1650:
  2579   00698C  0012               	return		;funcret
  2580   00698E                     __end_of_i2c_Ack:
  2581                           	callstack 0
  2582                           
  2583 ;; *************** function _LCD_String_xy *****************
  2584 ;; Defined at:
  2585 ;;		line 66 in file "lcd_4b.c"
  2586 ;; Parameters:    Size  Location     Type
  2587 ;;  row             1    wreg     unsigned char 
  2588 ;;  pos             1   10[COMRAM] unsigned char 
  2589 ;;  msg             2   11[COMRAM] PTR const unsigned char 
  2590 ;;		 -> STR_16(20), STR_14(20), STR_13(20), STR_11(16), 
  2591 ;;		 -> lcd_buffer(21), data_buffer(11), hora_buffer(9), STR_9(16), 
  2592 ;;		 -> STR_8(16), STR_7(18), STR_6(13), STR_5(18), 
  2593 ;;		 -> STR_4(15), STR_3(18), STR_2(20), STR_1(7), 
  2594 ;; Auto vars:     Size  Location     Type
  2595 ;;  row             1   13[COMRAM] unsigned char 
  2596 ;;  location        1   14[COMRAM] unsigned char 
  2597 ;; Return value:  Size  Location     Type
  2598 ;;                  1    wreg      void 
  2599 ;; Registers used:
  2600 ;;		wreg, fsr0l, fsr0h, status,2, status,0, tblptrl, tblptrh, tblptru, cstack
  2601 ;; Tracked objects:
  2602 ;;		On entry : 0/0
  2603 ;;		On exit  : 0/0
  2604 ;;		Unchanged: 0/0
  2605 ;; Data sizes:     COMRAM   BANK0   BANK1   BANK2   BANK3   BANK4   BANK5   BANK6   BANK7
  2606 ;;      Params:         3       0       0       0       0       0       0       0       0
  2607 ;;      Locals:         2       0       0       0       0       0       0       0       0
  2608 ;;      Temps:          0       0       0       0       0       0       0       0       0
  2609 ;;      Totals:         5       0       0       0       0       0       0       0       0
  2610 ;;Total ram usage:        5 bytes
  2611 ;; Hardware stack levels used: 1
  2612 ;; Hardware stack levels required when called: 3
  2613 ;; This function calls:
  2614 ;;		_LCD_Command
  2615 ;;		_LCD_String
  2616 ;; This function is called by:
  2617 ;;		_Display_Mensagens_Iniciais
  2618 ;;		_Atualizar_Display_Principal
  2619 ;; This function uses a non-reentrant model
  2620 ;;
  2621                           
  2622                           	psect	text18
  2623   006F38                     __ptext18:
  2624                           	callstack 0
  2625   006F38                     _LCD_String_xy:
  2626                           	callstack 26
  2627                           
  2628                           ;incstack = 0
  2629                           ;LCD_String_xy@row stored from wreg
  2630   006F38  6E0E               	movwf	LCD_String_xy@row^0,c
  2631   006F3A                     
  2632                           ;lcd_4b.c: 69:     if(row==1)
  2633   006F3A  040E               	decf	LCD_String_xy@row^0,w,c
  2634   006F3C  A4D8               	btfss	status,2,c
  2635   006F3E  EFA3  F037         	goto	u1871
  2636   006F42  EFA5  F037         	goto	u1870
  2637   006F46                     u1871:
  2638   006F46  EFAC  F037         	goto	l2691
  2639   006F4A                     u1870:
  2640   006F4A                     
  2641                           ;lcd_4b.c: 70:     {;lcd_4b.c: 71:         location=(0x80) | ((pos) & 0x0f);
  2642   006F4A  500B               	movf	LCD_String_xy@pos^0,w,c
  2643   006F4C  0B0F               	andlw	15
  2644   006F4E  0980               	iorlw	128
  2645   006F50  6E0F               	movwf	LCD_String_xy@location^0,c
  2646   006F52                     
  2647                           ;lcd_4b.c: 72:         LCD_Command(location);
  2648   006F52  500F               	movf	LCD_String_xy@location^0,w,c
  2649   006F54  EC5A  F036         	call	_LCD_Command
  2650   006F58                     l2691:
  2651                           
  2652                           ;lcd_4b.c: 74:     if(row==2)
  2653   006F58  0E02               	movlw	2
  2654   006F5A  180E               	xorwf	LCD_String_xy@row^0,w,c
  2655   006F5C  A4D8               	btfss	status,2,c
  2656   006F5E  EFB3  F037         	goto	u1881
  2657   006F62  EFB5  F037         	goto	u1880
  2658   006F66                     u1881:
  2659   006F66  EFBC  F037         	goto	l2697
  2660   006F6A                     u1880:
  2661   006F6A                     
  2662                           ;lcd_4b.c: 75:     {;lcd_4b.c: 76:         location=(0xC0) | ((pos) & 0x0f);
  2663   006F6A  500B               	movf	LCD_String_xy@pos^0,w,c
  2664   006F6C  0B0F               	andlw	15
  2665   006F6E  09C0               	iorlw	192
  2666   006F70  6E0F               	movwf	LCD_String_xy@location^0,c
  2667   006F72                     
  2668                           ;lcd_4b.c: 77:         LCD_Command(location);
  2669   006F72  500F               	movf	LCD_String_xy@location^0,w,c
  2670   006F74  EC5A  F036         	call	_LCD_Command
  2671   006F78                     l2697:
  2672                           
  2673                           ;lcd_4b.c: 79:     if(row==3)
  2674   006F78  0E03               	movlw	3
  2675   006F7A  180E               	xorwf	LCD_String_xy@row^0,w,c
  2676   006F7C  A4D8               	btfss	status,2,c
  2677   006F7E  EFC3  F037         	goto	u1891
  2678   006F82  EFC5  F037         	goto	u1890
  2679   006F86                     u1891:
  2680   006F86  EFCC  F037         	goto	l2703
  2681   006F8A                     u1890:
  2682   006F8A                     
  2683                           ;lcd_4b.c: 80:     {;lcd_4b.c: 81:         location=(0x94) | ((pos) & 0x0f);
  2684   006F8A  500B               	movf	LCD_String_xy@pos^0,w,c
  2685   006F8C  0B0F               	andlw	15
  2686   006F8E  0994               	iorlw	148
  2687   006F90  6E0F               	movwf	LCD_String_xy@location^0,c
  2688   006F92                     
  2689                           ;lcd_4b.c: 82:         LCD_Command(location);
  2690   006F92  500F               	movf	LCD_String_xy@location^0,w,c
  2691   006F94  EC5A  F036         	call	_LCD_Command
  2692   006F98                     l2703:
  2693                           
  2694                           ;lcd_4b.c: 84:     if(row==4)
  2695   006F98  0E04               	movlw	4
  2696   006F9A  180E               	xorwf	LCD_String_xy@row^0,w,c
  2697   006F9C  A4D8               	btfss	status,2,c
  2698   006F9E  EFD3  F037         	goto	u1901
  2699   006FA2  EFD5  F037         	goto	u1900
  2700   006FA6                     u1901:
  2701   006FA6  EFDC  F037         	goto	l2709
  2702   006FAA                     u1900:
  2703   006FAA                     
  2704                           ;lcd_4b.c: 85:     {;lcd_4b.c: 86:         location=(0xD4) | ((pos) & 0x0f);
  2705   006FAA  500B               	movf	LCD_String_xy@pos^0,w,c
  2706   006FAC  0B0F               	andlw	15
  2707   006FAE  09D4               	iorlw	212
  2708   006FB0  6E0F               	movwf	LCD_String_xy@location^0,c
  2709   006FB2                     
  2710                           ;lcd_4b.c: 87:         LCD_Command(location);
  2711   006FB2  500F               	movf	LCD_String_xy@location^0,w,c
  2712   006FB4  EC5A  F036         	call	_LCD_Command
  2713   006FB8                     l2709:
  2714                           
  2715                           ;lcd_4b.c: 90:     LCD_String(msg);
  2716   006FB8  C00C  F009         	movff	LCD_String_xy@msg,LCD_String@msg
  2717   006FBC  C00D  F00A         	movff	LCD_String_xy@msg+1,LCD_String@msg+1
  2718   006FC0  ECF6  F036         	call	_LCD_String	;wreg free
  2719   006FC4  0012               	return		;funcret
  2720   006FC6                     __end_of_LCD_String_xy:
  2721                           	callstack 0
  2722                           
  2723 ;; *************** function _LCD_String *****************
  2724 ;; Defined at:
  2725 ;;		line 57 in file "lcd_4b.c"
  2726 ;; Parameters:    Size  Location     Type
  2727 ;;  msg             2    8[COMRAM] PTR const unsigned char 
  2728 ;;		 -> STR_16(20), STR_14(20), STR_13(20), STR_11(16), 
  2729 ;;		 -> lcd_buffer(21), data_buffer(11), hora_buffer(9), STR_9(16), 
  2730 ;;		 -> STR_8(16), STR_7(18), STR_6(13), STR_5(18), 
  2731 ;;		 -> STR_4(15), STR_3(18), STR_2(20), STR_1(7), 
  2732 ;; Auto vars:     Size  Location     Type
  2733 ;;		None
  2734 ;; Return value:  Size  Location     Type
  2735 ;;                  1    wreg      void 
  2736 ;; Registers used:
  2737 ;;		wreg, fsr0l, fsr0h, status,2, status,0, tblptrl, tblptrh, tblptru, cstack
  2738 ;; Tracked objects:
  2739 ;;		On entry : 0/0
  2740 ;;		On exit  : 0/0
  2741 ;;		Unchanged: 0/0
  2742 ;; Data sizes:     COMRAM   BANK0   BANK1   BANK2   BANK3   BANK4   BANK5   BANK6   BANK7
  2743 ;;      Params:         2       0       0       0       0       0       0       0       0
  2744 ;;      Locals:         0       0       0       0       0       0       0       0       0
  2745 ;;      Temps:          0       0       0       0       0       0       0       0       0
  2746 ;;      Totals:         2       0       0       0       0       0       0       0       0
  2747 ;;Total ram usage:        2 bytes
  2748 ;; Hardware stack levels used: 1
  2749 ;; Hardware stack levels required when called: 2
  2750 ;; This function calls:
  2751 ;;		_LCD_Char
  2752 ;; This function is called by:
  2753 ;;		_LCD_String_xy
  2754 ;; This function uses a non-reentrant model
  2755 ;;
  2756                           
  2757                           	psect	text19
  2758   006DEC                     __ptext19:
  2759                           	callstack 0
  2760   006DEC                     _LCD_String:
  2761                           	callstack 26
  2762   006DEC                     
  2763                           ;lcd_4b.c: 57: void LCD_String(const char *msg);lcd_4b.c: 58: {;lcd_4b.c: 59:  while((*m
      +                          sg)!=0)
  2764   006DEC  EF0C  F037         	goto	l2643
  2765   006DF0                     l2639:
  2766                           
  2767                           ;lcd_4b.c: 60:  {;lcd_4b.c: 61:    LCD_Char(*msg);
  2768   006DF0  C009  FFF6         	movff	LCD_String@msg,tblptrl
  2769   006DF4  C00A  FFF7         	movff	LCD_String@msg+1,tblptrh
  2770   006DF8  6AF8               	clrf	tblptru,c
  2771   006DFA  0E07               	movlw	(high __ramtop+-1)
  2772   006DFC  64F7               	cpfsgt	tblptrh,c
  2773   006DFE  D003               	bra	u1837
  2774   006E00  0008               	tblrd		*
  2775   006E02  50F5               	movf	tablat,w,c
  2776   006E04  D005               	bra	u1830
  2777   006E06                     u1837:
  2778   006E06  CFF6 FFE9          	movff	tblptrl,fsr0l
  2779   006E0A  CFF7 FFEA          	movff	tblptrh,fsr0h
  2780   006E0E  50EF               	movf	indf0,w,c
  2781   006E10                     u1830:
  2782   006E10  EC80  F036         	call	_LCD_Char
  2783   006E14                     
  2784                           ;lcd_4b.c: 62:    msg++;
  2785   006E14  4A09               	infsnz	LCD_String@msg^0,f,c
  2786   006E16  2A0A               	incf	(LCD_String@msg+1)^0,f,c
  2787   006E18                     l2643:
  2788                           
  2789                           ;lcd_4b.c: 59:  while((*msg)!=0)
  2790   006E18  C009  FFF6         	movff	LCD_String@msg,tblptrl
  2791   006E1C  C00A  FFF7         	movff	LCD_String@msg+1,tblptrh
  2792   006E20  6AF8               	clrf	tblptru,c
  2793   006E22  0E07               	movlw	(high __ramtop+-1)
  2794   006E24  64F7               	cpfsgt	tblptrh,c
  2795   006E26  D003               	bra	u1847
  2796   006E28  0008               	tblrd		*
  2797   006E2A  50F5               	movf	tablat,w,c
  2798   006E2C  D005               	bra	u1840
  2799   006E2E                     u1847:
  2800   006E2E  CFF6 FFE9          	movff	tblptrl,fsr0l
  2801   006E32  CFF7 FFEA          	movff	tblptrh,fsr0h
  2802   006E36  50EF               	movf	indf0,w,c
  2803   006E38                     u1840:
  2804   006E38  0900               	iorlw	0
  2805   006E3A  A4D8               	btfss	status,2,c
  2806   006E3C  EF22  F037         	goto	u1851
  2807   006E40  EF24  F037         	goto	u1850
  2808   006E44                     u1851:
  2809   006E44  EFF8  F036         	goto	l2639
  2810   006E48                     u1850:
  2811   006E48  0012               	return		;funcret
  2812   006E4A                     __end_of_LCD_String:
  2813                           	callstack 0
  2814                           
  2815 ;; *************** function _LCD_Char *****************
  2816 ;; Defined at:
  2817 ;;		line 42 in file "lcd_4b.c"
  2818 ;; Parameters:    Size  Location     Type
  2819 ;;  dat             1    wreg     unsigned char 
  2820 ;; Auto vars:     Size  Location     Type
  2821 ;;  dat             1    7[COMRAM] unsigned char 
  2822 ;; Return value:  Size  Location     Type
  2823 ;;                  1    wreg      void 
  2824 ;; Registers used:
  2825 ;;		wreg, status,2, status,0, cstack
  2826 ;; Tracked objects:
  2827 ;;		On entry : 0/0
  2828 ;;		On exit  : 0/0
  2829 ;;		Unchanged: 0/0
  2830 ;; Data sizes:     COMRAM   BANK0   BANK1   BANK2   BANK3   BANK4   BANK5   BANK6   BANK7
  2831 ;;      Params:         0       0       0       0       0       0       0       0       0
  2832 ;;      Locals:         1       0       0       0       0       0       0       0       0
  2833 ;;      Temps:          1       0       0       0       0       0       0       0       0
  2834 ;;      Totals:         2       0       0       0       0       0       0       0       0
  2835 ;;Total ram usage:        2 bytes
  2836 ;; Hardware stack levels used: 1
  2837 ;; Hardware stack levels required when called: 1
  2838 ;; This function calls:
  2839 ;;		_MSdelay
  2840 ;; This function is called by:
  2841 ;;		_LCD_String
  2842 ;; This function uses a non-reentrant model
  2843 ;;
  2844                           
  2845                           	psect	text20
  2846   006D00                     __ptext20:
  2847                           	callstack 0
  2848   006D00                     _LCD_Char:
  2849                           	callstack 26
  2850                           
  2851                           ;incstack = 0
  2852                           ;LCD_Char@dat stored from wreg
  2853   006D00  6E08               	movwf	LCD_Char@dat^0,c
  2854   006D02                     
  2855                           ;lcd_4b.c: 42: void LCD_Char(unsigned char dat);lcd_4b.c: 43: {;lcd_4b.c: 44:  LATB = (L
      +                          ATB & 0x0f) | (0xF0 & dat);
  2856   006D02  C008  F007         	movff	LCD_Char@dat,??_LCD_Char
  2857   006D06  0EF0               	movlw	240
  2858   006D08  1607               	andwf	??_LCD_Char^0,f,c
  2859   006D0A  508A               	movf	138,w,c	;volatile
  2860   006D0C  0B0F               	andlw	15
  2861   006D0E  1007               	iorwf	??_LCD_Char^0,w,c
  2862   006D10  6E8A               	movwf	138,c	;volatile
  2863   006D12                     
  2864                           ;lcd_4b.c: 45:  LATB2 = 1;
  2865   006D12  848A               	bsf	3978,2,c	;volatile
  2866   006D14                     
  2867                           ;lcd_4b.c: 46:  LATB3 = 1;
  2868   006D14  868A               	bsf	3978,3,c	;volatile
  2869   006D16                     
  2870                           ;lcd_4b.c: 47:  __nop();
  2871   006D16  F000               	nop	
  2872   006D18                     
  2873                           ;lcd_4b.c: 48:  LATB3 = 0;
  2874   006D18  968A               	bcf	3978,3,c	;volatile
  2875   006D1A                     
  2876                           ;lcd_4b.c: 49:  MSdelay(1);
  2877   006D1A  0E00               	movlw	0
  2878   006D1C  6E02               	movwf	(MSdelay@val+1)^0,c
  2879   006D1E  0E01               	movlw	1
  2880   006D20  6E01               	movwf	MSdelay@val^0,c
  2881   006D22  EC0F  F036         	call	_MSdelay	;wreg free
  2882   006D26                     
  2883                           ;lcd_4b.c: 50:     LATB = (LATB & 0x0f) | (dat<<4);
  2884   006D26  C008  F007         	movff	LCD_Char@dat,??_LCD_Char
  2885   006D2A  3A07               	swapf	??_LCD_Char^0,f,c
  2886   006D2C  0EF0               	movlw	240
  2887   006D2E  1607               	andwf	??_LCD_Char^0,f,c
  2888   006D30  508A               	movf	138,w,c	;volatile
  2889   006D32  0B0F               	andlw	15
  2890   006D34  1007               	iorwf	??_LCD_Char^0,w,c
  2891   006D36  6E8A               	movwf	138,c	;volatile
  2892   006D38                     
  2893                           ;lcd_4b.c: 51:  LATB3 = 1;
  2894   006D38  868A               	bsf	3978,3,c	;volatile
  2895   006D3A                     
  2896                           ;lcd_4b.c: 52:  __nop();
  2897   006D3A  F000               	nop	
  2898   006D3C                     
  2899                           ;lcd_4b.c: 53:  LATB3 = 0;
  2900   006D3C  968A               	bcf	3978,3,c	;volatile
  2901                           
  2902                           ;lcd_4b.c: 54:  MSdelay(3);
  2903   006D3E  0E00               	movlw	0
  2904   006D40  6E02               	movwf	(MSdelay@val+1)^0,c
  2905   006D42  0E03               	movlw	3
  2906   006D44  6E01               	movwf	MSdelay@val^0,c
  2907   006D46  EC0F  F036         	call	_MSdelay	;wreg free
  2908   006D4A  0012               	return		;funcret
  2909   006D4C                     __end_of_LCD_Char:
  2910                           	callstack 0
  2911                           
  2912 ;; *************** function _LCD_Clear *****************
  2913 ;; Defined at:
  2914 ;;		line 93 in file "lcd_4b.c"
  2915 ;; Parameters:    Size  Location     Type
  2916 ;;		None
  2917 ;; Auto vars:     Size  Location     Type
  2918 ;;		None
  2919 ;; Return value:  Size  Location     Type
  2920 ;;                  1    wreg      void 
  2921 ;; Registers used:
  2922 ;;		wreg, status,2, status,0, cstack
  2923 ;; Tracked objects:
  2924 ;;		On entry : 0/0
  2925 ;;		On exit  : 0/0
  2926 ;;		Unchanged: 0/0
  2927 ;; Data sizes:     COMRAM   BANK0   BANK1   BANK2   BANK3   BANK4   BANK5   BANK6   BANK7
  2928 ;;      Params:         0       0       0       0       0       0       0       0       0
  2929 ;;      Locals:         0       0       0       0       0       0       0       0       0
  2930 ;;      Temps:          0       0       0       0       0       0       0       0       0
  2931 ;;      Totals:         0       0       0       0       0       0       0       0       0
  2932 ;;Total ram usage:        0 bytes
  2933 ;; Hardware stack levels used: 1
  2934 ;; Hardware stack levels required when called: 2
  2935 ;; This function calls:
  2936 ;;		_LCD_Command
  2937 ;;		_MSdelay
  2938 ;; This function is called by:
  2939 ;;		_Display_Mensagens_Iniciais
  2940 ;; This function uses a non-reentrant model
  2941 ;;
  2942                           
  2943                           	psect	text21
  2944   006966                     __ptext21:
  2945                           	callstack 0
  2946   006966                     _LCD_Clear:
  2947                           	callstack 27
  2948   006966                     
  2949                           ;lcd_4b.c: 95:     LCD_Command(0x01);
  2950   006966  0E01               	movlw	1
  2951   006968  EC5A  F036         	call	_LCD_Command
  2952                           
  2953                           ;lcd_4b.c: 96:     MSdelay(3);
  2954   00696C  0E00               	movlw	0
  2955   00696E  6E02               	movwf	(MSdelay@val+1)^0,c
  2956   006970  0E03               	movlw	3
  2957   006972  6E01               	movwf	MSdelay@val^0,c
  2958   006974  EC0F  F036         	call	_MSdelay	;wreg free
  2959   006978  0012               	return		;funcret
  2960   00697A                     __end_of_LCD_Clear:
  2961                           	callstack 0
  2962                           
  2963 ;; *************** function _LCD_Command *****************
  2964 ;; Defined at:
  2965 ;;		line 26 in file "lcd_4b.c"
  2966 ;; Parameters:    Size  Location     Type
  2967 ;;  cmd             1    wreg     unsigned char 
  2968 ;; Auto vars:     Size  Location     Type
  2969 ;;  cmd             1    7[COMRAM] unsigned char 
  2970 ;; Return value:  Size  Location     Type
  2971 ;;                  1    wreg      void 
  2972 ;; Registers used:
  2973 ;;		wreg, status,2, status,0, cstack
  2974 ;; Tracked objects:
  2975 ;;		On entry : 0/0
  2976 ;;		On exit  : 0/0
  2977 ;;		Unchanged: 0/0
  2978 ;; Data sizes:     COMRAM   BANK0   BANK1   BANK2   BANK3   BANK4   BANK5   BANK6   BANK7
  2979 ;;      Params:         0       0       0       0       0       0       0       0       0
  2980 ;;      Locals:         1       0       0       0       0       0       0       0       0
  2981 ;;      Temps:          1       0       0       0       0       0       0       0       0
  2982 ;;      Totals:         2       0       0       0       0       0       0       0       0
  2983 ;;Total ram usage:        2 bytes
  2984 ;; Hardware stack levels used: 1
  2985 ;; Hardware stack levels required when called: 1
  2986 ;; This function calls:
  2987 ;;		_MSdelay
  2988 ;; This function is called by:
  2989 ;;		_LCD_Init
  2990 ;;		_LCD_String_xy
  2991 ;;		_LCD_Clear
  2992 ;; This function uses a non-reentrant model
  2993 ;;
  2994                           
  2995                           	psect	text22
  2996   006CB4                     __ptext22:
  2997                           	callstack 0
  2998   006CB4                     _LCD_Command:
  2999                           	callstack 27
  3000                           
  3001                           ;incstack = 0
  3002                           ;LCD_Command@cmd stored from wreg
  3003   006CB4  6E08               	movwf	LCD_Command@cmd^0,c
  3004   006CB6                     
  3005                           ;lcd_4b.c: 26: void LCD_Command(unsigned char cmd );lcd_4b.c: 27: {;lcd_4b.c: 28:  LATB 
      +                          = (LATB & 0x0f) |(0xF0 & cmd);
  3006   006CB6  C008  F007         	movff	LCD_Command@cmd,??_LCD_Command
  3007   006CBA  0EF0               	movlw	240
  3008   006CBC  1607               	andwf	??_LCD_Command^0,f,c
  3009   006CBE  508A               	movf	138,w,c	;volatile
  3010   006CC0  0B0F               	andlw	15
  3011   006CC2  1007               	iorwf	??_LCD_Command^0,w,c
  3012   006CC4  6E8A               	movwf	138,c	;volatile
  3013   006CC6                     
  3014                           ;lcd_4b.c: 29:  LATB2 = 0;
  3015   006CC6  948A               	bcf	3978,2,c	;volatile
  3016   006CC8                     
  3017                           ;lcd_4b.c: 30:  LATB3 = 1;
  3018   006CC8  868A               	bsf	3978,3,c	;volatile
  3019   006CCA                     
  3020                           ;lcd_4b.c: 31:  __nop();
  3021   006CCA  F000               	nop	
  3022   006CCC                     
  3023                           ;lcd_4b.c: 32:  LATB3 = 0;
  3024   006CCC  968A               	bcf	3978,3,c	;volatile
  3025   006CCE                     
  3026                           ;lcd_4b.c: 33:  MSdelay(1);
  3027   006CCE  0E00               	movlw	0
  3028   006CD0  6E02               	movwf	(MSdelay@val+1)^0,c
  3029   006CD2  0E01               	movlw	1
  3030   006CD4  6E01               	movwf	MSdelay@val^0,c
  3031   006CD6  EC0F  F036         	call	_MSdelay	;wreg free
  3032   006CDA                     
  3033                           ;lcd_4b.c: 34:     LATB = (LATB & 0x0f) | (cmd<<4);
  3034   006CDA  C008  F007         	movff	LCD_Command@cmd,??_LCD_Command
  3035   006CDE  3A07               	swapf	??_LCD_Command^0,f,c
  3036   006CE0  0EF0               	movlw	240
  3037   006CE2  1607               	andwf	??_LCD_Command^0,f,c
  3038   006CE4  508A               	movf	138,w,c	;volatile
  3039   006CE6  0B0F               	andlw	15
  3040   006CE8  1007               	iorwf	??_LCD_Command^0,w,c
  3041   006CEA  6E8A               	movwf	138,c	;volatile
  3042   006CEC                     
  3043                           ;lcd_4b.c: 35:  LATB3 = 1;
  3044   006CEC  868A               	bsf	3978,3,c	;volatile
  3045   006CEE                     
  3046                           ;lcd_4b.c: 36:  __nop();
  3047   006CEE  F000               	nop	
  3048   006CF0                     
  3049                           ;lcd_4b.c: 37:  LATB3 = 0;
  3050   006CF0  968A               	bcf	3978,3,c	;volatile
  3051                           
  3052                           ;lcd_4b.c: 38:  MSdelay(3);
  3053   006CF2  0E00               	movlw	0
  3054   006CF4  6E02               	movwf	(MSdelay@val+1)^0,c
  3055   006CF6  0E03               	movlw	3
  3056   006CF8  6E01               	movwf	MSdelay@val^0,c
  3057   006CFA  EC0F  F036         	call	_MSdelay	;wreg free
  3058   006CFE  0012               	return		;funcret
  3059   006D00                     __end_of_LCD_Command:
  3060                           	callstack 0
  3061                           
  3062 ;; *************** function _Format_Hora *****************
  3063 ;; Defined at:
  3064 ;;		line 541 in file "main_piee2.c"
  3065 ;; Parameters:    Size  Location     Type
  3066 ;;  buffer          2   90[COMRAM] PTR unsigned char 
  3067 ;;		 -> hora_buffer(9), 
  3068 ;;  rtc             2   92[COMRAM] PTR struct .
  3069 ;;		 -> rtc(7), 
  3070 ;; Auto vars:     Size  Location     Type
  3071 ;;  seg             1    4[BANK0 ] unsigned char 
  3072 ;;  min             1    3[BANK0 ] unsigned char 
  3073 ;;  hora            1    2[BANK0 ] unsigned char 
  3074 ;; Return value:  Size  Location     Type
  3075 ;;                  1    wreg      void 
  3076 ;; Registers used:
  3077 ;;		wreg, fsr1l, fsr1h, fsr2l, fsr2h, status,2, status,0, tblptrl, tblptrh, tblptru, prodl, prodh, cstack
  3078 ;; Tracked objects:
  3079 ;;		On entry : 0/0
  3080 ;;		On exit  : 0/0
  3081 ;;		Unchanged: 0/0
  3082 ;; Data sizes:     COMRAM   BANK0   BANK1   BANK2   BANK3   BANK4   BANK5   BANK6   BANK7
  3083 ;;      Params:         4       0       0       0       0       0       0       0       0
  3084 ;;      Locals:         0       3       0       0       0       0       0       0       0
  3085 ;;      Temps:          0       2       0       0       0       0       0       0       0
  3086 ;;      Totals:         4       5       0       0       0       0       0       0       0
  3087 ;;Total ram usage:        9 bytes
  3088 ;; Hardware stack levels used: 1
  3089 ;; Hardware stack levels required when called: 8
  3090 ;; This function calls:
  3091 ;;		_sprintf
  3092 ;; This function is called by:
  3093 ;;		_Display_Mensagens_Iniciais
  3094 ;;		_Atualizar_Display_Principal
  3095 ;; This function uses a non-reentrant model
  3096 ;;
  3097                           
  3098                           	psect	text23
  3099   0071C8                     __ptext23:
  3100                           	callstack 0
  3101   0071C8                     _Format_Hora:
  3102                           	callstack 21
  3103   0071C8                     
  3104                           ;main_piee2.c: 543:     uint8_t hora = ((rtc->hour >> 4) * 10) + (rtc->hour & 0x0F);
  3105   0071C8  EE20 F002          	lfsr	2,2
  3106   0071CC  505D               	movf	Format_Hora@rtc^0,w,c
  3107   0071CE  26D9               	addwf	fsr2l,f,c
  3108   0071D0  505E               	movf	(Format_Hora@rtc+1)^0,w,c
  3109   0071D2  22DA               	addwfc	fsr2h,f,c
  3110   0071D4  50DF               	movf	indf2,w,c
  3111   0071D6  0100               	movlb	0	; () banked
  3112   0071D8  6FD0               	movwf	??_Format_Hora& (0+255),b
  3113   0071DA  0E0F               	movlw	15
  3114   0071DC  17D0               	andwf	??_Format_Hora& (0+255),f,b
  3115   0071DE  EE20 F002          	lfsr	2,2
  3116   0071E2  505D               	movf	Format_Hora@rtc^0,w,c
  3117   0071E4  26D9               	addwf	fsr2l,f,c
  3118   0071E6  505E               	movf	(Format_Hora@rtc+1)^0,w,c
  3119   0071E8  22DA               	addwfc	fsr2h,f,c
  3120   0071EA  50DF               	movf	indf2,w,c
  3121   0071EC  6FD1               	movwf	(??_Format_Hora+1)& (0+255),b
  3122   0071EE  39D1               	swapf	(??_Format_Hora+1)& (0+255),w,b
  3123   0071F0  0B0F               	andlw	15
  3124   0071F2  0D0A               	mullw	10
  3125   0071F4  50F3               	movf	243,w,c
  3126   0071F6  25D0               	addwf	??_Format_Hora& (0+255),w,b
  3127   0071F8  6FD2               	movwf	Format_Hora@hora& (0+255),b
  3128                           
  3129                           ;main_piee2.c: 544:     uint8_t min = ((rtc->min >> 4) * 10) + (rtc->min & 0x0F);
  3130   0071FA  EE20 F001          	lfsr	2,1
  3131   0071FE  505D               	movf	Format_Hora@rtc^0,w,c
  3132   007200  26D9               	addwf	fsr2l,f,c
  3133   007202  505E               	movf	(Format_Hora@rtc+1)^0,w,c
  3134   007204  22DA               	addwfc	fsr2h,f,c
  3135   007206  50DF               	movf	indf2,w,c
  3136   007208  6FD0               	movwf	??_Format_Hora& (0+255),b
  3137   00720A  0E0F               	movlw	15
  3138   00720C  17D0               	andwf	??_Format_Hora& (0+255),f,b
  3139   00720E  EE20 F001          	lfsr	2,1
  3140   007212  505D               	movf	Format_Hora@rtc^0,w,c
  3141   007214  26D9               	addwf	fsr2l,f,c
  3142   007216  505E               	movf	(Format_Hora@rtc+1)^0,w,c
  3143   007218  22DA               	addwfc	fsr2h,f,c
  3144   00721A  50DF               	movf	indf2,w,c
  3145   00721C  6FD1               	movwf	(??_Format_Hora+1)& (0+255),b
  3146   00721E  39D1               	swapf	(??_Format_Hora+1)& (0+255),w,b
  3147   007220  0B0F               	andlw	15
  3148   007222  0D0A               	mullw	10
  3149   007224  50F3               	movf	243,w,c
  3150   007226  25D0               	addwf	??_Format_Hora& (0+255),w,b
  3151   007228  6FD3               	movwf	Format_Hora@min& (0+255),b
  3152                           
  3153                           ;main_piee2.c: 545:     uint8_t seg = ((rtc->sec >> 4) * 10) + (rtc->sec & 0x0F);
  3154   00722A  C05D  FFD9         	movff	Format_Hora@rtc,fsr2l
  3155   00722E  C05E  FFDA         	movff	Format_Hora@rtc+1,fsr2h
  3156   007232  50DF               	movf	indf2,w,c
  3157   007234  6FD0               	movwf	??_Format_Hora& (0+255),b
  3158   007236  0E0F               	movlw	15
  3159   007238  17D0               	andwf	??_Format_Hora& (0+255),f,b
  3160   00723A  C05D  FFD9         	movff	Format_Hora@rtc,fsr2l
  3161   00723E  C05E  FFDA         	movff	Format_Hora@rtc+1,fsr2h
  3162   007242  50DF               	movf	indf2,w,c
  3163   007244  6FD1               	movwf	(??_Format_Hora+1)& (0+255),b
  3164   007246  39D1               	swapf	(??_Format_Hora+1)& (0+255),w,b
  3165   007248  0B0F               	andlw	15
  3166   00724A  0D0A               	mullw	10
  3167   00724C  50F3               	movf	243,w,c
  3168   00724E  25D0               	addwf	??_Format_Hora& (0+255),w,b
  3169   007250  6FD4               	movwf	Format_Hora@seg& (0+255),b
  3170   007252                     
  3171                           ; BSR set to: 0
  3172                           ;main_piee2.c: 547:     sprintf(buffer, "%02d:%02d:%02d", hora, min, seg);
  3173   007252  C05B  F043         	movff	Format_Hora@buffer,sprintf@s
  3174   007256  C05C  F044         	movff	Format_Hora@buffer+1,sprintf@s+1
  3175   00725A  0EB4               	movlw	low STR_23
  3176   00725C  6E45               	movwf	sprintf@fmt^0,c
  3177   00725E  0E7F               	movlw	high STR_23
  3178   007260  6E46               	movwf	(sprintf@fmt+1)^0,c
  3179   007262  C0D2  F047         	movff	Format_Hora@hora,?_sprintf+4
  3180   007266  6A48               	clrf	(?_sprintf+5)^0,c
  3181   007268  C0D3  F049         	movff	Format_Hora@min,?_sprintf+6
  3182   00726C  6A4A               	clrf	(?_sprintf+7)^0,c
  3183   00726E  C0D4  F04B         	movff	Format_Hora@seg,?_sprintf+8
  3184   007272  6A4C               	clrf	(?_sprintf+9)^0,c
  3185   007274  EC34  F036         	call	_sprintf	;wreg free
  3186   007278  0012               	return		;funcret
  3187   00727A                     __end_of_Format_Hora:
  3188                           	callstack 0
  3189                           
  3190 ;; *************** function _Format_Data *****************
  3191 ;; Defined at:
  3192 ;;		line 550 in file "main_piee2.c"
  3193 ;; Parameters:    Size  Location     Type
  3194 ;;  buffer          2   90[COMRAM] PTR unsigned char 
  3195 ;;		 -> data_buffer(11), 
  3196 ;;  rtc             2   92[COMRAM] PTR struct .
  3197 ;;		 -> rtc(7), 
  3198 ;; Auto vars:     Size  Location     Type
  3199 ;;  ano             1    4[BANK0 ] unsigned char 
  3200 ;;  mes             1    3[BANK0 ] unsigned char 
  3201 ;;  dia             1    2[BANK0 ] unsigned char 
  3202 ;; Return value:  Size  Location     Type
  3203 ;;                  1    wreg      void 
  3204 ;; Registers used:
  3205 ;;		wreg, fsr1l, fsr1h, fsr2l, fsr2h, status,2, status,0, tblptrl, tblptrh, tblptru, prodl, prodh, cstack
  3206 ;; Tracked objects:
  3207 ;;		On entry : 0/0
  3208 ;;		On exit  : 0/0
  3209 ;;		Unchanged: 0/0
  3210 ;; Data sizes:     COMRAM   BANK0   BANK1   BANK2   BANK3   BANK4   BANK5   BANK6   BANK7
  3211 ;;      Params:         4       0       0       0       0       0       0       0       0
  3212 ;;      Locals:         0       3       0       0       0       0       0       0       0
  3213 ;;      Temps:          0       2       0       0       0       0       0       0       0
  3214 ;;      Totals:         4       5       0       0       0       0       0       0       0
  3215 ;;Total ram usage:        9 bytes
  3216 ;; Hardware stack levels used: 1
  3217 ;; Hardware stack levels required when called: 8
  3218 ;; This function calls:
  3219 ;;		_sprintf
  3220 ;; This function is called by:
  3221 ;;		_Display_Mensagens_Iniciais
  3222 ;;		_Atualizar_Display_Principal
  3223 ;; This function uses a non-reentrant model
  3224 ;;
  3225                           
  3226                           	psect	text24
  3227   00727A                     __ptext24:
  3228                           	callstack 0
  3229   00727A                     _Format_Data:
  3230                           	callstack 21
  3231   00727A                     
  3232                           ;main_piee2.c: 552:     uint8_t dia = ((rtc->date >> 4) * 10) + (rtc->date & 0x0F);
  3233   00727A  EE20 F004          	lfsr	2,4
  3234   00727E  505D               	movf	Format_Data@rtc^0,w,c
  3235   007280  26D9               	addwf	fsr2l,f,c
  3236   007282  505E               	movf	(Format_Data@rtc+1)^0,w,c
  3237   007284  22DA               	addwfc	fsr2h,f,c
  3238   007286  50DF               	movf	indf2,w,c
  3239   007288  0100               	movlb	0	; () banked
  3240   00728A  6FD0               	movwf	??_Format_Data& (0+255),b
  3241   00728C  0E0F               	movlw	15
  3242   00728E  17D0               	andwf	??_Format_Data& (0+255),f,b
  3243   007290  EE20 F004          	lfsr	2,4
  3244   007294  505D               	movf	Format_Data@rtc^0,w,c
  3245   007296  26D9               	addwf	fsr2l,f,c
  3246   007298  505E               	movf	(Format_Data@rtc+1)^0,w,c
  3247   00729A  22DA               	addwfc	fsr2h,f,c
  3248   00729C  50DF               	movf	indf2,w,c
  3249   00729E  6FD1               	movwf	(??_Format_Data+1)& (0+255),b
  3250   0072A0  39D1               	swapf	(??_Format_Data+1)& (0+255),w,b
  3251   0072A2  0B0F               	andlw	15
  3252   0072A4  0D0A               	mullw	10
  3253   0072A6  50F3               	movf	243,w,c
  3254   0072A8  25D0               	addwf	??_Format_Data& (0+255),w,b
  3255   0072AA  6FD2               	movwf	Format_Data@dia& (0+255),b
  3256                           
  3257                           ;main_piee2.c: 553:     uint8_t mes = ((rtc->month >> 4) * 10) + (rtc->month & 0x0F);
  3258   0072AC  EE20 F005          	lfsr	2,5
  3259   0072B0  505D               	movf	Format_Data@rtc^0,w,c
  3260   0072B2  26D9               	addwf	fsr2l,f,c
  3261   0072B4  505E               	movf	(Format_Data@rtc+1)^0,w,c
  3262   0072B6  22DA               	addwfc	fsr2h,f,c
  3263   0072B8  50DF               	movf	indf2,w,c
  3264   0072BA  6FD0               	movwf	??_Format_Data& (0+255),b
  3265   0072BC  0E0F               	movlw	15
  3266   0072BE  17D0               	andwf	??_Format_Data& (0+255),f,b
  3267   0072C0  EE20 F005          	lfsr	2,5
  3268   0072C4  505D               	movf	Format_Data@rtc^0,w,c
  3269   0072C6  26D9               	addwf	fsr2l,f,c
  3270   0072C8  505E               	movf	(Format_Data@rtc+1)^0,w,c
  3271   0072CA  22DA               	addwfc	fsr2h,f,c
  3272   0072CC  50DF               	movf	indf2,w,c
  3273   0072CE  6FD1               	movwf	(??_Format_Data+1)& (0+255),b
  3274   0072D0  39D1               	swapf	(??_Format_Data+1)& (0+255),w,b
  3275   0072D2  0B0F               	andlw	15
  3276   0072D4  0D0A               	mullw	10
  3277   0072D6  50F3               	movf	243,w,c
  3278   0072D8  25D0               	addwf	??_Format_Data& (0+255),w,b
  3279   0072DA  6FD3               	movwf	Format_Data@mes& (0+255),b
  3280                           
  3281                           ;main_piee2.c: 554:     uint8_t ano = ((rtc->year >> 4) * 10) + (rtc->year & 0x0F) + 200
      +                          0;
  3282   0072DC  EE20 F006          	lfsr	2,6
  3283   0072E0  505D               	movf	Format_Data@rtc^0,w,c
  3284   0072E2  26D9               	addwf	fsr2l,f,c
  3285   0072E4  505E               	movf	(Format_Data@rtc+1)^0,w,c
  3286   0072E6  22DA               	addwfc	fsr2h,f,c
  3287   0072E8  50DF               	movf	indf2,w,c
  3288   0072EA  6FD0               	movwf	??_Format_Data& (0+255),b
  3289   0072EC  0E0F               	movlw	15
  3290   0072EE  17D0               	andwf	??_Format_Data& (0+255),f,b
  3291   0072F0  EE20 F006          	lfsr	2,6
  3292   0072F4  505D               	movf	Format_Data@rtc^0,w,c
  3293   0072F6  26D9               	addwf	fsr2l,f,c
  3294   0072F8  505E               	movf	(Format_Data@rtc+1)^0,w,c
  3295   0072FA  22DA               	addwfc	fsr2h,f,c
  3296   0072FC  50DF               	movf	indf2,w,c
  3297   0072FE  6FD1               	movwf	(??_Format_Data+1)& (0+255),b
  3298   007300  39D1               	swapf	(??_Format_Data+1)& (0+255),w,b
  3299   007302  0B0F               	andlw	15
  3300   007304  0D0A               	mullw	10
  3301   007306  50F3               	movf	243,w,c
  3302   007308  25D0               	addwf	??_Format_Data& (0+255),w,b
  3303   00730A  0FD0               	addlw	208
  3304   00730C  6FD4               	movwf	Format_Data@ano& (0+255),b
  3305   00730E                     
  3306                           ; BSR set to: 0
  3307                           ;main_piee2.c: 556:     sprintf(buffer, "%02d/%02d/%04d", dia, mes, ano);
  3308   00730E  C05B  F043         	movff	Format_Data@buffer,sprintf@s
  3309   007312  C05C  F044         	movff	Format_Data@buffer+1,sprintf@s+1
  3310   007316  0EC3               	movlw	low STR_24
  3311   007318  6E45               	movwf	sprintf@fmt^0,c
  3312   00731A  0E7F               	movlw	high STR_24
  3313   00731C  6E46               	movwf	(sprintf@fmt+1)^0,c
  3314   00731E  C0D2  F047         	movff	Format_Data@dia,?_sprintf+4
  3315   007322  6A48               	clrf	(?_sprintf+5)^0,c
  3316   007324  C0D3  F049         	movff	Format_Data@mes,?_sprintf+6
  3317   007328  6A4A               	clrf	(?_sprintf+7)^0,c
  3318   00732A  C0D4  F04B         	movff	Format_Data@ano,?_sprintf+8
  3319   00732E  6A4C               	clrf	(?_sprintf+9)^0,c
  3320   007330  EC34  F036         	call	_sprintf	;wreg free
  3321   007334  0012               	return		;funcret
  3322   007336                     __end_of_Format_Data:
  3323                           	callstack 0
  3324                           
  3325 ;; *************** function _sprintf *****************
  3326 ;; Defined at:
  3327 ;;		line 9 in file "/Applications/microchip/xc8/v2.41/pic/sources/c99/common/nf_sprintf.c"
  3328 ;; Parameters:    Size  Location     Type
  3329 ;;  s               2   66[COMRAM] PTR unsigned char 
  3330 ;;		 -> lcd_buffer(21), data_buffer(11), hora_buffer(9), 
  3331 ;;  fmt             2   68[COMRAM] PTR const unsigned char 
  3332 ;;		 -> STR_24(15), STR_23(15), STR_22(20), STR_21(20), 
  3333 ;;		 -> STR_20(20), STR_19(20), STR_18(20), STR_17(7), 
  3334 ;;		 -> STR_15(13), STR_12(7), STR_10(13), 
  3335 ;; Auto vars:     Size  Location     Type
  3336 ;;  f              12   78[COMRAM] struct _IO_FILE
  3337 ;;  ap              2   76[COMRAM] PTR void [1]
  3338 ;;		 -> ?_sprintf(2), 
  3339 ;;  ret             2    0        int 
  3340 ;; Return value:  Size  Location     Type
  3341 ;;                  2   66[COMRAM] int 
  3342 ;; Registers used:
  3343 ;;		wreg, fsr1l, fsr1h, fsr2l, fsr2h, status,2, status,0, tblptrl, tblptrh, tblptru, prodl, prodh, cstack
  3344 ;; Tracked objects:
  3345 ;;		On entry : 0/0
  3346 ;;		On exit  : 0/0
  3347 ;;		Unchanged: 0/0
  3348 ;; Data sizes:     COMRAM   BANK0   BANK1   BANK2   BANK3   BANK4   BANK5   BANK6   BANK7
  3349 ;;      Params:        10       0       0       0       0       0       0       0       0
  3350 ;;      Locals:        14       0       0       0       0       0       0       0       0
  3351 ;;      Temps:          0       0       0       0       0       0       0       0       0
  3352 ;;      Totals:        24       0       0       0       0       0       0       0       0
  3353 ;;Total ram usage:       24 bytes
  3354 ;; Hardware stack levels used: 1
  3355 ;; Hardware stack levels required when called: 7
  3356 ;; This function calls:
  3357 ;;		_vfprintf
  3358 ;; This function is called by:
  3359 ;;		_Display_Mensagens_Iniciais
  3360 ;;		_Format_Hora
  3361 ;;		_Format_Data
  3362 ;;		_Atualizar_Display_Principal
  3363 ;; This function uses a non-reentrant model
  3364 ;;
  3365                           
  3366                           	psect	text25
  3367   006C68                     __ptext25:
  3368                           	callstack 0
  3369   006C68                     _sprintf:
  3370                           	callstack 22
  3371   006C68  0E47               	movlw	low (?_sprintf+4)
  3372   006C6A  6E4D               	movwf	sprintf@ap^0,c
  3373   006C6C  0E00               	movlw	high (?_sprintf+4)
  3374   006C6E  6E4E               	movwf	(sprintf@ap+1)^0,c
  3375   006C70  C043  F04F         	movff	sprintf@s,sprintf@f
  3376   006C74  C044  F050         	movff	sprintf@s+1,sprintf@f+1
  3377   006C78  0E00               	movlw	0
  3378   006C7A  6E53               	movwf	(sprintf@f+4)^0,c
  3379   006C7C  0E00               	movlw	0
  3380   006C7E  6E52               	movwf	(sprintf@f+3)^0,c
  3381   006C80  0E00               	movlw	0
  3382   006C82  6E5A               	movwf	(sprintf@f+11)^0,c
  3383   006C84  0E00               	movlw	0
  3384   006C86  6E59               	movwf	(sprintf@f+10)^0,c
  3385   006C88  0E4F               	movlw	low sprintf@f
  3386   006C8A  6E3B               	movwf	vfprintf@fp^0,c
  3387   006C8C  0E00               	movlw	high sprintf@f
  3388   006C8E  6E3C               	movwf	(vfprintf@fp+1)^0,c
  3389   006C90  C045  F03D         	movff	sprintf@fmt,vfprintf@fmt
  3390   006C94  C046  F03E         	movff	sprintf@fmt+1,vfprintf@fmt+1
  3391   006C98  0E4D               	movlw	low sprintf@ap
  3392   006C9A  6E3F               	movwf	vfprintf@ap^0,c
  3393   006C9C  0E00               	movlw	high sprintf@ap
  3394   006C9E  6E40               	movwf	(vfprintf@ap+1)^0,c
  3395   006CA0  ECA6  F036         	call	_vfprintf	;wreg free
  3396   006CA4  5052               	movf	(sprintf@f+3)^0,w,c
  3397   006CA6  2443               	addwf	sprintf@s^0,w,c
  3398   006CA8  6ED9               	movwf	fsr2l,c
  3399   006CAA  5053               	movf	(sprintf@f+4)^0,w,c
  3400   006CAC  2044               	addwfc	(sprintf@s+1)^0,w,c
  3401   006CAE  6EDA               	movwf	fsr2h,c
  3402   006CB0  6ADF               	clrf	indf2,c
  3403   006CB2  0012               	return		;funcret
  3404   006CB4                     __end_of_sprintf:
  3405                           	callstack 0
  3406                           
  3407 ;; *************** function _vfprintf *****************
  3408 ;; Defined at:
  3409 ;;		line 1546 in file "/Applications/microchip/xc8/v2.41/pic/sources/c99/common/doprnt.c"
  3410 ;; Parameters:    Size  Location     Type
  3411 ;;  fp              2   58[COMRAM] PTR struct _IO_FILE
  3412 ;;		 -> sprintf@f(12), 
  3413 ;;  fmt             2   60[COMRAM] PTR const unsigned char 
  3414 ;;		 -> STR_24(15), STR_23(15), STR_22(20), STR_21(20), 
  3415 ;;		 -> STR_20(20), STR_19(20), STR_18(20), STR_17(7), 
  3416 ;;		 -> STR_15(13), STR_12(7), STR_10(13), 
  3417 ;;  ap              2   62[COMRAM] PTR PTR void 
  3418 ;;		 -> sprintf@ap(2), 
  3419 ;; Auto vars:     Size  Location     Type
  3420 ;;  cfmt            2   64[COMRAM] PTR unsigned char 
  3421 ;;		 -> STR_24(15), STR_23(15), STR_22(20), STR_21(20), 
  3422 ;;		 -> STR_20(20), STR_19(20), STR_18(20), STR_17(7), 
  3423 ;;		 -> STR_15(13), STR_12(7), STR_10(13), 
  3424 ;; Return value:  Size  Location     Type
  3425 ;;                  2   58[COMRAM] int 
  3426 ;; Registers used:
  3427 ;;		wreg, fsr1l, fsr1h, fsr2l, fsr2h, status,2, status,0, tblptrl, tblptrh, tblptru, prodl, prodh, cstack
  3428 ;; Tracked objects:
  3429 ;;		On entry : 0/0
  3430 ;;		On exit  : 0/0
  3431 ;;		Unchanged: 0/0
  3432 ;; Data sizes:     COMRAM   BANK0   BANK1   BANK2   BANK3   BANK4   BANK5   BANK6   BANK7
  3433 ;;      Params:         6       0       0       0       0       0       0       0       0
  3434 ;;      Locals:         2       0       0       0       0       0       0       0       0
  3435 ;;      Temps:          0       0       0       0       0       0       0       0       0
  3436 ;;      Totals:         8       0       0       0       0       0       0       0       0
  3437 ;;Total ram usage:        8 bytes
  3438 ;; Hardware stack levels used: 1
  3439 ;; Hardware stack levels required when called: 6
  3440 ;; This function calls:
  3441 ;;		_vfpfcnvrt
  3442 ;; This function is called by:
  3443 ;;		_sprintf
  3444 ;; This function uses a non-reentrant model
  3445 ;;
  3446                           
  3447                           	psect	text26
  3448   006D4C                     __ptext26:
  3449                           	callstack 0
  3450   006D4C                     _vfprintf:
  3451                           	callstack 22
  3452   006D4C                     
  3453                           ;/Applications/microchip/xc8/v2.41/pic/sources/c99/common/doprnt.c: 1546: int vfprintf(F
      +                          ILE *fp, const char *fmt, va_list ap);/Applications/microchip/xc8/v2.41/pic/sources/c99/
      +                          common/doprnt.c: 1547: {;/Applications/microchip/xc8/v2.41/pic/sources/c99/common/doprnt
      +                          .c: 1549:     char *cfmt;;/Applications/microchip/xc8/v2.41/pic/sources/c99/common/doprn
      +                          t.c: 1551:     cfmt = (char *)fmt;
  3454   006D4C  C03D  F041         	movff	vfprintf@fmt,vfprintf@cfmt
  3455   006D50  C03E  F042         	movff	vfprintf@fmt+1,vfprintf@cfmt+1
  3456                           
  3457                           ;/Applications/microchip/xc8/v2.41/pic/sources/c99/common/doprnt.c: 1555:     while (*cf
      +                          mt) {
  3458   006D54  EFBA  F036         	goto	l2577
  3459   006D58                     l2575:
  3460                           
  3461                           ;/Applications/microchip/xc8/v2.41/pic/sources/c99/common/doprnt.c: 1559:    vfpfcnvrt(f
      +                          p, &cfmt, ap);
  3462   006D58  C03B  F029         	movff	vfprintf@fp,vfpfcnvrt@fp
  3463   006D5C  C03C  F02A         	movff	vfprintf@fp+1,vfpfcnvrt@fp+1
  3464   006D60  0E41               	movlw	low vfprintf@cfmt
  3465   006D62  6E2B               	movwf	vfpfcnvrt@fmt^0,c
  3466   006D64  0E00               	movlw	high vfprintf@cfmt
  3467   006D66  6E2C               	movwf	(vfpfcnvrt@fmt+1)^0,c
  3468   006D68  C03F  F02D         	movff	vfprintf@ap,vfpfcnvrt@ap
  3469   006D6C  C040  F02E         	movff	vfprintf@ap+1,vfpfcnvrt@ap+1
  3470   006D70  ECD5  F03D         	call	_vfpfcnvrt	;wreg free
  3471   006D74                     l2577:
  3472                           
  3473                           ;/Applications/microchip/xc8/v2.41/pic/sources/c99/common/doprnt.c: 1555:     while (*cf
      +                          mt) {
  3474   006D74  C041  FFF6         	movff	vfprintf@cfmt,tblptrl
  3475   006D78  C042  FFF7         	movff	vfprintf@cfmt+1,tblptrh
  3476   006D7C                     	if	0	;tblptru may be non-zero
  3477   006D7C                     	endif
  3478   006D7C                     	if	0	;tblptru may be non-zero
  3479   006D7C                     	endif
  3480   006D7C  0008               	tblrd		*
  3481   006D7E  50F5               	movf	tablat,w,c
  3482   006D80  0900               	iorlw	0
  3483   006D82  A4D8               	btfss	status,2,c
  3484   006D84  EFC6  F036         	goto	u1821
  3485   006D88  EFC8  F036         	goto	u1820
  3486   006D8C                     u1821:
  3487   006D8C  EFAC  F036         	goto	l2575
  3488   006D90                     u1820:
  3489   006D90                     
  3490                           ;/Applications/microchip/xc8/v2.41/pic/sources/c99/common/doprnt.c: 1564:  return 0;
  3491   006D90  0E00               	movlw	0
  3492   006D92  6E3C               	movwf	(?_vfprintf+1)^0,c
  3493   006D94  0E00               	movlw	0
  3494   006D96  6E3B               	movwf	?_vfprintf^0,c
  3495   006D98  0012               	return		;funcret
  3496   006D9A                     __end_of_vfprintf:
  3497                           	callstack 0
  3498                           
  3499 ;; *************** function _vfpfcnvrt *****************
  3500 ;; Defined at:
  3501 ;;		line 1048 in file "/Applications/microchip/xc8/v2.41/pic/sources/c99/common/doprnt.c"
  3502 ;; Parameters:    Size  Location     Type
  3503 ;;  fp              2   40[COMRAM] PTR struct _IO_FILE
  3504 ;;		 -> sprintf@f(12), 
  3505 ;;  fmt             2   42[COMRAM] PTR PTR unsigned char 
  3506 ;;		 -> vfprintf@cfmt(2), 
  3507 ;;  ap              2   44[COMRAM] PTR PTR void 
  3508 ;;		 -> sprintf@ap(2), 
  3509 ;; Auto vars:     Size  Location     Type
  3510 ;;  convarg         4   48[COMRAM] struct .
  3511 ;;  cp              2   56[COMRAM] PTR unsigned char 
  3512 ;;		 -> STR_24(15), STR_23(15), STR_22(20), STR_21(20), 
  3513 ;;		 -> STR_20(20), STR_19(20), STR_18(20), STR_17(7), 
  3514 ;;		 -> STR_15(13), STR_12(7), STR_10(13), 
  3515 ;;  done            2   52[COMRAM] int 
  3516 ;;  i               2    0        int 
  3517 ;;  c               1    0        unsigned char 
  3518 ;; Return value:  Size  Location     Type
  3519 ;;                  1    wreg      void 
  3520 ;; Registers used:
  3521 ;;		wreg, fsr1l, fsr1h, fsr2l, fsr2h, status,2, status,0, tblptrl, tblptrh, tblptru, prodl, prodh, cstack
  3522 ;; Tracked objects:
  3523 ;;		On entry : 0/0
  3524 ;;		On exit  : 0/0
  3525 ;;		Unchanged: 0/0
  3526 ;; Data sizes:     COMRAM   BANK0   BANK1   BANK2   BANK3   BANK4   BANK5   BANK6   BANK7
  3527 ;;      Params:         6       0       0       0       0       0       0       0       0
  3528 ;;      Locals:        10       0       0       0       0       0       0       0       0
  3529 ;;      Temps:          2       0       0       0       0       0       0       0       0
  3530 ;;      Totals:        18       0       0       0       0       0       0       0       0
  3531 ;;Total ram usage:       18 bytes
  3532 ;; Hardware stack levels used: 1
  3533 ;; Hardware stack levels required when called: 5
  3534 ;; This function calls:
  3535 ;;		_dtoa
  3536 ;;		_fputc
  3537 ;;		_read_prec_or_width
  3538 ;;		_stoa
  3539 ;;		_strncmp
  3540 ;; This function is called by:
  3541 ;;		_vfprintf
  3542 ;; This function uses a non-reentrant model
  3543 ;;
  3544                           
  3545                           	psect	text27
  3546   007BAA                     __ptext27:
  3547                           	callstack 0
  3548   007BAA                     _vfpfcnvrt:
  3549                           	callstack 22
  3550   007BAA                     
  3551                           ;/Applications/microchip/xc8/v2.41/pic/sources/c99/common/doprnt.c: 1048: vfpfcnvrt(FILE
      +                           *fp, char *fmt[], va_list ap);/Applications/microchip/xc8/v2.41/pic/sources/c99/common/
      +                          doprnt.c: 1049: {;/Applications/microchip/xc8/v2.41/pic/sources/c99/common/doprnt.c: 105
      +                          0:     char c, *cp;;/Applications/microchip/xc8/v2.41/pic/sources/c99/common/doprnt.c: 1
      +                          051:     int done, i;;/Applications/microchip/xc8/v2.41/pic/sources/c99/common/doprnt.c:
      +                           1059:  } convarg;;/Applications/microchip/xc8/v2.41/pic/sources/c99/common/doprnt.c: 10
      +                          62:     if ((*fmt)[0] == '%') {
  3552   007BAA  C02B  FFD9         	movff	vfpfcnvrt@fmt,fsr2l
  3553   007BAE  C02C  FFDA         	movff	vfpfcnvrt@fmt+1,fsr2h
  3554   007BB2  CFDE FFF6          	movff	postinc2,tblptrl
  3555   007BB6  CFDD FFF7          	movff	postdec2,tblptrh
  3556   007BBA                     	if	0	;tblptru may be non-zero
  3557   007BBA                     	endif
  3558   007BBA                     	if	0	;tblptru may be non-zero
  3559   007BBA                     	endif
  3560   007BBA  0008               	tblrd		*
  3561   007BBC  50F5               	movf	tablat,w,c
  3562   007BBE  0A25               	xorlw	37
  3563   007BC0  A4D8               	btfss	status,2,c
  3564   007BC2  EFE5  F03D         	goto	u1671
  3565   007BC6  EFE7  F03D         	goto	u1670
  3566   007BCA                     u1671:
  3567   007BCA  EF38  F03F         	goto	l2517
  3568   007BCE                     u1670:
  3569   007BCE                     
  3570                           ;/Applications/microchip/xc8/v2.41/pic/sources/c99/common/doprnt.c: 1063:         ++*fmt
      +                          ;
  3571   007BCE  C02B  FFD9         	movff	vfpfcnvrt@fmt,fsr2l
  3572   007BD2  C02C  FFDA         	movff	vfpfcnvrt@fmt+1,fsr2h
  3573   007BD6  2ADE               	incf	postinc2,f,c
  3574   007BD8  0E00               	movlw	0
  3575   007BDA  22DD               	addwfc	postdec2,f,c
  3576   007BDC                     
  3577                           ;/Applications/microchip/xc8/v2.41/pic/sources/c99/common/doprnt.c: 1065:         flags 
      +                          = width = 0;
  3578   007BDC  0E00               	movlw	0
  3579   007BDE  0100               	movlb	0	; () banked
  3580   007BE0  6F61               	movwf	(_width+1)& (0+255),b
  3581   007BE2  0E00               	movlw	0
  3582   007BE4  6F60               	movwf	_width& (0+255),b
  3583   007BE6  C060  F05F         	movff	_width,_flags
  3584   007BEA                     
  3585                           ; BSR set to: 0
  3586                           ;/Applications/microchip/xc8/v2.41/pic/sources/c99/common/doprnt.c: 1066:         prec =
      +                           -1;
  3587   007BEA  6962               	setf	_prec& (0+255),b
  3588   007BEC  6963               	setf	(_prec+1)& (0+255),b
  3589   007BEE                     
  3590                           ; BSR set to: 0
  3591                           ;/Applications/microchip/xc8/v2.41/pic/sources/c99/common/doprnt.c: 1070:         done =
      +                           0;
  3592   007BEE  0E00               	movlw	0
  3593   007BF0  6E36               	movwf	(vfpfcnvrt@done+1)^0,c
  3594   007BF2  0E00               	movlw	0
  3595   007BF4  6E35               	movwf	vfpfcnvrt@done^0,c
  3596                           
  3597                           ;/Applications/microchip/xc8/v2.41/pic/sources/c99/common/doprnt.c: 1071:         while 
      +                          (!done) {
  3598   007BF6  EF27  F03E         	goto	l2469
  3599   007BFA                     l2459:
  3600                           
  3601                           ;/Applications/microchip/xc8/v2.41/pic/sources/c99/common/doprnt.c: 1081:               
      +                                flags |= (1 << 1);
  3602   007BFA  825F               	bsf	_flags^0,1,c
  3603   007BFC                     
  3604                           ;/Applications/microchip/xc8/v2.41/pic/sources/c99/common/doprnt.c: 1082:               
      +                                ++*fmt;
  3605   007BFC  C02B  FFD9         	movff	vfpfcnvrt@fmt,fsr2l
  3606   007C00  C02C  FFDA         	movff	vfpfcnvrt@fmt+1,fsr2h
  3607   007C04  2ADE               	incf	postinc2,f,c
  3608   007C06  0E00               	movlw	0
  3609   007C08  22DD               	addwfc	postdec2,f,c
  3610                           
  3611                           ;/Applications/microchip/xc8/v2.41/pic/sources/c99/common/doprnt.c: 1083:               
      +                                break;
  3612   007C0A  EF27  F03E         	goto	l2469
  3613   007C0E                     l2463:
  3614                           
  3615                           ;/Applications/microchip/xc8/v2.41/pic/sources/c99/common/doprnt.c: 1104:               
      +                                done = 1;
  3616   007C0E  0E00               	movlw	0
  3617   007C10  6E36               	movwf	(vfpfcnvrt@done+1)^0,c
  3618   007C12  0E01               	movlw	1
  3619   007C14  6E35               	movwf	vfpfcnvrt@done^0,c
  3620                           
  3621                           ;/Applications/microchip/xc8/v2.41/pic/sources/c99/common/doprnt.c: 1105:               
      +                                break;
  3622   007C16  EF27  F03E         	goto	l2469
  3623   007C1A                     l2467:
  3624   007C1A  C02B  FFD9         	movff	vfpfcnvrt@fmt,fsr2l
  3625   007C1E  C02C  FFDA         	movff	vfpfcnvrt@fmt+1,fsr2h
  3626   007C22  CFDE FFF6          	movff	postinc2,tblptrl
  3627   007C26  CFDD FFF7          	movff	postdec2,tblptrh
  3628   007C2A                     	if	0	;tblptru may be non-zero
  3629   007C2A                     	endif
  3630   007C2A                     	if	0	;tblptru may be non-zero
  3631   007C2A                     	endif
  3632   007C2A  0008               	tblrd		*
  3633   007C2C  50F5               	movf	tablat,w,c
  3634   007C2E  6E2F               	movwf	??_vfpfcnvrt^0,c
  3635   007C30  6A30               	clrf	(??_vfpfcnvrt+1)^0,c
  3636                           
  3637                           ; Switch on 2 bytes has been partitioned into a top level switch of size 1, and 1 sub-sw
      +                          itches
  3638                           ; Switch size 1, requested type "simple"
  3639                           ; Number of cases is 1, Range of values is 0 to 0
  3640                           ; switch strategies available:
  3641                           ; Name         Instructions Cycles
  3642                           ; simple_byte            4     3 (average)
  3643                           ;	Chosen strategy is simple_byte
  3644   007C32  5030               	movf	(??_vfpfcnvrt+1)^0,w,c
  3645   007C34  0A00               	xorlw	0	; case 0
  3646   007C36  B4D8               	btfsc	status,2,c
  3647   007C38  EF20  F03E         	goto	l3105
  3648   007C3C  EF07  F03E         	goto	l2463
  3649   007C40                     l3105:
  3650                           
  3651                           ; Switch size 1, requested type "simple"
  3652                           ; Number of cases is 1, Range of values is 48 to 48
  3653                           ; switch strategies available:
  3654                           ; Name         Instructions Cycles
  3655                           ; simple_byte            4     3 (average)
  3656                           ;	Chosen strategy is simple_byte
  3657   007C40  502F               	movf	??_vfpfcnvrt^0,w,c
  3658   007C42  0A30               	xorlw	48	; case 48
  3659   007C44  B4D8               	btfsc	status,2,c
  3660   007C46  EFFD  F03D         	goto	l2459
  3661   007C4A  EF07  F03E         	goto	l2463
  3662   007C4E                     l2469:
  3663                           
  3664                           ;/Applications/microchip/xc8/v2.41/pic/sources/c99/common/doprnt.c: 1071:         while 
      +                          (!done) {
  3665   007C4E  5035               	movf	vfpfcnvrt@done^0,w,c
  3666   007C50  1036               	iorwf	(vfpfcnvrt@done+1)^0,w,c
  3667   007C52  B4D8               	btfsc	status,2,c
  3668   007C54  EF2E  F03E         	goto	u1681
  3669   007C58  EF30  F03E         	goto	u1680
  3670   007C5C                     u1681:
  3671   007C5C  EF0D  F03E         	goto	l2467
  3672   007C60                     u1680:
  3673   007C60                     
  3674                           ;/Applications/microchip/xc8/v2.41/pic/sources/c99/common/doprnt.c: 1117:   width = read
      +                          _prec_or_width(fmt, ap);
  3675   007C60  C02B  F007         	movff	vfpfcnvrt@fmt,read_prec_or_width@fmt
  3676   007C64  C02C  F008         	movff	vfpfcnvrt@fmt+1,read_prec_or_width@fmt+1
  3677   007C68  C02D  F009         	movff	vfpfcnvrt@ap,read_prec_or_width@ap
  3678   007C6C  C02E  F00A         	movff	vfpfcnvrt@ap+1,read_prec_or_width@ap+1
  3679   007C70  ECFD  F039         	call	_read_prec_or_width	;wreg free
  3680   007C74  C007  F060         	movff	?_read_prec_or_width,_width
  3681   007C78  C008  F061         	movff	?_read_prec_or_width+1,_width+1
  3682   007C7C                     
  3683                           ;/Applications/microchip/xc8/v2.41/pic/sources/c99/common/doprnt.c: 1118:   if (width < 
      +                          0) {
  3684   007C7C  0100               	movlb	0	; () banked
  3685   007C7E  BF61               	btfsc	(_width+1)& (0+255),7,b
  3686   007C80  EF46  F03E         	goto	u1690
  3687   007C84  EF44  F03E         	goto	u1691
  3688   007C88                     u1691:
  3689   007C88  EF4B  F03E         	goto	l2477
  3690   007C8C                     u1690:
  3691   007C8C                     
  3692                           ; BSR set to: 0
  3693                           ;/Applications/microchip/xc8/v2.41/pic/sources/c99/common/doprnt.c: 1119:    flags |= (1
      +                           << 0);
  3694   007C8C  805F               	bsf	_flags^0,0,c
  3695                           
  3696                           ;/Applications/microchip/xc8/v2.41/pic/sources/c99/common/doprnt.c: 1120:    width = -wi
      +                          dth;
  3697   007C8E  6D60               	negf	_width& (0+255),b
  3698   007C90  1F61               	comf	(_width+1)& (0+255),f,b
  3699   007C92  B0D8               	btfsc	status,0,c
  3700   007C94  2B61               	incf	(_width+1)& (0+255),f,b
  3701   007C96                     l2477:
  3702                           
  3703                           ; BSR set to: 0
  3704                           ;/Applications/microchip/xc8/v2.41/pic/sources/c99/common/doprnt.c: 1143:   cp = *fmt;
  3705   007C96  C02B  FFD9         	movff	vfpfcnvrt@fmt,fsr2l
  3706   007C9A  C02C  FFDA         	movff	vfpfcnvrt@fmt+1,fsr2h
  3707   007C9E  CFDE F039          	movff	postinc2,vfpfcnvrt@cp
  3708   007CA2  CFDD F03A          	movff	postdec2,vfpfcnvrt@cp+1
  3709   007CA6                     
  3710                           ; BSR set to: 0
  3711                           ;/Applications/microchip/xc8/v2.41/pic/sources/c99/common/doprnt.c: 1213:   if (*cp == '
      +                          d' || *cp == 'i') {
  3712   007CA6  C039  FFF6         	movff	vfpfcnvrt@cp,tblptrl
  3713   007CAA  C03A  FFF7         	movff	vfpfcnvrt@cp+1,tblptrh
  3714   007CAE                     	if	0	;tblptru may be non-zero
  3715   007CAE                     	endif
  3716   007CAE                     	if	0	;tblptru may be non-zero
  3717   007CAE                     	endif
  3718   007CAE  0008               	tblrd		*
  3719   007CB0  50F5               	movf	tablat,w,c
  3720   007CB2  0A64               	xorlw	100
  3721   007CB4  B4D8               	btfsc	status,2,c
  3722   007CB6  EF5F  F03E         	goto	u1701
  3723   007CBA  EF61  F03E         	goto	u1700
  3724   007CBE                     u1701:
  3725   007CBE  EF6F  F03E         	goto	l2483
  3726   007CC2                     u1700:
  3727   007CC2                     
  3728                           ; BSR set to: 0
  3729   007CC2  C039  FFF6         	movff	vfpfcnvrt@cp,tblptrl
  3730   007CC6  C03A  FFF7         	movff	vfpfcnvrt@cp+1,tblptrh
  3731   007CCA                     	if	0	;tblptru may be non-zero
  3732   007CCA                     	endif
  3733   007CCA                     	if	0	;tblptru may be non-zero
  3734   007CCA                     	endif
  3735   007CCA  0008               	tblrd		*
  3736   007CCC  50F5               	movf	tablat,w,c
  3737   007CCE  0A69               	xorlw	105
  3738   007CD0  A4D8               	btfss	status,2,c
  3739   007CD2  EF6D  F03E         	goto	u1711
  3740   007CD6  EF6F  F03E         	goto	u1710
  3741   007CDA                     u1711:
  3742   007CDA  EF9D  F03E         	goto	l2489
  3743   007CDE                     u1710:
  3744   007CDE                     l2483:
  3745                           
  3746                           ; BSR set to: 0
  3747                           ;/Applications/microchip/xc8/v2.41/pic/sources/c99/common/doprnt.c: 1256:    convarg.sin
      +                          t = (vfpf_sint_t)(int)(*(int *)__va_arg(*(int **)ap, (int)0));
  3748   007CDE  C02D  FFD9         	movff	vfpfcnvrt@ap,fsr2l
  3749   007CE2  C02E  FFDA         	movff	vfpfcnvrt@ap+1,fsr2h
  3750   007CE6  CFDF F02F          	movff	indf2,??_vfpfcnvrt
  3751   007CEA  0E02               	movlw	2
  3752   007CEC  26DE               	addwf	postinc2,f,c
  3753   007CEE  CFDF F030          	movff	indf2,??_vfpfcnvrt+1
  3754   007CF2  0E00               	movlw	0
  3755   007CF4  22DD               	addwfc	postdec2,f,c
  3756   007CF6  C02F  FFD9         	movff	??_vfpfcnvrt,fsr2l
  3757   007CFA  C030  FFDA         	movff	??_vfpfcnvrt+1,fsr2h
  3758   007CFE  CFDE F031          	movff	postinc2,vfpfcnvrt@convarg
  3759   007D02  CFDD F032          	movff	postdec2,vfpfcnvrt@convarg+1
  3760                           
  3761                           ;/Applications/microchip/xc8/v2.41/pic/sources/c99/common/doprnt.c: 1258:    *fmt = cp+1
      +                          ;
  3762   007D06  0E01               	movlw	1
  3763   007D08  2439               	addwf	vfpfcnvrt@cp^0,w,c
  3764   007D0A  6E2F               	movwf	??_vfpfcnvrt^0,c
  3765   007D0C  0E00               	movlw	0
  3766   007D0E  203A               	addwfc	(vfpfcnvrt@cp+1)^0,w,c
  3767   007D10  6E30               	movwf	(??_vfpfcnvrt+1)^0,c
  3768   007D12  C02B  FFD9         	movff	vfpfcnvrt@fmt,fsr2l
  3769   007D16  C02C  FFDA         	movff	vfpfcnvrt@fmt+1,fsr2h
  3770   007D1A  C02F  FFDE         	movff	??_vfpfcnvrt,postinc2
  3771   007D1E  C030  FFDD         	movff	??_vfpfcnvrt+1,postdec2
  3772   007D22                     
  3773                           ; BSR set to: 0
  3774                           ;/Applications/microchip/xc8/v2.41/pic/sources/c99/common/doprnt.c: 1259:    return (voi
      +                          d) dtoa(fp, convarg.sint);;	Return value of _vfpfcnvrt is never used
  3775   007D22  C029  F01C         	movff	vfpfcnvrt@fp,dtoa@fp
  3776   007D26  C02A  F01D         	movff	vfpfcnvrt@fp+1,dtoa@fp+1
  3777   007D2A  C031  F01E         	movff	vfpfcnvrt@convarg,dtoa@d
  3778   007D2E  C032  F01F         	movff	vfpfcnvrt@convarg+1,dtoa@d+1
  3779   007D32  ECF1  F03B         	call	_dtoa	;wreg free
  3780   007D36  EF4C  F03F         	goto	l1166
  3781   007D3A                     l2489:
  3782                           
  3783                           ; BSR set to: 0
  3784                           ;/Applications/microchip/xc8/v2.41/pic/sources/c99/common/doprnt.c: 1409:         if (*f
      +                          mt[0] == 's' || !strncmp(*fmt, "lls", ((sizeof("lls")/sizeof("lls"[0]))-1))) {
  3785   007D3A  C02B  FFD9         	movff	vfpfcnvrt@fmt,fsr2l
  3786   007D3E  C02C  FFDA         	movff	vfpfcnvrt@fmt+1,fsr2h
  3787   007D42  CFDE FFF6          	movff	postinc2,tblptrl
  3788   007D46  CFDD FFF7          	movff	postdec2,tblptrh
  3789   007D4A                     	if	0	;tblptru may be non-zero
  3790   007D4A                     	endif
  3791   007D4A                     	if	0	;tblptru may be non-zero
  3792   007D4A                     	endif
  3793   007D4A  0008               	tblrd		*
  3794   007D4C  50F5               	movf	tablat,w,c
  3795   007D4E  0A73               	xorlw	115
  3796   007D50  B4D8               	btfsc	status,2,c
  3797   007D52  EFAD  F03E         	goto	u1721
  3798   007D56  EFAF  F03E         	goto	u1720
  3799   007D5A                     u1721:
  3800   007D5A  EFCA  F03E         	goto	l2493
  3801   007D5E                     u1720:
  3802   007D5E                     
  3803                           ; BSR set to: 0
  3804   007D5E  C02B  FFD9         	movff	vfpfcnvrt@fmt,fsr2l
  3805   007D62  C02C  FFDA         	movff	vfpfcnvrt@fmt+1,fsr2h
  3806   007D66  CFDE F001          	movff	postinc2,strncmp@_l
  3807   007D6A  CFDD F002          	movff	postdec2,strncmp@_l+1
  3808   007D6E  0EFA               	movlw	low STR_25
  3809   007D70  6E03               	movwf	strncmp@_r^0,c
  3810   007D72  0E7F               	movlw	high STR_25
  3811   007D74  6E04               	movwf	(strncmp@_r+1)^0,c
  3812   007D76  0E00               	movlw	0
  3813   007D78  6E06               	movwf	(strncmp@n+1)^0,c
  3814   007D7A  0E03               	movlw	3
  3815   007D7C  6E05               	movwf	strncmp@n^0,c
  3816   007D7E  ECC5  F03A         	call	_strncmp	;wreg free
  3817   007D82  5001               	movf	?_strncmp^0,w,c
  3818   007D84  1002               	iorwf	(?_strncmp+1)^0,w,c
  3819   007D86  A4D8               	btfss	status,2,c
  3820   007D88  EFC8  F03E         	goto	u1731
  3821   007D8C  EFCA  F03E         	goto	u1730
  3822   007D90                     u1731:
  3823   007D90  EF0A  F03F         	goto	l2505
  3824   007D94                     u1730:
  3825   007D94                     l2493:
  3826                           
  3827                           ;/Applications/microchip/xc8/v2.41/pic/sources/c99/common/doprnt.c: 1411:    *fmt += *fm
      +                          t[0] == 's' ? 1 : ((sizeof("lls")/sizeof("lls"[0]))-1);
  3828   007D94  C02B  FFD9         	movff	vfpfcnvrt@fmt,fsr2l
  3829   007D98  C02C  FFDA         	movff	vfpfcnvrt@fmt+1,fsr2h
  3830   007D9C  CFDE FFF6          	movff	postinc2,tblptrl
  3831   007DA0  CFDD FFF7          	movff	postdec2,tblptrh
  3832   007DA4                     	if	0	;tblptru may be non-zero
  3833   007DA4                     	endif
  3834   007DA4                     	if	0	;tblptru may be non-zero
  3835   007DA4                     	endif
  3836   007DA4  0008               	tblrd		*
  3837   007DA6  50F5               	movf	tablat,w,c
  3838   007DA8  0A73               	xorlw	115
  3839   007DAA  B4D8               	btfsc	status,2,c
  3840   007DAC  EFDA  F03E         	goto	u1741
  3841   007DB0  EFDC  F03E         	goto	u1740
  3842   007DB4                     u1741:
  3843   007DB4  EFE2  F03E         	goto	l2497
  3844   007DB8                     u1740:
  3845   007DB8  0E00               	movlw	0
  3846   007DBA  6E38               	movwf	(_vfpfcnvrt$1312+1)^0,c
  3847   007DBC  0E03               	movlw	3
  3848   007DBE  6E37               	movwf	_vfpfcnvrt$1312^0,c
  3849   007DC0  EFE6  F03E         	goto	l2499
  3850   007DC4                     l2497:
  3851   007DC4  0E00               	movlw	0
  3852   007DC6  6E38               	movwf	(_vfpfcnvrt$1312+1)^0,c
  3853   007DC8  0E01               	movlw	1
  3854   007DCA  6E37               	movwf	_vfpfcnvrt$1312^0,c
  3855   007DCC                     l2499:
  3856   007DCC  C02B  FFD9         	movff	vfpfcnvrt@fmt,fsr2l
  3857   007DD0  C02C  FFDA         	movff	vfpfcnvrt@fmt+1,fsr2h
  3858   007DD4  5037               	movf	_vfpfcnvrt$1312^0,w,c
  3859   007DD6  26DE               	addwf	postinc2,f,c
  3860   007DD8  5038               	movf	(_vfpfcnvrt$1312+1)^0,w,c
  3861   007DDA  22DD               	addwfc	postdec2,f,c
  3862   007DDC                     
  3863                           ;/Applications/microchip/xc8/v2.41/pic/sources/c99/common/doprnt.c: 1412:             re
      +                          turn (void) stoa(fp, (*(char * *)__va_arg(*(char * **)ap, (char *)0)));;	Return value of
      +                           _vfpfcnvrt is never used
  3864   007DDC  C029  F00A         	movff	vfpfcnvrt@fp,stoa@fp
  3865   007DE0  C02A  F00B         	movff	vfpfcnvrt@fp+1,stoa@fp+1
  3866   007DE4  C02D  FFD9         	movff	vfpfcnvrt@ap,fsr2l
  3867   007DE8  C02E  FFDA         	movff	vfpfcnvrt@ap+1,fsr2h
  3868   007DEC  CFDF F02F          	movff	indf2,??_vfpfcnvrt
  3869   007DF0  0E02               	movlw	2
  3870   007DF2  26DE               	addwf	postinc2,f,c
  3871   007DF4  CFDF F030          	movff	indf2,??_vfpfcnvrt+1
  3872   007DF8  0E00               	movlw	0
  3873   007DFA  22DD               	addwfc	postdec2,f,c
  3874   007DFC  C02F  FFD9         	movff	??_vfpfcnvrt,fsr2l
  3875   007E00  C030  FFDA         	movff	??_vfpfcnvrt+1,fsr2h
  3876   007E04  CFDE F00C          	movff	postinc2,stoa@s
  3877   007E08  CFDD F00D          	movff	postdec2,stoa@s+1
  3878   007E0C  EC34  F03B         	call	_stoa	;wreg free
  3879   007E10  EF4C  F03F         	goto	l1166
  3880   007E14                     l2505:
  3881                           
  3882                           ;/Applications/microchip/xc8/v2.41/pic/sources/c99/common/doprnt.c: 1527:         if ((*
      +                          fmt)[0] == '%') {
  3883   007E14  C02B  FFD9         	movff	vfpfcnvrt@fmt,fsr2l
  3884   007E18  C02C  FFDA         	movff	vfpfcnvrt@fmt+1,fsr2h
  3885   007E1C  CFDE FFF6          	movff	postinc2,tblptrl
  3886   007E20  CFDD FFF7          	movff	postdec2,tblptrh
  3887   007E24                     	if	0	;tblptru may be non-zero
  3888   007E24                     	endif
  3889   007E24                     	if	0	;tblptru may be non-zero
  3890   007E24                     	endif
  3891   007E24  0008               	tblrd		*
  3892   007E26  50F5               	movf	tablat,w,c
  3893   007E28  0A25               	xorlw	37
  3894   007E2A  A4D8               	btfss	status,2,c
  3895   007E2C  EF1A  F03F         	goto	u1751
  3896   007E30  EF1C  F03F         	goto	u1750
  3897   007E34                     u1751:
  3898   007E34  EF2F  F03F         	goto	l2513
  3899   007E38                     u1750:
  3900   007E38                     
  3901                           ;/Applications/microchip/xc8/v2.41/pic/sources/c99/common/doprnt.c: 1528:             ++
      +                          *fmt;
  3902   007E38  C02B  FFD9         	movff	vfpfcnvrt@fmt,fsr2l
  3903   007E3C  C02C  FFDA         	movff	vfpfcnvrt@fmt+1,fsr2h
  3904   007E40  2ADE               	incf	postinc2,f,c
  3905   007E42  0E00               	movlw	0
  3906   007E44  22DD               	addwfc	postdec2,f,c
  3907   007E46                     
  3908                           ;/Applications/microchip/xc8/v2.41/pic/sources/c99/common/doprnt.c: 1529:             fp
      +                          utc((int)'%', fp);
  3909   007E46  0E00               	movlw	0
  3910   007E48  6E02               	movwf	(fputc@c+1)^0,c
  3911   007E4A  0E25               	movlw	37
  3912   007E4C  6E01               	movwf	fputc@c^0,c
  3913   007E4E  C029  F003         	movff	vfpfcnvrt@fp,fputc@fp
  3914   007E52  C02A  F004         	movff	vfpfcnvrt@fp+1,fputc@fp+1
  3915   007E56  EC60  F03A         	call	_fputc	;wreg free
  3916   007E5A  EF4C  F03F         	goto	l1166
  3917   007E5E                     l2513:
  3918                           
  3919                           ;/Applications/microchip/xc8/v2.41/pic/sources/c99/common/doprnt.c: 1535:         ++*fmt
      +                          ;
  3920   007E5E  C02B  FFD9         	movff	vfpfcnvrt@fmt,fsr2l
  3921   007E62  C02C  FFDA         	movff	vfpfcnvrt@fmt+1,fsr2h
  3922   007E66  2ADE               	incf	postinc2,f,c
  3923   007E68  0E00               	movlw	0
  3924   007E6A  22DD               	addwfc	postdec2,f,c
  3925   007E6C  EF4C  F03F         	goto	l1166
  3926   007E70                     l2517:
  3927                           
  3928                           ;/Applications/microchip/xc8/v2.41/pic/sources/c99/common/doprnt.c: 1540:     fputc((int
      +                          )(*fmt)[0], fp);
  3929   007E70  C02B  FFD9         	movff	vfpfcnvrt@fmt,fsr2l
  3930   007E74  C02C  FFDA         	movff	vfpfcnvrt@fmt+1,fsr2h
  3931   007E78  CFDE FFF6          	movff	postinc2,tblptrl
  3932   007E7C  CFDD FFF7          	movff	postdec2,tblptrh
  3933   007E80                     	if	0	;tblptru may be non-zero
  3934   007E80                     	endif
  3935   007E80                     	if	0	;tblptru may be non-zero
  3936   007E80                     	endif
  3937   007E80  0008               	tblrd		*
  3938   007E82  50F5               	movf	tablat,w,c
  3939   007E84  6E01               	movwf	fputc@c^0,c
  3940   007E86  6A02               	clrf	(fputc@c+1)^0,c
  3941   007E88  C029  F003         	movff	vfpfcnvrt@fp,fputc@fp
  3942   007E8C  C02A  F004         	movff	vfpfcnvrt@fp+1,fputc@fp+1
  3943   007E90  EC60  F03A         	call	_fputc	;wreg free
  3944   007E94  EF2F  F03F         	goto	l2513
  3945   007E98                     l1166:
  3946   007E98  0012               	return		;funcret
  3947   007E9A                     __end_of_vfpfcnvrt:
  3948                           	callstack 0
  3949                           
  3950 ;; *************** function _strncmp *****************
  3951 ;; Defined at:
  3952 ;;		line 3 in file "/Applications/microchip/xc8/v2.41/pic/sources/c99/common/strncmp.c"
  3953 ;; Parameters:    Size  Location     Type
  3954 ;;  _l              2    0[COMRAM] PTR const unsigned char 
  3955 ;;		 -> STR_24(15), STR_23(15), STR_22(20), STR_21(20), 
  3956 ;;		 -> STR_20(20), STR_19(20), STR_18(20), STR_17(7), 
  3957 ;;		 -> STR_15(13), STR_12(7), STR_10(13), 
  3958 ;;  _r              2    2[COMRAM] PTR const unsigned char 
  3959 ;;		 -> STR_27(4), 
  3960 ;;  n               2    4[COMRAM] unsigned int 
  3961 ;; Auto vars:     Size  Location     Type
  3962 ;;  r               2    9[COMRAM] PTR const unsigned char 
  3963 ;;		 -> STR_27(4), 
  3964 ;;  l               2    7[COMRAM] PTR const unsigned char 
  3965 ;;		 -> STR_24(15), STR_23(15), STR_22(20), STR_21(20), 
  3966 ;;		 -> STR_20(20), STR_19(20), STR_18(20), STR_17(7), 
  3967 ;;		 -> STR_15(13), STR_12(7), STR_10(13), 
  3968 ;; Return value:  Size  Location     Type
  3969 ;;                  2    0[COMRAM] int 
  3970 ;; Registers used:
  3971 ;;		wreg, status,2, status,0, tblptrl, tblptrh, tblptru
  3972 ;; Tracked objects:
  3973 ;;		On entry : 0/0
  3974 ;;		On exit  : 0/0
  3975 ;;		Unchanged: 0/0
  3976 ;; Data sizes:     COMRAM   BANK0   BANK1   BANK2   BANK3   BANK4   BANK5   BANK6   BANK7
  3977 ;;      Params:         6       0       0       0       0       0       0       0       0
  3978 ;;      Locals:         4       0       0       0       0       0       0       0       0
  3979 ;;      Temps:          1       0       0       0       0       0       0       0       0
  3980 ;;      Totals:        11       0       0       0       0       0       0       0       0
  3981 ;;Total ram usage:       11 bytes
  3982 ;; Hardware stack levels used: 1
  3983 ;; This function calls:
  3984 ;;		Nothing
  3985 ;; This function is called by:
  3986 ;;		_vfpfcnvrt
  3987 ;; This function uses a non-reentrant model
  3988 ;;
  3989                           
  3990                           	psect	text28
  3991   00758A                     __ptext28:
  3992                           	callstack 0
  3993   00758A                     _strncmp:
  3994                           	callstack 26
  3995   00758A  C001  F008         	movff	strncmp@_l,strncmp@l
  3996   00758E  C002  F009         	movff	strncmp@_l+1,strncmp@l+1
  3997   007592  C003  F00A         	movff	strncmp@_r,strncmp@r
  3998   007596  C004  F00B         	movff	strncmp@_r+1,strncmp@r+1
  3999   00759A  0605               	decf	strncmp@n^0,f,c
  4000   00759C  A0D8               	btfss	status,0,c
  4001   00759E  0606               	decf	(strncmp@n+1)^0,f,c
  4002   0075A0  2805               	incf	strncmp@n^0,w,c
  4003   0075A2  E106               	bnz	u1531
  4004   0075A4  2806               	incf	(strncmp@n+1)^0,w,c
  4005   0075A6  A4D8               	btfss	status,2,c
  4006   0075A8  EFD8  F03A         	goto	u1531
  4007   0075AC  EFDA  F03A         	goto	u1530
  4008   0075B0                     u1531:
  4009   0075B0  EFE7  F03A         	goto	l2407
  4010   0075B4                     u1530:
  4011   0075B4  0E00               	movlw	0
  4012   0075B6  6E02               	movwf	(?_strncmp+1)^0,c
  4013   0075B8  0E00               	movlw	0
  4014   0075BA  6E01               	movwf	?_strncmp^0,c
  4015   0075BC  EF33  F03B         	goto	l1220
  4016   0075C0                     l2405:
  4017   0075C0  4A08               	infsnz	strncmp@l^0,f,c
  4018   0075C2  2A09               	incf	(strncmp@l+1)^0,f,c
  4019   0075C4  4A0A               	infsnz	strncmp@r^0,f,c
  4020   0075C6  2A0B               	incf	(strncmp@r+1)^0,f,c
  4021   0075C8  0605               	decf	strncmp@n^0,f,c
  4022   0075CA  A0D8               	btfss	status,0,c
  4023   0075CC  0606               	decf	(strncmp@n+1)^0,f,c
  4024   0075CE                     l2407:
  4025   0075CE  C008  FFF6         	movff	strncmp@l,tblptrl
  4026   0075D2  C009  FFF7         	movff	strncmp@l+1,tblptrh
  4027   0075D6                     	if	0	;tblptru may be non-zero
  4028   0075D6                     	endif
  4029   0075D6                     	if	0	;tblptru may be non-zero
  4030   0075D6                     	endif
  4031   0075D6  0008               	tblrd		*
  4032   0075D8  50F5               	movf	tablat,w,c
  4033   0075DA  0900               	iorlw	0
  4034   0075DC  B4D8               	btfsc	status,2,c
  4035   0075DE  EFF3  F03A         	goto	u1541
  4036   0075E2  EFF5  F03A         	goto	u1540
  4037   0075E6                     u1541:
  4038   0075E6  EF21  F03B         	goto	l2415
  4039   0075EA                     u1540:
  4040   0075EA  C00A  FFF6         	movff	strncmp@r,tblptrl
  4041   0075EE  C00B  FFF7         	movff	strncmp@r+1,tblptrh
  4042   0075F2                     	if	0	;tblptru may be non-zero
  4043   0075F2                     	endif
  4044   0075F2                     	if	0	;tblptru may be non-zero
  4045   0075F2                     	endif
  4046   0075F2  0008               	tblrd		*
  4047   0075F4  50F5               	movf	tablat,w,c
  4048   0075F6  0900               	iorlw	0
  4049   0075F8  B4D8               	btfsc	status,2,c
  4050   0075FA  EF01  F03B         	goto	u1551
  4051   0075FE  EF03  F03B         	goto	u1550
  4052   007602                     u1551:
  4053   007602  EF21  F03B         	goto	l2415
  4054   007606                     u1550:
  4055   007606  5005               	movf	strncmp@n^0,w,c
  4056   007608  1006               	iorwf	(strncmp@n+1)^0,w,c
  4057   00760A  B4D8               	btfsc	status,2,c
  4058   00760C  EF0A  F03B         	goto	u1561
  4059   007610  EF0C  F03B         	goto	u1560
  4060   007614                     u1561:
  4061   007614  EF21  F03B         	goto	l2415
  4062   007618                     u1560:
  4063   007618  C008  FFF6         	movff	strncmp@l,tblptrl
  4064   00761C  C009  FFF7         	movff	strncmp@l+1,tblptrh
  4065   007620                     	if	0	;tblptru may be non-zero
  4066   007620                     	endif
  4067   007620                     	if	0	;tblptru may be non-zero
  4068   007620                     	endif
  4069   007620  0008               	tblrd		*
  4070   007622  CFF5 F007          	movff	tablat,??_strncmp
  4071   007626  C00A  FFF6         	movff	strncmp@r,tblptrl
  4072   00762A  C00B  FFF7         	movff	strncmp@r+1,tblptrh
  4073   00762E                     	if	0	;tblptru may be non-zero
  4074   00762E                     	endif
  4075   00762E                     	if	0	;tblptru may be non-zero
  4076   00762E                     	endif
  4077   00762E  0008               	tblrd		*
  4078   007630  50F5               	movf	tablat,w,c
  4079   007632  1807               	xorwf	??_strncmp^0,w,c
  4080   007634  B4D8               	btfsc	status,2,c
  4081   007636  EF1F  F03B         	goto	u1571
  4082   00763A  EF21  F03B         	goto	u1570
  4083   00763E                     u1571:
  4084   00763E  EFE0  F03A         	goto	l2405
  4085   007642                     u1570:
  4086   007642                     l2415:
  4087   007642  C008  FFF6         	movff	strncmp@l,tblptrl
  4088   007646  C009  FFF7         	movff	strncmp@l+1,tblptrh
  4089   00764A                     	if	0	;tblptru may be non-zero
  4090   00764A                     	endif
  4091   00764A                     	if	0	;tblptru may be non-zero
  4092   00764A                     	endif
  4093   00764A  0008               	tblrd		*
  4094   00764C  CFF5 F007          	movff	tablat,??_strncmp
  4095   007650  C00A  FFF6         	movff	strncmp@r,tblptrl
  4096   007654  C00B  FFF7         	movff	strncmp@r+1,tblptrh
  4097   007658                     	if	0	;tblptru may be non-zero
  4098   007658                     	endif
  4099   007658                     	if	0	;tblptru may be non-zero
  4100   007658                     	endif
  4101   007658  0008               	tblrd		*
  4102   00765A  50F5               	movf	tablat,w,c
  4103   00765C  5C07               	subwf	??_strncmp^0,w,c
  4104   00765E  6E01               	movwf	?_strncmp^0,c
  4105   007660  6A02               	clrf	(?_strncmp+1)^0,c
  4106   007662  A0D8               	btfss	status,0,c
  4107   007664  0602               	decf	(?_strncmp+1)^0,f,c
  4108   007666                     l1220:
  4109   007666  0012               	return		;funcret
  4110   007668                     __end_of_strncmp:
  4111                           	callstack 0
  4112                           
  4113 ;; *************** function _stoa *****************
  4114 ;; Defined at:
  4115 ;;		line 862 in file "/Applications/microchip/xc8/v2.41/pic/sources/c99/common/doprnt.c"
  4116 ;; Parameters:    Size  Location     Type
  4117 ;;  fp              2    9[COMRAM] PTR struct _IO_FILE
  4118 ;;		 -> sprintf@f(12), 
  4119 ;;  s               2   11[COMRAM] PTR unsigned char 
  4120 ;;		 -> rtc.year(1), rtc.month(1), rtc.date(1), rtc.hour(1), 
  4121 ;;		 -> rtc.min(1), rtc.sec(1), ?_sprintf(2), data_buffer(11), 
  4122 ;;		 -> hora_buffer(9), 
  4123 ;; Auto vars:     Size  Location     Type
  4124 ;;  nuls            7   14[COMRAM] unsigned char [7]
  4125 ;;  l               2   29[COMRAM] int 
  4126 ;;  p               2   27[COMRAM] int 
  4127 ;;  cp              2   25[COMRAM] PTR unsigned char 
  4128 ;;		 -> rtc.year(1), rtc.month(1), rtc.date(1), rtc.hour(1), 
  4129 ;;		 -> rtc.min(1), rtc.sec(1), stoa@nuls(7), ?_sprintf(2), 
  4130 ;;		 -> data_buffer(11), hora_buffer(9), 
  4131 ;;  w               2   23[COMRAM] int 
  4132 ;;  i               2   21[COMRAM] int 
  4133 ;; Return value:  Size  Location     Type
  4134 ;;                  1    wreg      void 
  4135 ;; Registers used:
  4136 ;;		wreg, fsr1l, fsr1h, fsr2l, fsr2h, status,2, status,0, cstack
  4137 ;; Tracked objects:
  4138 ;;		On entry : 0/0
  4139 ;;		On exit  : 0/0
  4140 ;;		Unchanged: 0/0
  4141 ;; Data sizes:     COMRAM   BANK0   BANK1   BANK2   BANK3   BANK4   BANK5   BANK6   BANK7
  4142 ;;      Params:         4       0       0       0       0       0       0       0       0
  4143 ;;      Locals:        17       0       0       0       0       0       0       0       0
  4144 ;;      Temps:          1       0       0       0       0       0       0       0       0
  4145 ;;      Totals:        22       0       0       0       0       0       0       0       0
  4146 ;;Total ram usage:       22 bytes
  4147 ;; Hardware stack levels used: 1
  4148 ;; Hardware stack levels required when called: 2
  4149 ;; This function calls:
  4150 ;;		_fputc
  4151 ;;		_strlen
  4152 ;; This function is called by:
  4153 ;;		_vfpfcnvrt
  4154 ;; This function uses a non-reentrant model
  4155 ;;
  4156                           
  4157                           	psect	text29
  4158   007668                     __ptext29:
  4159                           	callstack 0
  4160   007668                     _stoa:
  4161                           	callstack 24
  4162   007668                     
  4163                           ;/Applications/microchip/xc8/v2.41/pic/sources/c99/common/doprnt.c: 862: static void sto
      +                          a(FILE *fp, char *s);/Applications/microchip/xc8/v2.41/pic/sources/c99/common/doprnt.c: 
      +                          863: {;/Applications/microchip/xc8/v2.41/pic/sources/c99/common/doprnt.c: 864:     char 
      +                          *cp, nuls[] = "(null)";
  4164   007668  EE20  F0C6         	lfsr	2,stoa@F1156
  4165   00766C  EE10  F00F         	lfsr	1,stoa@nuls
  4166   007670  0E06               	movlw	6
  4167   007672                     u1421:
  4168   007672  CFDB FFE3          	movff	plusw2,plusw1
  4169   007676  06E8               	decf	wreg,f,c
  4170   007678  E2FC               	bc	u1421
  4171   00767A                     
  4172                           ;/Applications/microchip/xc8/v2.41/pic/sources/c99/common/doprnt.c: 865:     int i, l, p
      +                          , w;;/Applications/microchip/xc8/v2.41/pic/sources/c99/common/doprnt.c: 868:     cp = s;
  4173   00767A  C00C  F01A         	movff	stoa@s,stoa@cp
  4174   00767E  C00D  F01B         	movff	stoa@s+1,stoa@cp+1
  4175   007682                     
  4176                           ;/Applications/microchip/xc8/v2.41/pic/sources/c99/common/doprnt.c: 869:     if (!cp) {
  4177   007682  501A               	movf	stoa@cp^0,w,c
  4178   007684  101B               	iorwf	(stoa@cp+1)^0,w,c
  4179   007686  A4D8               	btfss	status,2,c
  4180   007688  EF48  F03B         	goto	u1431
  4181   00768C  EF4A  F03B         	goto	u1430
  4182   007690                     u1431:
  4183   007690  EF4E  F03B         	goto	l2353
  4184   007694                     u1430:
  4185   007694                     
  4186                           ;/Applications/microchip/xc8/v2.41/pic/sources/c99/common/doprnt.c: 870:         cp = nu
      +                          ls;
  4187   007694  0E0F               	movlw	low stoa@nuls
  4188   007696  6E1A               	movwf	stoa@cp^0,c
  4189   007698  0E00               	movlw	high stoa@nuls
  4190   00769A  6E1B               	movwf	(stoa@cp+1)^0,c
  4191   00769C                     l2353:
  4192                           
  4193                           ;/Applications/microchip/xc8/v2.41/pic/sources/c99/common/doprnt.c: 874:     l = (int)st
      +                          rlen(cp);
  4194   00769C  C01A  F001         	movff	stoa@cp,strlen@s
  4195   0076A0  C01B  F002         	movff	stoa@cp+1,strlen@s+1
  4196   0076A4  EC55  F035         	call	_strlen	;wreg free
  4197   0076A8  C001  F01E         	movff	?_strlen,stoa@l
  4198   0076AC  C002  F01F         	movff	?_strlen+1,stoa@l+1
  4199   0076B0                     
  4200                           ;/Applications/microchip/xc8/v2.41/pic/sources/c99/common/doprnt.c: 875:     p = prec;
  4201   0076B0  C062  F01C         	movff	_prec,stoa@p
  4202   0076B4  C063  F01D         	movff	_prec+1,stoa@p+1
  4203   0076B8                     
  4204                           ;/Applications/microchip/xc8/v2.41/pic/sources/c99/common/doprnt.c: 876:     l = (!(p < 
      +                          0) && (p < l)) ? p : l;
  4205   0076B8  BE1D               	btfsc	(stoa@p+1)^0,7,c
  4206   0076BA  EF61  F03B         	goto	u1441
  4207   0076BE  EF63  F03B         	goto	u1440
  4208   0076C2                     u1441:
  4209   0076C2  EF78  F03B         	goto	l1129
  4210   0076C6                     u1440:
  4211   0076C6  501E               	movf	stoa@l^0,w,c
  4212   0076C8  5C1C               	subwf	stoa@p^0,w,c
  4213   0076CA  501D               	movf	(stoa@p+1)^0,w,c
  4214   0076CC  0A80               	xorlw	128
  4215   0076CE  6E0E               	movwf	??_stoa^0,c
  4216   0076D0  501F               	movf	(stoa@l+1)^0,w,c
  4217   0076D2  0A80               	xorlw	128
  4218   0076D4  580E               	subwfb	??_stoa^0,w,c
  4219   0076D6  A0D8               	btfss	status,0,c
  4220   0076D8  EF70  F03B         	goto	u1451
  4221   0076DC  EF72  F03B         	goto	u1450
  4222   0076E0                     u1451:
  4223   0076E0  EF74  F03B         	goto	l1127
  4224   0076E4                     u1450:
  4225   0076E4  EF78  F03B         	goto	l1129
  4226   0076E8                     l1127:
  4227   0076E8  C01C  F01E         	movff	stoa@p,stoa@l
  4228   0076EC  C01D  F01F         	movff	stoa@p+1,stoa@l+1
  4229   0076F0                     l1129:
  4230                           
  4231                           ;/Applications/microchip/xc8/v2.41/pic/sources/c99/common/doprnt.c: 877:     p = l;
  4232   0076F0  C01E  F01C         	movff	stoa@l,stoa@p
  4233   0076F4  C01F  F01D         	movff	stoa@l+1,stoa@p+1
  4234                           
  4235                           ;/Applications/microchip/xc8/v2.41/pic/sources/c99/common/doprnt.c: 878:     w = width;
  4236   0076F8  C060  F018         	movff	_width,stoa@w
  4237   0076FC  C061  F019         	movff	_width+1,stoa@w+1
  4238                           
  4239                           ;/Applications/microchip/xc8/v2.41/pic/sources/c99/common/doprnt.c: 882:     if (!(flags
      +                           & (1 << 0))) {
  4240   007700  B05F               	btfsc	_flags^0,0,c
  4241   007702  EF85  F03B         	goto	u1461
  4242   007706  EF87  F03B         	goto	u1460
  4243   00770A                     u1461:
  4244   00770A  EFA4  F03B         	goto	l2369
  4245   00770E                     u1460:
  4246   00770E  EF95  F03B         	goto	l2367
  4247   007712                     l2363:
  4248                           
  4249                           ;/Applications/microchip/xc8/v2.41/pic/sources/c99/common/doprnt.c: 885:             fpu
      +                          tc(' ', fp);
  4250   007712  0E00               	movlw	0
  4251   007714  6E02               	movwf	(fputc@c+1)^0,c
  4252   007716  0E20               	movlw	32
  4253   007718  6E01               	movwf	fputc@c^0,c
  4254   00771A  C00A  F003         	movff	stoa@fp,fputc@fp
  4255   00771E  C00B  F004         	movff	stoa@fp+1,fputc@fp+1
  4256   007722  EC60  F03A         	call	_fputc	;wreg free
  4257   007726                     
  4258                           ;/Applications/microchip/xc8/v2.41/pic/sources/c99/common/doprnt.c: 886:             ++l
      +                          ;
  4259   007726  4A1E               	infsnz	stoa@l^0,f,c
  4260   007728  2A1F               	incf	(stoa@l+1)^0,f,c
  4261   00772A                     l2367:
  4262                           
  4263                           ;/Applications/microchip/xc8/v2.41/pic/sources/c99/common/doprnt.c: 884:         while (
      +                          l < w) {
  4264   00772A  5018               	movf	stoa@w^0,w,c
  4265   00772C  5C1E               	subwf	stoa@l^0,w,c
  4266   00772E  501F               	movf	(stoa@l+1)^0,w,c
  4267   007730  0A80               	xorlw	128
  4268   007732  6E0E               	movwf	??_stoa^0,c
  4269   007734  5019               	movf	(stoa@w+1)^0,w,c
  4270   007736  0A80               	xorlw	128
  4271   007738  580E               	subwfb	??_stoa^0,w,c
  4272   00773A  A0D8               	btfss	status,0,c
  4273   00773C  EFA2  F03B         	goto	u1471
  4274   007740  EFA4  F03B         	goto	u1470
  4275   007744                     u1471:
  4276   007744  EF89  F03B         	goto	l2363
  4277   007748                     u1470:
  4278   007748                     l2369:
  4279                           
  4280                           ;/Applications/microchip/xc8/v2.41/pic/sources/c99/common/doprnt.c: 893:     i = 0;
  4281   007748  0E00               	movlw	0
  4282   00774A  6E17               	movwf	(stoa@i+1)^0,c
  4283   00774C  0E00               	movlw	0
  4284   00774E  6E16               	movwf	stoa@i^0,c
  4285                           
  4286                           ;/Applications/microchip/xc8/v2.41/pic/sources/c99/common/doprnt.c: 894:     while (i < 
      +                          p) {
  4287   007750  EFBD  F03B         	goto	l2377
  4288   007754                     l2371:
  4289                           
  4290                           ;/Applications/microchip/xc8/v2.41/pic/sources/c99/common/doprnt.c: 895:         fputc(*
      +                          cp, fp);
  4291   007754  C01A  FFD9         	movff	stoa@cp,fsr2l
  4292   007758  C01B  FFDA         	movff	stoa@cp+1,fsr2h
  4293   00775C  50DF               	movf	indf2,w,c
  4294   00775E  6E0E               	movwf	??_stoa^0,c
  4295   007760  500E               	movf	??_stoa^0,w,c
  4296   007762  6E01               	movwf	fputc@c^0,c
  4297   007764  6A02               	clrf	(fputc@c+1)^0,c
  4298   007766  C00A  F003         	movff	stoa@fp,fputc@fp
  4299   00776A  C00B  F004         	movff	stoa@fp+1,fputc@fp+1
  4300   00776E  EC60  F03A         	call	_fputc	;wreg free
  4301   007772                     
  4302                           ;/Applications/microchip/xc8/v2.41/pic/sources/c99/common/doprnt.c: 896:         ++cp;
  4303   007772  4A1A               	infsnz	stoa@cp^0,f,c
  4304   007774  2A1B               	incf	(stoa@cp+1)^0,f,c
  4305   007776                     
  4306                           ;/Applications/microchip/xc8/v2.41/pic/sources/c99/common/doprnt.c: 897:         ++i;
  4307   007776  4A16               	infsnz	stoa@i^0,f,c
  4308   007778  2A17               	incf	(stoa@i+1)^0,f,c
  4309   00777A                     l2377:
  4310                           
  4311                           ;/Applications/microchip/xc8/v2.41/pic/sources/c99/common/doprnt.c: 894:     while (i < 
      +                          p) {
  4312   00777A  501C               	movf	stoa@p^0,w,c
  4313   00777C  5C16               	subwf	stoa@i^0,w,c
  4314   00777E  5017               	movf	(stoa@i+1)^0,w,c
  4315   007780  0A80               	xorlw	128
  4316   007782  6E0E               	movwf	??_stoa^0,c
  4317   007784  501D               	movf	(stoa@p+1)^0,w,c
  4318   007786  0A80               	xorlw	128
  4319   007788  580E               	subwfb	??_stoa^0,w,c
  4320   00778A  A0D8               	btfss	status,0,c
  4321   00778C  EFCA  F03B         	goto	u1481
  4322   007790  EFCC  F03B         	goto	u1480
  4323   007794                     u1481:
  4324   007794  EFAA  F03B         	goto	l2371
  4325   007798                     u1480:
  4326   007798                     
  4327                           ;/Applications/microchip/xc8/v2.41/pic/sources/c99/common/doprnt.c: 902:     if (flags &
      +                           (1 << 0)) {
  4328   007798  A05F               	btfss	_flags^0,0,c
  4329   00779A  EFD1  F03B         	goto	u1491
  4330   00779E  EFD3  F03B         	goto	u1490
  4331   0077A2                     u1491:
  4332   0077A2  EFF0  F03B         	goto	l1143
  4333   0077A6                     u1490:
  4334   0077A6  EFE1  F03B         	goto	l2385
  4335   0077AA                     l2381:
  4336                           
  4337                           ;/Applications/microchip/xc8/v2.41/pic/sources/c99/common/doprnt.c: 904:             fpu
      +                          tc(' ', fp);
  4338   0077AA  0E00               	movlw	0
  4339   0077AC  6E02               	movwf	(fputc@c+1)^0,c
  4340   0077AE  0E20               	movlw	32
  4341   0077B0  6E01               	movwf	fputc@c^0,c
  4342   0077B2  C00A  F003         	movff	stoa@fp,fputc@fp
  4343   0077B6  C00B  F004         	movff	stoa@fp+1,fputc@fp+1
  4344   0077BA  EC60  F03A         	call	_fputc	;wreg free
  4345   0077BE                     
  4346                           ;/Applications/microchip/xc8/v2.41/pic/sources/c99/common/doprnt.c: 905:             ++l
      +                          ;
  4347   0077BE  4A1E               	infsnz	stoa@l^0,f,c
  4348   0077C0  2A1F               	incf	(stoa@l+1)^0,f,c
  4349   0077C2                     l2385:
  4350                           
  4351                           ;/Applications/microchip/xc8/v2.41/pic/sources/c99/common/doprnt.c: 903:         while (
      +                          l < w) {
  4352   0077C2  5018               	movf	stoa@w^0,w,c
  4353   0077C4  5C1E               	subwf	stoa@l^0,w,c
  4354   0077C6  501F               	movf	(stoa@l+1)^0,w,c
  4355   0077C8  0A80               	xorlw	128
  4356   0077CA  6E0E               	movwf	??_stoa^0,c
  4357   0077CC  5019               	movf	(stoa@w+1)^0,w,c
  4358   0077CE  0A80               	xorlw	128
  4359   0077D0  580E               	subwfb	??_stoa^0,w,c
  4360   0077D2  A0D8               	btfss	status,0,c
  4361   0077D4  EFEE  F03B         	goto	u1501
  4362   0077D8  EFF0  F03B         	goto	u1500
  4363   0077DC                     u1501:
  4364   0077DC  EFD5  F03B         	goto	l2381
  4365   0077E0                     u1500:
  4366   0077E0                     l1143:
  4367   0077E0  0012               	return		;funcret
  4368   0077E2                     __end_of_stoa:
  4369                           	callstack 0
  4370                           
  4371 ;; *************** function _strlen *****************
  4372 ;; Defined at:
  4373 ;;		line 5 in file "/Applications/microchip/xc8/v2.41/pic/sources/c99/common/strlen.c"
  4374 ;; Parameters:    Size  Location     Type
  4375 ;;  s               2    0[COMRAM] PTR const unsigned char 
  4376 ;;		 -> rtc.year(1), rtc.month(1), rtc.date(1), rtc.hour(1), 
  4377 ;;		 -> rtc.min(1), rtc.sec(1), stoa@nuls(7), ?_sprintf(2), 
  4378 ;;		 -> data_buffer(11), hora_buffer(9), 
  4379 ;; Auto vars:     Size  Location     Type
  4380 ;;  a               2    2[COMRAM] PTR const unsigned char 
  4381 ;;		 -> rtc.year(1), rtc.month(1), rtc.date(1), rtc.hour(1), 
  4382 ;;		 -> rtc.min(1), rtc.sec(1), stoa@nuls(7), ?_sprintf(2), 
  4383 ;;		 -> data_buffer(11), hora_buffer(9), 
  4384 ;; Return value:  Size  Location     Type
  4385 ;;                  2    0[COMRAM] unsigned int 
  4386 ;; Registers used:
  4387 ;;		wreg, fsr2l, fsr2h, status,2, status,0
  4388 ;; Tracked objects:
  4389 ;;		On entry : 0/0
  4390 ;;		On exit  : 0/0
  4391 ;;		Unchanged: 0/0
  4392 ;; Data sizes:     COMRAM   BANK0   BANK1   BANK2   BANK3   BANK4   BANK5   BANK6   BANK7
  4393 ;;      Params:         2       0       0       0       0       0       0       0       0
  4394 ;;      Locals:         2       0       0       0       0       0       0       0       0
  4395 ;;      Temps:          0       0       0       0       0       0       0       0       0
  4396 ;;      Totals:         4       0       0       0       0       0       0       0       0
  4397 ;;Total ram usage:        4 bytes
  4398 ;; Hardware stack levels used: 1
  4399 ;; This function calls:
  4400 ;;		Nothing
  4401 ;; This function is called by:
  4402 ;;		_stoa
  4403 ;; This function uses a non-reentrant model
  4404 ;;
  4405                           
  4406                           	psect	text30
  4407   006AAA                     __ptext30:
  4408                           	callstack 0
  4409   006AAA                     _strlen:
  4410                           	callstack 25
  4411   006AAA  C001  F003         	movff	strlen@s,strlen@a
  4412   006AAE  C002  F004         	movff	strlen@s+1,strlen@a+1
  4413   006AB2  EF5D  F035         	goto	l2281
  4414   006AB6                     l2279:
  4415   006AB6  4A01               	infsnz	strlen@s^0,f,c
  4416   006AB8  2A02               	incf	(strlen@s+1)^0,f,c
  4417   006ABA                     l2281:
  4418   006ABA  C001  FFD9         	movff	strlen@s,fsr2l
  4419   006ABE  C002  FFDA         	movff	strlen@s+1,fsr2h
  4420   006AC2  50DF               	movf	indf2,w,c
  4421   006AC4  A4D8               	btfss	status,2,c
  4422   006AC6  EF67  F035         	goto	u1281
  4423   006ACA  EF69  F035         	goto	u1280
  4424   006ACE                     u1281:
  4425   006ACE  EF5B  F035         	goto	l2279
  4426   006AD2                     u1280:
  4427   006AD2  5003               	movf	strlen@a^0,w,c
  4428   006AD4  5C01               	subwf	strlen@s^0,w,c
  4429   006AD6  6E01               	movwf	?_strlen^0,c
  4430   006AD8  5004               	movf	(strlen@a+1)^0,w,c
  4431   006ADA  5802               	subwfb	(strlen@s+1)^0,w,c
  4432   006ADC  6E02               	movwf	(?_strlen+1)^0,c
  4433   006ADE  0012               	return		;funcret
  4434   006AE0                     __end_of_strlen:
  4435                           	callstack 0
  4436                           
  4437 ;; *************** function _read_prec_or_width *****************
  4438 ;; Defined at:
  4439 ;;		line 1029 in file "/Applications/microchip/xc8/v2.41/pic/sources/c99/common/doprnt.c"
  4440 ;; Parameters:    Size  Location     Type
  4441 ;;  fmt             2    6[COMRAM] PTR PTR const unsigned c
  4442 ;;		 -> vfprintf@cfmt(2), 
  4443 ;;  ap              2    8[COMRAM] PTR PTR void [1]
  4444 ;;		 -> sprintf@ap(2), 
  4445 ;; Auto vars:     Size  Location     Type
  4446 ;;  c               1   12[COMRAM] unsigned char 
  4447 ;;  n               2   13[COMRAM] int 
  4448 ;; Return value:  Size  Location     Type
  4449 ;;                  2    6[COMRAM] int 
  4450 ;; Registers used:
  4451 ;;		wreg, fsr2l, fsr2h, status,2, status,0, tblptrl, tblptrh, tblptru, prodl, prodh, cstack
  4452 ;; Tracked objects:
  4453 ;;		On entry : 0/0
  4454 ;;		On exit  : 0/0
  4455 ;;		Unchanged: 0/0
  4456 ;; Data sizes:     COMRAM   BANK0   BANK1   BANK2   BANK3   BANK4   BANK5   BANK6   BANK7
  4457 ;;      Params:         4       0       0       0       0       0       0       0       0
  4458 ;;      Locals:         3       0       0       0       0       0       0       0       0
  4459 ;;      Temps:          2       0       0       0       0       0       0       0       0
  4460 ;;      Totals:         9       0       0       0       0       0       0       0       0
  4461 ;;Total ram usage:        9 bytes
  4462 ;; Hardware stack levels used: 1
  4463 ;; Hardware stack levels required when called: 1
  4464 ;; This function calls:
  4465 ;;		___wmul
  4466 ;; This function is called by:
  4467 ;;		_vfpfcnvrt
  4468 ;; This function uses a non-reentrant model
  4469 ;;
  4470                           
  4471                           	psect	text31
  4472   0073FA                     __ptext31:
  4473                           	callstack 0
  4474   0073FA                     _read_prec_or_width:
  4475                           	callstack 25
  4476   0073FA                     
  4477                           ;/Applications/microchip/xc8/v2.41/pic/sources/c99/common/doprnt.c: 1030:     int n = 0;
  4478   0073FA  0E00               	movlw	0
  4479   0073FC  6E0F               	movwf	(read_prec_or_width@n+1)^0,c
  4480   0073FE  0E00               	movlw	0
  4481   007400  6E0E               	movwf	read_prec_or_width@n^0,c
  4482   007402                     
  4483                           ;/Applications/microchip/xc8/v2.41/pic/sources/c99/common/doprnt.c: 1031:     if ((*fmt)
      +                          [0] == '*') {
  4484   007402  C007  FFD9         	movff	read_prec_or_width@fmt,fsr2l
  4485   007406  C008  FFDA         	movff	read_prec_or_width@fmt+1,fsr2h
  4486   00740A  CFDE FFF6          	movff	postinc2,tblptrl
  4487   00740E  CFDD FFF7          	movff	postdec2,tblptrh
  4488   007412                     	if	0	;tblptru may be non-zero
  4489   007412                     	endif
  4490   007412                     	if	0	;tblptru may be non-zero
  4491   007412                     	endif
  4492   007412  0008               	tblrd		*
  4493   007414  50F5               	movf	tablat,w,c
  4494   007416  0A2A               	xorlw	42
  4495   007418  A4D8               	btfss	status,2,c
  4496   00741A  EF11  F03A         	goto	u1511
  4497   00741E  EF13  F03A         	goto	u1510
  4498   007422                     u1511:
  4499   007422  EF47  F03A         	goto	l2397
  4500   007426                     u1510:
  4501   007426                     
  4502                           ;/Applications/microchip/xc8/v2.41/pic/sources/c99/common/doprnt.c: 1032:         ++*fmt
      +                          ;
  4503   007426  C007  FFD9         	movff	read_prec_or_width@fmt,fsr2l
  4504   00742A  C008  FFDA         	movff	read_prec_or_width@fmt+1,fsr2h
  4505   00742E  2ADE               	incf	postinc2,f,c
  4506   007430  0E00               	movlw	0
  4507   007432  22DD               	addwfc	postdec2,f,c
  4508                           
  4509                           ;/Applications/microchip/xc8/v2.41/pic/sources/c99/common/doprnt.c: 1033:         n = (*
      +                          (int *)__va_arg(*(int **)*ap, (int)0));
  4510   007434  C009  FFD9         	movff	read_prec_or_width@ap,fsr2l
  4511   007438  C00A  FFDA         	movff	read_prec_or_width@ap+1,fsr2h
  4512   00743C  CFDF F00B          	movff	indf2,??_read_prec_or_width
  4513   007440  0E02               	movlw	2
  4514   007442  26DE               	addwf	postinc2,f,c
  4515   007444  CFDF F00C          	movff	indf2,??_read_prec_or_width+1
  4516   007448  0E00               	movlw	0
  4517   00744A  22DD               	addwfc	postdec2,f,c
  4518   00744C  C00B  FFD9         	movff	??_read_prec_or_width,fsr2l
  4519   007450  C00C  FFDA         	movff	??_read_prec_or_width+1,fsr2h
  4520   007454  CFDE F00E          	movff	postinc2,read_prec_or_width@n
  4521   007458  CFDD F00F          	movff	postdec2,read_prec_or_width@n+1
  4522                           
  4523                           ;/Applications/microchip/xc8/v2.41/pic/sources/c99/common/doprnt.c: 1034:     } else {
  4524   00745C  EF5B  F03A         	goto	l1147
  4525   007460                     l2393:
  4526                           
  4527                           ;/Applications/microchip/xc8/v2.41/pic/sources/c99/common/doprnt.c: 1037:             n 
      +                          = n * 10 + c;
  4528   007460  C00E  F001         	movff	read_prec_or_width@n,___wmul@multiplier
  4529   007464  C00F  F002         	movff	read_prec_or_width@n+1,___wmul@multiplier+1
  4530   007468  0E00               	movlw	0
  4531   00746A  6E04               	movwf	(___wmul@multiplicand+1)^0,c
  4532   00746C  0E0A               	movlw	10
  4533   00746E  6E03               	movwf	___wmul@multiplicand^0,c
  4534   007470  ECF9  F034         	call	___wmul	;wreg free
  4535   007474  500D               	movf	read_prec_or_width@c^0,w,c
  4536   007476  2401               	addwf	?___wmul^0,w,c
  4537   007478  6E0E               	movwf	read_prec_or_width@n^0,c
  4538   00747A  0E00               	movlw	0
  4539   00747C  2002               	addwfc	(?___wmul+1)^0,w,c
  4540   00747E  6E0F               	movwf	(read_prec_or_width@n+1)^0,c
  4541   007480                     
  4542                           ;/Applications/microchip/xc8/v2.41/pic/sources/c99/common/doprnt.c: 1038:             ++
      +                          *fmt;
  4543   007480  C007  FFD9         	movff	read_prec_or_width@fmt,fsr2l
  4544   007484  C008  FFDA         	movff	read_prec_or_width@fmt+1,fsr2h
  4545   007488  2ADE               	incf	postinc2,f,c
  4546   00748A  0E00               	movlw	0
  4547   00748C  22DD               	addwfc	postdec2,f,c
  4548   00748E                     l2397:
  4549                           
  4550                           ;/Applications/microchip/xc8/v2.41/pic/sources/c99/common/doprnt.c: 1036:         while 
      +                          ((c = ((unsigned)(*fmt)[0]) - '0') < 10) {
  4551   00748E  C007  FFD9         	movff	read_prec_or_width@fmt,fsr2l
  4552   007492  C008  FFDA         	movff	read_prec_or_width@fmt+1,fsr2h
  4553   007496  CFDE FFF6          	movff	postinc2,tblptrl
  4554   00749A  CFDD FFF7          	movff	postdec2,tblptrh
  4555   00749E                     	if	0	;tblptru may be non-zero
  4556   00749E                     	endif
  4557   00749E                     	if	0	;tblptru may be non-zero
  4558   00749E                     	endif
  4559   00749E  0008               	tblrd		*
  4560   0074A0  50F5               	movf	tablat,w,c
  4561   0074A2  0FD0               	addlw	208
  4562   0074A4  6E0D               	movwf	read_prec_or_width@c^0,c
  4563   0074A6  0E09               	movlw	9
  4564   0074A8  640D               	cpfsgt	read_prec_or_width@c^0,c
  4565   0074AA  EF59  F03A         	goto	u1521
  4566   0074AE  EF5B  F03A         	goto	u1520
  4567   0074B2                     u1521:
  4568   0074B2  EF30  F03A         	goto	l2393
  4569   0074B6                     u1520:
  4570   0074B6                     l1147:
  4571                           
  4572                           ;/Applications/microchip/xc8/v2.41/pic/sources/c99/common/doprnt.c: 1041:     return n;
  4573   0074B6  C00E  F007         	movff	read_prec_or_width@n,?_read_prec_or_width
  4574   0074BA  C00F  F008         	movff	read_prec_or_width@n+1,?_read_prec_or_width+1
  4575   0074BE  0012               	return		;funcret
  4576   0074C0                     __end_of_read_prec_or_width:
  4577                           	callstack 0
  4578                           
  4579 ;; *************** function ___wmul *****************
  4580 ;; Defined at:
  4581 ;;		line 15 in file "/Applications/microchip/xc8/v2.41/pic/sources/c99/common/Umul16.c"
  4582 ;; Parameters:    Size  Location     Type
  4583 ;;  multiplier      2    0[COMRAM] unsigned int 
  4584 ;;  multiplicand    2    2[COMRAM] unsigned int 
  4585 ;; Auto vars:     Size  Location     Type
  4586 ;;  product         2    4[COMRAM] unsigned int 
  4587 ;; Return value:  Size  Location     Type
  4588 ;;                  2    0[COMRAM] unsigned int 
  4589 ;; Registers used:
  4590 ;;		wreg, status,2, status,0, prodl, prodh
  4591 ;; Tracked objects:
  4592 ;;		On entry : 0/0
  4593 ;;		On exit  : 0/0
  4594 ;;		Unchanged: 0/0
  4595 ;; Data sizes:     COMRAM   BANK0   BANK1   BANK2   BANK3   BANK4   BANK5   BANK6   BANK7
  4596 ;;      Params:         4       0       0       0       0       0       0       0       0
  4597 ;;      Locals:         2       0       0       0       0       0       0       0       0
  4598 ;;      Temps:          0       0       0       0       0       0       0       0       0
  4599 ;;      Totals:         6       0       0       0       0       0       0       0       0
  4600 ;;Total ram usage:        6 bytes
  4601 ;; Hardware stack levels used: 1
  4602 ;; This function calls:
  4603 ;;		Nothing
  4604 ;; This function is called by:
  4605 ;;		_read_prec_or_width
  4606 ;;		_Atualizar_Display_Principal
  4607 ;; This function uses a non-reentrant model
  4608 ;;
  4609                           
  4610                           	psect	text32
  4611   0069F2                     __ptext32:
  4612                           	callstack 0
  4613   0069F2                     ___wmul:
  4614                           	callstack 25
  4615   0069F2  5001               	movf	___wmul@multiplier^0,w,c
  4616   0069F4  0203               	mulwf	___wmul@multiplicand^0,c
  4617   0069F6  CFF3 F005          	movff	prodl,___wmul@product
  4618   0069FA  CFF4 F006          	movff	prodh,___wmul@product+1
  4619   0069FE  5001               	movf	___wmul@multiplier^0,w,c
  4620   006A00  0204               	mulwf	(___wmul@multiplicand+1)^0,c
  4621   006A02  50F3               	movf	243,w,c
  4622   006A04  2606               	addwf	(___wmul@product+1)^0,f,c
  4623   006A06  5002               	movf	(___wmul@multiplier+1)^0,w,c
  4624   006A08  0203               	mulwf	___wmul@multiplicand^0,c
  4625   006A0A  50F3               	movf	243,w,c
  4626   006A0C  2606               	addwf	(___wmul@product+1)^0,f,c
  4627   006A0E  C005  F001         	movff	___wmul@product,?___wmul
  4628   006A12  C006  F002         	movff	___wmul@product+1,?___wmul+1
  4629   006A16  0012               	return		;funcret
  4630   006A18                     __end_of___wmul:
  4631                           	callstack 0
  4632                           
  4633 ;; *************** function _dtoa *****************
  4634 ;; Defined at:
  4635 ;;		line 470 in file "/Applications/microchip/xc8/v2.41/pic/sources/c99/common/doprnt.c"
  4636 ;; Parameters:    Size  Location     Type
  4637 ;;  fp              2   27[COMRAM] PTR struct _IO_FILE
  4638 ;;		 -> sprintf@f(12), 
  4639 ;;  d               2   29[COMRAM] int 
  4640 ;; Auto vars:     Size  Location     Type
  4641 ;;  i               2   37[COMRAM] int 
  4642 ;;  w               2   35[COMRAM] int 
  4643 ;;  p               2   33[COMRAM] int 
  4644 ;;  s               1   39[COMRAM] unsigned char 
  4645 ;; Return value:  Size  Location     Type
  4646 ;;                  1    wreg      void 
  4647 ;; Registers used:
  4648 ;;		wreg, fsr1l, fsr1h, fsr2l, fsr2h, status,2, status,0, cstack
  4649 ;; Tracked objects:
  4650 ;;		On entry : 0/0
  4651 ;;		On exit  : 0/0
  4652 ;;		Unchanged: 0/0
  4653 ;; Data sizes:     COMRAM   BANK0   BANK1   BANK2   BANK3   BANK4   BANK5   BANK6   BANK7
  4654 ;;      Params:         4       0       0       0       0       0       0       0       0
  4655 ;;      Locals:         9       0       0       0       0       0       0       0       0
  4656 ;;      Temps:          0       0       0       0       0       0       0       0       0
  4657 ;;      Totals:        13       0       0       0       0       0       0       0       0
  4658 ;;Total ram usage:       13 bytes
  4659 ;; Hardware stack levels used: 1
  4660 ;; Hardware stack levels required when called: 4
  4661 ;; This function calls:
  4662 ;;		___awdiv
  4663 ;;		___awmod
  4664 ;;		_abs
  4665 ;;		_pad
  4666 ;; This function is called by:
  4667 ;;		_vfpfcnvrt
  4668 ;; This function uses a non-reentrant model
  4669 ;;
  4670                           
  4671                           	psect	text33
  4672   0077E2                     __ptext33:
  4673                           	callstack 0
  4674   0077E2                     _dtoa:
  4675                           	callstack 22
  4676   0077E2                     
  4677                           ;/Applications/microchip/xc8/v2.41/pic/sources/c99/common/doprnt.c: 470: static void dto
      +                          a(FILE *fp, vfpf_sint_t d);/Applications/microchip/xc8/v2.41/pic/sources/c99/common/dopr
      +                          nt.c: 471: {;/Applications/microchip/xc8/v2.41/pic/sources/c99/common/doprnt.c: 472:  ch
      +                          ar s;;/Applications/microchip/xc8/v2.41/pic/sources/c99/common/doprnt.c: 473:     int i,
      +                           p, w;;/Applications/microchip/xc8/v2.41/pic/sources/c99/common/doprnt.c: 476:     s = d
      +                           < 0 ? 1 : 0;
  4678   0077E2  BE1F               	btfsc	(dtoa@d+1)^0,7,c
  4679   0077E4  EFF6  F03B         	goto	u1291
  4680   0077E8  EFF9  F03B         	goto	u1290
  4681   0077EC                     u1291:
  4682   0077EC  0E01               	movlw	1
  4683   0077EE  EFFA  F03B         	goto	u1300
  4684   0077F2                     u1290:
  4685   0077F2  0E00               	movlw	0
  4686   0077F4                     u1300:
  4687   0077F4  6E28               	movwf	dtoa@s^0,c
  4688   0077F6                     
  4689                           ;/Applications/microchip/xc8/v2.41/pic/sources/c99/common/doprnt.c: 477:     if (s) {
  4690   0077F6  5028               	movf	dtoa@s^0,w,c
  4691   0077F8  B4D8               	btfsc	status,2,c
  4692   0077FA  EF01  F03C         	goto	u1311
  4693   0077FE  EF03  F03C         	goto	u1310
  4694   007802                     u1311:
  4695   007802  EF07  F03C         	goto	l2293
  4696   007806                     u1310:
  4697   007806                     
  4698                           ;/Applications/microchip/xc8/v2.41/pic/sources/c99/common/doprnt.c: 478:         d = -d;
  4699   007806  6C1E               	negf	dtoa@d^0,c
  4700   007808  1E1F               	comf	(dtoa@d+1)^0,f,c
  4701   00780A  B0D8               	btfsc	status,0,c
  4702   00780C  2A1F               	incf	(dtoa@d+1)^0,f,c
  4703   00780E                     l2293:
  4704                           
  4705                           ;/Applications/microchip/xc8/v2.41/pic/sources/c99/common/doprnt.c: 483:     if (!(prec 
      +                          < 0)) {
  4706   00780E  0100               	movlb	0	; () banked
  4707   007810  BF63               	btfsc	(_prec+1)& (0+255),7,b
  4708   007812  EF0D  F03C         	goto	u1321
  4709   007816  EF0F  F03C         	goto	u1320
  4710   00781A                     u1321:
  4711   00781A  EF10  F03C         	goto	l2297
  4712   00781E                     u1320:
  4713   00781E                     
  4714                           ; BSR set to: 0
  4715                           ;/Applications/microchip/xc8/v2.41/pic/sources/c99/common/doprnt.c: 484:         flags &
      +                          = ~(1 << 1);
  4716   00781E  925F               	bcf	_flags^0,1,c
  4717   007820                     l2297:
  4718                           
  4719                           ; BSR set to: 0
  4720                           ;/Applications/microchip/xc8/v2.41/pic/sources/c99/common/doprnt.c: 487:     p = (0 <= p
      +                          rec) ? prec : 1;
  4721   007820  BF63               	btfsc	(_prec+1)& (0+255),7,b
  4722   007822  EF17  F03C         	goto	u1330
  4723   007826  EF15  F03C         	goto	u1331
  4724   00782A                     u1331:
  4725   00782A  EF1D  F03C         	goto	l1104
  4726   00782E                     u1330:
  4727   00782E                     
  4728                           ; BSR set to: 0
  4729   00782E  0E00               	movlw	0
  4730   007830  6E23               	movwf	(dtoa@p+1)^0,c
  4731   007832  0E01               	movlw	1
  4732   007834  6E22               	movwf	dtoa@p^0,c
  4733   007836  EF21  F03C         	goto	l1106
  4734   00783A                     l1104:
  4735                           
  4736                           ; BSR set to: 0
  4737   00783A  C062  F022         	movff	_prec,dtoa@p
  4738   00783E  C063  F023         	movff	_prec+1,dtoa@p+1
  4739   007842                     l1106:
  4740                           
  4741                           ; BSR set to: 0
  4742                           ;/Applications/microchip/xc8/v2.41/pic/sources/c99/common/doprnt.c: 488:     w = width;
  4743   007842  C060  F024         	movff	_width,dtoa@w
  4744   007846  C061  F025         	movff	_width+1,dtoa@w+1
  4745   00784A                     
  4746                           ; BSR set to: 0
  4747                           ;/Applications/microchip/xc8/v2.41/pic/sources/c99/common/doprnt.c: 489:     if (s
  4748   00784A  5028               	movf	dtoa@s^0,w,c
  4749   00784C  B4D8               	btfsc	status,2,c
  4750   00784E  EF2B  F03C         	goto	u1341
  4751   007852  EF2D  F03C         	goto	u1340
  4752   007856                     u1341:
  4753   007856  EF44  F03C         	goto	l1107
  4754   00785A                     u1340:
  4755   00785A                     
  4756                           ; BSR set to: 0
  4757                           ;/Applications/microchip/xc8/v2.41/pic/sources/c99/common/doprnt.c: 493:     ) {;/Applic
      +                          ations/microchip/xc8/v2.41/pic/sources/c99/common/doprnt.c: 494:         --w;
  4758   00785A  0624               	decf	dtoa@w^0,f,c
  4759   00785C  A0D8               	btfss	status,0,c
  4760   00785E  0625               	decf	(dtoa@w+1)^0,f,c
  4761   007860                     
  4762                           ; BSR set to: 0
  4763                           ;/Applications/microchip/xc8/v2.41/pic/sources/c99/common/doprnt.c: 495:   s = s ? '-' :
      +                           '+';
  4764   007860  5028               	movf	dtoa@s^0,w,c
  4765   007862  A4D8               	btfss	status,2,c
  4766   007864  EF36  F03C         	goto	u1351
  4767   007868  EF38  F03C         	goto	u1350
  4768   00786C                     u1351:
  4769   00786C  EF3E  F03C         	goto	l2309
  4770   007870                     u1350:
  4771   007870                     
  4772                           ; BSR set to: 0
  4773   007870  0E00               	movlw	0
  4774   007872  6E21               	movwf	(_dtoa$1274+1)^0,c
  4775   007874  0E2B               	movlw	43
  4776   007876  6E20               	movwf	_dtoa$1274^0,c
  4777   007878  EF42  F03C         	goto	l2311
  4778   00787C                     l2309:
  4779                           
  4780                           ; BSR set to: 0
  4781   00787C  0E00               	movlw	0
  4782   00787E  6E21               	movwf	(_dtoa$1274+1)^0,c
  4783   007880  0E2D               	movlw	45
  4784   007882  6E20               	movwf	_dtoa$1274^0,c
  4785   007884                     l2311:
  4786                           
  4787                           ; BSR set to: 0
  4788   007884  C020  F028         	movff	_dtoa$1274,dtoa@s
  4789   007888                     l1107:
  4790                           
  4791                           ; BSR set to: 0
  4792                           ;/Applications/microchip/xc8/v2.41/pic/sources/c99/common/doprnt.c: 505:     i = sizeof(
      +                          dbuf) - 1;
  4793   007888  0E00               	movlw	0
  4794   00788A  6E27               	movwf	(dtoa@i+1)^0,c
  4795   00788C  0E1F               	movlw	31
  4796   00788E  6E26               	movwf	dtoa@i^0,c
  4797   007890                     
  4798                           ; BSR set to: 0
  4799                           ;/Applications/microchip/xc8/v2.41/pic/sources/c99/common/doprnt.c: 506:     dbuf[i] = '
      +                          \0';
  4800   007890  0E00               	movlw	0
  4801   007892  6F95               	movwf	(_dbuf+31)& (0+255),b
  4802                           
  4803                           ;/Applications/microchip/xc8/v2.41/pic/sources/c99/common/doprnt.c: 507:     while (!(i 
      +                          < 1) && (d || (0 < p)
  4804   007894  EF7C  F03C         	goto	l2325
  4805   007898                     l2315:
  4806                           
  4807                           ;/Applications/microchip/xc8/v2.41/pic/sources/c99/common/doprnt.c: 511:     )) {;/Appli
      +                          cations/microchip/xc8/v2.41/pic/sources/c99/common/doprnt.c: 512:         --i;
  4808   007898  0626               	decf	dtoa@i^0,f,c
  4809   00789A  A0D8               	btfss	status,0,c
  4810   00789C  0627               	decf	(dtoa@i+1)^0,f,c
  4811   00789E                     
  4812                           ;/Applications/microchip/xc8/v2.41/pic/sources/c99/common/doprnt.c: 513:         dbuf[i]
      +                           = (char)((int)'0' + abs(d % 10));
  4813   00789E  0E76               	movlw	low _dbuf
  4814   0078A0  2426               	addwf	dtoa@i^0,w,c
  4815   0078A2  6ED9               	movwf	fsr2l,c
  4816   0078A4  0E00               	movlw	high _dbuf
  4817   0078A6  2027               	addwfc	(dtoa@i+1)^0,w,c
  4818   0078A8  6EDA               	movwf	fsr2h,c
  4819   0078AA  C01E  F001         	movff	dtoa@d,___awmod@dividend
  4820   0078AE  C01F  F002         	movff	dtoa@d+1,___awmod@dividend+1
  4821   0078B2  0E00               	movlw	0
  4822   0078B4  6E04               	movwf	(___awmod@divisor+1)^0,c
  4823   0078B6  0E0A               	movlw	10
  4824   0078B8  6E03               	movwf	___awmod@divisor^0,c
  4825   0078BA  EC8C  F038         	call	___awmod	;wreg free
  4826   0078BE  C001  F007         	movff	?___awmod,abs@a
  4827   0078C2  C002  F008         	movff	?___awmod+1,abs@a+1
  4828   0078C6  ECA9  F035         	call	_abs	;wreg free
  4829   0078CA  5007               	movf	?_abs^0,w,c
  4830   0078CC  0F30               	addlw	48
  4831   0078CE  6EDF               	movwf	indf2,c
  4832   0078D0                     
  4833                           ;/Applications/microchip/xc8/v2.41/pic/sources/c99/common/doprnt.c: 514:         --p;
  4834   0078D0  0622               	decf	dtoa@p^0,f,c
  4835   0078D2  A0D8               	btfss	status,0,c
  4836   0078D4  0623               	decf	(dtoa@p+1)^0,f,c
  4837   0078D6                     
  4838                           ;/Applications/microchip/xc8/v2.41/pic/sources/c99/common/doprnt.c: 515:         --w;
  4839   0078D6  0624               	decf	dtoa@w^0,f,c
  4840   0078D8  A0D8               	btfss	status,0,c
  4841   0078DA  0625               	decf	(dtoa@w+1)^0,f,c
  4842   0078DC                     
  4843                           ;/Applications/microchip/xc8/v2.41/pic/sources/c99/common/doprnt.c: 516:         d = d /
      +                           10;
  4844   0078DC  C01E  F001         	movff	dtoa@d,___awdiv@dividend
  4845   0078E0  C01F  F002         	movff	dtoa@d+1,___awdiv@dividend+1
  4846   0078E4  0E00               	movlw	0
  4847   0078E6  6E04               	movwf	(___awdiv@divisor+1)^0,c
  4848   0078E8  0E0A               	movlw	10
  4849   0078EA  6E03               	movwf	___awdiv@divisor^0,c
  4850   0078EC  EC9B  F039         	call	___awdiv	;wreg free
  4851   0078F0  C001  F01E         	movff	?___awdiv,dtoa@d
  4852   0078F4  C002  F01F         	movff	?___awdiv+1,dtoa@d+1
  4853   0078F8                     l2325:
  4854                           
  4855                           ;/Applications/microchip/xc8/v2.41/pic/sources/c99/common/doprnt.c: 507:     while (!(i 
      +                          < 1) && (d || (0 < p)
  4856   0078F8  BE27               	btfsc	(dtoa@i+1)^0,7,c
  4857   0078FA  EF87  F03C         	goto	u1361
  4858   0078FE  5027               	movf	(dtoa@i+1)^0,w,c
  4859   007900  E108               	bnz	u1360
  4860   007902  0426               	decf	dtoa@i^0,w,c
  4861   007904  A0D8               	btfss	status,0,c
  4862   007906  EF87  F03C         	goto	u1361
  4863   00790A  EF89  F03C         	goto	u1360
  4864   00790E                     u1361:
  4865   00790E  EFB3  F03C         	goto	l2335
  4866   007912                     u1360:
  4867   007912  501E               	movf	dtoa@d^0,w,c
  4868   007914  101F               	iorwf	(dtoa@d+1)^0,w,c
  4869   007916  A4D8               	btfss	status,2,c
  4870   007918  EF90  F03C         	goto	u1371
  4871   00791C  EF92  F03C         	goto	u1370
  4872   007920                     u1371:
  4873   007920  EF4C  F03C         	goto	l2315
  4874   007924                     u1370:
  4875   007924  BE23               	btfsc	(dtoa@p+1)^0,7,c
  4876   007926  EF9F  F03C         	goto	u1380
  4877   00792A  5023               	movf	(dtoa@p+1)^0,w,c
  4878   00792C  E106               	bnz	u1381
  4879   00792E  0422               	decf	dtoa@p^0,w,c
  4880   007930  B0D8               	btfsc	status,0,c
  4881   007932  EF9D  F03C         	goto	u1381
  4882   007936  EF9F  F03C         	goto	u1380
  4883   00793A                     u1381:
  4884   00793A  EF4C  F03C         	goto	l2315
  4885   00793E                     u1380:
  4886   00793E  BE25               	btfsc	(dtoa@w+1)^0,7,c
  4887   007940  EFAA  F03C         	goto	u1391
  4888   007944  5025               	movf	(dtoa@w+1)^0,w,c
  4889   007946  E108               	bnz	u1390
  4890   007948  0424               	decf	dtoa@w^0,w,c
  4891   00794A  A0D8               	btfss	status,0,c
  4892   00794C  EFAA  F03C         	goto	u1391
  4893   007950  EFAC  F03C         	goto	u1390
  4894   007954                     u1391:
  4895   007954  EFB3  F03C         	goto	l2335
  4896   007958                     u1390:
  4897   007958  B25F               	btfsc	_flags^0,1,c
  4898   00795A  EFB1  F03C         	goto	u1401
  4899   00795E  EFB3  F03C         	goto	u1400
  4900   007962                     u1401:
  4901   007962  EF4C  F03C         	goto	l2315
  4902   007966                     u1400:
  4903   007966                     l2335:
  4904                           
  4905                           ;/Applications/microchip/xc8/v2.41/pic/sources/c99/common/doprnt.c: 520:     if (s != 0)
      +                           {
  4906   007966  5028               	movf	dtoa@s^0,w,c
  4907   007968  B4D8               	btfsc	status,2,c
  4908   00796A  EFB9  F03C         	goto	u1411
  4909   00796E  EFBB  F03C         	goto	u1410
  4910   007972                     u1411:
  4911   007972  EFC6  F03C         	goto	l2341
  4912   007976                     u1410:
  4913   007976                     
  4914                           ;/Applications/microchip/xc8/v2.41/pic/sources/c99/common/doprnt.c: 521:         --i;
  4915   007976  0626               	decf	dtoa@i^0,f,c
  4916   007978  A0D8               	btfss	status,0,c
  4917   00797A  0627               	decf	(dtoa@i+1)^0,f,c
  4918   00797C                     
  4919                           ;/Applications/microchip/xc8/v2.41/pic/sources/c99/common/doprnt.c: 522:         dbuf[i]
      +                           = s;
  4920   00797C  0E76               	movlw	low _dbuf
  4921   00797E  2426               	addwf	dtoa@i^0,w,c
  4922   007980  6ED9               	movwf	fsr2l,c
  4923   007982  0E00               	movlw	high _dbuf
  4924   007984  2027               	addwfc	(dtoa@i+1)^0,w,c
  4925   007986  6EDA               	movwf	fsr2h,c
  4926   007988  C028  FFDF         	movff	dtoa@s,indf2
  4927   00798C                     l2341:
  4928                           
  4929                           ;/Applications/microchip/xc8/v2.41/pic/sources/c99/common/doprnt.c: 526:     return (voi
      +                          d) pad(fp, &dbuf[i], w);
  4930   00798C  C01C  F011         	movff	dtoa@fp,pad@fp
  4931   007990  C01D  F012         	movff	dtoa@fp+1,pad@fp+1
  4932   007994  0E76               	movlw	low _dbuf
  4933   007996  2426               	addwf	dtoa@i^0,w,c
  4934   007998  6E13               	movwf	pad@buf^0,c
  4935   00799A  0E00               	movlw	high _dbuf
  4936   00799C  2027               	addwfc	(dtoa@i+1)^0,w,c
  4937   00799E  6E14               	movwf	(pad@buf+1)^0,c
  4938   0079A0  C024  F015         	movff	dtoa@w,pad@p
  4939   0079A4  C025  F016         	movff	dtoa@w+1,pad@p+1
  4940   0079A8  EC37  F038         	call	_pad	;wreg free
  4941   0079AC  0012               	return		;funcret
  4942   0079AE                     __end_of_dtoa:
  4943                           	callstack 0
  4944                           
  4945 ;; *************** function _pad *****************
  4946 ;; Defined at:
  4947 ;;		line 152 in file "/Applications/microchip/xc8/v2.41/pic/sources/c99/common/doprnt.c"
  4948 ;; Parameters:    Size  Location     Type
  4949 ;;  fp              2   16[COMRAM] PTR struct _IO_FILE
  4950 ;;		 -> sprintf@f(12), 
  4951 ;;  buf             2   18[COMRAM] PTR unsigned char 
  4952 ;;		 -> dbuf(32), 
  4953 ;;  p               2   20[COMRAM] int 
  4954 ;; Auto vars:     Size  Location     Type
  4955 ;;  w               2   25[COMRAM] int 
  4956 ;;  i               2   23[COMRAM] int 
  4957 ;; Return value:  Size  Location     Type
  4958 ;;                  1    wreg      void 
  4959 ;; Registers used:
  4960 ;;		wreg, fsr1l, fsr1h, fsr2l, fsr2h, status,2, status,0, cstack
  4961 ;; Tracked objects:
  4962 ;;		On entry : 0/0
  4963 ;;		On exit  : 0/0
  4964 ;;		Unchanged: 0/0
  4965 ;; Data sizes:     COMRAM   BANK0   BANK1   BANK2   BANK3   BANK4   BANK5   BANK6   BANK7
  4966 ;;      Params:         6       0       0       0       0       0       0       0       0
  4967 ;;      Locals:         4       0       0       0       0       0       0       0       0
  4968 ;;      Temps:          1       0       0       0       0       0       0       0       0
  4969 ;;      Totals:        11       0       0       0       0       0       0       0       0
  4970 ;;Total ram usage:       11 bytes
  4971 ;; Hardware stack levels used: 1
  4972 ;; Hardware stack levels required when called: 3
  4973 ;; This function calls:
  4974 ;;		_fputc
  4975 ;;		_fputs
  4976 ;; This function is called by:
  4977 ;;		_dtoa
  4978 ;; This function uses a non-reentrant model
  4979 ;;
  4980                           
  4981                           	psect	text34
  4982   00706E                     __ptext34:
  4983                           	callstack 0
  4984   00706E                     _pad:
  4985                           	callstack 22
  4986   00706E                     
  4987                           ;/Applications/microchip/xc8/v2.41/pic/sources/c99/common/doprnt.c: 152: static void pad
      +                          (FILE *fp, char *buf, int p);/Applications/microchip/xc8/v2.41/pic/sources/c99/common/do
      +                          prnt.c: 153: {;/Applications/microchip/xc8/v2.41/pic/sources/c99/common/doprnt.c: 154:  
      +                             int i, w;;/Applications/microchip/xc8/v2.41/pic/sources/c99/common/doprnt.c: 158:    
      +                           if (flags & (1 << 0)) {
  4988   00706E  A05F               	btfss	_flags^0,0,c
  4989   007070  EF3C  F038         	goto	u1231
  4990   007074  EF3E  F038         	goto	u1230
  4991   007078                     u1231:
  4992   007078  EF48  F038         	goto	l2259
  4993   00707C                     u1230:
  4994   00707C                     
  4995                           ;/Applications/microchip/xc8/v2.41/pic/sources/c99/common/doprnt.c: 159:         fputs((
      +                          const char *)buf, fp);
  4996   00707C  C013  F00A         	movff	pad@buf,fputs@s
  4997   007080  C014  F00B         	movff	pad@buf+1,fputs@s+1
  4998   007084  C011  F00C         	movff	pad@fp,fputs@fp
  4999   007088  C012  F00D         	movff	pad@fp+1,fputs@fp+1
  5000   00708C  ECC9  F035         	call	_fputs	;wreg free
  5001   007090                     l2259:
  5002                           
  5003                           ;/Applications/microchip/xc8/v2.41/pic/sources/c99/common/doprnt.c: 164:     w = (p < 0)
      +                           ? 0 : p;
  5004   007090  BE16               	btfsc	(pad@p+1)^0,7,c
  5005   007092  EF4D  F038         	goto	u1241
  5006   007096  EF4F  F038         	goto	u1240
  5007   00709A                     u1241:
  5008   00709A  EF55  F038         	goto	l2263
  5009   00709E                     u1240:
  5010   00709E  C015  F01A         	movff	pad@p,pad@w
  5011   0070A2  C016  F01B         	movff	pad@p+1,pad@w+1
  5012   0070A6  EF59  F038         	goto	l1093
  5013   0070AA                     l2263:
  5014   0070AA  0E00               	movlw	0
  5015   0070AC  6E1B               	movwf	(pad@w+1)^0,c
  5016   0070AE  0E00               	movlw	0
  5017   0070B0  6E1A               	movwf	pad@w^0,c
  5018   0070B2                     l1093:
  5019                           
  5020                           ;/Applications/microchip/xc8/v2.41/pic/sources/c99/common/doprnt.c: 165:     i = 0;
  5021   0070B2  0E00               	movlw	0
  5022   0070B4  6E19               	movwf	(pad@i+1)^0,c
  5023   0070B6  0E00               	movlw	0
  5024   0070B8  6E18               	movwf	pad@i^0,c
  5025                           
  5026                           ;/Applications/microchip/xc8/v2.41/pic/sources/c99/common/doprnt.c: 166:     while (i < 
      +                          w) {
  5027   0070BA  EF6B  F038         	goto	l2269
  5028   0070BE                     l2265:
  5029                           
  5030                           ;/Applications/microchip/xc8/v2.41/pic/sources/c99/common/doprnt.c: 167:         fputc('
      +                           ', fp);
  5031   0070BE  0E00               	movlw	0
  5032   0070C0  6E02               	movwf	(fputc@c+1)^0,c
  5033   0070C2  0E20               	movlw	32
  5034   0070C4  6E01               	movwf	fputc@c^0,c
  5035   0070C6  C011  F003         	movff	pad@fp,fputc@fp
  5036   0070CA  C012  F004         	movff	pad@fp+1,fputc@fp+1
  5037   0070CE  EC60  F03A         	call	_fputc	;wreg free
  5038   0070D2                     
  5039                           ;/Applications/microchip/xc8/v2.41/pic/sources/c99/common/doprnt.c: 168:         ++i;
  5040   0070D2  4A18               	infsnz	pad@i^0,f,c
  5041   0070D4  2A19               	incf	(pad@i+1)^0,f,c
  5042   0070D6                     l2269:
  5043                           
  5044                           ;/Applications/microchip/xc8/v2.41/pic/sources/c99/common/doprnt.c: 166:     while (i < 
      +                          w) {
  5045   0070D6  501A               	movf	pad@w^0,w,c
  5046   0070D8  5C18               	subwf	pad@i^0,w,c
  5047   0070DA  5019               	movf	(pad@i+1)^0,w,c
  5048   0070DC  0A80               	xorlw	128
  5049   0070DE  6E17               	movwf	??_pad^0,c
  5050   0070E0  501B               	movf	(pad@w+1)^0,w,c
  5051   0070E2  0A80               	xorlw	128
  5052   0070E4  5817               	subwfb	??_pad^0,w,c
  5053   0070E6  A0D8               	btfss	status,0,c
  5054   0070E8  EF78  F038         	goto	u1251
  5055   0070EC  EF7A  F038         	goto	u1250
  5056   0070F0                     u1251:
  5057   0070F0  EF5F  F038         	goto	l2265
  5058   0070F4                     u1250:
  5059   0070F4                     
  5060                           ;/Applications/microchip/xc8/v2.41/pic/sources/c99/common/doprnt.c: 173:     if (!(flags
      +                           & (1 << 0))) {
  5061   0070F4  B05F               	btfsc	_flags^0,0,c
  5062   0070F6  EF7F  F038         	goto	u1261
  5063   0070FA  EF81  F038         	goto	u1260
  5064   0070FE                     u1261:
  5065   0070FE  EF8B  F038         	goto	l1098
  5066   007102                     u1260:
  5067   007102                     
  5068                           ;/Applications/microchip/xc8/v2.41/pic/sources/c99/common/doprnt.c: 175:         fputs((
      +                          const char *)buf, fp);
  5069   007102  C013  F00A         	movff	pad@buf,fputs@s
  5070   007106  C014  F00B         	movff	pad@buf+1,fputs@s+1
  5071   00710A  C011  F00C         	movff	pad@fp,fputs@fp
  5072   00710E  C012  F00D         	movff	pad@fp+1,fputs@fp+1
  5073   007112  ECC9  F035         	call	_fputs	;wreg free
  5074   007116                     l1098:
  5075   007116  0012               	return		;funcret
  5076   007118                     __end_of_pad:
  5077                           	callstack 0
  5078                           
  5079 ;; *************** function _fputs *****************
  5080 ;; Defined at:
  5081 ;;		line 8 in file "/Applications/microchip/xc8/v2.41/pic/sources/c99/common/nf_fputs.c"
  5082 ;; Parameters:    Size  Location     Type
  5083 ;;  s               2    9[COMRAM] PTR const unsigned char 
  5084 ;;		 -> dbuf(32), 
  5085 ;;  fp              2   11[COMRAM] PTR struct _IO_FILE
  5086 ;;		 -> sprintf@f(12), 
  5087 ;; Auto vars:     Size  Location     Type
  5088 ;;  i               2   14[COMRAM] int 
  5089 ;;  c               1   13[COMRAM] unsigned char 
  5090 ;; Return value:  Size  Location     Type
  5091 ;;                  2    9[COMRAM] int 
  5092 ;; Registers used:
  5093 ;;		wreg, fsr1l, fsr1h, fsr2l, fsr2h, status,2, status,0, cstack
  5094 ;; Tracked objects:
  5095 ;;		On entry : 0/0
  5096 ;;		On exit  : 0/0
  5097 ;;		Unchanged: 0/0
  5098 ;; Data sizes:     COMRAM   BANK0   BANK1   BANK2   BANK3   BANK4   BANK5   BANK6   BANK7
  5099 ;;      Params:         4       0       0       0       0       0       0       0       0
  5100 ;;      Locals:         3       0       0       0       0       0       0       0       0
  5101 ;;      Temps:          0       0       0       0       0       0       0       0       0
  5102 ;;      Totals:         7       0       0       0       0       0       0       0       0
  5103 ;;Total ram usage:        7 bytes
  5104 ;; Hardware stack levels used: 1
  5105 ;; Hardware stack levels required when called: 2
  5106 ;; This function calls:
  5107 ;;		_fputc
  5108 ;; This function is called by:
  5109 ;;		_pad
  5110 ;; This function uses a non-reentrant model
  5111 ;;
  5112                           
  5113                           	psect	text35
  5114   006B92                     __ptext35:
  5115                           	callstack 0
  5116   006B92                     _fputs:
  5117                           	callstack 22
  5118   006B92  0E00               	movlw	0
  5119   006B94  6E10               	movwf	(fputs@i+1)^0,c
  5120   006B96  0E00               	movlw	0
  5121   006B98  6E0F               	movwf	fputs@i^0,c
  5122   006B9A  EFDA  F035         	goto	l2167
  5123   006B9E                     l2163:
  5124   006B9E  C00E  F001         	movff	fputs@c,fputc@c
  5125   006BA2  6A02               	clrf	(fputc@c+1)^0,c
  5126   006BA4  C00C  F003         	movff	fputs@fp,fputc@fp
  5127   006BA8  C00D  F004         	movff	fputs@fp+1,fputc@fp+1
  5128   006BAC  EC60  F03A         	call	_fputc	;wreg free
  5129   006BB0  4A0F               	infsnz	fputs@i^0,f,c
  5130   006BB2  2A10               	incf	(fputs@i+1)^0,f,c
  5131   006BB4                     l2167:
  5132   006BB4  500F               	movf	fputs@i^0,w,c
  5133   006BB6  240A               	addwf	fputs@s^0,w,c
  5134   006BB8  6ED9               	movwf	fsr2l,c
  5135   006BBA  5010               	movf	(fputs@i+1)^0,w,c
  5136   006BBC  200B               	addwfc	(fputs@s+1)^0,w,c
  5137   006BBE  6EDA               	movwf	fsr2h,c
  5138   006BC0  50DF               	movf	indf2,w,c
  5139   006BC2  6E0E               	movwf	fputs@c^0,c
  5140   006BC4  500E               	movf	fputs@c^0,w,c
  5141   006BC6  A4D8               	btfss	status,2,c
  5142   006BC8  EFE8  F035         	goto	u1101
  5143   006BCC  EFEA  F035         	goto	u1100
  5144   006BD0                     u1101:
  5145   006BD0  EFCF  F035         	goto	l2163
  5146   006BD4                     u1100:
  5147   006BD4  0012               	return		;funcret
  5148   006BD6                     __end_of_fputs:
  5149                           	callstack 0
  5150                           
  5151 ;; *************** function _fputc *****************
  5152 ;; Defined at:
  5153 ;;		line 8 in file "/Applications/microchip/xc8/v2.41/pic/sources/c99/common/nf_fputc.c"
  5154 ;; Parameters:    Size  Location     Type
  5155 ;;  c               2    0[COMRAM] int 
  5156 ;;  fp              2    2[COMRAM] PTR struct _IO_FILE
  5157 ;;		 -> sprintf@f(12), 
  5158 ;; Auto vars:     Size  Location     Type
  5159 ;;		None
  5160 ;; Return value:  Size  Location     Type
  5161 ;;                  2    0[COMRAM] int 
  5162 ;; Registers used:
  5163 ;;		wreg, fsr1l, fsr1h, fsr2l, fsr2h, status,2, status,0, cstack
  5164 ;; Tracked objects:
  5165 ;;		On entry : 0/0
  5166 ;;		On exit  : 0/0
  5167 ;;		Unchanged: 0/0
  5168 ;; Data sizes:     COMRAM   BANK0   BANK1   BANK2   BANK3   BANK4   BANK5   BANK6   BANK7
  5169 ;;      Params:         4       0       0       0       0       0       0       0       0
  5170 ;;      Locals:         0       0       0       0       0       0       0       0       0
  5171 ;;      Temps:          5       0       0       0       0       0       0       0       0
  5172 ;;      Totals:         9       0       0       0       0       0       0       0       0
  5173 ;;Total ram usage:        9 bytes
  5174 ;; Hardware stack levels used: 1
  5175 ;; Hardware stack levels required when called: 1
  5176 ;; This function calls:
  5177 ;;		_putch
  5178 ;; This function is called by:
  5179 ;;		_pad
  5180 ;;		_stoa
  5181 ;;		_vfpfcnvrt
  5182 ;;		_fputs
  5183 ;; This function uses a non-reentrant model
  5184 ;;
  5185                           
  5186                           	psect	text36
  5187   0074C0                     __ptext36:
  5188                           	callstack 0
  5189   0074C0                     _fputc:
  5190                           	callstack 24
  5191   0074C0  5003               	movf	fputc@fp^0,w,c
  5192   0074C2  1004               	iorwf	(fputc@fp+1)^0,w,c
  5193   0074C4  B4D8               	btfsc	status,2,c
  5194   0074C6  EF67  F03A         	goto	u1061
  5195   0074CA  EF69  F03A         	goto	u1060
  5196   0074CE                     u1061:
  5197   0074CE  EF72  F03A         	goto	l2151
  5198   0074D2                     u1060:
  5199   0074D2  5003               	movf	fputc@fp^0,w,c
  5200   0074D4  1004               	iorwf	(fputc@fp+1)^0,w,c
  5201   0074D6  A4D8               	btfss	status,2,c
  5202   0074D8  EF70  F03A         	goto	u1071
  5203   0074DC  EF72  F03A         	goto	u1070
  5204   0074E0                     u1071:
  5205   0074E0  EF77  F03A         	goto	l2153
  5206   0074E4                     u1070:
  5207   0074E4                     l2151:
  5208   0074E4  5001               	movf	fputc@c^0,w,c
  5209   0074E6  EC8D  F034         	call	_putch
  5210   0074EA  EFC4  F03A         	goto	l1199
  5211   0074EE                     l2153:
  5212   0074EE  EE20 F00A          	lfsr	2,10
  5213   0074F2  5003               	movf	fputc@fp^0,w,c
  5214   0074F4  26D9               	addwf	fsr2l,f,c
  5215   0074F6  5004               	movf	(fputc@fp+1)^0,w,c
  5216   0074F8  22DA               	addwfc	fsr2h,f,c
  5217   0074FA  50DE               	movf	postinc2,w,c
  5218   0074FC  10DE               	iorwf	postinc2,w,c
  5219   0074FE  B4D8               	btfsc	status,2,c
  5220   007500  EF84  F03A         	goto	u1081
  5221   007504  EF86  F03A         	goto	u1080
  5222   007508                     u1081:
  5223   007508  EFA1  F03A         	goto	l2157
  5224   00750C                     u1080:
  5225   00750C  EE20 F00A          	lfsr	2,10
  5226   007510  5003               	movf	fputc@fp^0,w,c
  5227   007512  26D9               	addwf	fsr2l,f,c
  5228   007514  5004               	movf	(fputc@fp+1)^0,w,c
  5229   007516  22DA               	addwfc	fsr2h,f,c
  5230   007518  EE10 F003          	lfsr	1,3
  5231   00751C  5003               	movf	fputc@fp^0,w,c
  5232   00751E  26E1               	addwf	fsr1l,f,c
  5233   007520  5004               	movf	(fputc@fp+1)^0,w,c
  5234   007522  22E2               	addwfc	fsr1h,f,c
  5235   007524  50DE               	movf	postinc2,w,c
  5236   007526  5CE6               	subwf	postinc1,w,c
  5237   007528  50E6               	movf	postinc1,w,c
  5238   00752A  0A80               	xorlw	128
  5239   00752C  6E09               	movwf	(??_fputc+4)^0,c
  5240   00752E  50DE               	movf	postinc2,w,c
  5241   007530  0A80               	xorlw	128
  5242   007532  5809               	subwfb	(??_fputc+4)^0,w,c
  5243   007534  B0D8               	btfsc	status,0,c
  5244   007536  EF9F  F03A         	goto	u1091
  5245   00753A  EFA1  F03A         	goto	u1090
  5246   00753E                     u1091:
  5247   00753E  EFC4  F03A         	goto	l1199
  5248   007542                     u1090:
  5249   007542                     l2157:
  5250   007542  EE20 F003          	lfsr	2,3
  5251   007546  5003               	movf	fputc@fp^0,w,c
  5252   007548  26D9               	addwf	fsr2l,f,c
  5253   00754A  5004               	movf	(fputc@fp+1)^0,w,c
  5254   00754C  22DA               	addwfc	fsr2h,f,c
  5255   00754E  CFDE F005          	movff	postinc2,??_fputc
  5256   007552  CFDD F006          	movff	postdec2,??_fputc+1
  5257   007556  C003  FFD9         	movff	fputc@fp,fsr2l
  5258   00755A  C004  FFDA         	movff	fputc@fp+1,fsr2h
  5259   00755E  CFDE F007          	movff	postinc2,??_fputc+2
  5260   007562  CFDD F008          	movff	postdec2,??_fputc+3
  5261   007566  5005               	movf	??_fputc^0,w,c
  5262   007568  2407               	addwf	(??_fputc+2)^0,w,c
  5263   00756A  6ED9               	movwf	fsr2l,c
  5264   00756C  5006               	movf	(??_fputc+1)^0,w,c
  5265   00756E  2008               	addwfc	(??_fputc+3)^0,w,c
  5266   007570  6EDA               	movwf	fsr2h,c
  5267   007572  C001  FFDF         	movff	fputc@c,indf2
  5268   007576  EE20 F003          	lfsr	2,3
  5269   00757A  5003               	movf	fputc@fp^0,w,c
  5270   00757C  26D9               	addwf	fsr2l,f,c
  5271   00757E  5004               	movf	(fputc@fp+1)^0,w,c
  5272   007580  22DA               	addwfc	fsr2h,f,c
  5273   007582  2ADE               	incf	postinc2,f,c
  5274   007584  0E00               	movlw	0
  5275   007586  22DD               	addwfc	postdec2,f,c
  5276   007588                     l1199:
  5277   007588  0012               	return		;funcret
  5278   00758A                     __end_of_fputc:
  5279                           	callstack 0
  5280                           
  5281 ;; *************** function _putch *****************
  5282 ;; Defined at:
  5283 ;;		line 7 in file "/Applications/microchip/xc8/v2.41/pic/sources/c99/common/putch.c"
  5284 ;; Parameters:    Size  Location     Type
  5285 ;;  c               1    wreg     unsigned char 
  5286 ;; Auto vars:     Size  Location     Type
  5287 ;;  c               1    0[COMRAM] unsigned char 
  5288 ;; Return value:  Size  Location     Type
  5289 ;;                  1    wreg      void 
  5290 ;; Registers used:
  5291 ;;		wreg
  5292 ;; Tracked objects:
  5293 ;;		On entry : 0/0
  5294 ;;		On exit  : 0/0
  5295 ;;		Unchanged: 0/0
  5296 ;; Data sizes:     COMRAM   BANK0   BANK1   BANK2   BANK3   BANK4   BANK5   BANK6   BANK7
  5297 ;;      Params:         0       0       0       0       0       0       0       0       0
  5298 ;;      Locals:         0       0       0       0       0       0       0       0       0
  5299 ;;      Temps:          0       0       0       0       0       0       0       0       0
  5300 ;;      Totals:         0       0       0       0       0       0       0       0       0
  5301 ;;Total ram usage:        0 bytes
  5302 ;; Hardware stack levels used: 1
  5303 ;; This function calls:
  5304 ;;		Nothing
  5305 ;; This function is called by:
  5306 ;;		_fputc
  5307 ;; This function uses a non-reentrant model
  5308 ;;
  5309                           
  5310                           	psect	text37
  5311   00691A                     __ptext37:
  5312                           	callstack 0
  5313   00691A                     _putch:
  5314                           	callstack 24
  5315   00691A  0012               	return		;funcret
  5316   00691C                     __end_of_putch:
  5317                           	callstack 0
  5318                           
  5319 ;; *************** function _abs *****************
  5320 ;; Defined at:
  5321 ;;		line 1 in file "/Applications/microchip/xc8/v2.41/pic/sources/c99/common/abs.c"
  5322 ;; Parameters:    Size  Location     Type
  5323 ;;  a               2    6[COMRAM] int 
  5324 ;; Auto vars:     Size  Location     Type
  5325 ;;		None
  5326 ;; Return value:  Size  Location     Type
  5327 ;;                  2    6[COMRAM] int 
  5328 ;; Registers used:
  5329 ;;		wreg, status,2, status,0
  5330 ;; Tracked objects:
  5331 ;;		On entry : 0/0
  5332 ;;		On exit  : 0/0
  5333 ;;		Unchanged: 0/0
  5334 ;; Data sizes:     COMRAM   BANK0   BANK1   BANK2   BANK3   BANK4   BANK5   BANK6   BANK7
  5335 ;;      Params:         2       0       0       0       0       0       0       0       0
  5336 ;;      Locals:         0       0       0       0       0       0       0       0       0
  5337 ;;      Temps:          2       0       0       0       0       0       0       0       0
  5338 ;;      Totals:         4       0       0       0       0       0       0       0       0
  5339 ;;Total ram usage:        4 bytes
  5340 ;; Hardware stack levels used: 1
  5341 ;; This function calls:
  5342 ;;		Nothing
  5343 ;; This function is called by:
  5344 ;;		_dtoa
  5345 ;; This function uses a non-reentrant model
  5346 ;;
  5347                           
  5348                           	psect	text38
  5349   006B52                     __ptext38:
  5350                           	callstack 0
  5351   006B52                     _abs:
  5352                           	callstack 25
  5353   006B52  BE08               	btfsc	(abs@a+1)^0,7,c
  5354   006B54  EFB6  F035         	goto	u1270
  5355   006B58  5008               	movf	(abs@a+1)^0,w,c
  5356   006B5A  E106               	bnz	u1271
  5357   006B5C  0407               	decf	abs@a^0,w,c
  5358   006B5E  B0D8               	btfsc	status,0,c
  5359   006B60  EFB4  F035         	goto	u1271
  5360   006B64  EFB6  F035         	goto	u1270
  5361   006B68                     u1271:
  5362   006B68  EFC4  F035         	goto	l1184
  5363   006B6C                     u1270:
  5364   006B6C  C007  F009         	movff	abs@a,??_abs
  5365   006B70  C008  F00A         	movff	abs@a+1,??_abs+1
  5366   006B74  1E09               	comf	??_abs^0,f,c
  5367   006B76  1E0A               	comf	(??_abs+1)^0,f,c
  5368   006B78  4A09               	infsnz	??_abs^0,f,c
  5369   006B7A  2A0A               	incf	(??_abs+1)^0,f,c
  5370   006B7C  C009  F007         	movff	??_abs,?_abs
  5371   006B80  C00A  F008         	movff	??_abs+1,?_abs+1
  5372   006B84  EFC8  F035         	goto	l1187
  5373   006B88                     l1184:
  5374   006B88  C007  F007         	movff	abs@a,?_abs
  5375   006B8C  C008  F008         	movff	abs@a+1,?_abs+1
  5376   006B90                     l1187:
  5377   006B90  0012               	return		;funcret
  5378   006B92                     __end_of_abs:
  5379                           	callstack 0
  5380                           
  5381 ;; *************** function ___awmod *****************
  5382 ;; Defined at:
  5383 ;;		line 7 in file "/Applications/microchip/xc8/v2.41/pic/sources/c99/common/awmod.c"
  5384 ;; Parameters:    Size  Location     Type
  5385 ;;  dividend        2    0[COMRAM] int 
  5386 ;;  divisor         2    2[COMRAM] int 
  5387 ;; Auto vars:     Size  Location     Type
  5388 ;;  sign            1    5[COMRAM] unsigned char 
  5389 ;;  counter         1    4[COMRAM] unsigned char 
  5390 ;; Return value:  Size  Location     Type
  5391 ;;                  2    0[COMRAM] int 
  5392 ;; Registers used:
  5393 ;;		wreg, status,2, status,0
  5394 ;; Tracked objects:
  5395 ;;		On entry : 0/0
  5396 ;;		On exit  : 0/0
  5397 ;;		Unchanged: 0/0
  5398 ;; Data sizes:     COMRAM   BANK0   BANK1   BANK2   BANK3   BANK4   BANK5   BANK6   BANK7
  5399 ;;      Params:         4       0       0       0       0       0       0       0       0
  5400 ;;      Locals:         2       0       0       0       0       0       0       0       0
  5401 ;;      Temps:          0       0       0       0       0       0       0       0       0
  5402 ;;      Totals:         6       0       0       0       0       0       0       0       0
  5403 ;;Total ram usage:        6 bytes
  5404 ;; Hardware stack levels used: 1
  5405 ;; This function calls:
  5406 ;;		Nothing
  5407 ;; This function is called by:
  5408 ;;		_dtoa
  5409 ;; This function uses a non-reentrant model
  5410 ;;
  5411                           
  5412                           	psect	text39
  5413   007118                     __ptext39:
  5414                           	callstack 0
  5415   007118                     ___awmod:
  5416                           	callstack 25
  5417   007118  0E00               	movlw	0
  5418   00711A  6E06               	movwf	___awmod@sign^0,c
  5419   00711C  BE02               	btfsc	(___awmod@dividend+1)^0,7,c
  5420   00711E  EF95  F038         	goto	u1170
  5421   007122  EF93  F038         	goto	u1171
  5422   007126                     u1171:
  5423   007126  EF9B  F038         	goto	l2227
  5424   00712A                     u1170:
  5425   00712A  6C01               	negf	___awmod@dividend^0,c
  5426   00712C  1E02               	comf	(___awmod@dividend+1)^0,f,c
  5427   00712E  B0D8               	btfsc	status,0,c
  5428   007130  2A02               	incf	(___awmod@dividend+1)^0,f,c
  5429   007132  0E01               	movlw	1
  5430   007134  6E06               	movwf	___awmod@sign^0,c
  5431   007136                     l2227:
  5432   007136  BE04               	btfsc	(___awmod@divisor+1)^0,7,c
  5433   007138  EFA2  F038         	goto	u1180
  5434   00713C  EFA0  F038         	goto	u1181
  5435   007140                     u1181:
  5436   007140  EFA6  F038         	goto	l2231
  5437   007144                     u1180:
  5438   007144  6C03               	negf	___awmod@divisor^0,c
  5439   007146  1E04               	comf	(___awmod@divisor+1)^0,f,c
  5440   007148  B0D8               	btfsc	status,0,c
  5441   00714A  2A04               	incf	(___awmod@divisor+1)^0,f,c
  5442   00714C                     l2231:
  5443   00714C  5003               	movf	___awmod@divisor^0,w,c
  5444   00714E  1004               	iorwf	(___awmod@divisor+1)^0,w,c
  5445   007150  B4D8               	btfsc	status,2,c
  5446   007152  EFAD  F038         	goto	u1191
  5447   007156  EFAF  F038         	goto	u1190
  5448   00715A                     u1191:
  5449   00715A  EFD3  F038         	goto	l2247
  5450   00715E                     u1190:
  5451   00715E  0E01               	movlw	1
  5452   007160  6E05               	movwf	___awmod@counter^0,c
  5453   007162  EFB7  F038         	goto	l2237
  5454   007166                     l2235:
  5455   007166  90D8               	bcf	status,0,c
  5456   007168  3603               	rlcf	___awmod@divisor^0,f,c
  5457   00716A  3604               	rlcf	(___awmod@divisor+1)^0,f,c
  5458   00716C  2A05               	incf	___awmod@counter^0,f,c
  5459   00716E                     l2237:
  5460   00716E  AE04               	btfss	(___awmod@divisor+1)^0,7,c
  5461   007170  EFBC  F038         	goto	u1201
  5462   007174  EFBE  F038         	goto	u1200
  5463   007178                     u1201:
  5464   007178  EFB3  F038         	goto	l2235
  5465   00717C                     u1200:
  5466   00717C                     l2239:
  5467   00717C  5003               	movf	___awmod@divisor^0,w,c
  5468   00717E  5C01               	subwf	___awmod@dividend^0,w,c
  5469   007180  5004               	movf	(___awmod@divisor+1)^0,w,c
  5470   007182  5802               	subwfb	(___awmod@dividend+1)^0,w,c
  5471   007184  A0D8               	btfss	status,0,c
  5472   007186  EFC7  F038         	goto	u1211
  5473   00718A  EFC9  F038         	goto	u1210
  5474   00718E                     u1211:
  5475   00718E  EFCD  F038         	goto	l2243
  5476   007192                     u1210:
  5477   007192  5003               	movf	___awmod@divisor^0,w,c
  5478   007194  5E01               	subwf	___awmod@dividend^0,f,c
  5479   007196  5004               	movf	(___awmod@divisor+1)^0,w,c
  5480   007198  5A02               	subwfb	(___awmod@dividend+1)^0,f,c
  5481   00719A                     l2243:
  5482   00719A  90D8               	bcf	status,0,c
  5483   00719C  3204               	rrcf	(___awmod@divisor+1)^0,f,c
  5484   00719E  3203               	rrcf	___awmod@divisor^0,f,c
  5485   0071A0  2E05               	decfsz	___awmod@counter^0,f,c
  5486   0071A2  EFBE  F038         	goto	l2239
  5487   0071A6                     l2247:
  5488   0071A6  5006               	movf	___awmod@sign^0,w,c
  5489   0071A8  B4D8               	btfsc	status,2,c
  5490   0071AA  EFD9  F038         	goto	u1221
  5491   0071AE  EFDB  F038         	goto	u1220
  5492   0071B2                     u1221:
  5493   0071B2  EFDF  F038         	goto	l2251
  5494   0071B6                     u1220:
  5495   0071B6  6C01               	negf	___awmod@dividend^0,c
  5496   0071B8  1E02               	comf	(___awmod@dividend+1)^0,f,c
  5497   0071BA  B0D8               	btfsc	status,0,c
  5498   0071BC  2A02               	incf	(___awmod@dividend+1)^0,f,c
  5499   0071BE                     l2251:
  5500   0071BE  C001  F001         	movff	___awmod@dividend,?___awmod
  5501   0071C2  C002  F002         	movff	___awmod@dividend+1,?___awmod+1
  5502   0071C6  0012               	return		;funcret
  5503   0071C8                     __end_of___awmod:
  5504                           	callstack 0
  5505                           
  5506 ;; *************** function ___awdiv *****************
  5507 ;; Defined at:
  5508 ;;		line 7 in file "/Applications/microchip/xc8/v2.41/pic/sources/c99/common/awdiv.c"
  5509 ;; Parameters:    Size  Location     Type
  5510 ;;  dividend        2    0[COMRAM] int 
  5511 ;;  divisor         2    2[COMRAM] int 
  5512 ;; Auto vars:     Size  Location     Type
  5513 ;;  quotient        2    6[COMRAM] int 
  5514 ;;  sign            1    5[COMRAM] unsigned char 
  5515 ;;  counter         1    4[COMRAM] unsigned char 
  5516 ;; Return value:  Size  Location     Type
  5517 ;;                  2    0[COMRAM] int 
  5518 ;; Registers used:
  5519 ;;		wreg, status,2, status,0
  5520 ;; Tracked objects:
  5521 ;;		On entry : 0/0
  5522 ;;		On exit  : 0/0
  5523 ;;		Unchanged: 0/0
  5524 ;; Data sizes:     COMRAM   BANK0   BANK1   BANK2   BANK3   BANK4   BANK5   BANK6   BANK7
  5525 ;;      Params:         4       0       0       0       0       0       0       0       0
  5526 ;;      Locals:         4       0       0       0       0       0       0       0       0
  5527 ;;      Temps:          0       0       0       0       0       0       0       0       0
  5528 ;;      Totals:         8       0       0       0       0       0       0       0       0
  5529 ;;Total ram usage:        8 bytes
  5530 ;; Hardware stack levels used: 1
  5531 ;; This function calls:
  5532 ;;		Nothing
  5533 ;; This function is called by:
  5534 ;;		_dtoa
  5535 ;; This function uses a non-reentrant model
  5536 ;;
  5537                           
  5538                           	psect	text40
  5539   007336                     __ptext40:
  5540                           	callstack 0
  5541   007336                     ___awdiv:
  5542                           	callstack 25
  5543   007336  0E00               	movlw	0
  5544   007338  6E06               	movwf	___awdiv@sign^0,c
  5545   00733A  BE04               	btfsc	(___awdiv@divisor+1)^0,7,c
  5546   00733C  EFA4  F039         	goto	u1110
  5547   007340  EFA2  F039         	goto	u1111
  5548   007344                     u1111:
  5549   007344  EFAA  F039         	goto	l2183
  5550   007348                     u1110:
  5551   007348  6C03               	negf	___awdiv@divisor^0,c
  5552   00734A  1E04               	comf	(___awdiv@divisor+1)^0,f,c
  5553   00734C  B0D8               	btfsc	status,0,c
  5554   00734E  2A04               	incf	(___awdiv@divisor+1)^0,f,c
  5555   007350  0E01               	movlw	1
  5556   007352  6E06               	movwf	___awdiv@sign^0,c
  5557   007354                     l2183:
  5558   007354  BE02               	btfsc	(___awdiv@dividend+1)^0,7,c
  5559   007356  EFB1  F039         	goto	u1120
  5560   00735A  EFAF  F039         	goto	u1121
  5561   00735E                     u1121:
  5562   00735E  EFB7  F039         	goto	l2189
  5563   007362                     u1120:
  5564   007362  6C01               	negf	___awdiv@dividend^0,c
  5565   007364  1E02               	comf	(___awdiv@dividend+1)^0,f,c
  5566   007366  B0D8               	btfsc	status,0,c
  5567   007368  2A02               	incf	(___awdiv@dividend+1)^0,f,c
  5568   00736A  0E01               	movlw	1
  5569   00736C  1A06               	xorwf	___awdiv@sign^0,f,c
  5570   00736E                     l2189:
  5571   00736E  0E00               	movlw	0
  5572   007370  6E08               	movwf	(___awdiv@quotient+1)^0,c
  5573   007372  0E00               	movlw	0
  5574   007374  6E07               	movwf	___awdiv@quotient^0,c
  5575   007376  5003               	movf	___awdiv@divisor^0,w,c
  5576   007378  1004               	iorwf	(___awdiv@divisor+1)^0,w,c
  5577   00737A  B4D8               	btfsc	status,2,c
  5578   00737C  EFC2  F039         	goto	u1131
  5579   007380  EFC4  F039         	goto	u1130
  5580   007384                     u1131:
  5581   007384  EFEC  F039         	goto	l2211
  5582   007388                     u1130:
  5583   007388  0E01               	movlw	1
  5584   00738A  6E05               	movwf	___awdiv@counter^0,c
  5585   00738C  EFCC  F039         	goto	l2197
  5586   007390                     l2195:
  5587   007390  90D8               	bcf	status,0,c
  5588   007392  3603               	rlcf	___awdiv@divisor^0,f,c
  5589   007394  3604               	rlcf	(___awdiv@divisor+1)^0,f,c
  5590   007396  2A05               	incf	___awdiv@counter^0,f,c
  5591   007398                     l2197:
  5592   007398  AE04               	btfss	(___awdiv@divisor+1)^0,7,c
  5593   00739A  EFD1  F039         	goto	u1141
  5594   00739E  EFD3  F039         	goto	u1140
  5595   0073A2                     u1141:
  5596   0073A2  EFC8  F039         	goto	l2195
  5597   0073A6                     u1140:
  5598   0073A6                     l2199:
  5599   0073A6  90D8               	bcf	status,0,c
  5600   0073A8  3607               	rlcf	___awdiv@quotient^0,f,c
  5601   0073AA  3608               	rlcf	(___awdiv@quotient+1)^0,f,c
  5602   0073AC  5003               	movf	___awdiv@divisor^0,w,c
  5603   0073AE  5C01               	subwf	___awdiv@dividend^0,w,c
  5604   0073B0  5004               	movf	(___awdiv@divisor+1)^0,w,c
  5605   0073B2  5802               	subwfb	(___awdiv@dividend+1)^0,w,c
  5606   0073B4  A0D8               	btfss	status,0,c
  5607   0073B6  EFDF  F039         	goto	u1151
  5608   0073BA  EFE1  F039         	goto	u1150
  5609   0073BE                     u1151:
  5610   0073BE  EFE6  F039         	goto	l2207
  5611   0073C2                     u1150:
  5612   0073C2  5003               	movf	___awdiv@divisor^0,w,c
  5613   0073C4  5E01               	subwf	___awdiv@dividend^0,f,c
  5614   0073C6  5004               	movf	(___awdiv@divisor+1)^0,w,c
  5615   0073C8  5A02               	subwfb	(___awdiv@dividend+1)^0,f,c
  5616   0073CA  8007               	bsf	___awdiv@quotient^0,0,c
  5617   0073CC                     l2207:
  5618   0073CC  90D8               	bcf	status,0,c
  5619   0073CE  3204               	rrcf	(___awdiv@divisor+1)^0,f,c
  5620   0073D0  3203               	rrcf	___awdiv@divisor^0,f,c
  5621   0073D2  2E05               	decfsz	___awdiv@counter^0,f,c
  5622   0073D4  EFD3  F039         	goto	l2199
  5623   0073D8                     l2211:
  5624   0073D8  5006               	movf	___awdiv@sign^0,w,c
  5625   0073DA  B4D8               	btfsc	status,2,c
  5626   0073DC  EFF2  F039         	goto	u1161
  5627   0073E0  EFF4  F039         	goto	u1160
  5628   0073E4                     u1161:
  5629   0073E4  EFF8  F039         	goto	l2215
  5630   0073E8                     u1160:
  5631   0073E8  6C07               	negf	___awdiv@quotient^0,c
  5632   0073EA  1E08               	comf	(___awdiv@quotient+1)^0,f,c
  5633   0073EC  B0D8               	btfsc	status,0,c
  5634   0073EE  2A08               	incf	(___awdiv@quotient+1)^0,f,c
  5635   0073F0                     l2215:
  5636   0073F0  C007  F001         	movff	___awdiv@quotient,?___awdiv
  5637   0073F4  C008  F002         	movff	___awdiv@quotient+1,?___awdiv+1
  5638   0073F8  0012               	return		;funcret
  5639   0073FA                     __end_of___awdiv:
  5640                           	callstack 0
  5641                           
  5642 ;; *************** function _Beep *****************
  5643 ;; Defined at:
  5644 ;;		line 306 in file "main_piee2.c"
  5645 ;; Parameters:    Size  Location     Type
  5646 ;;  tipo            1    wreg     unsigned char 
  5647 ;; Auto vars:     Size  Location     Type
  5648 ;;  tipo            1    8[COMRAM] unsigned char 
  5649 ;; Return value:  Size  Location     Type
  5650 ;;                  1    wreg      void 
  5651 ;; Registers used:
  5652 ;;		wreg, status,2, status,0, cstack
  5653 ;; Tracked objects:
  5654 ;;		On entry : 0/0
  5655 ;;		On exit  : 0/0
  5656 ;;		Unchanged: 0/0
  5657 ;; Data sizes:     COMRAM   BANK0   BANK1   BANK2   BANK3   BANK4   BANK5   BANK6   BANK7
  5658 ;;      Params:         0       0       0       0       0       0       0       0       0
  5659 ;;      Locals:         1       0       0       0       0       0       0       0       0
  5660 ;;      Temps:          2       0       0       0       0       0       0       0       0
  5661 ;;      Totals:         3       0       0       0       0       0       0       0       0
  5662 ;;Total ram usage:        3 bytes
  5663 ;; Hardware stack levels used: 1
  5664 ;; Hardware stack levels required when called: 1
  5665 ;; This function calls:
  5666 ;;		_MSdelay
  5667 ;; This function is called by:
  5668 ;;		_main
  5669 ;; This function uses a non-reentrant model
  5670 ;;
  5671                           
  5672                           	psect	text41
  5673   006EAA                     __ptext41:
  5674                           	callstack 0
  5675   006EAA                     _Beep:
  5676                           	callstack 29
  5677                           
  5678                           ;incstack = 0
  5679                           ;Beep@tipo stored from wreg
  5680   006EAA  6E09               	movwf	Beep@tipo^0,c
  5681   006EAC                     
  5682                           ;main_piee2.c: 307:     switch(tipo) {
  5683   006EAC  EF82  F037         	goto	l2787
  5684   006EB0                     l147:
  5685                           
  5686                           ;main_piee2.c: 309:             LATD0 = 1;
  5687   006EB0  808C               	bsf	3980,0,c	;volatile
  5688   006EB2                     
  5689                           ;main_piee2.c: 310:             MSdelay(2000);
  5690   006EB2  0E07               	movlw	7
  5691   006EB4  6E02               	movwf	(MSdelay@val+1)^0,c
  5692   006EB6  0ED0               	movlw	208
  5693   006EB8  6E01               	movwf	MSdelay@val^0,c
  5694   006EBA  EC0F  F036         	call	_MSdelay	;wreg free
  5695   006EBE                     l2771:
  5696                           
  5697                           ;main_piee2.c: 311:             LATD0 = 0;
  5698   006EBE  908C               	bcf	3980,0,c	;volatile
  5699                           
  5700                           ;main_piee2.c: 312:             break;
  5701   006EC0  EF9B  F037         	goto	l151
  5702   006EC4                     l149:
  5703                           
  5704                           ;main_piee2.c: 315:             LATD0 = 1; MSdelay(250); LATD0 = 0; MSdelay(100);
  5705   006EC4  808C               	bsf	3980,0,c	;volatile
  5706   006EC6  0E00               	movlw	0
  5707   006EC8  6E02               	movwf	(MSdelay@val+1)^0,c
  5708   006ECA  0EFA               	movlw	250
  5709   006ECC  6E01               	movwf	MSdelay@val^0,c
  5710   006ECE  EC0F  F036         	call	_MSdelay	;wreg free
  5711   006ED2  908C               	bcf	3980,0,c	;volatile
  5712   006ED4  0E00               	movlw	0
  5713   006ED6  6E02               	movwf	(MSdelay@val+1)^0,c
  5714   006ED8  0E64               	movlw	100
  5715   006EDA  6E01               	movwf	MSdelay@val^0,c
  5716   006EDC  EC0F  F036         	call	_MSdelay	;wreg free
  5717   006EE0                     
  5718                           ;main_piee2.c: 316:             LATD0 = 1; MSdelay(250); LATD0 = 0;
  5719   006EE0  808C               	bsf	3980,0,c	;volatile
  5720   006EE2  0E00               	movlw	0
  5721   006EE4  6E02               	movwf	(MSdelay@val+1)^0,c
  5722   006EE6  0EFA               	movlw	250
  5723   006EE8  6E01               	movwf	MSdelay@val^0,c
  5724   006EEA  EC0F  F036         	call	_MSdelay	;wreg free
  5725   006EEE  EF5F  F037         	goto	l2771
  5726   006EF2                     l150:
  5727                           
  5728                           ;main_piee2.c: 320:             LATD0 = 1;
  5729   006EF2  808C               	bsf	3980,0,c	;volatile
  5730   006EF4                     
  5731                           ;main_piee2.c: 321:             MSdelay(100);
  5732   006EF4  0E00               	movlw	0
  5733   006EF6  6E02               	movwf	(MSdelay@val+1)^0,c
  5734   006EF8  0E64               	movlw	100
  5735   006EFA  6E01               	movwf	MSdelay@val^0,c
  5736   006EFC  EC0F  F036         	call	_MSdelay	;wreg free
  5737   006F00  EF5F  F037         	goto	l2771
  5738   006F04                     l2787:
  5739   006F04  5009               	movf	Beep@tipo^0,w,c
  5740   006F06  6E07               	movwf	??_Beep^0,c
  5741   006F08  6A08               	clrf	(??_Beep+1)^0,c
  5742                           
  5743                           ; Switch on 2 bytes has been partitioned into a top level switch of size 1, and 1 sub-sw
      +                          itches
  5744                           ; Switch size 1, requested type "simple"
  5745                           ; Number of cases is 1, Range of values is 0 to 0
  5746                           ; switch strategies available:
  5747                           ; Name         Instructions Cycles
  5748                           ; simple_byte            4     3 (average)
  5749                           ;	Chosen strategy is simple_byte
  5750   006F0A  5008               	movf	(??_Beep+1)^0,w,c
  5751   006F0C  0A00               	xorlw	0	; case 0
  5752   006F0E  B4D8               	btfsc	status,2,c
  5753   006F10  EF8C  F037         	goto	l3107
  5754   006F14  EF9B  F037         	goto	l151
  5755   006F18                     l3107:
  5756                           
  5757                           ; Switch size 1, requested type "simple"
  5758                           ; Number of cases is 3, Range of values is 1 to 3
  5759                           ; switch strategies available:
  5760                           ; Name         Instructions Cycles
  5761                           ; simple_byte           10     6 (average)
  5762                           ;	Chosen strategy is simple_byte
  5763   006F18  5007               	movf	??_Beep^0,w,c
  5764   006F1A  0A01               	xorlw	1	; case 1
  5765   006F1C  B4D8               	btfsc	status,2,c
  5766   006F1E  EF58  F037         	goto	l147
  5767   006F22  0A03               	xorlw	3	; case 2
  5768   006F24  B4D8               	btfsc	status,2,c
  5769   006F26  EF62  F037         	goto	l149
  5770   006F2A  0A01               	xorlw	1	; case 3
  5771   006F2C  B4D8               	btfsc	status,2,c
  5772   006F2E  EF79  F037         	goto	l150
  5773   006F32  EF9B  F037         	goto	l151
  5774   006F36                     l151:
  5775   006F36  0012               	return		;funcret
  5776   006F38                     __end_of_Beep:
  5777                           	callstack 0
  5778                           
  5779 ;; *************** function _MSdelay *****************
  5780 ;; Defined at:
  5781 ;;		line 10 in file "msdelay.c"
  5782 ;; Parameters:    Size  Location     Type
  5783 ;;  val             2    0[COMRAM] unsigned int 
  5784 ;; Auto vars:     Size  Location     Type
  5785 ;;  j               2    4[COMRAM] unsigned int 
  5786 ;;  i               2    2[COMRAM] unsigned int 
  5787 ;; Return value:  Size  Location     Type
  5788 ;;                  1    wreg      void 
  5789 ;; Registers used:
  5790 ;;		wreg, status,2, status,0
  5791 ;; Tracked objects:
  5792 ;;		On entry : 0/0
  5793 ;;		On exit  : 0/0
  5794 ;;		Unchanged: 0/0
  5795 ;; Data sizes:     COMRAM   BANK0   BANK1   BANK2   BANK3   BANK4   BANK5   BANK6   BANK7
  5796 ;;      Params:         2       0       0       0       0       0       0       0       0
  5797 ;;      Locals:         4       0       0       0       0       0       0       0       0
  5798 ;;      Temps:          0       0       0       0       0       0       0       0       0
  5799 ;;      Totals:         6       0       0       0       0       0       0       0       0
  5800 ;;Total ram usage:        6 bytes
  5801 ;; Hardware stack levels used: 1
  5802 ;; This function calls:
  5803 ;;		Nothing
  5804 ;; This function is called by:
  5805 ;;		_main
  5806 ;;		_Display_Mensagens_Iniciais
  5807 ;;		_Beep
  5808 ;;		_LCD_Init
  5809 ;;		_LCD_Command
  5810 ;;		_LCD_Char
  5811 ;;		_LCD_Clear
  5812 ;;		_Modo_Manual
  5813 ;;		_Escrever_EEPROM
  5814 ;;		_Ler_ADC
  5815 ;; This function uses a non-reentrant model
  5816 ;;
  5817                           
  5818                           	psect	text42
  5819   006C1E                     __ptext42:
  5820                           	callstack 0
  5821   006C1E                     _MSdelay:
  5822                           	callstack 28
  5823   006C1E                     
  5824                           ;msdelay.c: 11:     unsigned int i, j;;msdelay.c: 12:     for(i = 0; i < val; i++)
  5825   006C1E  0E00               	movlw	0
  5826   006C20  6E04               	movwf	(MSdelay@i+1)^0,c
  5827   006C22  0E00               	movlw	0
  5828   006C24  6E03               	movwf	MSdelay@i^0,c
  5829   006C26  EF28  F036         	goto	l2433
  5830   006C2A                     l2421:
  5831                           
  5832                           ;msdelay.c: 13:         for(j = 0; j < 165; j++);
  5833   006C2A  0E00               	movlw	0
  5834   006C2C  6E06               	movwf	(MSdelay@j+1)^0,c
  5835   006C2E  0E00               	movlw	0
  5836   006C30  6E05               	movwf	MSdelay@j^0,c
  5837   006C32                     l2427:
  5838   006C32  4A05               	infsnz	MSdelay@j^0,f,c
  5839   006C34  2A06               	incf	(MSdelay@j+1)^0,f,c
  5840   006C36  5006               	movf	(MSdelay@j+1)^0,w,c
  5841   006C38  E109               	bnz	u1580
  5842   006C3A  0EA5               	movlw	165
  5843   006C3C  5C05               	subwf	MSdelay@j^0,w,c
  5844   006C3E  A0D8               	btfss	status,0,c
  5845   006C40  EF24  F036         	goto	u1581
  5846   006C44  EF26  F036         	goto	u1580
  5847   006C48                     u1581:
  5848   006C48  EF19  F036         	goto	l2427
  5849   006C4C                     u1580:
  5850   006C4C  4A03               	infsnz	MSdelay@i^0,f,c
  5851   006C4E  2A04               	incf	(MSdelay@i+1)^0,f,c
  5852   006C50                     l2433:
  5853   006C50  5001               	movf	MSdelay@val^0,w,c
  5854   006C52  5C03               	subwf	MSdelay@i^0,w,c
  5855   006C54  5002               	movf	(MSdelay@val+1)^0,w,c
  5856   006C56  5804               	subwfb	(MSdelay@i+1)^0,w,c
  5857   006C58  A0D8               	btfss	status,0,c
  5858   006C5A  EF31  F036         	goto	u1591
  5859   006C5E  EF33  F036         	goto	u1590
  5860   006C62                     u1591:
  5861   006C62  EF15  F036         	goto	l2421
  5862   006C66                     u1590:
  5863   006C66  0012               	return		;funcret
  5864   006C68                     __end_of_MSdelay:
  5865                           	callstack 0
  5866                           
  5867                           	psect	rparam
  5868   000000                     
  5869                           	psect	config
  5870                           
  5871                           ;Config register CONFIG1L @ 0x300000
  5872                           ;	PLL Prescaler Selection bits
  5873                           ;	PLLDIV = 1, No prescale (4 MHz oscillator input drives PLL directly)
  5874                           ;	System Clock Postscaler Selection bits
  5875                           ;	CPUDIV = OSC1_PLL2, [Primary Oscillator Src: /1][96 MHz PLL Src: /2]
  5876                           ;	USB Clock Selection bit (used in Full-Speed USB mode only; UCFG:FSEN = 1)
  5877                           ;	USBDIV = 1, USB clock source comes directly from the primary oscillator block with no 
      +                          postscale
  5878   300000                     	org	3145728
  5879   300000  00                 	db	0
  5880                           
  5881                           ;Config register CONFIG1H @ 0x300001
  5882                           ;	Oscillator Selection bits
  5883                           ;	FOSC = INTOSC_EC, Internal oscillator, CLKO function on RA6, EC used by USB (INTCKO)
  5884                           ;	Fail-Safe Clock Monitor Enable bit
  5885                           ;	FCMEN = OFF, Fail-Safe Clock Monitor disabled
  5886                           ;	Internal/External Oscillator Switchover bit
  5887                           ;	IESO = OFF, Oscillator Switchover mode disabled
  5888   300001                     	org	3145729
  5889   300001  09                 	db	9
  5890                           
  5891                           ;Config register CONFIG2L @ 0x300002
  5892                           ;	Power-up Timer Enable bit
  5893                           ;	PWRT = OFF, PWRT disabled
  5894                           ;	Brown-out Reset Enable bits
  5895                           ;	BOR = OFF, Brown-out Reset disabled in hardware and software
  5896                           ;	Brown-out Reset Voltage bits
  5897                           ;	BORV = 3, Minimum setting 2.05V
  5898                           ;	USB Voltage Regulator Enable bit
  5899                           ;	VREGEN = OFF, USB voltage regulator disabled
  5900   300002                     	org	3145730
  5901   300002  19                 	db	25
  5902                           
  5903                           ;Config register CONFIG2H @ 0x300003
  5904                           ;	Watchdog Timer Enable bit
  5905                           ;	WDT = OFF, WDT disabled (control is placed on the SWDTEN bit)
  5906                           ;	Watchdog Timer Postscale Select bits
  5907                           ;	WDTPS = 32768, 1:32768
  5908   300003                     	org	3145731
  5909   300003  1E                 	db	30
  5910                           
  5911                           ; Padding undefined space
  5912   300004                     	org	3145732
  5913   300004  FF                 	db	255
  5914                           
  5915                           ;Config register CONFIG3H @ 0x300005
  5916                           ;	CCP2 MUX bit
  5917                           ;	CCP2MX = ON, CCP2 input/output is multiplexed with RC1
  5918                           ;	PORTB A/D Enable bit
  5919                           ;	PBADEN = OFF, PORTB<4:0> pins are configured as digital I/O on Reset
  5920                           ;	Low-Power Timer 1 Oscillator Enable bit
  5921                           ;	LPT1OSC = OFF, Timer1 configured for higher power operation
  5922                           ;	MCLR Pin Enable bit
  5923                           ;	MCLRE = OFF, RE3 input pin enabled; MCLR pin disabled
  5924   300005                     	org	3145733
  5925   300005  01                 	db	1
  5926                           
  5927                           ;Config register CONFIG4L @ 0x300006
  5928                           ;	Stack Full/Underflow Reset Enable bit
  5929                           ;	STVREN = ON, Stack full/underflow will cause Reset
  5930                           ;	Single-Supply ICSP Enable bit
  5931                           ;	LVP = OFF, Single-Supply ICSP disabled
  5932                           ;	Dedicated In-Circuit Debug/Programming Port (ICPORT) Enable bit
  5933                           ;	ICPRT = OFF, ICPORT disabled
  5934                           ;	Extended Instruction Set Enable bit
  5935                           ;	XINST = OFF, Instruction set extension and Indexed Addressing mode disabled (Legacy mo
      +                          de)
  5936                           ;	Background Debugger Enable bit
  5937                           ;	DEBUG = 0x1, unprogrammed default
  5938   300006                     	org	3145734
  5939   300006  81                 	db	129
  5940                           
  5941                           ; Padding undefined space
  5942   300007                     	org	3145735
  5943   300007  FF                 	db	255
  5944                           
  5945                           ;Config register CONFIG5L @ 0x300008
  5946                           ;	Code Protection bit
  5947                           ;	CP0 = OFF, Block 0 (000800-001FFFh) is not code-protected
  5948                           ;	Code Protection bit
  5949                           ;	CP1 = OFF, Block 1 (002000-003FFFh) is not code-protected
  5950                           ;	Code Protection bit
  5951                           ;	CP2 = OFF, Block 2 (004000-005FFFh) is not code-protected
  5952                           ;	Code Protection bit
  5953                           ;	CP3 = OFF, Block 3 (006000-007FFFh) is not code-protected
  5954   300008                     	org	3145736
  5955   300008  0F                 	db	15
  5956                           
  5957                           ;Config register CONFIG5H @ 0x300009
  5958                           ;	Boot Block Code Protection bit
  5959                           ;	CPB = OFF, Boot block (000000-0007FFh) is not code-protected
  5960                           ;	Data EEPROM Code Protection bit
  5961                           ;	CPD = OFF, Data EEPROM is not code-protected
  5962   300009                     	org	3145737
  5963   300009  C0                 	db	192
  5964                           
  5965                           ;Config register CONFIG6L @ 0x30000A
  5966                           ;	Write Protection bit
  5967                           ;	WRT0 = OFF, Block 0 (000800-001FFFh) is not write-protected
  5968                           ;	Write Protection bit
  5969                           ;	WRT1 = OFF, Block 1 (002000-003FFFh) is not write-protected
  5970                           ;	Write Protection bit
  5971                           ;	WRT2 = OFF, Block 2 (004000-005FFFh) is not write-protected
  5972                           ;	Write Protection bit
  5973                           ;	WRT3 = OFF, Block 3 (006000-007FFFh) is not write-protected
  5974   30000A                     	org	3145738
  5975   30000A  0F                 	db	15
  5976                           
  5977                           ;Config register CONFIG6H @ 0x30000B
  5978                           ;	Configuration Register Write Protection bit
  5979                           ;	WRTC = OFF, Configuration registers (300000-3000FFh) are not write-protected
  5980                           ;	Boot Block Write Protection bit
  5981                           ;	WRTB = OFF, Boot block (000000-0007FFh) is not write-protected
  5982                           ;	Data EEPROM Write Protection bit
  5983                           ;	WRTD = OFF, Data EEPROM is not write-protected
  5984   30000B                     	org	3145739
  5985   30000B  E0                 	db	224
  5986                           
  5987                           ;Config register CONFIG7L @ 0x30000C
  5988                           ;	Table Read Protection bit
  5989                           ;	EBTR0 = OFF, Block 0 (000800-001FFFh) is not protected from table reads executed in ot
      +                          her blocks
  5990                           ;	Table Read Protection bit
  5991                           ;	EBTR1 = OFF, Block 1 (002000-003FFFh) is not protected from table reads executed in ot
      +                          her blocks
  5992                           ;	Table Read Protection bit
  5993                           ;	EBTR2 = OFF, Block 2 (004000-005FFFh) is not protected from table reads executed in ot
      +                          her blocks
  5994                           ;	Table Read Protection bit
  5995                           ;	EBTR3 = OFF, Block 3 (006000-007FFFh) is not protected from table reads executed in ot
      +                          her blocks
  5996   30000C                     	org	3145740
  5997   30000C  0F                 	db	15
  5998                           
  5999                           ;Config register CONFIG7H @ 0x30000D
  6000                           ;	Boot Block Table Read Protection bit
  6001                           ;	EBTRB = OFF, Boot block (000000-0007FFh) is not protected from table reads executed in
      +                           other blocks
  6002   30000D                     	org	3145741
  6003   30000D  40                 	db	64
  6004                           tosu	equ	0xFFF
  6005                           tosh	equ	0xFFE
  6006                           tosl	equ	0xFFD
  6007                           stkptr	equ	0xFFC
  6008                           pclatu	equ	0xFFB
  6009                           pclath	equ	0xFFA
  6010                           pcl	equ	0xFF9
  6011                           tblptru	equ	0xFF8
  6012                           tblptrh	equ	0xFF7
  6013                           tblptrl	equ	0xFF6
  6014                           tablat	equ	0xFF5
  6015                           prodh	equ	0xFF4
  6016                           prodl	equ	0xFF3
  6017                           indf0	equ	0xFEF
  6018                           postinc0	equ	0xFEE
  6019                           postdec0	equ	0xFED
  6020                           preinc0	equ	0xFEC
  6021                           plusw0	equ	0xFEB
  6022                           fsr0h	equ	0xFEA
  6023                           fsr0l	equ	0xFE9
  6024                           wreg	equ	0xFE8
  6025                           indf1	equ	0xFE7
  6026                           postinc1	equ	0xFE6
  6027                           postdec1	equ	0xFE5
  6028                           preinc1	equ	0xFE4
  6029                           plusw1	equ	0xFE3
  6030                           fsr1h	equ	0xFE2
  6031                           fsr1l	equ	0xFE1
  6032                           bsr	equ	0xFE0
  6033                           indf2	equ	0xFDF
  6034                           postinc2	equ	0xFDE
  6035                           postdec2	equ	0xFDD
  6036                           preinc2	equ	0xFDC
  6037                           plusw2	equ	0xFDB
  6038                           fsr2h	equ	0xFDA
  6039                           fsr2l	equ	0xFD9
  6040                           status	equ	0xFD8

Data Sizes:
    Strings     355
    Constant    0
    Data        10
    BSS         103
    Persistent  0
    Stack       0

Auto Spaces:
    Space          Size  Autos    Used
    COMRAM           95     94      95
    BANK0           160      9     121
    BANK1           256      0       0
    BANK2           256      0       0
    BANK3           256      0       0
    BANK4           256      0       0
    BANK5           256      0       0
    BANK6           256      0       0
    BANK7           256      0       0

Pointer List with Targets:

    strncmp@_r	PTR const unsigned char  size(2) Largest target is 4
		 -> STR_27(CODE[4]), 

    strncmp@r	PTR const unsigned char  size(2) Largest target is 4
		 -> STR_27(CODE[4]), 

    strncmp@_l	PTR const unsigned char  size(2) Largest target is 20
		 -> STR_24(CODE[15]), STR_23(CODE[15]), STR_22(CODE[20]), STR_21(CODE[20]), 
		 -> STR_20(CODE[20]), STR_19(CODE[20]), STR_18(CODE[20]), STR_17(CODE[7]), 
		 -> STR_15(CODE[13]), STR_12(CODE[7]), STR_10(CODE[13]), 

    strncmp@l	PTR const unsigned char  size(2) Largest target is 20
		 -> STR_24(CODE[15]), STR_23(CODE[15]), STR_22(CODE[20]), STR_21(CODE[20]), 
		 -> STR_20(CODE[20]), STR_19(CODE[20]), STR_18(CODE[20]), STR_17(CODE[7]), 
		 -> STR_15(CODE[13]), STR_12(CODE[7]), STR_10(CODE[13]), 

    strlen@s	PTR const unsigned char  size(2) Largest target is 7
		 -> rtc.year(BANK0[1]), rtc.month(BANK0[1]), rtc.date(BANK0[1]), rtc.hour(BANK0[1]), 
		 -> rtc.min(BANK0[1]), rtc.sec(BANK0[1]), stoa@nuls(COMRAM[7]), ?_sprintf(COMRAM[2]), 
		 -> data_buffer(BANK0[11]), hora_buffer(BANK0[9]), 

    strlen@a	PTR const unsigned char  size(2) Largest target is 7
		 -> rtc.year(BANK0[1]), rtc.month(BANK0[1]), rtc.date(BANK0[1]), rtc.hour(BANK0[1]), 
		 -> rtc.min(BANK0[1]), rtc.sec(BANK0[1]), stoa@nuls(COMRAM[7]), ?_sprintf(COMRAM[2]), 
		 -> data_buffer(BANK0[11]), hora_buffer(BANK0[9]), 

    fputs@s	PTR const unsigned char  size(2) Largest target is 32
		 -> dbuf(BANK0[32]), 

    fputs@fp	PTR struct _IO_FILE size(2) Largest target is 12
		 -> sprintf@f(COMRAM[12]), 

    fputc@fp...source	PTR const unsigned char  size(2) Largest target is 0

    fputc@fp...buffer	PTR unsigned char  size(2) Largest target is 0

    fputc@fp	PTR struct _IO_FILE size(2) Largest target is 12
		 -> sprintf@f(COMRAM[12]), 

    vfprintf@ap	PTR PTR void  size(2) Largest target is 2
		 -> sprintf@ap(COMRAM[2]), 

    vfprintf@fp	PTR struct _IO_FILE size(2) Largest target is 12
		 -> sprintf@f(COMRAM[12]), 

    vfprintf@fmt	PTR const unsigned char  size(2) Largest target is 20
		 -> STR_24(CODE[15]), STR_23(CODE[15]), STR_22(CODE[20]), STR_21(CODE[20]), 
		 -> STR_20(CODE[20]), STR_19(CODE[20]), STR_18(CODE[20]), STR_17(CODE[7]), 
		 -> STR_15(CODE[13]), STR_12(CODE[7]), STR_10(CODE[13]), 

    vfprintf@cfmt	PTR unsigned char  size(2) Largest target is 20
		 -> STR_24(CODE[15]), STR_23(CODE[15]), STR_22(CODE[20]), STR_21(CODE[20]), 
		 -> STR_20(CODE[20]), STR_19(CODE[20]), STR_18(CODE[20]), STR_17(CODE[7]), 
		 -> STR_15(CODE[13]), STR_12(CODE[7]), STR_10(CODE[13]), 

    vfpfcnvrt@fp	PTR struct _IO_FILE size(2) Largest target is 12
		 -> sprintf@f(COMRAM[12]), 

    vfpfcnvrt@cp	PTR unsigned char  size(2) Largest target is 20
		 -> STR_24(CODE[15]), STR_23(CODE[15]), STR_22(CODE[20]), STR_21(CODE[20]), 
		 -> STR_20(CODE[20]), STR_19(CODE[20]), STR_18(CODE[20]), STR_17(CODE[7]), 
		 -> STR_15(CODE[13]), STR_12(CODE[7]), STR_10(CODE[13]), 

    vfpfcnvrt@ap	PTR PTR void  size(2) Largest target is 2
		 -> sprintf@ap(COMRAM[2]), 

    vfpfcnvrt@fmt	PTR PTR unsigned char  size(2) Largest target is 2
		 -> vfprintf@cfmt(COMRAM[2]), 

    S1245$vp	PTR void  size(2) Largest target is 0

    convarg.vp	PTR void  size(2) Largest target is 0

    read_prec_or_width@ap	PTR PTR void [1] size(2) Largest target is 2
		 -> sprintf@ap(COMRAM[2]), 

    read_prec_or_width@fmt	PTR PTR const unsigned char  size(2) Largest target is 2
		 -> vfprintf@cfmt(COMRAM[2]), 

    stoa@fp	PTR struct _IO_FILE size(2) Largest target is 12
		 -> sprintf@f(COMRAM[12]), 

    stoa@s	PTR unsigned char  size(2) Largest target is 2
		 -> rtc.year(BANK0[1]), rtc.month(BANK0[1]), rtc.date(BANK0[1]), rtc.hour(BANK0[1]), 
		 -> rtc.min(BANK0[1]), rtc.sec(BANK0[1]), ?_sprintf(COMRAM[2]), data_buffer(BANK0[11]), 
		 -> hora_buffer(BANK0[9]), 

    stoa@cp	PTR unsigned char  size(2) Largest target is 7
		 -> rtc.year(BANK0[1]), rtc.month(BANK0[1]), rtc.date(BANK0[1]), rtc.hour(BANK0[1]), 
		 -> rtc.min(BANK0[1]), rtc.sec(BANK0[1]), stoa@nuls(COMRAM[7]), ?_sprintf(COMRAM[2]), 
		 -> data_buffer(BANK0[11]), hora_buffer(BANK0[9]), 

    dtoa@fp	PTR struct _IO_FILE size(2) Largest target is 12
		 -> sprintf@f(COMRAM[12]), 

    pad@fp	PTR struct _IO_FILE size(2) Largest target is 12
		 -> sprintf@f(COMRAM[12]), 

    pad@buf	PTR unsigned char  size(2) Largest target is 32
		 -> dbuf(BANK0[32]), 

    sprintf@fmt	PTR const unsigned char  size(2) Largest target is 20
		 -> STR_24(CODE[15]), STR_23(CODE[15]), STR_22(CODE[20]), STR_21(CODE[20]), 
		 -> STR_20(CODE[20]), STR_19(CODE[20]), STR_18(CODE[20]), STR_17(CODE[7]), 
		 -> STR_15(CODE[13]), STR_12(CODE[7]), STR_10(CODE[13]), 

    sprintf@s	PTR unsigned char  size(2) Largest target is 21
		 -> lcd_buffer(BANK0[21]), data_buffer(BANK0[11]), hora_buffer(BANK0[9]), 

    sprintf@ap	PTR void [1] size(2) Largest target is 2
		 -> ?_sprintf(COMRAM[2]), 

    S1181$source	PTR const unsigned char  size(2) Largest target is 0

    f...source	PTR const unsigned char  size(2) Largest target is 0

    S1181$buffer	PTR unsigned char  size(2) Largest target is 0

    f...buffer	PTR unsigned char  size(2) Largest target is 0

    LCD_String_xy@msg	PTR const unsigned char  size(2) Largest target is 21
		 -> STR_16(CODE[20]), STR_14(CODE[20]), STR_13(CODE[20]), STR_11(CODE[16]), 
		 -> lcd_buffer(BANK0[21]), data_buffer(BANK0[11]), hora_buffer(BANK0[9]), STR_9(CODE[16]), 
		 -> STR_8(CODE[16]), STR_7(CODE[18]), STR_6(CODE[13]), STR_5(CODE[18]), 
		 -> STR_4(CODE[15]), STR_3(CODE[18]), STR_2(CODE[20]), STR_1(CODE[7]), 

    LCD_String@msg	PTR const unsigned char  size(2) Largest target is 21
		 -> STR_16(CODE[20]), STR_14(CODE[20]), STR_13(CODE[20]), STR_11(CODE[16]), 
		 -> lcd_buffer(BANK0[21]), data_buffer(BANK0[11]), hora_buffer(BANK0[9]), STR_9(CODE[16]), 
		 -> STR_8(CODE[16]), STR_7(CODE[18]), STR_6(CODE[13]), STR_5(CODE[18]), 
		 -> STR_4(CODE[15]), STR_3(CODE[18]), STR_2(CODE[20]), STR_1(CODE[7]), 

    Format_Data@buffer	PTR unsigned char  size(2) Largest target is 11
		 -> data_buffer(BANK0[11]), 

    Format_Data@rtc	PTR struct . size(2) Largest target is 7
		 -> rtc(BANK0[7]), 

    Format_Hora@buffer	PTR unsigned char  size(2) Largest target is 9
		 -> hora_buffer(BANK0[9]), 

    Format_Hora@rtc	PTR struct . size(2) Largest target is 7
		 -> rtc(BANK0[7]), 

    RTC_GetDateTime@rtc	PTR struct . size(2) Largest target is 7
		 -> rtc(BANK0[7]), 

    Display_Mensagens_Iniciais$363	PTR const unsigned char  size(2) Largest target is 20
		 -> STR_14(CODE[20]), STR_13(CODE[20]), 


Critical Paths under _main in COMRAM

    _System_Init->_Ler_Contador_EEPROM
    _RTC_Init->_I2C_Write
    _Ler_Contador_EEPROM->_Ler_EEPROM
    _Ler_EEPROM->_I2C_Read
    _LCD_Init->_LCD_Command
    _Display_Mensagens_Iniciais->_Format_Data
    _Display_Mensagens_Iniciais->_Format_Hora
    _RTC_GetDateTime->_I2C_Read
    _LCD_String_xy->_LCD_String
    _LCD_String->_LCD_Char
    _LCD_Char->_MSdelay
    _LCD_Clear->_LCD_Command
    _LCD_Command->_MSdelay
    _Format_Hora->_sprintf
    _Format_Data->_sprintf
    _sprintf->_vfprintf
    _vfprintf->_vfpfcnvrt
    _vfpfcnvrt->_dtoa
    _stoa->_fputc
    _read_prec_or_width->___wmul
    _dtoa->_pad
    _pad->_fputs
    _fputs->_fputc
    _abs->___awmod
    _Beep->_MSdelay

Critical Paths under _main in BANK0

    _main->_Display_Mensagens_Iniciais
    _Display_Mensagens_Iniciais->_Format_Data
    _Display_Mensagens_Iniciais->_Format_Hora

Critical Paths under _main in BANK1

    None.

Critical Paths under _main in BANK2

    None.

Critical Paths under _main in BANK3

    None.

Critical Paths under _main in BANK4

    None.

Critical Paths under _main in BANK5

    None.

Critical Paths under _main in BANK6

    None.

Critical Paths under _main in BANK7

    None.

Call Graph Tables:

 ---------------------------------------------------------------------------------
 (Depth) Function   	        Calls       Base Space   Used Autos Params    Refs
 ---------------------------------------------------------------------------------
 (0) _main                                                 2     2      0   59820
                                              7 BANK0      2     2      0
                               _Beep
         _Display_Mensagens_Iniciais
                            _MSdelay
                        _System_Init
 ---------------------------------------------------------------------------------
 (1) _System_Init                                          0     0      0    3927
                           _ADC_Init
                           _I2C_Init
                           _LCD_Init
                _Ler_Contador_EEPROM
                           _RTC_Init
 ---------------------------------------------------------------------------------
 (2) _RTC_Init                                             0     0      0      22
                           _I2C_Init
                          _I2C_Start
                           _I2C_Stop
                          _I2C_Write
 ---------------------------------------------------------------------------------
 (3) _I2C_Init                                             0     0      0       0
 ---------------------------------------------------------------------------------
 (2) _Ler_Contador_EEPROM                                  4     4      0     333
                                              5 COMRAM     4     4      0
                         _Ler_EEPROM
 ---------------------------------------------------------------------------------
 (3) _Ler_EEPROM                                           3     1      2     287
                                              2 COMRAM     3     1      2
                           _I2C_Read
                        _I2C_Restart
                          _I2C_Start
                           _I2C_Stop
                          _I2C_Write
 ---------------------------------------------------------------------------------
 (2) _LCD_Init                                             0     0      0    3572
                        _LCD_Command
                            _MSdelay
 ---------------------------------------------------------------------------------
 (2) _ADC_Init                                             0     0      0       0
 ---------------------------------------------------------------------------------
 (1) _Display_Mensagens_Iniciais                           2     2      0   52343
                                              5 BANK0      2     2      0
                        _Format_Data
                        _Format_Hora
                          _LCD_Clear
                      _LCD_String_xy
                            _MSdelay
                    _RTC_GetDateTime
                            _sprintf
 ---------------------------------------------------------------------------------
 (2) _RTC_GetDateTime                                      2     0      2     374
                                              2 COMRAM     2     0      2
                           _I2C_Read
                        _I2C_Restart
                          _I2C_Start
                           _I2C_Stop
                          _I2C_Write
 ---------------------------------------------------------------------------------
 (3) _I2C_Write                                            1     1      0      22
                                              0 COMRAM     1     1      0
                    _i2c_WaitForIdle
 ---------------------------------------------------------------------------------
 (3) _I2C_Stop                                             0     0      0       0
 ---------------------------------------------------------------------------------
 (3) _I2C_Start                                            0     0      0       0
 ---------------------------------------------------------------------------------
 (4) _I2C_Restart                                          0     0      0       0
 ---------------------------------------------------------------------------------
 (4) _I2C_Read                                             2     2      0      46
                                              0 COMRAM     2     2      0
                            _i2c_Ack
                          _i2c_NoAck
                    _i2c_WaitForIdle
 ---------------------------------------------------------------------------------
 (4) _i2c_WaitForIdle                                      0     0      0       0
 ---------------------------------------------------------------------------------
 (5) _i2c_NoAck                                            0     0      0       0
 ---------------------------------------------------------------------------------
 (5) _i2c_Ack                                              0     0      0       0
 ---------------------------------------------------------------------------------
 (2) _LCD_String_xy                                        5     2      3    7068
                                             10 COMRAM     5     2      3
                        _LCD_Command
                         _LCD_String
 ---------------------------------------------------------------------------------
 (3) _LCD_String                                           2     0      2    1929
                                              8 COMRAM     2     0      2
                           _LCD_Char
 ---------------------------------------------------------------------------------
 (4) _LCD_Char                                             2     2      0    1808
                                              6 COMRAM     2     2      0
                            _MSdelay
 ---------------------------------------------------------------------------------
 (2) _LCD_Clear                                            0     0      0    3572
                        _LCD_Command
                            _MSdelay
 ---------------------------------------------------------------------------------
 (3) _LCD_Command                                          2     2      0    1808
                                              6 COMRAM     2     2      0
                            _MSdelay
 ---------------------------------------------------------------------------------
 (2) _Format_Hora                                          9     5      4   13356
                                             90 COMRAM     4     0      4
                                              0 BANK0      5     5      0
                            _sprintf
 ---------------------------------------------------------------------------------
 (2) _Format_Data                                          9     5      4   13356
                                             90 COMRAM     4     0      4
                                              0 BANK0      5     5      0
                            _sprintf
 ---------------------------------------------------------------------------------
 (2) _sprintf                                             26    16     10   12829
                                             66 COMRAM    24    14     10
                           _vfprintf
 ---------------------------------------------------------------------------------
 (3) _vfprintf                                             8     2      6   10954
                                             58 COMRAM     8     2      6
                          _vfpfcnvrt
 ---------------------------------------------------------------------------------
 (4) _vfpfcnvrt                                           21    15      6   10587
                                             40 COMRAM    18    12      6
                               _dtoa
                              _fputc
                 _read_prec_or_width
                               _stoa
                            _strncmp
 ---------------------------------------------------------------------------------
 (5) _strncmp                                             11     5      6     453
                                              0 COMRAM    11     5      6
 ---------------------------------------------------------------------------------
 (5) _stoa                                                22    18      4    2041
                                              9 COMRAM    22    18      4
                              _fputc
                             _strlen
 ---------------------------------------------------------------------------------
 (6) _strlen                                               4     2      2     166
                                              0 COMRAM     4     2      2
 ---------------------------------------------------------------------------------
 (5) _read_prec_or_width                                   9     5      4     871
                                              6 COMRAM     9     5      4
                             ___wmul
 ---------------------------------------------------------------------------------
 (6) ___wmul                                               6     2      4     539
                                              0 COMRAM     6     2      4
 ---------------------------------------------------------------------------------
 (5) _dtoa                                                13     9      4    5060
                                             27 COMRAM    13     9      4
                            ___awdiv
                            ___awmod
                                _abs
                                _pad
 ---------------------------------------------------------------------------------
 (6) _pad                                                 11     5      6    3411
                                             16 COMRAM    11     5      6
                              _fputc
                              _fputs
 ---------------------------------------------------------------------------------
 (7) _fputs                                                7     3      4    1691
                                              9 COMRAM     7     3      4
                              _fputc
 ---------------------------------------------------------------------------------
 (6) _fputc                                                9     5      4    1290
                                              0 COMRAM     9     5      4
                              _putch
 ---------------------------------------------------------------------------------
 (7) _putch                                                1     1      0       0
 ---------------------------------------------------------------------------------
 (6) _abs                                                  4     2      2     142
                                              6 COMRAM     4     2      2
                            ___awmod (ARG)
 ---------------------------------------------------------------------------------
 (6) ___awmod                                              6     2      4     448
                                              0 COMRAM     6     2      4
 ---------------------------------------------------------------------------------
 (6) ___awdiv                                              8     4      4     452
                                              0 COMRAM     8     4      4
 ---------------------------------------------------------------------------------
 (1) _Beep                                                 3     3      0    1786
                                              6 COMRAM     3     3      0
                            _MSdelay
 ---------------------------------------------------------------------------------
 (3) _MSdelay                                              6     4      2    1764
                                              0 COMRAM     6     4      2
 ---------------------------------------------------------------------------------
 Estimated maximum stack depth 7
 ---------------------------------------------------------------------------------

 Call Graph Graphs:

 _main (ROOT)
   _Beep
     _MSdelay
   _Display_Mensagens_Iniciais
     _Format_Data
       _sprintf
         _vfprintf
           _vfpfcnvrt
             _dtoa
               ___awdiv
               ___awmod
               _abs
                 ___awmod (ARG)
               _pad
                 _fputc
                   _putch
                 _fputs
                   _fputc
             _fputc
             _read_prec_or_width
               ___wmul
             _stoa
               _fputc
               _strlen
             _strncmp
     _Format_Hora
       _sprintf
     _LCD_Clear
       _LCD_Command
         _MSdelay
       _MSdelay
     _LCD_String_xy
       _LCD_Command
       _LCD_String
         _LCD_Char
           _MSdelay
     _MSdelay
     _RTC_GetDateTime
       _I2C_Read
         _i2c_Ack
         _i2c_NoAck
         _i2c_WaitForIdle
       _I2C_Restart
       _I2C_Start
       _I2C_Stop
       _I2C_Write
         _i2c_WaitForIdle
     _sprintf
   _MSdelay
   _System_Init
     _ADC_Init
     _I2C_Init
     _LCD_Init
       _LCD_Command
       _MSdelay
     _Ler_Contador_EEPROM
       _Ler_EEPROM
         _I2C_Read
         _I2C_Restart
         _I2C_Start
         _I2C_Stop
         _I2C_Write
     _RTC_Init
       _I2C_Init
       _I2C_Start
       _I2C_Stop
       _I2C_Write

 Address spaces:
Name               Size   Autos  Total    Cost      Usage
BIGRAM             7FF      0       0      28        0.0%
EEDATA             100      0       0       0        0.0%
BITBANK7           100      0       0      18        0.0%
BANK7              100      0       0      19        0.0%
BITBANK6           100      0       0      16        0.0%
BANK6              100      0       0      17        0.0%
BITBANK5           100      0       0      14        0.0%
BANK5              100      0       0      15        0.0%
BITBANK4           100      0       0      12        0.0%
BANK4              100      0       0      13        0.0%
BITBANK3           100      0       0      10        0.0%
BANK3              100      0       0      11        0.0%
BITBANK2           100      0       0       8        0.0%
BANK2              100      0       0       9        0.0%
BITBANK1           100      0       0       6        0.0%
BANK1              100      0       0       7        0.0%
BITBANK0            A0      0       0       4        0.0%
BANK0               A0      9      79       5       75.6%
BITCOMRAM           5F      0       0       0        0.0%
COMRAM              5F     5E      5F       1      100.0%
BITBIGSFRh          2C      0       0      20        0.0%
BITBIGSFRlhhl       2A      0       0      22        0.0%
BITBIGSFRllll       20      0       0      26        0.0%
BITBIGSFRlhhhhh      9      0       0      21        0.0%
BITBIGSFRllh         6      0       0      24        0.0%
BITBIGSFRlhll        5      0       0      23        0.0%
BITBIGSFRlllh        1      0       0      25        0.0%
BIGSFR               0      0       0     200        0.0%
BITSFR               0      0       0     200        0.0%
SFR                  0      0       0     200        0.0%
STACK                0      0       0       2        0.0%
NULL                 0      0       0       0        0.0%
ABS                  0      0      D8      27        0.0%
DATA                 0      0      D8       3        0.0%
CODE                 0      0       0       0        0.0%


Microchip Technology PIC18 Macro Assembler V2.41 build 20230208172133 
Symbol Table                                                                                   Sun Dec  7 18:00:31 2025

                        ?_i2c_WaitForIdle 0001                              ?_LCD_Command 0001  
                             _SSPSTATbits 0FC7                                        _BF 7E38  
                            ___awdiv@sign 0006                       ___wmul@multiplicand 0003  
                             ?_LCD_String 0009                                       l131 7BA8  
                                     l211 6A76                                       l300 6952  
                                     l124 6AA8                                       l150 6EF2  
                                     l230 7278                                       l151 6F36  
                                     l303 6956                                       l320 6B50  
                                     l312 69D0                                       l224 69F0  
                                     l233 7334                                       l306 6964  
                                     l218 6DEA                                       l147 6EB0  
                                     l323 6BD6                                       l315 6B1C  
                                     l227 706C                                       l332 698C  
                                     l236 6924                                       l149 6EC4  
                                     l317 6B2A                                       l309 69BE  
                                     l326 6C1C                                       l335 6992  
                                     l361 6D4A                                       l329 697E  
                                     l338 69A0                                       l291 6940  
                                     l355 6A46                                       l358 6CFE  
                                     l374 6FC4                                       l294 69B6  
                                     l367 6E48                                       l632 71C6  
                                     l288 6932                                       l385 6C66  
                                     l377 6978                                       l297 6944  
                                     l619 73F8                                       l388 6A16  
                                     _PEN 7E2A                                       _SEN 7E28  
                                     _R_W 7E3A                                       _abs 6B52  
                                     _pad 706E                                       _rtc 00BF  
                            ___awmod@sign 0006                                       wreg 0FE8  
                             LCD_Char@dat 0008                                      l1120 79AC  
                                    l1104 783A                                      l1210 691A  
                                    l1106 7842                                      l1107 7888  
                                    ?_abs 0007                                      l1220 7666  
                                    l1207 6BD4                                      l1151 74BE  
                                    l1143 77E0                                      l1127 76E8  
                                    l1216 6ADE                                      l2201 73AC  
                                    l1129 76F0                                      l1138 7798  
                                    l1066 6CB2                                      l2203 73C2  
                                    l2211 73D8                                      l1147 74B6  
                                    l1180 6D98                                      l2213 73E8  
                                    l2205 73CA                                      l2221 711C  
                                    l1093 70B2                                      l2301 784A  
                                    l1166 7E98                                      l2215 73F0  
                                    l2207 73CC                                      l2231 714C  
                                    l2223 712A                                      l2151 74E4  
                                    l2311 7884                                      l2303 785A  
                                    l1184 6B88                                      l1096 70F4  
                                    l2209 73D2                                      l2241 7192  
                                    l2233 715E                                      l2225 7132  
                                    l2153 74EE                                      l2161 6B92  
                                    l2321 78D6                                      l2313 7890  
                                    l2305 7860                                      l2401 75B4  
                                    l3105 7C40                                      l1098 7116  
                                    l3107 6F18                                      l2251 71BE  
                                    l2243 719A                                      l2235 7166  
                                    l2227 7136                                      l2219 7118  
                                    l1187 6B90                                      l2155 750C  
                                    l2147 74C0                                      l2163 6B9E  
                                    l2331 793E                                      l2323 78DC  
                                    l2315 7898                                      l2307 7870  
                                    l2171 6A0E                                      l2411 7606  
                                    l2421 6C2A                                      l2181 7350  
                                    l2245 71A0                                      l2237 716E  
                                    l2229 7144                                      l2157 7542  
                                    l2149 74D2                                      l2165 6BB0  
                                    l2261 709E                                      l2341 798C  
                                    l2333 7958                                      l2317 789E  
                                    l2325 78F8                                      l2309 787C  
                                    l2413 7618                                      l2405 75C0  
                                    l2501 7DDC                                      l2431 6C4C  
                                    l2191 7376                                      l2183 7354  
                                    l2175 7336                                      l2239 717C  
                                    l2247 71A6                                      l1199 7588  
                                    l2167 6BB4                                      l2271 7102  
                                    l2263 70AA                                      l2255 706E  
                                    l2327 7912                                      l2335 7966  
                                    l2319 78D0                                      l2351 7694  
                                    l2415 7642                                      l2407 75CE  
                                    l2433 6C50                                      l2193 7388  
                                    l2185 7362                                      l2177 733A  
                                    l2249 71B6                                      l2273 6B52  
                                    l2265 70BE                                      l2257 707C  
                                    l2337 7976                                      l2329 7924  
                                    l2169 69F2                                      l2281 6ABA  
                                    l2353 769C                                      l2345 7668  
                                    l2409 75EA                                      l2513 7E5E  
                                    l2505 7E14                                      l2441 6C00  
                                    l2601 6A4C                                      l2427 6C32  
                                    l2419 6C1E                                      l2195 7390  
                                    l2187 736A                                      l2179 7348  
                                    l2275 6B6C                                      l2267 70D2  
                                    l2259 7090                                      l2339 797C  
                                    l2291 7806                                      l2283 6AD2  
                                    l2371 7754                                      l2363 7712  
                                    l2355 76B0                                      l2347 767A  
                                    l2507 7E38                                      l2451 7BCE  
                                    l2443 6C0E                                      l2435 6BD6  
                                    l2531 69CC                                      l2611 6A70  
                                    l2603 6A52                                      l2429 6C36  
                                    l2197 7398                                      l2189 736E  
                                    l2269 70D6                                      l2293 780E  
                                    l2277 6AAA                                      l2381 77AA  
                                    l2373 7772                                      l2365 7726  
                                    l2357 76B8                                      l2349 7682  
                                    l2509 7E46                                      l2461 7BFC  
                                    l2453 7BDC                                      l2517 7E70  
                                    l2621 6CC8                                      l2701 6F92  
                                    l2445 697A                                      l2437 6BE4  
                                    l2541 6B32                                      l2533 6930  
                                    l2613 6A74                                      l2605 6A58  
                                    l2199 73A6                                      l2295 781E  
                                    l2287 77E2                                      l2391 7426  
                                    l2279 6AB6                                      l2383 77BE  
                                    l2375 7776                                      l2367 772A  
                                    l2359 76C6                                      l2471 7C60  
                                    l2463 7C0E                                      l2455 7BEA  
                                    l2631 6CEC                                      l2623 6CCA  
                                    l2703 6F98                                      l2447 698E  
                                    l2439 6BF2                                      l2543 6B42  
                                    l2535 6B1A                                      l2527 6942  
                                    l2551 6954                                      l2711 6FC6  
                                    l2607 6A5E                                      l2297 7820  
                                    l2289 77F6                                      l2393 7460  
                                    l2385 77C2                                      l2377 777A  
                                    l2369 7748                                      l2481 7CC2  
                                    l2473 7C7C                                      l2457 7BEE  
                                    l2449 7BAA                                      l2633 6CEE  
                                    l2625 6CCC                                      l2617 6CB6  
                                    l2561 6D18                                      l2553 6D02  
                                    l2641 6E14                                      l2705 6FAA  
                                    l2545 6B4A                                      l2537 6B1A  
                                    l2529 69BA                                      l2721 6FF0  
                                    l2713 6FCA                                      l2801 79E8  
                                    l2609 6A68                                      l2299 782E  
                                    l2395 7480                                      l2387 73FA  
                                    l2491 7D5E                                      l2483 7CDE  
                                    l2475 7C8C                                      l2467 7C1A  
                                    l2459 7BFA                                      l2635 6CF0  
                                    l2627 6CCE                                      l2619 6CC6  
                                    l2571 6D3C                                      l2563 6D1A  
                                    l2555 6D12                                      l2643 6E18  
                                    l2707 6FB2                                      l2547 6B4E  
                                    l2539 6B2E                                      l2731 7054  
                                    l2723 7004                                      l2715 6FD0  
                                    l2811 7A62                                      l2803 7A0A  
                                    l2651 6A2E                                      l2397 748E  
                                    l2389 7402                                      l2493 7D94  
                                    l2485 7D22                                      l2477 7C96  
                                    l2469 7C4E                                      l2573 6D4C  
                                    l2741 730E                                      l2629 6CDA  
                                    l2565 6D26                                      l2557 6D14  
                                    l2637 6DEC                                      l2709 6FB8  
                                    l2733 7068                                      l2725 7018  
                                    l2717 6FDA                                      l2821 7ABA  
                                    l2813 7A74                                      l2805 7A1C  
                                    l2653 6A34                                      l2645 6A18  
                                    l2661 69D6                                      l2399 758A  
                                    l2495 7DB8                                      l2479 7CA6  
                                    l2575 6D58                                      l2591 6C80  
                                    l2735 71C8                                      l2567 6D38  
                                    l2559 6D16                                      l2639 6DF0  
                                    l2727 702C                                      l2719 6FE0  
                                    l2831 7B0A                                      l2823 7ACC  
                                    l2815 7A80                                      l2807 7A2E  
                                    l2671 691C                                      l2655 6A3A  
                                    l2647 6A1C                                      l2583 69A2  
                                    l2663 69DA                                      l2751 6A8E  
                                    l2743 6A78                                      l2497 7DC4  
                                    l2489 7D3A                                      l2577 6D74  
                                    l2593 6C88                                      l2737 7252  
                                    l2681 6966                                      l2569 6D3A  
                                    l2729 7040                                      l2841 7B5C  
                                    l2833 7B1C                                      l2825 7AE8  
                                    l2817 7A94                                      l2809 7A40  
                                    l2657 6A40                                      l2649 6A28  
                                    l2673 6D9A                                      l2585 69A6  
                                    l2665 69E0                                      l2761 6A9C  
                                    l2753 6A90                                      l2745 6A88  
                                    l2771 6EBE                                      l2499 7DCC  
                                    l2579 6D90                                      l2595 6CA4  
                                    l2587 6C68                                      l2739 727A  
                                    l2691 6F58                                      l2683 6F3A  
                                    l2843 7B6E                                      l2835 7B40  
                                    l2827 7AFA                                      l2819 7AA8  
                                    l2675 6DB6                                      l2667 69E6  
                                    l2659 69D2                                      l2763 6AA0  
                                    l2755 6A92                                      l2747 6A8A  
                                    l2781 6EF4                                      l2773 6EC6  
                                    l2589 6C78                                      l2693 6F6A  
                                    l2685 6F3A                                      l2845 7B8A  
                                    l2837 7B52                                      l2829 7B06  
                                    l2677 6DCE                                      l2669 69EC  
                                    l2765 6AA4                                      l2757 6A94  
                                    l2749 6A8C                                      ?_pad 0011  
                                    l2775 6ED2                                      l2767 6EAC  
                                    l2695 6F72                                      l2687 6F4A  
                                    l2847 7B9C                                      l2599 6A48  
                                    l2679 6DE2                                      l2759 6A98  
                                    l2871 6E5C                                      l2863 6E4A  
                                    l2777 6EE0                                      l2769 6EB2  
                                    l2697 6F78                                      l2689 6F52  
                                    l2793 79AE                                      l2881 6E9C  
                                    l2873 6E62                                      l2865 6E4E  
                                    l2787 6F04                                      l2699 6F8A  
                                    l2795 79B2                                      l2875 6E86  
                                    l2867 6E52                                      l2797 79C4  
                                    l2877 6E8E                                      l2869 6E58  
                                    l2799 79D6                                      l2879 6E90  
                                    STR_1 7FEC                                      STR_2 7F3B  
                                    STR_3 7F73                                      STR_4 7FA5  
                                    STR_5 7F4F                                      STR_6 7FD2  
                                    STR_7 7F61                                      STR_8 7F95  
                                    STR_9 7F85                                      u1100 6BD4  
                                    u1101 6BD0                                      u1110 7348  
                                    u1111 7344                                      u1120 7362  
                                    u1200 717C                                      u1121 735E  
                                    u1201 7178                                      u1130 7388  
                                    u1210 7192                                      u1131 7384  
                                    u1211 718E                                      u1140 73A6  
                                    u1220 71B6                                      u1060 74D2  
                                    u1300 77F4                                      u1141 73A2  
                                    u1221 71B2                                      u1061 74CE  
                                    u1150 73C2                                      u1070 74E4  
                                    u1230 707C                                      u1310 7806  
                                    u1151 73BE                                      u1071 74E0  
                                    u1231 7078                                      u1311 7802  
                                    u1160 73E8                                      u1080 750C  
                                    u1240 709E                                      u1400 7966  
                                    u1320 781E                                      u1161 73E4  
                                    u1081 7508                                      u1241 709A  
                                    u1401 7962                                      u1321 781A  
                                    u1170 712A                                      u1090 7542  
                                    u1250 70F4                                      u1410 7976  
                                    u1330 782E                                      u1171 7126  
                                    u1091 753E                                      u1251 70F0  
                                    u1411 7972                                      u1331 782A  
                                    u1180 7144                                      u1260 7102  
                                    u1340 785A                                      u1500 77E0  
                                    u1181 7140                                      u1261 70FE  
                                    u1341 7856                                      u1501 77DC  
                                    u1421 7672                                      u1190 715E  
                                    u1270 6B6C                                      u1350 7870  
                                    u1510 7426                                      u1430 7694  
                                    _LATB 0F8A                                      u1191 715A  
                                    u1271 6B68                                      u1351 786C  
                                    u1511 7422                                      u1431 7690  
                                    u1360 7912                                      u1520 74B6  
                                    u1280 6AD2                                      u1440 76C6  
                                    u1600 6BE4                                      u1361 790E  
                                    u1521 74B2                                      u1281 6ACE  
                                    u1441 76C2                                      u1601 6BE0  
                                    u1370 7924                                      u1290 77F2  
                                    u1450 76E4                                      u1530 75B4  
                                    u1610 6BF2                                      u1371 7920  
                                    u1291 77EC                                      u1451 76E0  
                                    u1531 75B0                                      u1611 6BEE  
                                    u1380 793E                                      u1460 770E  
                                    u1540 75EA                                      u1700 7CC2  
                                    u1620 6C00                                      u1381 793A  
                                    u1461 770A                                      u1541 75E6  
                                    u1701 7CBE                                      u1621 6BFC  
                                    u1390 7958                                      u1470 7748  
                                    u1550 7606                                      u1710 7CDE  
                                    u1630 6C0E                                      u1391 7954  
                                    u1471 7744                                      u1551 7602  
                                    u1711 7CDA                                      u1631 6C0A  
                                    u1480 7798                                      u1560 7618  
                                    u1720 7D5E                                      u1640 6C1C  
                                    u1800 6B42                                      u1481 7794  
                                    u1561 7614                                      u1721 7D5A  
                                    u1641 6C18                                      u1801 6B3E  
                                    u1490 77A6                                      u1570 7642  
                                    u1730 7D94                                      u1650 698C  
                                    u1810 6964                                      u1491 77A2  
                                    u1571 763E                                      u1731 7D90  
                                    u1651 6988                                      u1811 6960  
                                    u1580 6C4C                                      u1740 7DB8  
                                    u1820 6D90                                      u1900 6FAA  
                                    u1660 69A0                                      u1581 6C48  
                                    u1741 7DB4                                      u1821 6D8C  
                                    u1901 6FA6                                      u1661 699C  
                                    u1590 6C66                                      u1750 7E38  
                                    u1670 7BCE                                      u1830 6E10  
                                    u1910 6E86                                      u1591 6C62  
                                    u1751 7E34                                      u1671 7BCA  
                                    u1911 6E82                                      u1680 7C60  
                                    u1840 6E38                                      u1760 6952  
                                    u1681 7C5C                                      u1761 694E  
                                    u1690 7C8C                                      u1850 6E48  
                                    u1770 69CC                                      u1691 7C88  
                                    u1851 6E44                                      u1771 69C8  
                                    u1780 6940                                      u1860 6DE2  
                                    u1837 6E06                                      u1781 693C  
                                    u1861 6DDE                                      u1870 6F4A  
                                    u1790 6B2A                                      u1847 6E2E  
                                    u1871 6F46                                      u1791 6B26  
                                    u1880 6F6A                                      u1881 6F66  
                                    u1890 6F8A                                      u1891 6F86  
                                    _RCEN 7E2B                                      _RSEN 7E29  
                                    _Beep 6EAA                                      abs@a 0007  
                                    _dbuf 0076                                      _main 6E4A  
                                    _dtoa 77E2                                      _prec 0062  
                        __end_of_I2C_Init 69B8                          __end_of_I2C_Read 6B52  
                                    pad@i 0018                                      pad@p 0015  
                                    fsr0h 0FEA                                      fsr1h 0FE2  
                                    indf0 0FEF                                      fsr2h 0FDA  
                                    fsr0l 0FE9                                      indf2 0FDF  
                                    fsr1l 0FE1                                      pad@w 001A  
                                    fsr2l 0FD9                                      _stoa 7668  
                        __end_of_I2C_Stop 6966                          __end_of_ADC_Init 6926  
                                    prodh 0FF4                                      prodl 0FF3  
                                    start 0000                           __end_of_MSdelay 6C68  
                           ??_Format_Data 00D0                             _LCD_String_xy 6F38  
                           ??_Format_Hora 00D0                              ___param_bank 0000  
                         __end_of_i2c_Ack 698E                        Ler_EEPROM@endereco 0003  
                                   ??_abs 0009                                     ??_pad 0017  
                        __end_of_LCD_Char 6D4C                          __end_of_LCD_Init 6A48  
                                   ?_Beep 0001                                     ?_main 0001  
                                   ?_dtoa 001C                                     _ACKEN 7E2C  
                                   _ACKDT 7E2D                           __end_of___awdiv 73FA  
                                   STR_10 7FDF                                     STR_11 7F95  
                                   STR_12 7FF3                                     STR_20 7F13  
                                   STR_13 7EEB                                     STR_21 7EAF  
                                   STR_22 7EC3                                     STR_14 7E9B  
                                   STR_15 7FDF                                     STR_23 7FB4  
                                   STR_24 7FC3                                     STR_16 7ED7  
                                   STR_25 7FFA                                     STR_18 7EFF  
                                   STR_27 7FFA                                     STR_19 7F27  
                         __end_of___awmod 71C8                           _contador_ciclos 006E  
                                   ?_stoa 000A                           ___awdiv@divisor 0003  
                                   _LATC0 7C58                                     _LATB2 7C52  
                                   _LATC1 7C59                                     _LATB3 7C53  
                                   _LATD0 7C60                                     _LATC2 7C5A  
                                   _LATD1 7C61                                     _LATD2 7C62  
                                   _LATD3 7C63                                     _LATC6 7C5E  
                                   _LATC7 7C5F                                     _LATD7 7C67  
                         ___awdiv@counter 0005                              vfpfcnvrt@fmt 002B  
                                   _PORTC 0F82                                     _PORTD 0F83  
                                   _TRISB 0F93                                     _TRISC 0F94  
                                   _TRISD 0F95                                _Ler_EEPROM 6A48  
                                   _flags 005F                       read_prec_or_width@c 000D  
                     read_prec_or_width@n 000E                                     _fputc 74C0  
                                   _fputs 6B92                          __end_of_RTC_Init 69F2  
                                   pad@fp 0011                                     _width 0060  
                                   _putch 691A                                     dtoa@d 001E  
                                   dtoa@i 0026                                     dtoa@p 0022  
                                   dtoa@s 0028                                     dtoa@w 0024  
                       __end_of_I2C_Start 6954                         __end_of_I2C_Write 69D2  
                                   tablat 0FF5                                     plusw1 0FE3  
                                   plusw2 0FDB                                     stoa@i 0016  
                                   stoa@l 001E                                     stoa@p 001C  
                                   stoa@s 000C                                     stoa@w 0018  
                                   status 0FD8                           __end_of_sprintf 6CB4  
                         __end_of_strncmp 7668                            ?_LCD_String_xy 000B  
                            __end_of_Beep 6F38                           __initialization 6AE0  
                            __end_of_main 6EAA                              __end_of_dtoa 79AE  
                            __end_of_stoa 77E2                                    ??_Beep 0007  
                     __end_of_Format_Data 7336                       __end_of_Format_Hora 727A  
                                  ??_main 00D7                                    ??_dtoa 0020  
                                  ??_stoa 000E                         __end_of_LCD_Clear 697A  
                           __activetblptr 0002                __end_of_read_prec_or_width 74C0  
                                  _ADCON0 0FC2                                    _ADCON1 0FC1  
                                  _ADCON2 0FC0       Sequenciador_Automatico@estado_timer 0064  
                                  ?_fputc 0001                                    ?_fputs 000A  
                                  _ADRESH 0FC4                                    _ADRESL 0FC3  
                        ___awdiv@dividend 0001                                    ?_putch 0001  
                        LCD_String_xy@msg 000C                          LCD_String_xy@pos 000B  
                        LCD_String_xy@row 000E                                 ??_MSdelay 0003  
                                  _OSCCON 0FD3               ?_Display_Mensagens_Iniciais 0001  
                           vfpfcnvrt@done 0035                                    _SSPADD 0FC8  
                                  _SSPBUF 0FC9                                 ??_i2c_Ack 0001  
                            vfprintf@cfmt 0041                     I2C_Write@v_i2cData_u8 0001  
                      _ciclo_em_andamento 0073                                    ___wmul 69F2  
                               ??___awdiv 0005                    Ler_Contador_EEPROM@low 0009  
                               ??___awmod 0005                      read_prec_or_width@ap 0009  
                                  clear_0 6B06                          ___awdiv@quotient 0007  
                         ___awmod@divisor 0003                                    isa$std 0001  
                         ___awmod@counter 0005                                    pad@buf 0013  
                                  dtoa@fp 001C                                    _strlen 6AAA  
                                  fputc@c 0001                                    fputs@c 000E  
                                  fputs@i 000F                                    fputs@s 000A  
                               ?_I2C_Init 0001                                 ?_I2C_Read 0001  
                               ?_I2C_Stop 0001                                 ?_ADC_Init 0001  
                             ?_Ler_EEPROM 0003                              __mediumconst 7E9A  
                                  tblptrh 0FF7                                    tblptrl 0FF6  
                                  tblptru 0FF8                                    stoa@cp 001A  
                                  stoa@fp 000A                                    putch@c 0001  
                        __end_of_vfprintf 6D9A                                 ??_sprintf 004D  
                               ??_strncmp 0007                         Format_Data@buffer 005B  
                               ?_LCD_Char 0001                                __accesstop 0060  
                 __end_of__initialization 6B0E                                 ?_LCD_Init 0001  
                         ??_LCD_String_xy 000E                             ___rparam_used 0001  
                             _Format_Data 727A                               _Format_Hora 71C8  
                          __pcstackCOMRAM 0001                              __pidataBANK0 6926  
                       __end_of_i2c_NoAck 69A2                             __end_of_fputc 758A  
                           __end_of_fputs 6BD6                             __end_of_putch 691C  
                            ??_LCD_String 000B                                 ?_RTC_Init 0001  
                              ??_I2C_Init 0001                                ??_I2C_Read 0001  
                              ??_I2C_Stop 0001                                ??_ADC_Init 0001  
                                 ??_fputc 0005                                   ??_fputs 000E  
          _Display_Mensagens_Iniciais$363 00D5                                   ??_putch 0001  
                              __pbssBANK0 0060                                ??_LCD_Char 0007  
                              ??_LCD_Init 0009                        __end_of_LCD_String 6E4A  
                                 ?___wmul 0001                                ??_RTC_Init 0002  
                                 ?_strlen 0001                             ??_I2C_Restart 0001  
                              _lcd_buffer 0096                                   _SSPCON1 0FC6  
                                 _SSPCON2 0FC5                                   _SSPSTAT 0FC7  
                                 _MSdelay 6C1E                                   _i2c_Ack 697A  
                           ??_System_Init 000A                                 _I2C_Start 6942  
                               _I2C_Write 69B8                             LCD_String@msg 0009  
                                 __Hparam 0000                                   __Lparam 0000  
                                 ___awdiv 7336                                   ___awmod 7118  
                               ?_vfprintf 003B                   Ler_Contador_EEPROM@high 0008  
                                 __pcinit 6AE0                                   __ramtop 0800  
                                 __ptext0 6E4A                                   __ptext1 6A78  
                                 __ptext2 69D2                                   __ptext3 69A2  
                                 __ptext4 6D9A                                   __ptext5 6A48  
                                 __ptext6 6A18                                   __ptext7 691C  
                                 __ptext8 79AE                                   __ptext9 6FC6  
                   read_prec_or_width@fmt 0007                         Format_Hora@buffer 005B  
                        ___awmod@dividend 0001                       Modo_Manual@last_inc 00CF  
                     Modo_Manual@last_ent 00CD                       Modo_Manual@last_dow 00CE  
                     _Ler_Contador_EEPROM 6D9A                                 _LCD_Clear 6966  
                                 _sprintf 6C68                       __end_of_I2C_Restart 6942  
                                 _strncmp 758A                      end_of_initialization 6B0E  
                  I2C_Read@v_ackOption_u8 0001                                   fputc@fp 0003  
                          LCD_Command@cmd 0008                             __Lmediumconst 7E9A  
                                 fputs@fp 000C                        _read_prec_or_width 73FA  
                              ?_I2C_Start 0001                                ?_I2C_Write 0001  
           Sequenciador_Automatico@estado 0070                         ??_RTC_GetDateTime 0005  
                    ?_Ler_Contador_EEPROM 0001                         __end_of_vfpfcnvrt 7E9A  
                                 postdec1 0FE5                                   postdec2 0FDD  
                     ?_read_prec_or_width 0007                                   postinc0 0FEE  
                                 postinc1 0FE6                                   postinc2 0FDE  
                     __end_of_System_Init 6AAA                          vfpfcnvrt@convarg 0031  
                              ??_vfprintf 0041                                   strlen@a 0003  
                                 strlen@s 0001                                 _PORTAbits 0F80  
                            ??_Ler_EEPROM 0005                                 _TRISAbits 0F92  
                               _TRISBbits 0F93                             _modo_operacao 0075  
                              ?_LCD_Clear 0001                      ??_read_prec_or_width 000B  
                       ??_i2c_WaitForIdle 0001                     ??_Ler_Contador_EEPROM 0006  
                            ?_Format_Data 005B                              ?_Format_Hora 005B  
                      __end_of_Ler_EEPROM 6A78                             ??_LCD_Command 0007  
                             vfpfcnvrt@ap 002D                               vfpfcnvrt@cp 0039  
                             vfpfcnvrt@fp 0029                            __end_of___wmul 6A18  
                               _i2c_NoAck 698E                               _I2C_Restart 6930  
                             _adc_pressao 006A                            __end_of_strlen 6AE0  
                     start_initialization 6AE0                               __end_of_abs 6B92  
                             __end_of_pad 7118                       _valvula_selecionada 0074  
                             ??_I2C_Start 0001                               _System_Init 6A78  
                             ??_I2C_Write 0001                     __end_of_LCD_String_xy 6FC6  
                             vfprintf@fmt 003D                                  ??___wmul 0005  
                         Format_Hora@hora 00D2                             _falha_pressao 0072  
                             __pdataBANK0 00C6                                  ??_strlen 0003  
                         main@blink_timer 0068                                ?_i2c_NoAck 0001  
                     __end_of_LCD_Command 6D00                            Ler_EEPROM@dado 0005  
                             __pbssCOMRAM 005F                             __pcstackBANK0 00D0  
                             ??_LCD_Clear 0009                               _data_buffer 00AB  
                                ?_MSdelay 0001                                  ?_i2c_Ack 0001  
Atualizar_Display_Principal@display_timer 0066                                 _dtoa$1274 0020  
                           __pmediumconst 7E9A                                  ?___awdiv 0001  
                                ?___awmod 0001                      I2C_Read@v_i2cData_u8 0002  
                                _I2C_Init 69A2                                  _I2C_Read 6B18  
                                _I2C_Stop 6954                                  _ADC_Init 691C  
                         _RTC_GetDateTime 6FC6                                  Beep@tipo 0009  
                   LCD_String_xy@location 000F                                  ?_sprintf 0043  
                                ?_strncmp 0001                                  MSdelay@i 0003  
                                MSdelay@j 0005                                  _LCD_Char 6D00  
                                _LCD_Init 6A18                            ___wmul@product 0005  
            ??_Display_Mensagens_Iniciais 005F                               _LCD_Command 6CB4  
                               _vfpfcnvrt 7BAA                                  _RTC_Init 69D2  
                              _ADCON0bits 0FC2                         ___wmul@multiplier 0001  
                             ??_i2c_NoAck 0001                           _i2c_WaitForIdle 6BD6  
                               copy_data0 6AF4                            Format_Data@dia 00D2  
                          Format_Data@ano 00D4                            Format_Data@mes 00D3  
                          Format_Data@rtc 005D                                  __Hrparam 0000  
                              vfprintf@ap 003F                                  __Lrparam 0000  
                              vfprintf@fp 003B                            Format_Hora@min 00D3  
                          Format_Hora@seg 00D4                            Format_Hora@rtc 005D  
                              ?_vfpfcnvrt 0029                               _hora_buffer 00B6  
                 __end_of_RTC_GetDateTime 706E                              ?_I2C_Restart 0001  
                              sprintf@fmt 0045                                  __ptext10 69B8  
                                __ptext11 6954                                  __ptext20 6D00  
                                __ptext12 6942                                  __ptext21 6966  
                                __ptext13 6930                                  __ptext30 6AAA  
                                __ptext22 6CB4                                  __ptext14 6B18  
                                __ptext31 73FA                                  __ptext23 71C8  
                                __ptext15 6BD6                                  __ptext40 7336  
                                __ptext32 69F2                                  __ptext24 727A  
                                __ptext16 698E                                  __ptext41 6EAA  
                                __ptext33 77E2                                  __ptext25 6C68  
                                __ptext17 697A                                  __ptext42 6C1E  
                                __ptext34 706E                                  __ptext26 6D4C  
                                __ptext18 6F38                                  __ptext35 6B92  
                                __ptext27 7BAA                                  __ptext19 6DEC  
                                __ptext36 74C0                                  __ptext28 758A  
                                __ptext37 691A                                  __ptext29 7668  
                                __ptext38 6B52                                  __ptext39 7118  
             __end_of_Ler_Contador_EEPROM 6DEC                              ?_System_Init 0001  
                              MSdelay@val 0001                                 stoa@F1156 00C6  
                                isa$xinst 0000                   __end_of_i2c_WaitForIdle 6C1E  
                                _vfprintf 6D4C                                _LCD_String 6DEC  
                          _vfpfcnvrt$1312 0037                        RTC_GetDateTime@rtc 0003  
                               sprintf@ap 004D        __end_of_Display_Mensagens_Iniciais 7BAA  
              _Display_Mensagens_Iniciais 79AE                                 strncmp@_l 0001  
                               strncmp@_r 0003                              _temporizador 006C  
                             ??_vfpfcnvrt 002F                                  stoa@nuls 000F  
                        ?_RTC_GetDateTime 0003                                  sprintf@f 004F  
                                sprintf@s 0043                                  strncmp@l 0008  
                                strncmp@n 0005                                  strncmp@r 000A  
                             _SSPCON2bits 0FC5      Sequenciador_Automatico@valvula_atual 0071  
