

Microchip MPLAB XC8 Assembler V2.41 build 20230208172133 
                                                                                               Sun Dec  7 13:01:35 2025

Microchip MPLAB XC8 C Compiler v2.41 (Free license) build 20230208172133 Og1 
     1                           	processor	18F4550
     2                           	fnconf	rparam,??,?,0
     3                           	pagewidth 120
     4                           	opt	flic
     5                           	psect	idataBANK0,global,class=CODE,delta=1,noexec
     6                           	psect	smallconst,global,reloc=2,class=SMALLCONST,delta=1,noexec
     7                           	psect	cinit,global,reloc=2,class=CODE,delta=1
     8                           	psect	bssCOMRAM,global,class=COMRAM,space=1,delta=1,lowdata,noexec
     9                           	psect	bssBANK0,global,class=BANK0,space=1,delta=1,lowdata,noexec
    10                           	psect	dataBANK0,global,class=BANK0,space=1,delta=1,lowdata,noexec
    11                           	psect	cstackBANK0,global,class=BANK0,space=1,delta=1,lowdata,noexec
    12                           	psect	cstackCOMRAM,global,class=COMRAM,space=1,delta=1,lowdata,noexec
    13                           	psect	text0,global,reloc=2,class=CODE,delta=1
    14                           	psect	text1,global,reloc=2,class=CODE,delta=1,group=3
    15                           	psect	text2,global,reloc=2,class=CODE,delta=1,group=1
    16                           	psect	text3,global,reloc=2,class=CODE,delta=1,group=1
    17                           	psect	text4,global,reloc=2,class=CODE,delta=1,group=1
    18                           	psect	text5,global,reloc=2,class=CODE,delta=1,group=1
    19                           	psect	text6,global,reloc=2,class=CODE,delta=1,group=3
    20                           	psect	text7,global,reloc=2,class=CODE,delta=1,group=3
    21                           	psect	text8,global,reloc=2,class=CODE,delta=1,group=3
    22                           	psect	text9,global,reloc=2,class=CODE,delta=1
    23                           	psect	text10,global,reloc=2,class=CODE,delta=1
    24                           	psect	text11,global,reloc=2,class=CODE,delta=1
    25                           	psect	text12,global,reloc=2,class=CODE,delta=1
    26                           	psect	text13,global,reloc=2,class=CODE,delta=1
    27                           	psect	text14,global,reloc=2,class=CODE,delta=1
    28                           	psect	text15,global,reloc=2,class=CODE,delta=1
    29                           	psect	text16,global,reloc=2,class=CODE,delta=1
    30                           	psect	text17,global,reloc=2,class=CODE,delta=1
    31                           	psect	text18,global,reloc=2,class=CODE,delta=1
    32                           	psect	text19,global,reloc=2,class=CODE,delta=1
    33                           	psect	text20,global,reloc=2,class=CODE,delta=1
    34                           	psect	text21,global,reloc=2,class=CODE,delta=1
    35                           	psect	text22,global,reloc=2,class=CODE,delta=1
    36                           	psect	text23,global,reloc=2,class=CODE,delta=1
    37                           	psect	text24,global,reloc=2,class=CODE,delta=1
    38                           	psect	text25,global,reloc=2,class=CODE,delta=1
    39                           	psect	text26,global,reloc=2,class=CODE,delta=1
    40                           	psect	intsave_regs,global,class=BIGRAM,space=1,delta=1,noexec
    41                           	psect	rparam,global,class=COMRAM,space=1,delta=1,noexec
    42                           	psect	config,global,abs,ovrld,class=CONFIG,space=4,delta=1,noexec
    43   000000                     
    44                           ; Generated 23/03/2023 GMT
    45                           ; 
    46                           ; Copyright © 2023, Microchip Technology Inc. and its subsidiaries ("Microchip")
    47                           ; All rights reserved.
    48                           ; 
    49                           ; This software is developed by Microchip Technology Inc. and its subsidiaries ("Microch
      +                          ip").
    50                           ; 
    51                           ; Redistribution and use in source and binary forms, with or without modification, are
    52                           ; permitted provided that the following conditions are met:
    53                           ; 
    54                           ;     1. Redistributions of source code must retain the above copyright notice, this lis
      +                          t of
    55                           ;        conditions and the following disclaimer.
    56                           ; 
    57                           ;     2. Redistributions in binary form must reproduce the above copyright notice, this 
      +                          list
    58                           ;        of conditions and the following disclaimer in the documentation and/or other
    59                           ;        materials provided with the distribution. Publication is not required when
    60                           ;        this file is used in an embedded application.
    61                           ; 
    62                           ;     3. Microchip's name may not be used to endorse or promote products derived from th
      +                          is
    63                           ;        software without specific prior written permission.
    64                           ; 
    65                           ; THIS SOFTWARE IS PROVIDED BY MICROCHIP "AS IS" AND ANY EXPRESS OR IMPLIED WARRANTIES,
    66                           ; INCLUDING, BUT NOT LIMITED TO, THE IMPLIED WARRANTIES OF MERCHANTABILITY AND FITNESS F
      +                          OR
    67                           ; PURPOSE ARE DISCLAIMED.  IN NO EVENT SHALL MICROCHIP BE LIABLE FOR ANY DIRECT, INDIREC
      +                          T,
    68                           ; INCIDENTAL, SPECIAL, EXEMPLARY, OR CONSEQUENTIAL DAMAGES (INCLUDING BUT NOT LIMITED TO
    69                           ; PROCUREMENT OF SUBSTITUTE GOODS OR SERVICES; LOSS OF USE, DATA OR PROFITS; OR BUSINESS
    70                           ; INTERRUPTION) HOWSOEVER CAUSED AND ON ANY THEORY OF LIABILITY, WHETHER IN CONTRACT, ST
      +                          RICT
    71                           ; LIABILITY, OR TORT (INCLUDING NEGLIGENCE OR OTHERWISE) ARISING IN ANY WAY OUT OF THE U
      +                          SE OF
    72                           ; THIS SOFTWARE, EVEN IF ADVISED OF THE POSSIBILITY OF SUCH DAMAGE.
    73                           ; 
    74                           ; 
    75                           ; Code-generator required, PIC18F4550 Definitions
    76                           ; 
    77                           ; SFR Addresses
    78   000000                     
    79                           	psect	idataBANK0
    80   0013FC                     __pidataBANK0:
    81                           	callstack 0
    82                           
    83                           ;initializer for main@F3571
    84   0013FC  53                 	db	83
    85   0013FD  4D                 	db	77
    86   0013FE  54                 	db	84
    87   0013FF  57                 	db	87
    88   001400  74                 	db	116
    89   001401  46                 	db	70
    90   001402  73                 	db	115
    91   000000                     _SSPADD	set	4040
    92   000000                     _SSPCON1	set	4038
    93   000000                     _SSPBUF	set	4041
    94   000000                     _SSPSTATbits	set	4039
    95   000000                     _TRISB	set	3987
    96   000000                     _SSPCON2bits	set	4037
    97   000000                     _SSPCON2	set	4037
    98   000000                     _SSPSTAT	set	4039
    99   000000                     _LATB3	set	31827
   100   000000                     _LATB2	set	31826
   101   000000                     _ACKEN	set	32300
   102   000000                     _ACKDT	set	32301
   103   000000                     _PEN	set	32298
   104   000000                     _RSEN	set	32297
   105   000000                     _ACKSTAT	set	32302
   106   000000                     _TRISB1	set	31897
   107   000000                     _LATB	set	3978
   108   000000                     _OSCCON	set	4051
   109   000000                     _TRISB0	set	31896
   110   000000                     _RCEN	set	32299
   111   000000                     _SSPIE	set	31979
   112   000000                     _SSPIF	set	31987
   113                           
   114                           	psect	smallconst
   115   000800                     __psmallconst:
   116                           	callstack 0
   117   000800  00                 	db	0
   118   000801                     STR_9:
   119   000801  43                 	db	67	;'C'
   120   000802  61                 	db	97	;'a'
   121   000803  6C                 	db	108	;'l'
   122   000804  20                 	db	32
   123   000805  25                 	db	37
   124   000806  78                 	db	120	;'x'
   125   000807  2D                 	db	45
   126   000808  00                 	db	0
   127   000809                     STR_5:
   128   000809  54                 	db	84	;'T'
   129   00080A  69                 	db	105	;'i'
   130   00080B  6D                 	db	109	;'m'
   131   00080C  3A                 	db	58	;':'
   132   00080D  25                 	db	37
   133   00080E  78                 	db	120	;'x'
   134   00080F  3A                 	db	58	;':'
   135   000810  00                 	db	0
   136   000811                     STR_3:
   137   000811  25                 	db	37
   138   000812  78                 	db	120	;'x'
   139   000813  20                 	db	32
   140   000814  00                 	db	0
   141   000815                     STR_15:
   142   000815  57                 	db	87	;'W'
   143   000816  65                 	db	101	;'e'
   144   000817  64                 	db	100	;'d'
   145   000818  00                 	db	0
   146   000819                     STR_14:
   147   000819  54                 	db	84	;'T'
   148   00081A  75                 	db	117	;'u'
   149   00081B  65                 	db	101	;'e'
   150   00081C  00                 	db	0
   151   00081D                     STR_17:
   152   00081D  46                 	db	70	;'F'
   153   00081E  72                 	db	114	;'r'
   154   00081F  69                 	db	105	;'i'
   155   000820  00                 	db	0
   156   000821                     STR_13:
   157   000821  4D                 	db	77	;'M'
   158   000822  6F                 	db	111	;'o'
   159   000823  6E                 	db	110	;'n'
   160   000824  00                 	db	0
   161   000825                     STR_12:
   162   000825  53                 	db	83	;'S'
   163   000826  75                 	db	117	;'u'
   164   000827  6E                 	db	110	;'n'
   165   000828  00                 	db	0
   166   000829                     STR_18:
   167   000829  53                 	db	83	;'S'
   168   00082A  61                 	db	97	;'a'
   169   00082B  74                 	db	116	;'t'
   170   00082C  00                 	db	0
   171   00082D                     STR_16:
   172   00082D  54                 	db	84	;'T'
   173   00082E  68                 	db	104	;'h'
   174   00082F  75                 	db	117	;'u'
   175   000830  00                 	db	0
   176   000831                     STR_2:
   177   000831  41                 	db	65	;'A'
   178   000832  4D                 	db	77	;'M'
   179   000833  00                 	db	0
   180   000834                     STR_1:
   181   000834  50                 	db	80	;'P'
   182   000835  4D                 	db	77	;'M'
   183   000836  00                 	db	0
   184   000837  00                 	db	0	; dummy byte at the end
   185   000000                     
   186                           ; #config settings
   187                           
   188                           	psect	cinit
   189   001258                     __pcinit:
   190                           	callstack 0
   191   001258                     start_initialization:
   192                           	callstack 0
   193   001258                     __initialization:
   194                           	callstack 0
   195                           
   196                           ; Initialize objects allocated to BANK0 (7 bytes)
   197                           ; load TBLPTR registers with __pidataBANK0
   198   001258  0EFC               	movlw	low __pidataBANK0
   199   00125A  6EF6               	movwf	tblptrl,c
   200   00125C  0E13               	movlw	high __pidataBANK0
   201   00125E  6EF7               	movwf	tblptrh,c
   202   001260  0E00               	movlw	low (__pidataBANK0 shr (0+16))
   203   001262  6EF8               	movwf	tblptru,c
   204   001264  EE00  F0D3         	lfsr	0,__pdataBANK0
   205   001268  EE10 F007          	lfsr	1,7
   206   00126C                     copy_data0:
   207   00126C  0009               	tblrd		*+
   208   00126E  CFF5 FFEE          	movff	tablat,postinc0
   209   001272  50E5               	movf	postdec1,w,c
   210   001274  50E1               	movf	fsr1l,w,c
   211   001276  E1FA               	bnz	copy_data0
   212                           
   213                           ; Clear objects allocated to BANK0 (46 bytes)
   214   001278  EE00  F0A5         	lfsr	0,__pbssBANK0
   215   00127C  0E2E               	movlw	46
   216   00127E                     clear_0:
   217   00127E  6AEE               	clrf	postinc0,c
   218   001280  06E8               	decf	wreg,f,c
   219   001282  E1FD               	bnz	clear_0
   220                           
   221                           ; Clear objects allocated to COMRAM (5 bytes)
   222   001284  6A5D               	clrf	(__pbssCOMRAM+4)& (0+255),c
   223   001286  6A5C               	clrf	(__pbssCOMRAM+3)& (0+255),c
   224   001288  6A5B               	clrf	(__pbssCOMRAM+2)& (0+255),c
   225   00128A  6A5A               	clrf	(__pbssCOMRAM+1)& (0+255),c
   226   00128C  6A59               	clrf	__pbssCOMRAM& (0+255),c
   227   00128E                     end_of_initialization:
   228                           	callstack 0
   229   00128E                     __end_of__initialization:
   230                           	callstack 0
   231   00128E  0E00               	movlw	low (__Lmediumconst shr (0+16))
   232   001290  6EF8               	movwf	tblptru,c
   233   001292  0100               	movlb	0
   234   001294  EF1C  F004         	goto	_main	;jump to C main() function
   235                           
   236                           	psect	bssCOMRAM
   237   000059                     __pbssCOMRAM:
   238                           	callstack 0
   239   000059                     _width:
   240                           	callstack 0
   241   000059                     	ds	2
   242   00005B                     _prec:
   243                           	callstack 0
   244   00005B                     	ds	2
   245   00005D                     _flags:
   246                           	callstack 0
   247   00005D                     	ds	1
   248                           
   249                           	psect	bssBANK0
   250   0000A5                     __pbssBANK0:
   251                           	callstack 0
   252   0000A5                     _Year:
   253                           	callstack 0
   254   0000A5                     	ds	2
   255   0000A7                     _Month:
   256                           	callstack 0
   257   0000A7                     	ds	2
   258   0000A9                     _Date:
   259                           	callstack 0
   260   0000A9                     	ds	2
   261   0000AB                     _Day:
   262                           	callstack 0
   263   0000AB                     	ds	2
   264   0000AD                     _hour:
   265                           	callstack 0
   266   0000AD                     	ds	2
   267   0000AF                     _min:
   268                           	callstack 0
   269   0000AF                     	ds	2
   270   0000B1                     _sec:
   271                           	callstack 0
   272   0000B1                     	ds	2
   273   0000B3                     _dbuf:
   274                           	callstack 0
   275   0000B3                     	ds	32
   276                           
   277                           	psect	dataBANK0
   278   0000D3                     __pdataBANK0:
   279                           	callstack 0
   280   0000D3                     main@F3571:
   281                           	callstack 0
   282   0000D3                     	ds	7
   283                           
   284                           	psect	cstackBANK0
   285   000060                     __pcstackBANK0:
   286                           	callstack 0
   287   000060                     main@days:
   288                           	callstack 0
   289                           
   290                           ; 7 bytes @ 0x0
   291   000060                     	ds	7
   292   000067                     main@date:
   293                           	callstack 0
   294                           
   295                           ; 10 bytes @ 0x7
   296   000067                     	ds	10
   297   000071                     main@month:
   298                           	callstack 0
   299                           
   300                           ; 10 bytes @ 0x11
   301   000071                     	ds	10
   302   00007B                     main@year:
   303                           	callstack 0
   304                           
   305                           ; 10 bytes @ 0x1B
   306   00007B                     	ds	10
   307   000085                     main@secs:
   308                           	callstack 0
   309                           
   310                           ; 10 bytes @ 0x25
   311   000085                     	ds	10
   312   00008F                     main@mins:
   313                           	callstack 0
   314                           
   315                           ; 10 bytes @ 0x2F
   316   00008F                     	ds	10
   317   000099                     main@hours:
   318                           	callstack 0
   319                           
   320                           ; 10 bytes @ 0x39
   321   000099                     	ds	10
   322   0000A3                     main@Clock_type:
   323                           	callstack 0
   324                           
   325                           ; 1 bytes @ 0x43
   326   0000A3                     	ds	1
   327   0000A4                     main@AM_PM:
   328                           	callstack 0
   329                           
   330                           ; 1 bytes @ 0x44
   331   0000A4                     	ds	1
   332                           
   333                           	psect	cstackCOMRAM
   334   000001                     __pcstackCOMRAM:
   335                           	callstack 0
   336   000001                     I2C_Read@flag:
   337                           	callstack 0
   338   000001                     I2C_Write@data:
   339                           	callstack 0
   340   000001                     MSdelay@val:
   341                           	callstack 0
   342   000001                     fputc@c:
   343                           	callstack 0
   344                           
   345                           ; 2 bytes @ 0x0
   346   000001                     	ds	1
   347   000002                     I2C_Read@buffer:
   348                           	callstack 0
   349   000002                     I2C_Start@slave_write_address:
   350                           	callstack 0
   351   000002                     I2C_Repeated_Start@slave_read_address:
   352                           	callstack 0
   353                           
   354                           ; 1 bytes @ 0x1
   355   000002                     	ds	1
   356   000003                     ??_RTC_Read_Clock:
   357   000003                     ??_RTC_Read_Calendar:
   358   000003                     MSdelay@i:
   359                           	callstack 0
   360   000003                     fputc@fp:
   361                           	callstack 0
   362                           
   363                           ; 2 bytes @ 0x2
   364   000003                     	ds	1
   365   000004                     RTC_Read_Clock@read_clock_address:
   366                           	callstack 0
   367   000004                     RTC_Read_Calendar@read_calendar_address:
   368                           	callstack 0
   369                           
   370                           ; 1 bytes @ 0x3
   371   000004                     	ds	1
   372   000005                     ??_fputc:
   373   000005                     MSdelay@j:
   374                           	callstack 0
   375                           
   376                           ; 2 bytes @ 0x4
   377   000005                     	ds	2
   378   000007                     ??_LCD_Command:
   379   000007                     ??_LCD_Char:
   380                           
   381                           ; 1 bytes @ 0x6
   382   000007                     	ds	1
   383   000008                     LCD_Command@cmd:
   384                           	callstack 0
   385   000008                     LCD_Char@dat:
   386                           	callstack 0
   387                           
   388                           ; 1 bytes @ 0x7
   389   000008                     	ds	1
   390   000009                     LCD_String@msg:
   391                           	callstack 0
   392                           
   393                           ; 2 bytes @ 0x8
   394   000009                     	ds	1
   395   00000A                     fputs@s:
   396                           	callstack 0
   397                           
   398                           ; 2 bytes @ 0x9
   399   00000A                     	ds	1
   400   00000B                     LCD_String_xy@pos:
   401                           	callstack 0
   402                           
   403                           ; 1 bytes @ 0xA
   404   00000B                     	ds	1
   405   00000C                     LCD_String_xy@msg:
   406                           	callstack 0
   407   00000C                     fputs@fp:
   408                           	callstack 0
   409                           
   410                           ; 2 bytes @ 0xB
   411   00000C                     	ds	2
   412   00000E                     LCD_String_xy@row:
   413                           	callstack 0
   414   00000E                     fputs@c:
   415                           	callstack 0
   416                           
   417                           ; 1 bytes @ 0xD
   418   00000E                     	ds	1
   419   00000F                     LCD_String_xy@location:
   420                           	callstack 0
   421   00000F                     fputs@i:
   422                           	callstack 0
   423                           
   424                           ; 2 bytes @ 0xE
   425   00000F                     	ds	2
   426   000011                     pad@fp:
   427                           	callstack 0
   428                           
   429                           ; 2 bytes @ 0x10
   430   000011                     	ds	2
   431   000013                     pad@buf:
   432                           	callstack 0
   433                           
   434                           ; 2 bytes @ 0x12
   435   000013                     	ds	2
   436   000015                     pad@p:
   437                           	callstack 0
   438                           
   439                           ; 2 bytes @ 0x14
   440   000015                     	ds	2
   441   000017                     ??_pad:
   442                           
   443                           ; 1 bytes @ 0x16
   444   000017                     	ds	1
   445   000018                     pad@i:
   446                           	callstack 0
   447                           
   448                           ; 2 bytes @ 0x17
   449   000018                     	ds	2
   450   00001A                     pad@w:
   451                           	callstack 0
   452                           
   453                           ; 2 bytes @ 0x19
   454   00001A                     	ds	2
   455   00001C                     xtoa@fp:
   456                           	callstack 0
   457                           
   458                           ; 2 bytes @ 0x1B
   459   00001C                     	ds	2
   460   00001E                     xtoa@d:
   461                           	callstack 0
   462                           
   463                           ; 2 bytes @ 0x1D
   464   00001E                     	ds	2
   465   000020                     ??_xtoa:
   466                           
   467                           ; 1 bytes @ 0x1F
   468   000020                     	ds	3
   469   000023                     xtoa@w:
   470                           	callstack 0
   471                           
   472                           ; 2 bytes @ 0x22
   473   000023                     	ds	2
   474   000025                     _xtoa$905:
   475                           	callstack 0
   476                           
   477                           ; 2 bytes @ 0x24
   478   000025                     	ds	2
   479   000027                     xtoa@p:
   480                           	callstack 0
   481                           
   482                           ; 2 bytes @ 0x26
   483   000027                     	ds	2
   484   000029                     xtoa@i:
   485                           	callstack 0
   486                           
   487                           ; 2 bytes @ 0x28
   488   000029                     	ds	2
   489   00002B                     xtoa@c:
   490                           	callstack 0
   491                           
   492                           ; 1 bytes @ 0x2A
   493   00002B                     	ds	1
   494   00002C                     vfpfcnvrt@fp:
   495                           	callstack 0
   496                           
   497                           ; 2 bytes @ 0x2B
   498   00002C                     	ds	2
   499   00002E                     vfpfcnvrt@fmt:
   500                           	callstack 0
   501                           
   502                           ; 2 bytes @ 0x2D
   503   00002E                     	ds	2
   504   000030                     vfpfcnvrt@ap:
   505                           	callstack 0
   506                           
   507                           ; 2 bytes @ 0x2F
   508   000030                     	ds	2
   509   000032                     ??_vfpfcnvrt:
   510                           
   511                           ; 1 bytes @ 0x31
   512   000032                     	ds	2
   513   000034                     vfpfcnvrt@convarg:
   514                           	callstack 0
   515                           
   516                           ; 4 bytes @ 0x33
   517   000034                     	ds	4
   518   000038                     vfpfcnvrt@cp:
   519                           	callstack 0
   520                           
   521                           ; 2 bytes @ 0x37
   522   000038                     	ds	2
   523   00003A                     ?_vfprintf:
   524                           	callstack 0
   525   00003A                     vfprintf@fp:
   526                           	callstack 0
   527                           
   528                           ; 2 bytes @ 0x39
   529   00003A                     	ds	2
   530   00003C                     vfprintf@fmt:
   531                           	callstack 0
   532                           
   533                           ; 2 bytes @ 0x3B
   534   00003C                     	ds	2
   535   00003E                     vfprintf@ap:
   536                           	callstack 0
   537                           
   538                           ; 2 bytes @ 0x3D
   539   00003E                     	ds	2
   540   000040                     vfprintf@cfmt:
   541                           	callstack 0
   542                           
   543                           ; 2 bytes @ 0x3F
   544   000040                     	ds	2
   545   000042                     ?_sprintf:
   546                           	callstack 0
   547   000042                     sprintf@s:
   548                           	callstack 0
   549                           
   550                           ; 2 bytes @ 0x41
   551   000042                     	ds	2
   552   000044                     sprintf@fmt:
   553                           	callstack 0
   554                           
   555                           ; 2 bytes @ 0x43
   556   000044                     	ds	4
   557   000048                     sprintf@ap:
   558                           	callstack 0
   559                           
   560                           ; 2 bytes @ 0x47
   561   000048                     	ds	2
   562   00004A                     sprintf@f:
   563                           	callstack 0
   564                           
   565                           ; 12 bytes @ 0x49
   566   00004A                     	ds	12
   567   000056                     ??_main:
   568                           
   569                           ; 1 bytes @ 0x55
   570   000056                     	ds	3
   571                           
   572 ;;
   573 ;;Main: autosize = 0, tempsize = 3, incstack = 0, save=0
   574 ;;
   575 ;; *************** function _main *****************
   576 ;; Defined at:
   577 ;;		line 42 in file "main_piee2.c"
   578 ;; Parameters:    Size  Location     Type
   579 ;;		None
   580 ;; Auto vars:     Size  Location     Type
   581 ;;  hours          10   57[BANK0 ] unsigned char [10]
   582 ;;  mins           10   47[BANK0 ] unsigned char [10]
   583 ;;  secs           10   37[BANK0 ] unsigned char [10]
   584 ;;  year           10   27[BANK0 ] unsigned char [10]
   585 ;;  month          10   17[BANK0 ] unsigned char [10]
   586 ;;  date           10    7[BANK0 ] unsigned char [10]
   587 ;;  days            7    0[BANK0 ] unsigned char [7]
   588 ;;  AM_PM           1   68[BANK0 ] unsigned char 
   589 ;;  Clock_type      1   67[BANK0 ] unsigned char 
   590 ;; Return value:  Size  Location     Type
   591 ;;                  1    wreg      void 
   592 ;; Registers used:
   593 ;;		wreg, fsr1l, fsr1h, fsr2l, fsr2h, status,2, status,0, tblptrl, tblptrh, tblptru, cstack
   594 ;; Tracked objects:
   595 ;;		On entry : 0/0
   596 ;;		On exit  : 0/0
   597 ;;		Unchanged: 0/0
   598 ;; Data sizes:     COMRAM   BANK0   BANK1   BANK2   BANK3   BANK4   BANK5   BANK6   BANK7
   599 ;;      Params:         0       0       0       0       0       0       0       0       0
   600 ;;      Locals:         0      69       0       0       0       0       0       0       0
   601 ;;      Temps:          3       0       0       0       0       0       0       0       0
   602 ;;      Totals:         3      69       0       0       0       0       0       0       0
   603 ;;Total ram usage:       72 bytes
   604 ;; Hardware stack levels required when called: 8
   605 ;; This function calls:
   606 ;;		_I2C_Init
   607 ;;		_I2C_Stop
   608 ;;		_LCD_Clear
   609 ;;		_LCD_Init
   610 ;;		_LCD_String
   611 ;;		_LCD_String_xy
   612 ;;		_MSdelay
   613 ;;		_RTC_Read_Calendar
   614 ;;		_RTC_Read_Clock
   615 ;;		_sprintf
   616 ;; This function is called by:
   617 ;;		Startup code after reset
   618 ;; This function uses a non-reentrant model
   619 ;;
   620                           
   621                           	psect	text0
   622   000838                     __ptext0:
   623                           	callstack 0
   624   000838                     _main:
   625                           	callstack 23
   626   000838                     
   627                           ;main_piee2.c: 45:     char secs[10],mins[10],hours[10];;main_piee2.c: 46:     char date
      +                          [10],month[10],year[10];;main_piee2.c: 47:     char Clock_type = 0x06;
   628   000838  0E06               	movlw	6
   629   00083A  0100               	movlb	0	; () banked
   630   00083C  6FA3               	movwf	main@Clock_type& (0+255),b
   631                           
   632                           ;main_piee2.c: 48:     char AM_PM = 0x05;
   633   00083E  0E05               	movlw	5
   634   000840  6FA4               	movwf	main@AM_PM& (0+255),b
   635   000842                     
   636                           ; BSR set to: 0
   637                           ;main_piee2.c: 49:     char days[7] = {'S','M','T','W','t','F','s'};
   638   000842  EE20  F0D3         	lfsr	2,main@F3571
   639   000846  EE10  F060         	lfsr	1,main@days
   640   00084A  0E06               	movlw	6
   641   00084C                     u841:
   642   00084C  CFDB FFE3          	movff	plusw2,plusw1
   643   000850  06E8               	decf	wreg,f,c
   644   000852  E2FC               	bc	u841
   645   000854                     
   646                           ; BSR set to: 0
   647                           ;main_piee2.c: 50:     OSCCON=0x72;
   648   000854  0E72               	movlw	114
   649   000856  6ED3               	movwf	211,c	;volatile
   650   000858                     
   651                           ; BSR set to: 0
   652                           ;main_piee2.c: 52:     I2C_Init();
   653   000858  ECC0  F009         	call	_I2C_Init	;wreg free
   654   00085C                     
   655                           ;main_piee2.c: 53:     LCD_Init();
   656   00085C  EC69  F009         	call	_LCD_Init	;wreg free
   657   000860                     
   658                           ;main_piee2.c: 54:     LCD_Clear();
   659   000860  ECEB  F009         	call	_LCD_Clear	;wreg free
   660   000864                     
   661                           ;main_piee2.c: 55:     MSdelay(10);
   662   000864  0E00               	movlw	0
   663   000866  6E02               	movwf	(MSdelay@val+1)^0,c
   664   000868  0E0A               	movlw	10
   665   00086A  6E01               	movwf	MSdelay@val^0,c
   666   00086C  ECC2  F008         	call	_MSdelay	;wreg free
   667   000870                     l1833:
   668                           
   669                           ;main_piee2.c: 57:     {;main_piee2.c: 58:         RTC_Read_Clock(0);
   670   000870  0E00               	movlw	0
   671   000872  ECE7  F008         	call	_RTC_Read_Clock
   672   000876                     
   673                           ;main_piee2.c: 59:         I2C_Stop();
   674   000876  ECCD  F009         	call	_I2C_Stop	;wreg free
   675   00087A                     
   676                           ;main_piee2.c: 60:         if(hour & (1<<Clock_type)){
   677   00087A  C0A3  F056         	movff	main@Clock_type,??_main
   678   00087E  0E01               	movlw	1
   679   000880  6E57               	movwf	(??_main+1)^0,c
   680   000882  0E00               	movlw	0
   681   000884  6E58               	movwf	(??_main+2)^0,c
   682   000886  2A56               	incf	??_main^0,f,c
   683   000888  EF49  F004         	goto	u854
   684   00088C                     u855:
   685   00088C  90D8               	bcf	status,0,c
   686   00088E  3657               	rlcf	(??_main+1)^0,f,c
   687   000890  3658               	rlcf	(??_main+2)^0,f,c
   688   000892                     u854:
   689   000892  2E56               	decfsz	??_main^0,f,c
   690   000894  EF46  F004         	goto	u855
   691   000898  0100               	movlb	0	; () banked
   692   00089A  51AD               	movf	_hour& (0+255),w,b
   693   00089C  1657               	andwf	(??_main+1)^0,f,c
   694   00089E  51AE               	movf	(_hour+1)& (0+255),w,b
   695   0008A0  1658               	andwf	(??_main+2)^0,f,c
   696   0008A2  5057               	movf	(??_main+1)^0,w,c
   697   0008A4  1058               	iorwf	(??_main+2)^0,w,c
   698   0008A6  B4D8               	btfsc	status,2,c
   699   0008A8  EF58  F004         	goto	u861
   700   0008AC  EF5A  F004         	goto	u860
   701   0008B0                     u861:
   702   0008B0  EFD1  F004         	goto	l1859
   703   0008B4                     u860:
   704   0008B4                     
   705                           ; BSR set to: 0
   706                           ;main_piee2.c: 62:             if(hour & (1<<AM_PM)){
   707   0008B4  C0A4  F056         	movff	main@AM_PM,??_main
   708   0008B8  0E01               	movlw	1
   709   0008BA  6E57               	movwf	(??_main+1)^0,c
   710   0008BC  0E00               	movlw	0
   711   0008BE  6E58               	movwf	(??_main+2)^0,c
   712   0008C0  2A56               	incf	??_main^0,f,c
   713   0008C2  EF66  F004         	goto	u874
   714   0008C6                     u875:
   715   0008C6  90D8               	bcf	status,0,c
   716   0008C8  3657               	rlcf	(??_main+1)^0,f,c
   717   0008CA  3658               	rlcf	(??_main+2)^0,f,c
   718   0008CC                     u874:
   719   0008CC  2E56               	decfsz	??_main^0,f,c
   720   0008CE  EF63  F004         	goto	u875
   721   0008D2  0100               	movlb	0	; () banked
   722   0008D4  51AD               	movf	_hour& (0+255),w,b
   723   0008D6  1657               	andwf	(??_main+1)^0,f,c
   724   0008D8  51AE               	movf	(_hour+1)& (0+255),w,b
   725   0008DA  1658               	andwf	(??_main+2)^0,f,c
   726   0008DC  5057               	movf	(??_main+1)^0,w,c
   727   0008DE  1058               	iorwf	(??_main+2)^0,w,c
   728   0008E0  B4D8               	btfsc	status,2,c
   729   0008E2  EF75  F004         	goto	u881
   730   0008E6  EF77  F004         	goto	u880
   731   0008EA                     u881:
   732   0008EA  EF82  F004         	goto	l1843
   733   0008EE                     u880:
   734   0008EE                     
   735                           ; BSR set to: 0
   736                           ;main_piee2.c: 63:                 LCD_String_xy(1,14,"PM");
   737   0008EE  0E0E               	movlw	14
   738   0008F0  6E0B               	movwf	LCD_String_xy@pos^0,c
   739   0008F2  0E34               	movlw	low STR_1
   740   0008F4  6E0C               	movwf	LCD_String_xy@msg^0,c
   741   0008F6  0E08               	movlw	high STR_1
   742   0008F8  6E0D               	movwf	(LCD_String_xy@msg+1)^0,c
   743   0008FA  0E01               	movlw	1
   744   0008FC  EC49  F007         	call	_LCD_String_xy
   745                           
   746                           ;main_piee2.c: 64:             }
   747   000900  EF8B  F004         	goto	l1845
   748   000904                     l1843:
   749                           
   750                           ; BSR set to: 0
   751                           ;main_piee2.c: 66:                 LCD_String_xy(1,14,"AM");
   752   000904  0E0E               	movlw	14
   753   000906  6E0B               	movwf	LCD_String_xy@pos^0,c
   754   000908  0E31               	movlw	low STR_2
   755   00090A  6E0C               	movwf	LCD_String_xy@msg^0,c
   756   00090C  0E08               	movlw	high STR_2
   757   00090E  6E0D               	movwf	(LCD_String_xy@msg+1)^0,c
   758   000910  0E01               	movlw	1
   759   000912  EC49  F007         	call	_LCD_String_xy
   760   000916                     l1845:
   761                           
   762                           ;main_piee2.c: 69:             hour = hour & (0x1f);
   763   000916  0E1F               	movlw	31
   764   000918  0100               	movlb	0	; () banked
   765   00091A  15AD               	andwf	_hour& (0+255),w,b
   766   00091C  6FAD               	movwf	_hour& (0+255),b
   767   00091E  6BAE               	clrf	(_hour+1)& (0+255),b
   768   000920                     
   769                           ; BSR set to: 0
   770                           ;main_piee2.c: 70:             sprintf(secs,"%x ",sec);
   771   000920  0E85               	movlw	low main@secs
   772   000922  6E42               	movwf	sprintf@s^0,c
   773   000924  0E00               	movlw	high main@secs
   774   000926  6E43               	movwf	(sprintf@s+1)^0,c
   775   000928  0E11               	movlw	low STR_3
   776   00092A  6E44               	movwf	sprintf@fmt^0,c
   777   00092C  0E08               	movlw	high STR_3
   778   00092E  6E45               	movwf	(sprintf@fmt+1)^0,c
   779   000930  C0B1  F046         	movff	_sec,?_sprintf+4
   780   000934  C0B2  F047         	movff	_sec+1,?_sprintf+5
   781   000938  EC50  F008         	call	_sprintf	;wreg free
   782   00093C                     
   783                           ;main_piee2.c: 71:             sprintf(mins,"%x:",min);
   784   00093C  0E8F               	movlw	low main@mins
   785   00093E  6E42               	movwf	sprintf@s^0,c
   786   000940  0E00               	movlw	high main@mins
   787   000942  6E43               	movwf	(sprintf@s+1)^0,c
   788   000944  0E0D               	movlw	low (STR_5+4)
   789   000946  6E44               	movwf	sprintf@fmt^0,c
   790   000948  0E08               	movlw	high (STR_5+4)
   791   00094A  6E45               	movwf	(sprintf@fmt+1)^0,c
   792   00094C  C0AF  F046         	movff	_min,?_sprintf+4
   793   000950  C0B0  F047         	movff	_min+1,?_sprintf+5
   794   000954  EC50  F008         	call	_sprintf	;wreg free
   795   000958                     
   796                           ;main_piee2.c: 72:             sprintf(hours,"Tim:%x:",hour);
   797   000958  0E99               	movlw	low main@hours
   798   00095A  6E42               	movwf	sprintf@s^0,c
   799   00095C  0E00               	movlw	high main@hours
   800   00095E  6E43               	movwf	(sprintf@s+1)^0,c
   801   000960  0E09               	movlw	low STR_5
   802   000962  6E44               	movwf	sprintf@fmt^0,c
   803   000964  0E08               	movlw	high STR_5
   804   000966  6E45               	movwf	(sprintf@fmt+1)^0,c
   805   000968  C0AD  F046         	movff	_hour,?_sprintf+4
   806   00096C  C0AE  F047         	movff	_hour+1,?_sprintf+5
   807   000970  EC50  F008         	call	_sprintf	;wreg free
   808   000974                     
   809                           ;main_piee2.c: 73:             LCD_String_xy(0,0,hours);
   810   000974  0E00               	movlw	0
   811   000976  6E0B               	movwf	LCD_String_xy@pos^0,c
   812   000978  0E99               	movlw	low main@hours
   813   00097A  6E0C               	movwf	LCD_String_xy@msg^0,c
   814   00097C  0E00               	movlw	high main@hours
   815   00097E  6E0D               	movwf	(LCD_String_xy@msg+1)^0,c
   816   000980  0E00               	movlw	0
   817   000982  EC49  F007         	call	_LCD_String_xy
   818   000986                     l1855:
   819                           
   820                           ;main_piee2.c: 74:             LCD_String(mins);
   821   000986  0E8F               	movlw	low main@mins
   822   000988  6E09               	movwf	LCD_String@msg^0,c
   823   00098A  0E00               	movlw	high main@mins
   824   00098C  6E0A               	movwf	(LCD_String@msg+1)^0,c
   825   00098E  ECCD  F007         	call	_LCD_String	;wreg free
   826   000992                     
   827                           ;main_piee2.c: 75:             LCD_String(secs);
   828   000992  0E85               	movlw	low main@secs
   829   000994  6E09               	movwf	LCD_String@msg^0,c
   830   000996  0E00               	movlw	high main@secs
   831   000998  6E0A               	movwf	(LCD_String@msg+1)^0,c
   832   00099A  ECCD  F007         	call	_LCD_String	;wreg free
   833                           
   834                           ;main_piee2.c: 76:         }
   835   00099E  EF0A  F005         	goto	l1873
   836   0009A2                     l1859:
   837                           
   838                           ; BSR set to: 0
   839                           ;main_piee2.c: 79:             hour = hour & (0x3f);
   840   0009A2  0E3F               	movlw	63
   841   0009A4  15AD               	andwf	_hour& (0+255),w,b
   842   0009A6  6FAD               	movwf	_hour& (0+255),b
   843   0009A8  6BAE               	clrf	(_hour+1)& (0+255),b
   844   0009AA                     
   845                           ; BSR set to: 0
   846                           ;main_piee2.c: 80:             sprintf(secs,"%x ",sec);
   847   0009AA  0E85               	movlw	low main@secs
   848   0009AC  6E42               	movwf	sprintf@s^0,c
   849   0009AE  0E00               	movlw	high main@secs
   850   0009B0  6E43               	movwf	(sprintf@s+1)^0,c
   851   0009B2  0E11               	movlw	low STR_3
   852   0009B4  6E44               	movwf	sprintf@fmt^0,c
   853   0009B6  0E08               	movlw	high STR_3
   854   0009B8  6E45               	movwf	(sprintf@fmt+1)^0,c
   855   0009BA  C0B1  F046         	movff	_sec,?_sprintf+4
   856   0009BE  C0B2  F047         	movff	_sec+1,?_sprintf+5
   857   0009C2  EC50  F008         	call	_sprintf	;wreg free
   858   0009C6                     
   859                           ;main_piee2.c: 81:             sprintf(mins,"%x:",min);
   860   0009C6  0E8F               	movlw	low main@mins
   861   0009C8  6E42               	movwf	sprintf@s^0,c
   862   0009CA  0E00               	movlw	high main@mins
   863   0009CC  6E43               	movwf	(sprintf@s+1)^0,c
   864   0009CE  0E0D               	movlw	low (STR_5+4)
   865   0009D0  6E44               	movwf	sprintf@fmt^0,c
   866   0009D2  0E08               	movlw	high (STR_5+4)
   867   0009D4  6E45               	movwf	(sprintf@fmt+1)^0,c
   868   0009D6  C0AF  F046         	movff	_min,?_sprintf+4
   869   0009DA  C0B0  F047         	movff	_min+1,?_sprintf+5
   870   0009DE  EC50  F008         	call	_sprintf	;wreg free
   871   0009E2                     
   872                           ;main_piee2.c: 82:             sprintf(hours,"Tim:%x:",hour);
   873   0009E2  0E99               	movlw	low main@hours
   874   0009E4  6E42               	movwf	sprintf@s^0,c
   875   0009E6  0E00               	movlw	high main@hours
   876   0009E8  6E43               	movwf	(sprintf@s+1)^0,c
   877   0009EA  0E09               	movlw	low STR_5
   878   0009EC  6E44               	movwf	sprintf@fmt^0,c
   879   0009EE  0E08               	movlw	high STR_5
   880   0009F0  6E45               	movwf	(sprintf@fmt+1)^0,c
   881   0009F2  C0AD  F046         	movff	_hour,?_sprintf+4
   882   0009F6  C0AE  F047         	movff	_hour+1,?_sprintf+5
   883   0009FA  EC50  F008         	call	_sprintf	;wreg free
   884   0009FE                     
   885                           ;main_piee2.c: 83:             LCD_String_xy(0,0,hours);
   886   0009FE  0E00               	movlw	0
   887   000A00  6E0B               	movwf	LCD_String_xy@pos^0,c
   888   000A02  0E99               	movlw	low main@hours
   889   000A04  6E0C               	movwf	LCD_String_xy@msg^0,c
   890   000A06  0E00               	movlw	high main@hours
   891   000A08  6E0D               	movwf	(LCD_String_xy@msg+1)^0,c
   892   000A0A  0E00               	movlw	0
   893   000A0C  EC49  F007         	call	_LCD_String_xy
   894   000A10  EFC3  F004         	goto	l1855
   895   000A14                     l1873:
   896                           
   897                           ;main_piee2.c: 88:         RTC_Read_Calendar(3);
   898   000A14  0E03               	movlw	3
   899   000A16  ECFC  F007         	call	_RTC_Read_Calendar
   900   000A1A                     
   901                           ;main_piee2.c: 89:         I2C_Stop();
   902   000A1A  ECCD  F009         	call	_I2C_Stop	;wreg free
   903   000A1E                     
   904                           ;main_piee2.c: 90:         sprintf(date,"Cal %x-",Date);
   905   000A1E  0E67               	movlw	low main@date
   906   000A20  6E42               	movwf	sprintf@s^0,c
   907   000A22  0E00               	movlw	high main@date
   908   000A24  6E43               	movwf	(sprintf@s+1)^0,c
   909   000A26  0E01               	movlw	low STR_9
   910   000A28  6E44               	movwf	sprintf@fmt^0,c
   911   000A2A  0E08               	movlw	high STR_9
   912   000A2C  6E45               	movwf	(sprintf@fmt+1)^0,c
   913   000A2E  C0A9  F046         	movff	_Date,?_sprintf+4
   914   000A32  C0AA  F047         	movff	_Date+1,?_sprintf+5
   915   000A36  EC50  F008         	call	_sprintf	;wreg free
   916   000A3A                     
   917                           ;main_piee2.c: 91:         sprintf(month,"%x-",Month);
   918   000A3A  0E71               	movlw	low main@month
   919   000A3C  6E42               	movwf	sprintf@s^0,c
   920   000A3E  0E00               	movlw	high main@month
   921   000A40  6E43               	movwf	(sprintf@s+1)^0,c
   922   000A42  0E05               	movlw	low (STR_9+4)
   923   000A44  6E44               	movwf	sprintf@fmt^0,c
   924   000A46  0E08               	movlw	high (STR_9+4)
   925   000A48  6E45               	movwf	(sprintf@fmt+1)^0,c
   926   000A4A  C0A7  F046         	movff	_Month,?_sprintf+4
   927   000A4E  C0A8  F047         	movff	_Month+1,?_sprintf+5
   928   000A52  EC50  F008         	call	_sprintf	;wreg free
   929   000A56                     
   930                           ;main_piee2.c: 92:         sprintf(year,"%x ",Year);
   931   000A56  0E7B               	movlw	low main@year
   932   000A58  6E42               	movwf	sprintf@s^0,c
   933   000A5A  0E00               	movlw	high main@year
   934   000A5C  6E43               	movwf	(sprintf@s+1)^0,c
   935   000A5E  0E11               	movlw	low STR_3
   936   000A60  6E44               	movwf	sprintf@fmt^0,c
   937   000A62  0E08               	movlw	high STR_3
   938   000A64  6E45               	movwf	(sprintf@fmt+1)^0,c
   939   000A66  C0A5  F046         	movff	_Year,?_sprintf+4
   940   000A6A  C0A6  F047         	movff	_Year+1,?_sprintf+5
   941   000A6E  EC50  F008         	call	_sprintf	;wreg free
   942   000A72                     
   943                           ;main_piee2.c: 93:         LCD_String_xy(2,0,date);
   944   000A72  0E00               	movlw	0
   945   000A74  6E0B               	movwf	LCD_String_xy@pos^0,c
   946   000A76  0E67               	movlw	low main@date
   947   000A78  6E0C               	movwf	LCD_String_xy@msg^0,c
   948   000A7A  0E00               	movlw	high main@date
   949   000A7C  6E0D               	movwf	(LCD_String_xy@msg+1)^0,c
   950   000A7E  0E02               	movlw	2
   951   000A80  EC49  F007         	call	_LCD_String_xy
   952   000A84                     
   953                           ;main_piee2.c: 94:         LCD_String(month);
   954   000A84  0E71               	movlw	low main@month
   955   000A86  6E09               	movwf	LCD_String@msg^0,c
   956   000A88  0E00               	movlw	high main@month
   957   000A8A  6E0A               	movwf	(LCD_String@msg+1)^0,c
   958   000A8C  ECCD  F007         	call	_LCD_String	;wreg free
   959   000A90                     
   960                           ;main_piee2.c: 95:         LCD_String(year);
   961   000A90  0E7B               	movlw	low main@year
   962   000A92  6E09               	movwf	LCD_String@msg^0,c
   963   000A94  0E00               	movlw	high main@year
   964   000A96  6E0A               	movwf	(LCD_String@msg+1)^0,c
   965   000A98  ECCD  F007         	call	_LCD_String	;wreg free
   966                           
   967                           ;main_piee2.c: 98:         switch(days[Day])
   968   000A9C  EF88  F005         	goto	l1905
   969   000AA0                     l1889:
   970                           
   971                           ; BSR set to: 0
   972                           ;main_piee2.c: 101:                         LCD_String("Sun");
   973   000AA0  0E25               	movlw	low STR_12
   974   000AA2  6E09               	movwf	LCD_String@msg^0,c
   975   000AA4  0E08               	movlw	high STR_12
   976   000AA6  6E0A               	movwf	(LCD_String@msg+1)^0,c
   977   000AA8  ECCD  F007         	call	_LCD_String	;wreg free
   978                           
   979                           ;main_piee2.c: 102:                         break;
   980   000AAC  EF38  F004         	goto	l1833
   981   000AB0                     l1891:
   982                           
   983                           ; BSR set to: 0
   984                           ;main_piee2.c: 104:                         LCD_String("Mon");
   985   000AB0  0E21               	movlw	low STR_13
   986   000AB2  6E09               	movwf	LCD_String@msg^0,c
   987   000AB4  0E08               	movlw	high STR_13
   988   000AB6  6E0A               	movwf	(LCD_String@msg+1)^0,c
   989   000AB8  ECCD  F007         	call	_LCD_String	;wreg free
   990                           
   991                           ;main_piee2.c: 105:                         break;
   992   000ABC  EF38  F004         	goto	l1833
   993   000AC0                     l1893:
   994                           
   995                           ; BSR set to: 0
   996                           ;main_piee2.c: 107:                         LCD_String("Tue");
   997   000AC0  0E19               	movlw	low STR_14
   998   000AC2  6E09               	movwf	LCD_String@msg^0,c
   999   000AC4  0E08               	movlw	high STR_14
  1000   000AC6  6E0A               	movwf	(LCD_String@msg+1)^0,c
  1001   000AC8  ECCD  F007         	call	_LCD_String	;wreg free
  1002                           
  1003                           ;main_piee2.c: 108:                         break;
  1004   000ACC  EF38  F004         	goto	l1833
  1005   000AD0                     l1895:
  1006                           
  1007                           ; BSR set to: 0
  1008                           ;main_piee2.c: 110:                         LCD_String("Wed");
  1009   000AD0  0E15               	movlw	low STR_15
  1010   000AD2  6E09               	movwf	LCD_String@msg^0,c
  1011   000AD4  0E08               	movlw	high STR_15
  1012   000AD6  6E0A               	movwf	(LCD_String@msg+1)^0,c
  1013   000AD8  ECCD  F007         	call	_LCD_String	;wreg free
  1014                           
  1015                           ;main_piee2.c: 111:                         break;
  1016   000ADC  EF38  F004         	goto	l1833
  1017   000AE0                     l1897:
  1018                           
  1019                           ; BSR set to: 0
  1020                           ;main_piee2.c: 113:                         LCD_String("Thu");
  1021   000AE0  0E2D               	movlw	low STR_16
  1022   000AE2  6E09               	movwf	LCD_String@msg^0,c
  1023   000AE4  0E08               	movlw	high STR_16
  1024   000AE6  6E0A               	movwf	(LCD_String@msg+1)^0,c
  1025   000AE8  ECCD  F007         	call	_LCD_String	;wreg free
  1026                           
  1027                           ;main_piee2.c: 114:                         break;
  1028   000AEC  EF38  F004         	goto	l1833
  1029   000AF0                     l1899:
  1030                           
  1031                           ; BSR set to: 0
  1032                           ;main_piee2.c: 116:                         LCD_String("Fri");
  1033   000AF0  0E1D               	movlw	low STR_17
  1034   000AF2  6E09               	movwf	LCD_String@msg^0,c
  1035   000AF4  0E08               	movlw	high STR_17
  1036   000AF6  6E0A               	movwf	(LCD_String@msg+1)^0,c
  1037   000AF8  ECCD  F007         	call	_LCD_String	;wreg free
  1038                           
  1039                           ;main_piee2.c: 117:                         break;
  1040   000AFC  EF38  F004         	goto	l1833
  1041   000B00                     l1901:
  1042                           
  1043                           ; BSR set to: 0
  1044                           ;main_piee2.c: 119:                         LCD_String("Sat");
  1045   000B00  0E29               	movlw	low STR_18
  1046   000B02  6E09               	movwf	LCD_String@msg^0,c
  1047   000B04  0E08               	movlw	high STR_18
  1048   000B06  6E0A               	movwf	(LCD_String@msg+1)^0,c
  1049   000B08  ECCD  F007         	call	_LCD_String	;wreg free
  1050                           
  1051                           ;main_piee2.c: 120:                         break;
  1052   000B0C  EF38  F004         	goto	l1833
  1053   000B10                     l1905:
  1054   000B10  0E60               	movlw	low main@days
  1055   000B12  0100               	movlb	0	; () banked
  1056   000B14  25AB               	addwf	_Day& (0+255),w,b
  1057   000B16  6ED9               	movwf	fsr2l,c
  1058   000B18  0E00               	movlw	high main@days
  1059   000B1A  21AC               	addwfc	(_Day+1)& (0+255),w,b
  1060   000B1C  6EDA               	movwf	fsr2h,c
  1061   000B1E  50DF               	movf	indf2,w,c
  1062   000B20  6E56               	movwf	??_main^0,c
  1063   000B22  6A57               	clrf	(??_main+1)^0,c
  1064                           
  1065                           ; Switch on 2 bytes has been partitioned into a top level switch of size 1, and 1 sub-sw
      +                          itches
  1066                           ; Switch size 1, requested type "simple"
  1067                           ; Number of cases is 1, Range of values is 0 to 0
  1068                           ; switch strategies available:
  1069                           ; Name         Instructions Cycles
  1070                           ; simple_byte            4     3 (average)
  1071                           ;	Chosen strategy is simple_byte
  1072   000B24  5057               	movf	(??_main+1)^0,w,c
  1073   000B26  0A00               	xorlw	0	; case 0
  1074   000B28  B4D8               	btfsc	status,2,c
  1075   000B2A  EF99  F005         	goto	l1959
  1076   000B2E  EF38  F004         	goto	l1833
  1077   000B32                     l1959:
  1078                           
  1079                           ; BSR set to: 0
  1080                           ; Switch size 1, requested type "simple"
  1081                           ; Number of cases is 7, Range of values is 70 to 116
  1082                           ; switch strategies available:
  1083                           ; Name         Instructions Cycles
  1084                           ; simple_byte           22    12 (average)
  1085                           ;	Chosen strategy is simple_byte
  1086   000B32  5056               	movf	??_main^0,w,c
  1087   000B34  0A46               	xorlw	70	; case 70
  1088   000B36  B4D8               	btfsc	status,2,c
  1089   000B38  EF78  F005         	goto	l1899
  1090   000B3C  0A0B               	xorlw	11	; case 77
  1091   000B3E  B4D8               	btfsc	status,2,c
  1092   000B40  EF58  F005         	goto	l1891
  1093   000B44  0A1E               	xorlw	30	; case 83
  1094   000B46  B4D8               	btfsc	status,2,c
  1095   000B48  EF50  F005         	goto	l1889
  1096   000B4C  0A07               	xorlw	7	; case 84
  1097   000B4E  B4D8               	btfsc	status,2,c
  1098   000B50  EF60  F005         	goto	l1893
  1099   000B54  0A03               	xorlw	3	; case 87
  1100   000B56  B4D8               	btfsc	status,2,c
  1101   000B58  EF68  F005         	goto	l1895
  1102   000B5C  0A24               	xorlw	36	; case 115
  1103   000B5E  B4D8               	btfsc	status,2,c
  1104   000B60  EF80  F005         	goto	l1901
  1105   000B64  0A07               	xorlw	7	; case 116
  1106   000B66  B4D8               	btfsc	status,2,c
  1107   000B68  EF70  F005         	goto	l1897
  1108   000B6C  EF38  F004         	goto	l1833
  1109   000B70  EF00  F000         	goto	start
  1110   000B74                     __end_of_main:
  1111                           	callstack 0
  1112                           
  1113 ;; *************** function _sprintf *****************
  1114 ;; Defined at:
  1115 ;;		line 9 in file "/Applications/microchip/xc8/v2.41/pic/sources/c99/common/nf_sprintf.c"
  1116 ;; Parameters:    Size  Location     Type
  1117 ;;  s               2   65[COMRAM] PTR unsigned char 
  1118 ;;		 -> main@year(10), main@month(10), main@date(10), main@hours(10), 
  1119 ;;		 -> main@mins(10), main@secs(10), 
  1120 ;;  fmt             2   67[COMRAM] PTR const unsigned char 
  1121 ;;		 -> STR_11(4), STR_10(4), STR_9(8), STR_8(8), 
  1122 ;;		 -> STR_7(4), STR_6(4), STR_5(8), STR_4(4), 
  1123 ;;		 -> STR_3(4), 
  1124 ;; Auto vars:     Size  Location     Type
  1125 ;;  f              12   73[COMRAM] struct _IO_FILE
  1126 ;;  ap              2   71[COMRAM] PTR void [1]
  1127 ;;		 -> ?_sprintf(2), 
  1128 ;;  ret             2    0        int 
  1129 ;; Return value:  Size  Location     Type
  1130 ;;                  2   65[COMRAM] int 
  1131 ;; Registers used:
  1132 ;;		wreg, fsr1l, fsr1h, fsr2l, fsr2h, status,2, status,0, tblptrl, tblptrh, tblptru, cstack
  1133 ;; Tracked objects:
  1134 ;;		On entry : 0/0
  1135 ;;		On exit  : 0/0
  1136 ;;		Unchanged: 0/0
  1137 ;; Data sizes:     COMRAM   BANK0   BANK1   BANK2   BANK3   BANK4   BANK5   BANK6   BANK7
  1138 ;;      Params:         6       0       0       0       0       0       0       0       0
  1139 ;;      Locals:        14       0       0       0       0       0       0       0       0
  1140 ;;      Temps:          0       0       0       0       0       0       0       0       0
  1141 ;;      Totals:        20       0       0       0       0       0       0       0       0
  1142 ;;Total ram usage:       20 bytes
  1143 ;; Hardware stack levels used: 1
  1144 ;; Hardware stack levels required when called: 7
  1145 ;; This function calls:
  1146 ;;		_vfprintf
  1147 ;; This function is called by:
  1148 ;;		_main
  1149 ;; This function uses a non-reentrant model
  1150 ;;
  1151                           
  1152                           	psect	text1
  1153   0010A0                     __ptext1:
  1154                           	callstack 0
  1155   0010A0                     _sprintf:
  1156                           	callstack 23
  1157   0010A0  0E46               	movlw	low (?_sprintf+4)
  1158   0010A2  6E48               	movwf	sprintf@ap^0,c
  1159   0010A4  0E00               	movlw	high (?_sprintf+4)
  1160   0010A6  6E49               	movwf	(sprintf@ap+1)^0,c
  1161   0010A8  C042  F04A         	movff	sprintf@s,sprintf@f
  1162   0010AC  C043  F04B         	movff	sprintf@s+1,sprintf@f+1
  1163   0010B0  0E00               	movlw	0
  1164   0010B2  6E4E               	movwf	(sprintf@f+4)^0,c
  1165   0010B4  0E00               	movlw	0
  1166   0010B6  6E4D               	movwf	(sprintf@f+3)^0,c
  1167   0010B8  0E00               	movlw	0
  1168   0010BA  6E55               	movwf	(sprintf@f+11)^0,c
  1169   0010BC  0E00               	movlw	0
  1170   0010BE  6E54               	movwf	(sprintf@f+10)^0,c
  1171   0010C0  0E4A               	movlw	low sprintf@f
  1172   0010C2  6E3A               	movwf	vfprintf@fp^0,c
  1173   0010C4  0E00               	movlw	high sprintf@f
  1174   0010C6  6E3B               	movwf	(vfprintf@fp+1)^0,c
  1175   0010C8  C044  F03C         	movff	sprintf@fmt,vfprintf@fmt
  1176   0010CC  C045  F03D         	movff	sprintf@fmt+1,vfprintf@fmt+1
  1177   0010D0  0E48               	movlw	low sprintf@ap
  1178   0010D2  6E3E               	movwf	vfprintf@ap^0,c
  1179   0010D4  0E00               	movlw	high sprintf@ap
  1180   0010D6  6E3F               	movwf	(vfprintf@ap+1)^0,c
  1181   0010D8  EC29  F008         	call	_vfprintf	;wreg free
  1182   0010DC  504D               	movf	(sprintf@f+3)^0,w,c
  1183   0010DE  2442               	addwf	sprintf@s^0,w,c
  1184   0010E0  6ED9               	movwf	fsr2l,c
  1185   0010E2  504E               	movf	(sprintf@f+4)^0,w,c
  1186   0010E4  2043               	addwfc	(sprintf@s+1)^0,w,c
  1187   0010E6  6EDA               	movwf	fsr2h,c
  1188   0010E8  6ADF               	clrf	indf2,c
  1189   0010EA  0012               	return		;funcret
  1190   0010EC                     __end_of_sprintf:
  1191                           	callstack 0
  1192                           
  1193 ;; *************** function _vfprintf *****************
  1194 ;; Defined at:
  1195 ;;		line 1546 in file "/Applications/microchip/xc8/v2.41/pic/sources/c99/common/doprnt.c"
  1196 ;; Parameters:    Size  Location     Type
  1197 ;;  fp              2   57[COMRAM] PTR struct _IO_FILE
  1198 ;;		 -> sprintf@f(12), 
  1199 ;;  fmt             2   59[COMRAM] PTR const unsigned char 
  1200 ;;		 -> STR_11(4), STR_10(4), STR_9(8), STR_8(8), 
  1201 ;;		 -> STR_7(4), STR_6(4), STR_5(8), STR_4(4), 
  1202 ;;		 -> STR_3(4), 
  1203 ;;  ap              2   61[COMRAM] PTR PTR void 
  1204 ;;		 -> sprintf@ap(2), 
  1205 ;; Auto vars:     Size  Location     Type
  1206 ;;  cfmt            2   63[COMRAM] PTR unsigned char 
  1207 ;;		 -> STR_11(4), STR_10(4), STR_9(8), STR_8(8), 
  1208 ;;		 -> STR_7(4), STR_6(4), STR_5(8), STR_4(4), 
  1209 ;;		 -> STR_3(4), 
  1210 ;; Return value:  Size  Location     Type
  1211 ;;                  2   57[COMRAM] int 
  1212 ;; Registers used:
  1213 ;;		wreg, fsr1l, fsr1h, fsr2l, fsr2h, status,2, status,0, tblptrl, tblptrh, tblptru, cstack
  1214 ;; Tracked objects:
  1215 ;;		On entry : 0/0
  1216 ;;		On exit  : 0/0
  1217 ;;		Unchanged: 0/0
  1218 ;; Data sizes:     COMRAM   BANK0   BANK1   BANK2   BANK3   BANK4   BANK5   BANK6   BANK7
  1219 ;;      Params:         6       0       0       0       0       0       0       0       0
  1220 ;;      Locals:         2       0       0       0       0       0       0       0       0
  1221 ;;      Temps:          0       0       0       0       0       0       0       0       0
  1222 ;;      Totals:         8       0       0       0       0       0       0       0       0
  1223 ;;Total ram usage:        8 bytes
  1224 ;; Hardware stack levels used: 1
  1225 ;; Hardware stack levels required when called: 6
  1226 ;; This function calls:
  1227 ;;		_vfpfcnvrt
  1228 ;; This function is called by:
  1229 ;;		_sprintf
  1230 ;; This function uses a non-reentrant model
  1231 ;;
  1232                           
  1233                           	psect	text2
  1234   001052                     __ptext2:
  1235                           	callstack 0
  1236   001052                     _vfprintf:
  1237                           	callstack 23
  1238   001052                     
  1239                           ;/Applications/microchip/xc8/v2.41/pic/sources/c99/common/doprnt.c: 1546: int vfprintf(F
      +                          ILE *fp, const char *fmt, va_list ap);/Applications/microchip/xc8/v2.41/pic/sources/c99/
      +                          common/doprnt.c: 1547: {;/Applications/microchip/xc8/v2.41/pic/sources/c99/common/doprnt
      +                          .c: 1549:     char *cfmt;;/Applications/microchip/xc8/v2.41/pic/sources/c99/common/doprn
      +                          t.c: 1551:     cfmt = (char *)fmt;
  1240   001052  C03C  F040         	movff	vfprintf@fmt,vfprintf@cfmt
  1241   001056  C03D  F041         	movff	vfprintf@fmt+1,vfprintf@cfmt+1
  1242                           
  1243                           ;/Applications/microchip/xc8/v2.41/pic/sources/c99/common/doprnt.c: 1555:     while (*cf
      +                          mt) {
  1244   00105A  EF3D  F008         	goto	l1729
  1245   00105E                     l1727:
  1246                           
  1247                           ;/Applications/microchip/xc8/v2.41/pic/sources/c99/common/doprnt.c: 1559:    vfpfcnvrt(f
      +                          p, &cfmt, ap);
  1248   00105E  C03A  F02C         	movff	vfprintf@fp,vfpfcnvrt@fp
  1249   001062  C03B  F02D         	movff	vfprintf@fp+1,vfpfcnvrt@fp+1
  1250   001066  0E40               	movlw	low vfprintf@cfmt
  1251   001068  6E2E               	movwf	vfpfcnvrt@fmt^0,c
  1252   00106A  0E00               	movlw	high vfprintf@cfmt
  1253   00106C  6E2F               	movwf	(vfpfcnvrt@fmt+1)^0,c
  1254   00106E  C03E  F030         	movff	vfprintf@ap,vfpfcnvrt@ap
  1255   001072  C03F  F031         	movff	vfprintf@ap+1,vfpfcnvrt@ap+1
  1256   001076  ECBA  F005         	call	_vfpfcnvrt	;wreg free
  1257   00107A                     l1729:
  1258                           
  1259                           ;/Applications/microchip/xc8/v2.41/pic/sources/c99/common/doprnt.c: 1555:     while (*cf
      +                          mt) {
  1260   00107A  C040  FFF6         	movff	vfprintf@cfmt,tblptrl
  1261   00107E  C041  FFF7         	movff	vfprintf@cfmt+1,tblptrh
  1262   001082                     	if	0	;tblptru may be non-zero
  1263   001082                     	endif
  1264   001082                     	if	0	;tblptru may be non-zero
  1265   001082                     	endif
  1266   001082  0008               	tblrd		*
  1267   001084  50F5               	movf	tablat,w,c
  1268   001086  0900               	iorlw	0
  1269   001088  A4D8               	btfss	status,2,c
  1270   00108A  EF49  F008         	goto	u791
  1271   00108E  EF4B  F008         	goto	u790
  1272   001092                     u791:
  1273   001092  EF2F  F008         	goto	l1727
  1274   001096                     u790:
  1275   001096                     
  1276                           ;/Applications/microchip/xc8/v2.41/pic/sources/c99/common/doprnt.c: 1564:  return 0;
  1277   001096  0E00               	movlw	0
  1278   001098  6E3B               	movwf	(?_vfprintf+1)^0,c
  1279   00109A  0E00               	movlw	0
  1280   00109C  6E3A               	movwf	?_vfprintf^0,c
  1281   00109E  0012               	return		;funcret
  1282   0010A0                     __end_of_vfprintf:
  1283                           	callstack 0
  1284                           
  1285 ;; *************** function _vfpfcnvrt *****************
  1286 ;; Defined at:
  1287 ;;		line 1048 in file "/Applications/microchip/xc8/v2.41/pic/sources/c99/common/doprnt.c"
  1288 ;; Parameters:    Size  Location     Type
  1289 ;;  fp              2   43[COMRAM] PTR struct _IO_FILE
  1290 ;;		 -> sprintf@f(12), 
  1291 ;;  fmt             2   45[COMRAM] PTR PTR unsigned char 
  1292 ;;		 -> vfprintf@cfmt(2), 
  1293 ;;  ap              2   47[COMRAM] PTR PTR void 
  1294 ;;		 -> sprintf@ap(2), 
  1295 ;; Auto vars:     Size  Location     Type
  1296 ;;  convarg         4   51[COMRAM] struct .
  1297 ;;  cp              2   55[COMRAM] PTR unsigned char 
  1298 ;;		 -> STR_11(4), STR_10(4), STR_9(8), STR_8(8), 
  1299 ;;		 -> STR_7(4), STR_6(4), STR_5(8), STR_4(4), 
  1300 ;;		 -> STR_3(4), 
  1301 ;;  i               2    0        int 
  1302 ;;  done            2    0        int 
  1303 ;;  c               1    0        unsigned char 
  1304 ;; Return value:  Size  Location     Type
  1305 ;;                  1    wreg      void 
  1306 ;; Registers used:
  1307 ;;		wreg, fsr1l, fsr1h, fsr2l, fsr2h, status,2, status,0, tblptrl, tblptrh, tblptru, cstack
  1308 ;; Tracked objects:
  1309 ;;		On entry : 0/0
  1310 ;;		On exit  : 0/0
  1311 ;;		Unchanged: 0/0
  1312 ;; Data sizes:     COMRAM   BANK0   BANK1   BANK2   BANK3   BANK4   BANK5   BANK6   BANK7
  1313 ;;      Params:         6       0       0       0       0       0       0       0       0
  1314 ;;      Locals:         6       0       0       0       0       0       0       0       0
  1315 ;;      Temps:          2       0       0       0       0       0       0       0       0
  1316 ;;      Totals:        14       0       0       0       0       0       0       0       0
  1317 ;;Total ram usage:       14 bytes
  1318 ;; Hardware stack levels used: 1
  1319 ;; Hardware stack levels required when called: 5
  1320 ;; This function calls:
  1321 ;;		_fputc
  1322 ;;		_xtoa
  1323 ;; This function is called by:
  1324 ;;		_vfprintf
  1325 ;; This function uses a non-reentrant model
  1326 ;;
  1327                           
  1328                           	psect	text3
  1329   000B74                     __ptext3:
  1330                           	callstack 0
  1331   000B74                     _vfpfcnvrt:
  1332                           	callstack 23
  1333   000B74                     
  1334                           ;/Applications/microchip/xc8/v2.41/pic/sources/c99/common/doprnt.c: 1048: vfpfcnvrt(FILE
      +                           *fp, char *fmt[], va_list ap);/Applications/microchip/xc8/v2.41/pic/sources/c99/common/
      +                          doprnt.c: 1049: {;/Applications/microchip/xc8/v2.41/pic/sources/c99/common/doprnt.c: 105
      +                          0:     char c, *cp;;/Applications/microchip/xc8/v2.41/pic/sources/c99/common/doprnt.c: 1
      +                          051:     int done, i;;/Applications/microchip/xc8/v2.41/pic/sources/c99/common/doprnt.c:
      +                           1059:  } convarg;;/Applications/microchip/xc8/v2.41/pic/sources/c99/common/doprnt.c: 10
      +                          62:     if ((*fmt)[0] == '%') {
  1335   000B74  C02E  FFD9         	movff	vfpfcnvrt@fmt,fsr2l
  1336   000B78  C02F  FFDA         	movff	vfpfcnvrt@fmt+1,fsr2h
  1337   000B7C  CFDE FFF6          	movff	postinc2,tblptrl
  1338   000B80  CFDD FFF7          	movff	postdec2,tblptrh
  1339   000B84                     	if	0	;tblptru may be non-zero
  1340   000B84                     	endif
  1341   000B84                     	if	0	;tblptru may be non-zero
  1342   000B84                     	endif
  1343   000B84  0008               	tblrd		*
  1344   000B86  50F5               	movf	tablat,w,c
  1345   000B88  0A25               	xorlw	37
  1346   000B8A  A4D8               	btfss	status,2,c
  1347   000B8C  EFCA  F005         	goto	u671
  1348   000B90  EFCC  F005         	goto	u670
  1349   000B94                     u671:
  1350   000B94  EF40  F006         	goto	l1653
  1351   000B98                     u670:
  1352   000B98                     
  1353                           ;/Applications/microchip/xc8/v2.41/pic/sources/c99/common/doprnt.c: 1063:         ++*fmt
      +                          ;
  1354   000B98  C02E  FFD9         	movff	vfpfcnvrt@fmt,fsr2l
  1355   000B9C  C02F  FFDA         	movff	vfpfcnvrt@fmt+1,fsr2h
  1356   000BA0  2ADE               	incf	postinc2,f,c
  1357   000BA2  0E00               	movlw	0
  1358   000BA4  22DD               	addwfc	postdec2,f,c
  1359   000BA6                     
  1360                           ;/Applications/microchip/xc8/v2.41/pic/sources/c99/common/doprnt.c: 1065:         flags 
      +                          = width = 0;
  1361   000BA6  0E00               	movlw	0
  1362   000BA8  6E5A               	movwf	(_width+1)^0,c
  1363   000BAA  0E00               	movlw	0
  1364   000BAC  6E59               	movwf	_width^0,c
  1365   000BAE  C059  F05D         	movff	_width,_flags
  1366   000BB2                     
  1367                           ;/Applications/microchip/xc8/v2.41/pic/sources/c99/common/doprnt.c: 1066:         prec =
      +                           -1;
  1368   000BB2  685B               	setf	_prec^0,c
  1369   000BB4  685C               	setf	(_prec+1)^0,c
  1370   000BB6                     
  1371                           ;/Applications/microchip/xc8/v2.41/pic/sources/c99/common/doprnt.c: 1265:   if (0
  1372   000BB6  C02E  FFD9         	movff	vfpfcnvrt@fmt,fsr2l
  1373   000BBA  C02F  FFDA         	movff	vfpfcnvrt@fmt+1,fsr2h
  1374   000BBE  CFDE F038          	movff	postinc2,vfpfcnvrt@cp
  1375   000BC2  CFDD F039          	movff	postdec2,vfpfcnvrt@cp+1
  1376   000BC6  C038  FFF6         	movff	vfpfcnvrt@cp,tblptrl
  1377   000BCA  C039  FFF7         	movff	vfpfcnvrt@cp+1,tblptrh
  1378   000BCE                     	if	0	;tblptru may be non-zero
  1379   000BCE                     	endif
  1380   000BCE                     	if	0	;tblptru may be non-zero
  1381   000BCE                     	endif
  1382   000BCE  0008               	tblrd		*
  1383   000BD0  50F5               	movf	tablat,w,c
  1384   000BD2  0A78               	xorlw	120
  1385   000BD4  A4D8               	btfss	status,2,c
  1386   000BD6  EFEF  F005         	goto	u681
  1387   000BDA  EFF1  F005         	goto	u680
  1388   000BDE                     u681:
  1389   000BDE  EF37  F006         	goto	l1649
  1390   000BE2                     u680:
  1391   000BE2                     
  1392                           ;/Applications/microchip/xc8/v2.41/pic/sources/c99/common/doprnt.c: 1278:     ) {;/Appli
      +                          cations/microchip/xc8/v2.41/pic/sources/c99/common/doprnt.c: 1321:    convarg.uint = (vf
      +                          pf_uint_t)(unsigned int)(*(unsigned int *)__va_arg(*(unsigned int **)ap, (unsigned int)0
      +                          ));
  1393   000BE2  C030  FFD9         	movff	vfpfcnvrt@ap,fsr2l
  1394   000BE6  C031  FFDA         	movff	vfpfcnvrt@ap+1,fsr2h
  1395   000BEA  CFDF F032          	movff	indf2,??_vfpfcnvrt
  1396   000BEE  0E02               	movlw	2
  1397   000BF0  26DE               	addwf	postinc2,f,c
  1398   000BF2  CFDF F033          	movff	indf2,??_vfpfcnvrt+1
  1399   000BF6  0E00               	movlw	0
  1400   000BF8  22DD               	addwfc	postdec2,f,c
  1401   000BFA  C032  FFD9         	movff	??_vfpfcnvrt,fsr2l
  1402   000BFE  C033  FFDA         	movff	??_vfpfcnvrt+1,fsr2h
  1403   000C02  CFDE F034          	movff	postinc2,vfpfcnvrt@convarg
  1404   000C06  CFDD F035          	movff	postdec2,vfpfcnvrt@convarg+1
  1405                           
  1406                           ;/Applications/microchip/xc8/v2.41/pic/sources/c99/common/doprnt.c: 1323:    *fmt = cp+1
      +                          ;
  1407   000C0A  0E01               	movlw	1
  1408   000C0C  2438               	addwf	vfpfcnvrt@cp^0,w,c
  1409   000C0E  6E32               	movwf	??_vfpfcnvrt^0,c
  1410   000C10  0E00               	movlw	0
  1411   000C12  2039               	addwfc	(vfpfcnvrt@cp+1)^0,w,c
  1412   000C14  6E33               	movwf	(??_vfpfcnvrt+1)^0,c
  1413   000C16  C02E  FFD9         	movff	vfpfcnvrt@fmt,fsr2l
  1414   000C1A  C02F  FFDA         	movff	vfpfcnvrt@fmt+1,fsr2h
  1415   000C1E  C032  FFDE         	movff	??_vfpfcnvrt,postinc2
  1416   000C22  C033  FFDD         	movff	??_vfpfcnvrt+1,postdec2
  1417                           
  1418                           ;/Applications/microchip/xc8/v2.41/pic/sources/c99/common/doprnt.c: 1324:    switch (*cp
      +                          ) {
  1419   000C26  EF21  F006         	goto	l1647
  1420   000C2A                     l1641:
  1421                           
  1422                           ;/Applications/microchip/xc8/v2.41/pic/sources/c99/common/doprnt.c: 1340:      return (v
      +                          oid) xtoa(fp,convarg.uint);;	Return value of _vfpfcnvrt is never used
  1423   000C2A  C02C  F01C         	movff	vfpfcnvrt@fp,xtoa@fp
  1424   000C2E  C02D  F01D         	movff	vfpfcnvrt@fp+1,xtoa@fp+1
  1425   000C32  C034  F01E         	movff	vfpfcnvrt@convarg,xtoa@d
  1426   000C36  C035  F01F         	movff	vfpfcnvrt@convarg+1,xtoa@d+1
  1427   000C3A  EC55  F006         	call	_xtoa	;wreg free
  1428   000C3E  EF54  F006         	goto	l977
  1429   000C42                     l1647:
  1430   000C42  C038  FFF6         	movff	vfpfcnvrt@cp,tblptrl
  1431   000C46  C039  FFF7         	movff	vfpfcnvrt@cp+1,tblptrh
  1432   000C4A                     	if	0	;tblptru may be non-zero
  1433   000C4A                     	endif
  1434   000C4A                     	if	0	;tblptru may be non-zero
  1435   000C4A                     	endif
  1436   000C4A  0008               	tblrd		*
  1437   000C4C  50F5               	movf	tablat,w,c
  1438   000C4E  6E32               	movwf	??_vfpfcnvrt^0,c
  1439   000C50  6A33               	clrf	(??_vfpfcnvrt+1)^0,c
  1440                           
  1441                           ; Switch on 2 bytes has been partitioned into a top level switch of size 1, and 1 sub-sw
      +                          itches
  1442                           ; Switch size 1, requested type "simple"
  1443                           ; Number of cases is 1, Range of values is 0 to 0
  1444                           ; switch strategies available:
  1445                           ; Name         Instructions Cycles
  1446                           ; simple_byte            4     3 (average)
  1447                           ;	Chosen strategy is simple_byte
  1448   000C52  5033               	movf	(??_vfpfcnvrt+1)^0,w,c
  1449   000C54  0A00               	xorlw	0	; case 0
  1450   000C56  B4D8               	btfsc	status,2,c
  1451   000C58  EF30  F006         	goto	l1961
  1452   000C5C  EF37  F006         	goto	l1649
  1453   000C60                     l1961:
  1454                           
  1455                           ; Switch size 1, requested type "simple"
  1456                           ; Number of cases is 1, Range of values is 120 to 120
  1457                           ; switch strategies available:
  1458                           ; Name         Instructions Cycles
  1459                           ; simple_byte            4     3 (average)
  1460                           ;	Chosen strategy is simple_byte
  1461   000C60  5032               	movf	??_vfpfcnvrt^0,w,c
  1462   000C62  0A78               	xorlw	120	; case 120
  1463   000C64  B4D8               	btfsc	status,2,c
  1464   000C66  EF15  F006         	goto	l1641
  1465   000C6A  EF37  F006         	goto	l1649
  1466   000C6E                     l1649:
  1467                           
  1468                           ;/Applications/microchip/xc8/v2.41/pic/sources/c99/common/doprnt.c: 1535:         ++*fmt
      +                          ;
  1469   000C6E  C02E  FFD9         	movff	vfpfcnvrt@fmt,fsr2l
  1470   000C72  C02F  FFDA         	movff	vfpfcnvrt@fmt+1,fsr2h
  1471   000C76  2ADE               	incf	postinc2,f,c
  1472   000C78  0E00               	movlw	0
  1473   000C7A  22DD               	addwfc	postdec2,f,c
  1474   000C7C  EF54  F006         	goto	l977
  1475   000C80                     l1653:
  1476                           
  1477                           ;/Applications/microchip/xc8/v2.41/pic/sources/c99/common/doprnt.c: 1540:     fputc((int
      +                          )(*fmt)[0], fp);
  1478   000C80  C02E  FFD9         	movff	vfpfcnvrt@fmt,fsr2l
  1479   000C84  C02F  FFDA         	movff	vfpfcnvrt@fmt+1,fsr2h
  1480   000C88  CFDE FFF6          	movff	postinc2,tblptrl
  1481   000C8C  CFDD FFF7          	movff	postdec2,tblptrh
  1482   000C90                     	if	0	;tblptru may be non-zero
  1483   000C90                     	endif
  1484   000C90                     	if	0	;tblptru may be non-zero
  1485   000C90                     	endif
  1486   000C90  0008               	tblrd		*
  1487   000C92  50F5               	movf	tablat,w,c
  1488   000C94  6E01               	movwf	fputc@c^0,c
  1489   000C96  6A02               	clrf	(fputc@c+1)^0,c
  1490   000C98  C02C  F003         	movff	vfpfcnvrt@fp,fputc@fp
  1491   000C9C  C02D  F004         	movff	vfpfcnvrt@fp+1,fputc@fp+1
  1492   000CA0  ECE4  F006         	call	_fputc	;wreg free
  1493   000CA4  EF37  F006         	goto	l1649
  1494   000CA8                     l977:
  1495   000CA8  0012               	return		;funcret
  1496   000CAA                     __end_of_vfpfcnvrt:
  1497                           	callstack 0
  1498                           
  1499 ;; *************** function _xtoa *****************
  1500 ;; Defined at:
  1501 ;;		line 955 in file "/Applications/microchip/xc8/v2.41/pic/sources/c99/common/doprnt.c"
  1502 ;; Parameters:    Size  Location     Type
  1503 ;;  fp              2   27[COMRAM] PTR struct _IO_FILE
  1504 ;;		 -> sprintf@f(12), 
  1505 ;;  d               2   29[COMRAM] unsigned int 
  1506 ;; Auto vars:     Size  Location     Type
  1507 ;;  i               2   40[COMRAM] int 
  1508 ;;  p               2   38[COMRAM] int 
  1509 ;;  w               2   34[COMRAM] int 
  1510 ;;  c               1   42[COMRAM] unsigned char 
  1511 ;; Return value:  Size  Location     Type
  1512 ;;                  1    wreg      void 
  1513 ;; Registers used:
  1514 ;;		wreg, fsr1l, fsr1h, fsr2l, fsr2h, status,2, status,0, cstack
  1515 ;; Tracked objects:
  1516 ;;		On entry : 0/0
  1517 ;;		On exit  : 0/0
  1518 ;;		Unchanged: 0/0
  1519 ;; Data sizes:     COMRAM   BANK0   BANK1   BANK2   BANK3   BANK4   BANK5   BANK6   BANK7
  1520 ;;      Params:         4       0       0       0       0       0       0       0       0
  1521 ;;      Locals:         9       0       0       0       0       0       0       0       0
  1522 ;;      Temps:          3       0       0       0       0       0       0       0       0
  1523 ;;      Totals:        16       0       0       0       0       0       0       0       0
  1524 ;;Total ram usage:       16 bytes
  1525 ;; Hardware stack levels used: 1
  1526 ;; Hardware stack levels required when called: 4
  1527 ;; This function calls:
  1528 ;;		_pad
  1529 ;; This function is called by:
  1530 ;;		_vfpfcnvrt
  1531 ;; This function uses a non-reentrant model
  1532 ;;
  1533                           
  1534                           	psect	text4
  1535   000CAA                     __ptext4:
  1536                           	callstack 0
  1537   000CAA                     _xtoa:
  1538                           	callstack 23
  1539   000CAA                     
  1540                           ;/Applications/microchip/xc8/v2.41/pic/sources/c99/common/doprnt.c: 955: static void xto
      +                          a(FILE *fp, vfpf_uint_t d);/Applications/microchip/xc8/v2.41/pic/sources/c99/common/dopr
      +                          nt.c: 958: {;/Applications/microchip/xc8/v2.41/pic/sources/c99/common/doprnt.c: 959:  ch
      +                          ar c;;/Applications/microchip/xc8/v2.41/pic/sources/c99/common/doprnt.c: 960:     int i,
      +                           p, w;;/Applications/microchip/xc8/v2.41/pic/sources/c99/common/doprnt.c: 971:     p = (
      +                          0 <= prec) ? prec : 1;
  1541   000CAA  BE5C               	btfsc	(_prec+1)^0,7,c
  1542   000CAC  EF5C  F006         	goto	u580
  1543   000CB0  EF5A  F006         	goto	u581
  1544   000CB4                     u581:
  1545   000CB4  EF62  F006         	goto	l956
  1546   000CB8                     u580:
  1547   000CB8  0E00               	movlw	0
  1548   000CBA  6E28               	movwf	(xtoa@p+1)^0,c
  1549   000CBC  0E01               	movlw	1
  1550   000CBE  6E27               	movwf	xtoa@p^0,c
  1551   000CC0  EF66  F006         	goto	l958
  1552   000CC4                     l956:
  1553   000CC4  C05B  F027         	movff	_prec,xtoa@p
  1554   000CC8  C05C  F028         	movff	_prec+1,xtoa@p+1
  1555   000CCC                     l958:
  1556                           
  1557                           ;/Applications/microchip/xc8/v2.41/pic/sources/c99/common/doprnt.c: 972:     w = width;
  1558   000CCC  C059  F023         	movff	_width,xtoa@w
  1559   000CD0  C05A  F024         	movff	_width+1,xtoa@w+1
  1560   000CD4                     
  1561                           ;/Applications/microchip/xc8/v2.41/pic/sources/c99/common/doprnt.c: 981:     i = sizeof(
      +                          dbuf) - 1;
  1562   000CD4  0E00               	movlw	0
  1563   000CD6  6E2A               	movwf	(xtoa@i+1)^0,c
  1564   000CD8  0E1F               	movlw	31
  1565   000CDA  6E29               	movwf	xtoa@i^0,c
  1566   000CDC                     
  1567                           ;/Applications/microchip/xc8/v2.41/pic/sources/c99/common/doprnt.c: 982:     dbuf[i] = '
      +                          \0';
  1568   000CDC  0E00               	movlw	0
  1569   000CDE  0100               	movlb	0	; () banked
  1570   000CE0  6FD2               	movwf	(_dbuf+31)& (0+255),b
  1571                           
  1572                           ;/Applications/microchip/xc8/v2.41/pic/sources/c99/common/doprnt.c: 983:     while (!(i 
      +                          < 2) && (d || (0 < p)
  1573   000CE2  EFAF  F006         	goto	l1577
  1574   000CE6                     l1557:
  1575                           
  1576                           ;/Applications/microchip/xc8/v2.41/pic/sources/c99/common/doprnt.c: 987:     )) {;/Appli
      +                          cations/microchip/xc8/v2.41/pic/sources/c99/common/doprnt.c: 988:         --i;
  1577   000CE6  0629               	decf	xtoa@i^0,f,c
  1578   000CE8  A0D8               	btfss	status,0,c
  1579   000CEA  062A               	decf	(xtoa@i+1)^0,f,c
  1580   000CEC                     
  1581                           ;/Applications/microchip/xc8/v2.41/pic/sources/c99/common/doprnt.c: 989:         c = d &
      +                           0x0f;
  1582   000CEC  501E               	movf	xtoa@d^0,w,c
  1583   000CEE  0B0F               	andlw	15
  1584   000CF0  6E2B               	movwf	xtoa@c^0,c
  1585   000CF2                     
  1586                           ;/Applications/microchip/xc8/v2.41/pic/sources/c99/common/doprnt.c: 991:         c = (c 
      +                          < 10) ? (int)'0' + c : (int)'a' + (c - 10);
  1587   000CF2  0E09               	movlw	9
  1588   000CF4  642B               	cpfsgt	xtoa@c^0,c
  1589   000CF6  EF7F  F006         	goto	u591
  1590   000CFA  EF81  F006         	goto	u590
  1591   000CFE                     u591:
  1592   000CFE  EF89  F006         	goto	l1565
  1593   000D02                     u590:
  1594   000D02  0E57               	movlw	87
  1595   000D04  242B               	addwf	xtoa@c^0,w,c
  1596   000D06  6E25               	movwf	_xtoa$905^0,c
  1597   000D08  6A26               	clrf	(_xtoa$905+1)^0,c
  1598   000D0A  0E00               	movlw	0
  1599   000D0C  2226               	addwfc	(_xtoa$905+1)^0,f,c
  1600   000D0E  EF8F  F006         	goto	l1567
  1601   000D12                     l1565:
  1602   000D12  0E30               	movlw	48
  1603   000D14  242B               	addwf	xtoa@c^0,w,c
  1604   000D16  6E25               	movwf	_xtoa$905^0,c
  1605   000D18  6A26               	clrf	(_xtoa$905+1)^0,c
  1606   000D1A  0E00               	movlw	0
  1607   000D1C  2226               	addwfc	(_xtoa$905+1)^0,f,c
  1608   000D1E                     l1567:
  1609   000D1E  C025  F02B         	movff	_xtoa$905,xtoa@c
  1610   000D22                     
  1611                           ;/Applications/microchip/xc8/v2.41/pic/sources/c99/common/doprnt.c: 1000:         dbuf[i
      +                          ] = (char)c;
  1612   000D22  0EB3               	movlw	low _dbuf
  1613   000D24  2429               	addwf	xtoa@i^0,w,c
  1614   000D26  6ED9               	movwf	fsr2l,c
  1615   000D28  0E00               	movlw	high _dbuf
  1616   000D2A  202A               	addwfc	(xtoa@i+1)^0,w,c
  1617   000D2C  6EDA               	movwf	fsr2h,c
  1618   000D2E  C02B  FFDF         	movff	xtoa@c,indf2
  1619   000D32                     
  1620                           ;/Applications/microchip/xc8/v2.41/pic/sources/c99/common/doprnt.c: 1001:         --p;
  1621   000D32  0627               	decf	xtoa@p^0,f,c
  1622   000D34  A0D8               	btfss	status,0,c
  1623   000D36  0628               	decf	(xtoa@p+1)^0,f,c
  1624   000D38                     
  1625                           ;/Applications/microchip/xc8/v2.41/pic/sources/c99/common/doprnt.c: 1002:         --w;
  1626   000D38  0623               	decf	xtoa@w^0,f,c
  1627   000D3A  A0D8               	btfss	status,0,c
  1628   000D3C  0624               	decf	(xtoa@w+1)^0,f,c
  1629   000D3E                     
  1630                           ;/Applications/microchip/xc8/v2.41/pic/sources/c99/common/doprnt.c: 1003:         d = d 
      +                          >> 4;
  1631   000D3E  C01E  F020         	movff	xtoa@d,??_xtoa
  1632   000D42  C01F  F021         	movff	xtoa@d+1,??_xtoa+1
  1633   000D46  0E04               	movlw	4
  1634   000D48  6E22               	movwf	(??_xtoa+2)^0,c
  1635   000D4A                     u605:
  1636   000D4A  90D8               	bcf	status,0,c
  1637   000D4C  3221               	rrcf	(??_xtoa+1)^0,f,c
  1638   000D4E  3220               	rrcf	??_xtoa^0,f,c
  1639   000D50  2E22               	decfsz	(??_xtoa+2)^0,f,c
  1640   000D52  EFA5  F006         	goto	u605
  1641   000D56  C020  F01E         	movff	??_xtoa,xtoa@d
  1642   000D5A  C021  F01F         	movff	??_xtoa+1,xtoa@d+1
  1643   000D5E                     l1577:
  1644                           
  1645                           ;/Applications/microchip/xc8/v2.41/pic/sources/c99/common/doprnt.c: 983:     while (!(i 
      +                          < 2) && (d || (0 < p)
  1646   000D5E  BE2A               	btfsc	(xtoa@i+1)^0,7,c
  1647   000D60  EFBB  F006         	goto	u611
  1648   000D64  502A               	movf	(xtoa@i+1)^0,w,c
  1649   000D66  E109               	bnz	u610
  1650   000D68  0E02               	movlw	2
  1651   000D6A  5C29               	subwf	xtoa@i^0,w,c
  1652   000D6C  A0D8               	btfss	status,0,c
  1653   000D6E  EFBB  F006         	goto	u611
  1654   000D72  EFBD  F006         	goto	u610
  1655   000D76                     u611:
  1656   000D76  EFD3  F006         	goto	l1583
  1657   000D7A                     u610:
  1658   000D7A  501E               	movf	xtoa@d^0,w,c
  1659   000D7C  101F               	iorwf	(xtoa@d+1)^0,w,c
  1660   000D7E  A4D8               	btfss	status,2,c
  1661   000D80  EFC4  F006         	goto	u621
  1662   000D84  EFC6  F006         	goto	u620
  1663   000D88                     u621:
  1664   000D88  EF73  F006         	goto	l1557
  1665   000D8C                     u620:
  1666   000D8C  BE28               	btfsc	(xtoa@p+1)^0,7,c
  1667   000D8E  EFD3  F006         	goto	u630
  1668   000D92  5028               	movf	(xtoa@p+1)^0,w,c
  1669   000D94  E106               	bnz	u631
  1670   000D96  0427               	decf	xtoa@p^0,w,c
  1671   000D98  B0D8               	btfsc	status,0,c
  1672   000D9A  EFD1  F006         	goto	u631
  1673   000D9E  EFD3  F006         	goto	u630
  1674   000DA2                     u631:
  1675   000DA2  EF73  F006         	goto	l1557
  1676   000DA6                     u630:
  1677   000DA6                     l1583:
  1678                           
  1679                           ;/Applications/microchip/xc8/v2.41/pic/sources/c99/common/doprnt.c: 1023:     return (vo
      +                          id) pad(fp, &dbuf[i], w);
  1680   000DA6  C01C  F011         	movff	xtoa@fp,pad@fp
  1681   000DAA  C01D  F012         	movff	xtoa@fp+1,pad@fp+1
  1682   000DAE  0EB3               	movlw	low _dbuf
  1683   000DB0  2429               	addwf	xtoa@i^0,w,c
  1684   000DB2  6E13               	movwf	pad@buf^0,c
  1685   000DB4  0E00               	movlw	high _dbuf
  1686   000DB6  202A               	addwfc	(xtoa@i+1)^0,w,c
  1687   000DB8  6E14               	movwf	(pad@buf+1)^0,c
  1688   000DBA  C023  F015         	movff	xtoa@w,pad@p
  1689   000DBE  C024  F016         	movff	xtoa@w+1,pad@p+1
  1690   000DC2  EC90  F007         	call	_pad	;wreg free
  1691   000DC6  0012               	return		;funcret
  1692   000DC8                     __end_of_xtoa:
  1693                           	callstack 0
  1694                           
  1695 ;; *************** function _pad *****************
  1696 ;; Defined at:
  1697 ;;		line 152 in file "/Applications/microchip/xc8/v2.41/pic/sources/c99/common/doprnt.c"
  1698 ;; Parameters:    Size  Location     Type
  1699 ;;  fp              2   16[COMRAM] PTR struct _IO_FILE
  1700 ;;		 -> sprintf@f(12), 
  1701 ;;  buf             2   18[COMRAM] PTR unsigned char 
  1702 ;;		 -> dbuf(32), 
  1703 ;;  p               2   20[COMRAM] int 
  1704 ;; Auto vars:     Size  Location     Type
  1705 ;;  w               2   25[COMRAM] int 
  1706 ;;  i               2   23[COMRAM] int 
  1707 ;; Return value:  Size  Location     Type
  1708 ;;                  1    wreg      void 
  1709 ;; Registers used:
  1710 ;;		wreg, fsr1l, fsr1h, fsr2l, fsr2h, status,2, status,0, cstack
  1711 ;; Tracked objects:
  1712 ;;		On entry : 0/0
  1713 ;;		On exit  : 0/0
  1714 ;;		Unchanged: 0/0
  1715 ;; Data sizes:     COMRAM   BANK0   BANK1   BANK2   BANK3   BANK4   BANK5   BANK6   BANK7
  1716 ;;      Params:         6       0       0       0       0       0       0       0       0
  1717 ;;      Locals:         4       0       0       0       0       0       0       0       0
  1718 ;;      Temps:          1       0       0       0       0       0       0       0       0
  1719 ;;      Totals:        11       0       0       0       0       0       0       0       0
  1720 ;;Total ram usage:       11 bytes
  1721 ;; Hardware stack levels used: 1
  1722 ;; Hardware stack levels required when called: 3
  1723 ;; This function calls:
  1724 ;;		_fputc
  1725 ;;		_fputs
  1726 ;; This function is called by:
  1727 ;;		_xtoa
  1728 ;; This function uses a non-reentrant model
  1729 ;;
  1730                           
  1731                           	psect	text5
  1732   000F20                     __ptext5:
  1733                           	callstack 0
  1734   000F20                     _pad:
  1735                           	callstack 23
  1736   000F20                     
  1737                           ;/Applications/microchip/xc8/v2.41/pic/sources/c99/common/doprnt.c: 152: static void pad
      +                          (FILE *fp, char *buf, int p);/Applications/microchip/xc8/v2.41/pic/sources/c99/common/do
      +                          prnt.c: 153: {;/Applications/microchip/xc8/v2.41/pic/sources/c99/common/doprnt.c: 154:  
      +                             int i, w;;/Applications/microchip/xc8/v2.41/pic/sources/c99/common/doprnt.c: 164:    
      +                           w = (p < 0) ? 0 : p;
  1738   000F20  BE16               	btfsc	(pad@p+1)^0,7,c
  1739   000F22  EF95  F007         	goto	u531
  1740   000F26  EF97  F007         	goto	u530
  1741   000F2A                     u531:
  1742   000F2A  EF9D  F007         	goto	l1521
  1743   000F2E                     u530:
  1744   000F2E  C015  F01A         	movff	pad@p,pad@w
  1745   000F32  C016  F01B         	movff	pad@p+1,pad@w+1
  1746   000F36  EFA1  F007         	goto	l948
  1747   000F3A                     l1521:
  1748   000F3A  0E00               	movlw	0
  1749   000F3C  6E1B               	movwf	(pad@w+1)^0,c
  1750   000F3E  0E00               	movlw	0
  1751   000F40  6E1A               	movwf	pad@w^0,c
  1752   000F42                     l948:
  1753                           
  1754                           ;/Applications/microchip/xc8/v2.41/pic/sources/c99/common/doprnt.c: 165:     i = 0;
  1755   000F42  0E00               	movlw	0
  1756   000F44  6E19               	movwf	(pad@i+1)^0,c
  1757   000F46  0E00               	movlw	0
  1758   000F48  6E18               	movwf	pad@i^0,c
  1759                           
  1760                           ;/Applications/microchip/xc8/v2.41/pic/sources/c99/common/doprnt.c: 166:     while (i < 
      +                          w) {
  1761   000F4A  EFB3  F007         	goto	l1527
  1762   000F4E                     l1523:
  1763                           
  1764                           ;/Applications/microchip/xc8/v2.41/pic/sources/c99/common/doprnt.c: 167:         fputc('
      +                           ', fp);
  1765   000F4E  0E00               	movlw	0
  1766   000F50  6E02               	movwf	(fputc@c+1)^0,c
  1767   000F52  0E20               	movlw	32
  1768   000F54  6E01               	movwf	fputc@c^0,c
  1769   000F56  C011  F003         	movff	pad@fp,fputc@fp
  1770   000F5A  C012  F004         	movff	pad@fp+1,fputc@fp+1
  1771   000F5E  ECE4  F006         	call	_fputc	;wreg free
  1772   000F62                     
  1773                           ;/Applications/microchip/xc8/v2.41/pic/sources/c99/common/doprnt.c: 168:         ++i;
  1774   000F62  4A18               	infsnz	pad@i^0,f,c
  1775   000F64  2A19               	incf	(pad@i+1)^0,f,c
  1776   000F66                     l1527:
  1777                           
  1778                           ;/Applications/microchip/xc8/v2.41/pic/sources/c99/common/doprnt.c: 166:     while (i < 
      +                          w) {
  1779   000F66  501A               	movf	pad@w^0,w,c
  1780   000F68  5C18               	subwf	pad@i^0,w,c
  1781   000F6A  5019               	movf	(pad@i+1)^0,w,c
  1782   000F6C  0A80               	xorlw	128
  1783   000F6E  6E17               	movwf	??_pad^0,c
  1784   000F70  501B               	movf	(pad@w+1)^0,w,c
  1785   000F72  0A80               	xorlw	128
  1786   000F74  5817               	subwfb	??_pad^0,w,c
  1787   000F76  A0D8               	btfss	status,0,c
  1788   000F78  EFC0  F007         	goto	u541
  1789   000F7C  EFC2  F007         	goto	u540
  1790   000F80                     u541:
  1791   000F80  EFA7  F007         	goto	l1523
  1792   000F84                     u540:
  1793   000F84                     
  1794                           ;/Applications/microchip/xc8/v2.41/pic/sources/c99/common/doprnt.c: 175:         fputs((
      +                          const char *)buf, fp);
  1795   000F84  C013  F00A         	movff	pad@buf,fputs@s
  1796   000F88  C014  F00B         	movff	pad@buf+1,fputs@s+1
  1797   000F8C  C011  F00C         	movff	pad@fp,fputs@fp
  1798   000F90  C012  F00D         	movff	pad@fp+1,fputs@fp+1
  1799   000F94  EC0A  F009         	call	_fputs	;wreg free
  1800   000F98  0012               	return		;funcret
  1801   000F9A                     __end_of_pad:
  1802                           	callstack 0
  1803                           
  1804 ;; *************** function _fputs *****************
  1805 ;; Defined at:
  1806 ;;		line 8 in file "/Applications/microchip/xc8/v2.41/pic/sources/c99/common/nf_fputs.c"
  1807 ;; Parameters:    Size  Location     Type
  1808 ;;  s               2    9[COMRAM] PTR const unsigned char 
  1809 ;;		 -> dbuf(32), 
  1810 ;;  fp              2   11[COMRAM] PTR struct _IO_FILE
  1811 ;;		 -> sprintf@f(12), 
  1812 ;; Auto vars:     Size  Location     Type
  1813 ;;  i               2   14[COMRAM] int 
  1814 ;;  c               1   13[COMRAM] unsigned char 
  1815 ;; Return value:  Size  Location     Type
  1816 ;;                  2    9[COMRAM] int 
  1817 ;; Registers used:
  1818 ;;		wreg, fsr1l, fsr1h, fsr2l, fsr2h, status,2, status,0, cstack
  1819 ;; Tracked objects:
  1820 ;;		On entry : 0/0
  1821 ;;		On exit  : 0/0
  1822 ;;		Unchanged: 0/0
  1823 ;; Data sizes:     COMRAM   BANK0   BANK1   BANK2   BANK3   BANK4   BANK5   BANK6   BANK7
  1824 ;;      Params:         4       0       0       0       0       0       0       0       0
  1825 ;;      Locals:         3       0       0       0       0       0       0       0       0
  1826 ;;      Temps:          0       0       0       0       0       0       0       0       0
  1827 ;;      Totals:         7       0       0       0       0       0       0       0       0
  1828 ;;Total ram usage:        7 bytes
  1829 ;; Hardware stack levels used: 1
  1830 ;; Hardware stack levels required when called: 2
  1831 ;; This function calls:
  1832 ;;		_fputc
  1833 ;; This function is called by:
  1834 ;;		_pad
  1835 ;; This function uses a non-reentrant model
  1836 ;;
  1837                           
  1838                           	psect	text6
  1839   001214                     __ptext6:
  1840                           	callstack 0
  1841   001214                     _fputs:
  1842                           	callstack 23
  1843   001214  0E00               	movlw	0
  1844   001216  6E10               	movwf	(fputs@i+1)^0,c
  1845   001218  0E00               	movlw	0
  1846   00121A  6E0F               	movwf	fputs@i^0,c
  1847   00121C  EF1B  F009         	goto	l1515
  1848   001220                     l1511:
  1849   001220  C00E  F001         	movff	fputs@c,fputc@c
  1850   001224  6A02               	clrf	(fputc@c+1)^0,c
  1851   001226  C00C  F003         	movff	fputs@fp,fputc@fp
  1852   00122A  C00D  F004         	movff	fputs@fp+1,fputc@fp+1
  1853   00122E  ECE4  F006         	call	_fputc	;wreg free
  1854   001232  4A0F               	infsnz	fputs@i^0,f,c
  1855   001234  2A10               	incf	(fputs@i+1)^0,f,c
  1856   001236                     l1515:
  1857   001236  500F               	movf	fputs@i^0,w,c
  1858   001238  240A               	addwf	fputs@s^0,w,c
  1859   00123A  6ED9               	movwf	fsr2l,c
  1860   00123C  5010               	movf	(fputs@i+1)^0,w,c
  1861   00123E  200B               	addwfc	(fputs@s+1)^0,w,c
  1862   001240  6EDA               	movwf	fsr2h,c
  1863   001242  50DF               	movf	indf2,w,c
  1864   001244  6E0E               	movwf	fputs@c^0,c
  1865   001246  500E               	movf	fputs@c^0,w,c
  1866   001248  A4D8               	btfss	status,2,c
  1867   00124A  EF29  F009         	goto	u521
  1868   00124E  EF2B  F009         	goto	u520
  1869   001252                     u521:
  1870   001252  EF10  F009         	goto	l1511
  1871   001256                     u520:
  1872   001256  0012               	return		;funcret
  1873   001258                     __end_of_fputs:
  1874                           	callstack 0
  1875                           
  1876 ;; *************** function _fputc *****************
  1877 ;; Defined at:
  1878 ;;		line 8 in file "/Applications/microchip/xc8/v2.41/pic/sources/c99/common/nf_fputc.c"
  1879 ;; Parameters:    Size  Location     Type
  1880 ;;  c               2    0[COMRAM] int 
  1881 ;;  fp              2    2[COMRAM] PTR struct _IO_FILE
  1882 ;;		 -> sprintf@f(12), 
  1883 ;; Auto vars:     Size  Location     Type
  1884 ;;		None
  1885 ;; Return value:  Size  Location     Type
  1886 ;;                  2    0[COMRAM] int 
  1887 ;; Registers used:
  1888 ;;		wreg, fsr1l, fsr1h, fsr2l, fsr2h, status,2, status,0, cstack
  1889 ;; Tracked objects:
  1890 ;;		On entry : 0/0
  1891 ;;		On exit  : 0/0
  1892 ;;		Unchanged: 0/0
  1893 ;; Data sizes:     COMRAM   BANK0   BANK1   BANK2   BANK3   BANK4   BANK5   BANK6   BANK7
  1894 ;;      Params:         4       0       0       0       0       0       0       0       0
  1895 ;;      Locals:         0       0       0       0       0       0       0       0       0
  1896 ;;      Temps:          5       0       0       0       0       0       0       0       0
  1897 ;;      Totals:         9       0       0       0       0       0       0       0       0
  1898 ;;Total ram usage:        9 bytes
  1899 ;; Hardware stack levels used: 1
  1900 ;; Hardware stack levels required when called: 1
  1901 ;; This function calls:
  1902 ;;		_putch
  1903 ;; This function is called by:
  1904 ;;		_pad
  1905 ;;		_vfpfcnvrt
  1906 ;;		_fputs
  1907 ;; This function uses a non-reentrant model
  1908 ;;
  1909                           
  1910                           	psect	text7
  1911   000DC8                     __ptext7:
  1912                           	callstack 0
  1913   000DC8                     _fputc:
  1914                           	callstack 23
  1915   000DC8  5003               	movf	fputc@fp^0,w,c
  1916   000DCA  1004               	iorwf	(fputc@fp+1)^0,w,c
  1917   000DCC  B4D8               	btfsc	status,2,c
  1918   000DCE  EFEB  F006         	goto	u481
  1919   000DD2  EFED  F006         	goto	u480
  1920   000DD6                     u481:
  1921   000DD6  EFF6  F006         	goto	l1499
  1922   000DDA                     u480:
  1923   000DDA  5003               	movf	fputc@fp^0,w,c
  1924   000DDC  1004               	iorwf	(fputc@fp+1)^0,w,c
  1925   000DDE  A4D8               	btfss	status,2,c
  1926   000DE0  EFF4  F006         	goto	u491
  1927   000DE4  EFF6  F006         	goto	u490
  1928   000DE8                     u491:
  1929   000DE8  EFFB  F006         	goto	l1501
  1930   000DEC                     u490:
  1931   000DEC                     l1499:
  1932   000DEC  5001               	movf	fputc@c^0,w,c
  1933   000DEE  EC02  F00A         	call	_putch
  1934   000DF2  EF48  F007         	goto	l996
  1935   000DF6                     l1501:
  1936   000DF6  EE20 F00A          	lfsr	2,10
  1937   000DFA  5003               	movf	fputc@fp^0,w,c
  1938   000DFC  26D9               	addwf	fsr2l,f,c
  1939   000DFE  5004               	movf	(fputc@fp+1)^0,w,c
  1940   000E00  22DA               	addwfc	fsr2h,f,c
  1941   000E02  50DE               	movf	postinc2,w,c
  1942   000E04  10DE               	iorwf	postinc2,w,c
  1943   000E06  B4D8               	btfsc	status,2,c
  1944   000E08  EF08  F007         	goto	u501
  1945   000E0C  EF0A  F007         	goto	u500
  1946   000E10                     u501:
  1947   000E10  EF25  F007         	goto	l1505
  1948   000E14                     u500:
  1949   000E14  EE20 F00A          	lfsr	2,10
  1950   000E18  5003               	movf	fputc@fp^0,w,c
  1951   000E1A  26D9               	addwf	fsr2l,f,c
  1952   000E1C  5004               	movf	(fputc@fp+1)^0,w,c
  1953   000E1E  22DA               	addwfc	fsr2h,f,c
  1954   000E20  EE10 F003          	lfsr	1,3
  1955   000E24  5003               	movf	fputc@fp^0,w,c
  1956   000E26  26E1               	addwf	fsr1l,f,c
  1957   000E28  5004               	movf	(fputc@fp+1)^0,w,c
  1958   000E2A  22E2               	addwfc	fsr1h,f,c
  1959   000E2C  50DE               	movf	postinc2,w,c
  1960   000E2E  5CE6               	subwf	postinc1,w,c
  1961   000E30  50E6               	movf	postinc1,w,c
  1962   000E32  0A80               	xorlw	128
  1963   000E34  6E09               	movwf	(??_fputc+4)^0,c
  1964   000E36  50DE               	movf	postinc2,w,c
  1965   000E38  0A80               	xorlw	128
  1966   000E3A  5809               	subwfb	(??_fputc+4)^0,w,c
  1967   000E3C  B0D8               	btfsc	status,0,c
  1968   000E3E  EF23  F007         	goto	u511
  1969   000E42  EF25  F007         	goto	u510
  1970   000E46                     u511:
  1971   000E46  EF48  F007         	goto	l996
  1972   000E4A                     u510:
  1973   000E4A                     l1505:
  1974   000E4A  EE20 F003          	lfsr	2,3
  1975   000E4E  5003               	movf	fputc@fp^0,w,c
  1976   000E50  26D9               	addwf	fsr2l,f,c
  1977   000E52  5004               	movf	(fputc@fp+1)^0,w,c
  1978   000E54  22DA               	addwfc	fsr2h,f,c
  1979   000E56  CFDE F005          	movff	postinc2,??_fputc
  1980   000E5A  CFDD F006          	movff	postdec2,??_fputc+1
  1981   000E5E  C003  FFD9         	movff	fputc@fp,fsr2l
  1982   000E62  C004  FFDA         	movff	fputc@fp+1,fsr2h
  1983   000E66  CFDE F007          	movff	postinc2,??_fputc+2
  1984   000E6A  CFDD F008          	movff	postdec2,??_fputc+3
  1985   000E6E  5005               	movf	??_fputc^0,w,c
  1986   000E70  2407               	addwf	(??_fputc+2)^0,w,c
  1987   000E72  6ED9               	movwf	fsr2l,c
  1988   000E74  5006               	movf	(??_fputc+1)^0,w,c
  1989   000E76  2008               	addwfc	(??_fputc+3)^0,w,c
  1990   000E78  6EDA               	movwf	fsr2h,c
  1991   000E7A  C001  FFDF         	movff	fputc@c,indf2
  1992   000E7E  EE20 F003          	lfsr	2,3
  1993   000E82  5003               	movf	fputc@fp^0,w,c
  1994   000E84  26D9               	addwf	fsr2l,f,c
  1995   000E86  5004               	movf	(fputc@fp+1)^0,w,c
  1996   000E88  22DA               	addwfc	fsr2h,f,c
  1997   000E8A  2ADE               	incf	postinc2,f,c
  1998   000E8C  0E00               	movlw	0
  1999   000E8E  22DD               	addwfc	postdec2,f,c
  2000   000E90                     l996:
  2001   000E90  0012               	return		;funcret
  2002   000E92                     __end_of_fputc:
  2003                           	callstack 0
  2004                           
  2005 ;; *************** function _putch *****************
  2006 ;; Defined at:
  2007 ;;		line 7 in file "/Applications/microchip/xc8/v2.41/pic/sources/c99/common/putch.c"
  2008 ;; Parameters:    Size  Location     Type
  2009 ;;  c               1    wreg     unsigned char 
  2010 ;; Auto vars:     Size  Location     Type
  2011 ;;  c               1    0[COMRAM] unsigned char 
  2012 ;; Return value:  Size  Location     Type
  2013 ;;                  1    wreg      void 
  2014 ;; Registers used:
  2015 ;;		wreg
  2016 ;; Tracked objects:
  2017 ;;		On entry : 0/0
  2018 ;;		On exit  : 0/0
  2019 ;;		Unchanged: 0/0
  2020 ;; Data sizes:     COMRAM   BANK0   BANK1   BANK2   BANK3   BANK4   BANK5   BANK6   BANK7
  2021 ;;      Params:         0       0       0       0       0       0       0       0       0
  2022 ;;      Locals:         0       0       0       0       0       0       0       0       0
  2023 ;;      Temps:          0       0       0       0       0       0       0       0       0
  2024 ;;      Totals:         0       0       0       0       0       0       0       0       0
  2025 ;;Total ram usage:        0 bytes
  2026 ;; Hardware stack levels used: 1
  2027 ;; This function calls:
  2028 ;;		Nothing
  2029 ;; This function is called by:
  2030 ;;		_fputc
  2031 ;; This function uses a non-reentrant model
  2032 ;;
  2033                           
  2034                           	psect	text8
  2035   001404                     __ptext8:
  2036                           	callstack 0
  2037   001404                     _putch:
  2038                           	callstack 23
  2039   001404  0012               	return		;funcret
  2040   001406                     __end_of_putch:
  2041                           	callstack 0
  2042                           
  2043 ;; *************** function _RTC_Read_Clock *****************
  2044 ;; Defined at:
  2045 ;;		line 19 in file "main_piee2.c"
  2046 ;; Parameters:    Size  Location     Type
  2047 ;;  read_clock_a    1    wreg     unsigned char 
  2048 ;; Auto vars:     Size  Location     Type
  2049 ;;  read_clock_a    1    3[COMRAM] unsigned char 
  2050 ;; Return value:  Size  Location     Type
  2051 ;;                  1    wreg      void 
  2052 ;; Registers used:
  2053 ;;		wreg, status,2, status,0, cstack
  2054 ;; Tracked objects:
  2055 ;;		On entry : 0/0
  2056 ;;		On exit  : 0/0
  2057 ;;		Unchanged: 0/0
  2058 ;; Data sizes:     COMRAM   BANK0   BANK1   BANK2   BANK3   BANK4   BANK5   BANK6   BANK7
  2059 ;;      Params:         0       0       0       0       0       0       0       0       0
  2060 ;;      Locals:         1       0       0       0       0       0       0       0       0
  2061 ;;      Temps:          1       0       0       0       0       0       0       0       0
  2062 ;;      Totals:         2       0       0       0       0       0       0       0       0
  2063 ;;Total ram usage:        2 bytes
  2064 ;; Hardware stack levels used: 1
  2065 ;; Hardware stack levels required when called: 3
  2066 ;; This function calls:
  2067 ;;		_I2C_Read
  2068 ;;		_I2C_Repeated_Start
  2069 ;;		_I2C_Start
  2070 ;;		_I2C_Write
  2071 ;; This function is called by:
  2072 ;;		_main
  2073 ;; This function uses a non-reentrant model
  2074 ;;
  2075                           
  2076                           	psect	text9
  2077   0011CE                     __ptext9:
  2078                           	callstack 0
  2079   0011CE                     _RTC_Read_Clock:
  2080                           	callstack 27
  2081                           
  2082                           ;incstack = 0
  2083                           ;RTC_Read_Clock@read_clock_address stored from wreg
  2084   0011CE  6E04               	movwf	RTC_Read_Clock@read_clock_address^0,c
  2085   0011D0                     
  2086                           ;main_piee2.c: 19: void RTC_Read_Clock(char read_clock_address);main_piee2.c: 20: {;main
      +                          _piee2.c: 21:     I2C_Start(0xD0);
  2087   0011D0  0ED0               	movlw	208
  2088   0011D2  EC81  F009         	call	_I2C_Start
  2089                           
  2090                           ;main_piee2.c: 22:     I2C_Write(read_clock_address);
  2091   0011D6  5004               	movf	RTC_Read_Clock@read_clock_address^0,w,c
  2092   0011D8  ECAF  F009         	call	_I2C_Write
  2093                           
  2094                           ;main_piee2.c: 23:     I2C_Repeated_Start(0xD1);
  2095   0011DC  0ED1               	movlw	209
  2096   0011DE  EC98  F009         	call	_I2C_Repeated_Start
  2097   0011E2                     
  2098                           ;main_piee2.c: 24:     sec = I2C_Read(0);
  2099   0011E2  0E00               	movlw	0
  2100   0011E4  EC4C  F009         	call	_I2C_Read
  2101   0011E8  6E03               	movwf	??_RTC_Read_Clock^0,c
  2102   0011EA  5003               	movf	??_RTC_Read_Clock^0,w,c
  2103   0011EC  0100               	movlb	0	; () banked
  2104   0011EE  6FB1               	movwf	_sec& (0+255),b
  2105   0011F0  6BB2               	clrf	(_sec+1)& (0+255),b
  2106   0011F2                     
  2107                           ; BSR set to: 0
  2108                           ;main_piee2.c: 25:     min = I2C_Read(0);
  2109   0011F2  0E00               	movlw	0
  2110   0011F4  EC4C  F009         	call	_I2C_Read
  2111   0011F8  6E03               	movwf	??_RTC_Read_Clock^0,c
  2112   0011FA  5003               	movf	??_RTC_Read_Clock^0,w,c
  2113   0011FC  0100               	movlb	0	; () banked
  2114   0011FE  6FAF               	movwf	_min& (0+255),b
  2115   001200  6BB0               	clrf	(_min+1)& (0+255),b
  2116   001202                     
  2117                           ; BSR set to: 0
  2118                           ;main_piee2.c: 26:     hour= I2C_Read(1);
  2119   001202  0E01               	movlw	1
  2120   001204  EC4C  F009         	call	_I2C_Read
  2121   001208  6E03               	movwf	??_RTC_Read_Clock^0,c
  2122   00120A  5003               	movf	??_RTC_Read_Clock^0,w,c
  2123   00120C  0100               	movlb	0	; () banked
  2124   00120E  6FAD               	movwf	_hour& (0+255),b
  2125   001210  6BAE               	clrf	(_hour+1)& (0+255),b
  2126   001212                     
  2127                           ; BSR set to: 0
  2128   001212  0012               	return		;funcret
  2129   001214                     __end_of_RTC_Read_Clock:
  2130                           	callstack 0
  2131                           
  2132 ;; *************** function _RTC_Read_Calendar *****************
  2133 ;; Defined at:
  2134 ;;		line 30 in file "main_piee2.c"
  2135 ;; Parameters:    Size  Location     Type
  2136 ;;  read_calenda    1    wreg     unsigned char 
  2137 ;; Auto vars:     Size  Location     Type
  2138 ;;  read_calenda    1    3[COMRAM] unsigned char 
  2139 ;; Return value:  Size  Location     Type
  2140 ;;                  1    wreg      void 
  2141 ;; Registers used:
  2142 ;;		wreg, status,2, status,0, cstack
  2143 ;; Tracked objects:
  2144 ;;		On entry : 0/0
  2145 ;;		On exit  : 0/0
  2146 ;;		Unchanged: 0/0
  2147 ;; Data sizes:     COMRAM   BANK0   BANK1   BANK2   BANK3   BANK4   BANK5   BANK6   BANK7
  2148 ;;      Params:         0       0       0       0       0       0       0       0       0
  2149 ;;      Locals:         1       0       0       0       0       0       0       0       0
  2150 ;;      Temps:          1       0       0       0       0       0       0       0       0
  2151 ;;      Totals:         2       0       0       0       0       0       0       0       0
  2152 ;;Total ram usage:        2 bytes
  2153 ;; Hardware stack levels used: 1
  2154 ;; Hardware stack levels required when called: 3
  2155 ;; This function calls:
  2156 ;;		_I2C_Read
  2157 ;;		_I2C_Repeated_Start
  2158 ;;		_I2C_Start
  2159 ;;		_I2C_Stop
  2160 ;;		_I2C_Write
  2161 ;; This function is called by:
  2162 ;;		_main
  2163 ;; This function uses a non-reentrant model
  2164 ;;
  2165                           
  2166                           	psect	text10
  2167   000FF8                     __ptext10:
  2168                           	callstack 0
  2169   000FF8                     _RTC_Read_Calendar:
  2170                           	callstack 27
  2171                           
  2172                           ; BSR set to: 0
  2173                           ;incstack = 0
  2174                           ;RTC_Read_Calendar@read_calendar_address stored from wreg
  2175   000FF8  6E04               	movwf	RTC_Read_Calendar@read_calendar_address^0,c
  2176   000FFA                     
  2177                           ;main_piee2.c: 30: void RTC_Read_Calendar(char read_calendar_address);main_piee2.c: 31: 
      +                          {;main_piee2.c: 32:     I2C_Start(0xD0);
  2178   000FFA  0ED0               	movlw	208
  2179   000FFC  EC81  F009         	call	_I2C_Start
  2180                           
  2181                           ;main_piee2.c: 33:     I2C_Write(read_calendar_address);
  2182   001000  5004               	movf	RTC_Read_Calendar@read_calendar_address^0,w,c
  2183   001002  ECAF  F009         	call	_I2C_Write
  2184                           
  2185                           ;main_piee2.c: 34:     I2C_Repeated_Start(0xD1);
  2186   001006  0ED1               	movlw	209
  2187   001008  EC98  F009         	call	_I2C_Repeated_Start
  2188   00100C                     
  2189                           ;main_piee2.c: 35:     Day = I2C_Read(0);
  2190   00100C  0E00               	movlw	0
  2191   00100E  EC4C  F009         	call	_I2C_Read
  2192   001012  6E03               	movwf	??_RTC_Read_Calendar^0,c
  2193   001014  5003               	movf	??_RTC_Read_Calendar^0,w,c
  2194   001016  0100               	movlb	0	; () banked
  2195   001018  6FAB               	movwf	_Day& (0+255),b
  2196   00101A  6BAC               	clrf	(_Day+1)& (0+255),b
  2197   00101C                     
  2198                           ; BSR set to: 0
  2199                           ;main_piee2.c: 36:     Date = I2C_Read(0);
  2200   00101C  0E00               	movlw	0
  2201   00101E  EC4C  F009         	call	_I2C_Read
  2202   001022  6E03               	movwf	??_RTC_Read_Calendar^0,c
  2203   001024  5003               	movf	??_RTC_Read_Calendar^0,w,c
  2204   001026  0100               	movlb	0	; () banked
  2205   001028  6FA9               	movwf	_Date& (0+255),b
  2206   00102A  6BAA               	clrf	(_Date+1)& (0+255),b
  2207   00102C                     
  2208                           ; BSR set to: 0
  2209                           ;main_piee2.c: 37:     Month = I2C_Read(0);
  2210   00102C  0E00               	movlw	0
  2211   00102E  EC4C  F009         	call	_I2C_Read
  2212   001032  6E03               	movwf	??_RTC_Read_Calendar^0,c
  2213   001034  5003               	movf	??_RTC_Read_Calendar^0,w,c
  2214   001036  0100               	movlb	0	; () banked
  2215   001038  6FA7               	movwf	_Month& (0+255),b
  2216   00103A  6BA8               	clrf	(_Month+1)& (0+255),b
  2217   00103C                     
  2218                           ; BSR set to: 0
  2219                           ;main_piee2.c: 38:     Year = I2C_Read(1);
  2220   00103C  0E01               	movlw	1
  2221   00103E  EC4C  F009         	call	_I2C_Read
  2222   001042  6E03               	movwf	??_RTC_Read_Calendar^0,c
  2223   001044  5003               	movf	??_RTC_Read_Calendar^0,w,c
  2224   001046  0100               	movlb	0	; () banked
  2225   001048  6FA5               	movwf	_Year& (0+255),b
  2226   00104A  6BA6               	clrf	(_Year+1)& (0+255),b
  2227   00104C                     
  2228                           ; BSR set to: 0
  2229                           ;main_piee2.c: 39:     I2C_Stop();
  2230   00104C  ECCD  F009         	call	_I2C_Stop	;wreg free
  2231   001050  0012               	return		;funcret
  2232   001052                     __end_of_RTC_Read_Calendar:
  2233                           	callstack 0
  2234                           
  2235 ;; *************** function _I2C_Stop *****************
  2236 ;; Defined at:
  2237 ;;		line 93 in file "i2c.c"
  2238 ;; Parameters:    Size  Location     Type
  2239 ;;		None
  2240 ;; Auto vars:     Size  Location     Type
  2241 ;;		None
  2242 ;; Return value:  Size  Location     Type
  2243 ;;                  1    wreg      unsigned char 
  2244 ;; Registers used:
  2245 ;;		wreg
  2246 ;; Tracked objects:
  2247 ;;		On entry : 0/0
  2248 ;;		On exit  : 0/0
  2249 ;;		Unchanged: 0/0
  2250 ;; Data sizes:     COMRAM   BANK0   BANK1   BANK2   BANK3   BANK4   BANK5   BANK6   BANK7
  2251 ;;      Params:         0       0       0       0       0       0       0       0       0
  2252 ;;      Locals:         0       0       0       0       0       0       0       0       0
  2253 ;;      Temps:          0       0       0       0       0       0       0       0       0
  2254 ;;      Totals:         0       0       0       0       0       0       0       0       0
  2255 ;;Total ram usage:        0 bytes
  2256 ;; Hardware stack levels used: 1
  2257 ;; This function calls:
  2258 ;;		Nothing
  2259 ;; This function is called by:
  2260 ;;		_RTC_Read_Calendar
  2261 ;;		_main
  2262 ;;		_I2C_Start_Wait
  2263 ;; This function uses a non-reentrant model
  2264 ;;
  2265                           
  2266                           	psect	text11
  2267   00139A                     __ptext11:
  2268                           	callstack 0
  2269   00139A                     _I2C_Stop:
  2270                           	callstack 29
  2271   00139A                     
  2272                           ;i2c.c: 95:     PEN = 1;
  2273   00139A  84C5               	bsf	4037,2,c	;volatile
  2274   00139C                     l161:
  2275   00139C  B4C5               	btfsc	4037,2,c	;volatile
  2276   00139E  EFD3  F009         	goto	u751
  2277   0013A2  EFD5  F009         	goto	u750
  2278   0013A6                     u751:
  2279   0013A6  EFCE  F009         	goto	l161
  2280   0013AA                     u750:
  2281   0013AA                     
  2282                           ;i2c.c: 97:     if(!SSPSTATbits.P);
  2283   0013AA  50C7               	movf	199,w,c	;volatile
  2284   0013AC  0012               	return		;funcret
  2285   0013AE                     __end_of_I2C_Stop:
  2286                           	callstack 0
  2287                           
  2288 ;; *************** function _I2C_Start *****************
  2289 ;; Defined at:
  2290 ;;		line 68 in file "i2c.c"
  2291 ;; Parameters:    Size  Location     Type
  2292 ;;  slave_write_    1    wreg     unsigned char 
  2293 ;; Auto vars:     Size  Location     Type
  2294 ;;  slave_write_    1    1[COMRAM] unsigned char 
  2295 ;; Return value:  Size  Location     Type
  2296 ;;                  1    wreg      unsigned char 
  2297 ;; Registers used:
  2298 ;;		wreg, status,2, cstack
  2299 ;; Tracked objects:
  2300 ;;		On entry : 0/0
  2301 ;;		On exit  : 0/0
  2302 ;;		Unchanged: 0/0
  2303 ;; Data sizes:     COMRAM   BANK0   BANK1   BANK2   BANK3   BANK4   BANK5   BANK6   BANK7
  2304 ;;      Params:         0       0       0       0       0       0       0       0       0
  2305 ;;      Locals:         1       0       0       0       0       0       0       0       0
  2306 ;;      Temps:          0       0       0       0       0       0       0       0       0
  2307 ;;      Totals:         1       0       0       0       0       0       0       0       0
  2308 ;;Total ram usage:        1 bytes
  2309 ;; Hardware stack levels used: 1
  2310 ;; Hardware stack levels required when called: 2
  2311 ;; This function calls:
  2312 ;;		_I2C_Write
  2313 ;; This function is called by:
  2314 ;;		_RTC_Read_Clock
  2315 ;;		_RTC_Read_Calendar
  2316 ;; This function uses a non-reentrant model
  2317 ;;
  2318                           
  2319                           	psect	text12
  2320   001302                     __ptext12:
  2321                           	callstack 0
  2322   001302                     _I2C_Start:
  2323                           	callstack 27
  2324                           
  2325                           ;incstack = 0
  2326                           ;I2C_Start@slave_write_address stored from wreg
  2327   001302  6E02               	movwf	I2C_Start@slave_write_address^0,c
  2328   001304                     
  2329                           ;i2c.c: 68: char I2C_Start(char slave_write_address);i2c.c: 69: {;i2c.c: 70:     SSPCON2
      +                          bits.SEN=1;
  2330   001304  80C5               	bsf	197,0,c	;volatile
  2331   001306                     l145:
  2332   001306  B0C5               	btfsc	197,0,c	;volatile
  2333   001308  EF88  F009         	goto	u691
  2334   00130C  EF8A  F009         	goto	u690
  2335   001310                     u691:
  2336   001310  EF83  F009         	goto	l145
  2337   001314                     u690:
  2338   001314                     
  2339                           ;i2c.c: 72:  SSPIF=0;
  2340   001314  969E               	bcf	3998,3,c	;volatile
  2341                           
  2342                           ;i2c.c: 73:     if(!SSPSTATbits.S)
  2343   001316  B6C7               	btfsc	199,3,c	;volatile
  2344   001318  EF90  F009         	goto	u701
  2345   00131C  EF92  F009         	goto	u700
  2346   001320                     u701:
  2347   001320  EF94  F009         	goto	l1667
  2348   001324                     u700:
  2349   001324  EF97  F009         	goto	l149
  2350   001328                     l1667:
  2351                           
  2352                           ;i2c.c: 75:     return (I2C_Write(slave_write_address));;	Return value of _I2C_Start is 
      +                          never used
  2353   001328  5002               	movf	I2C_Start@slave_write_address^0,w,c
  2354   00132A  ECAF  F009         	call	_I2C_Write
  2355   00132E                     l149:
  2356   00132E  0012               	return		;funcret
  2357   001330                     __end_of_I2C_Start:
  2358                           	callstack 0
  2359                           
  2360 ;; *************** function _I2C_Repeated_Start *****************
  2361 ;; Defined at:
  2362 ;;		line 79 in file "i2c.c"
  2363 ;; Parameters:    Size  Location     Type
  2364 ;;  slave_read_a    1    wreg     unsigned char 
  2365 ;; Auto vars:     Size  Location     Type
  2366 ;;  slave_read_a    1    1[COMRAM] unsigned char 
  2367 ;; Return value:  Size  Location     Type
  2368 ;;                  1    wreg      unsigned char 
  2369 ;; Registers used:
  2370 ;;		wreg, status,2, cstack
  2371 ;; Tracked objects:
  2372 ;;		On entry : 0/0
  2373 ;;		On exit  : 0/0
  2374 ;;		Unchanged: 0/0
  2375 ;; Data sizes:     COMRAM   BANK0   BANK1   BANK2   BANK3   BANK4   BANK5   BANK6   BANK7
  2376 ;;      Params:         0       0       0       0       0       0       0       0       0
  2377 ;;      Locals:         1       0       0       0       0       0       0       0       0
  2378 ;;      Temps:          0       0       0       0       0       0       0       0       0
  2379 ;;      Totals:         1       0       0       0       0       0       0       0       0
  2380 ;;Total ram usage:        1 bytes
  2381 ;; Hardware stack levels used: 1
  2382 ;; Hardware stack levels required when called: 2
  2383 ;; This function calls:
  2384 ;;		_I2C_Write
  2385 ;; This function is called by:
  2386 ;;		_RTC_Read_Clock
  2387 ;;		_RTC_Read_Calendar
  2388 ;; This function uses a non-reentrant model
  2389 ;;
  2390                           
  2391                           	psect	text13
  2392   001330                     __ptext13:
  2393                           	callstack 0
  2394   001330                     _I2C_Repeated_Start:
  2395                           	callstack 27
  2396                           
  2397                           ;incstack = 0
  2398                           ;I2C_Repeated_Start@slave_read_address stored from wreg
  2399   001330  6E02               	movwf	I2C_Repeated_Start@slave_read_address^0,c
  2400   001332                     
  2401                           ;i2c.c: 79: char I2C_Repeated_Start(char slave_read_address);i2c.c: 80: {;i2c.c: 81:    
      +                           RSEN = 1;
  2402   001332  82C5               	bsf	4037,1,c	;volatile
  2403   001334                     l152:
  2404   001334  B2C5               	btfsc	4037,1,c	;volatile
  2405   001336  EF9F  F009         	goto	u711
  2406   00133A  EFA1  F009         	goto	u710
  2407   00133E                     u711:
  2408   00133E  EF9A  F009         	goto	l152
  2409   001342                     u710:
  2410   001342                     
  2411                           ;i2c.c: 83:     SSPIF = 0;
  2412   001342  969E               	bcf	3998,3,c	;volatile
  2413                           
  2414                           ;i2c.c: 84:  if(!SSPSTATbits.S)
  2415   001344  B6C7               	btfsc	199,3,c	;volatile
  2416   001346  EFA7  F009         	goto	u721
  2417   00134A  EFA9  F009         	goto	u720
  2418   00134E                     u721:
  2419   00134E  EFAB  F009         	goto	l1675
  2420   001352                     u720:
  2421   001352  EFAE  F009         	goto	l156
  2422   001356                     l1675:
  2423                           
  2424                           ;i2c.c: 86:     I2C_Write(slave_read_address);
  2425   001356  5002               	movf	I2C_Repeated_Start@slave_read_address^0,w,c
  2426   001358  ECAF  F009         	call	_I2C_Write
  2427   00135C                     l156:
  2428   00135C  0012               	return		;funcret
  2429   00135E                     __end_of_I2C_Repeated_Start:
  2430                           	callstack 0
  2431                           
  2432 ;; *************** function _I2C_Write *****************
  2433 ;; Defined at:
  2434 ;;		line 101 in file "i2c.c"
  2435 ;; Parameters:    Size  Location     Type
  2436 ;;  data            1    wreg     unsigned char 
  2437 ;; Auto vars:     Size  Location     Type
  2438 ;;  data            1    0[COMRAM] unsigned char 
  2439 ;; Return value:  Size  Location     Type
  2440 ;;                  1    wreg      unsigned char 
  2441 ;; Registers used:
  2442 ;;		wreg, cstack
  2443 ;; Tracked objects:
  2444 ;;		On entry : 0/0
  2445 ;;		On exit  : 0/0
  2446 ;;		Unchanged: 0/0
  2447 ;; Data sizes:     COMRAM   BANK0   BANK1   BANK2   BANK3   BANK4   BANK5   BANK6   BANK7
  2448 ;;      Params:         0       0       0       0       0       0       0       0       0
  2449 ;;      Locals:         1       0       0       0       0       0       0       0       0
  2450 ;;      Temps:          0       0       0       0       0       0       0       0       0
  2451 ;;      Totals:         1       0       0       0       0       0       0       0       0
  2452 ;;Total ram usage:        1 bytes
  2453 ;; Hardware stack levels used: 1
  2454 ;; Hardware stack levels required when called: 1
  2455 ;; This function calls:
  2456 ;;		_I2C_Ready
  2457 ;; This function is called by:
  2458 ;;		_RTC_Read_Clock
  2459 ;;		_RTC_Read_Calendar
  2460 ;;		_I2C_Start
  2461 ;;		_I2C_Repeated_Start
  2462 ;;		_I2C_Start_Wait
  2463 ;; This function uses a non-reentrant model
  2464 ;;
  2465                           
  2466                           	psect	text14
  2467   00135E                     __ptext14:
  2468                           	callstack 0
  2469   00135E                     _I2C_Write:
  2470                           	callstack 28
  2471                           
  2472                           ;incstack = 0
  2473                           ;I2C_Write@data stored from wreg
  2474   00135E  6E01               	movwf	I2C_Write@data^0,c
  2475   001360                     
  2476                           ;i2c.c: 101: char I2C_Write(unsigned char data);i2c.c: 102: {;i2c.c: 103:       SSPBUF =
      +                           data;
  2477   001360  C001  FFC9         	movff	I2C_Write@data,4041	;volatile
  2478   001364                     
  2479                           ;i2c.c: 104:       I2C_Ready();
  2480   001364  ECF5  F009         	call	_I2C_Ready	;wreg free
  2481   001368                     
  2482                           ;i2c.c: 105:       if (ACKSTAT)
  2483   001368  ACC5               	btfss	4037,6,c	;volatile
  2484   00136A  EFB9  F009         	goto	u641
  2485   00136E  EFBB  F009         	goto	u640
  2486   001372                     u641:
  2487   001372  EFBE  F009         	goto	l1599
  2488   001376                     u640:
  2489   001376                     
  2490                           ;i2c.c: 106:         return 1;
  2491   001376  0E01               	movlw	1
  2492   001378  EFBF  F009         	goto	l169
  2493   00137C                     l1599:
  2494                           
  2495                           ;i2c.c: 108:         return 2;
  2496   00137C  0E02               	movlw	2
  2497   00137E                     l169:
  2498   00137E  0012               	return		;funcret
  2499   001380                     __end_of_I2C_Write:
  2500                           	callstack 0
  2501                           
  2502 ;; *************** function _I2C_Read *****************
  2503 ;; Defined at:
  2504 ;;		line 12 in file "i2c.c"
  2505 ;; Parameters:    Size  Location     Type
  2506 ;;  flag            1    wreg     unsigned char 
  2507 ;; Auto vars:     Size  Location     Type
  2508 ;;  flag            1    0[COMRAM] unsigned char 
  2509 ;;  buffer          1    1[COMRAM] unsigned char 
  2510 ;; Return value:  Size  Location     Type
  2511 ;;                  1    wreg      unsigned char 
  2512 ;; Registers used:
  2513 ;;		wreg, status,2, cstack
  2514 ;; Tracked objects:
  2515 ;;		On entry : 0/0
  2516 ;;		On exit  : 0/0
  2517 ;;		Unchanged: 0/0
  2518 ;; Data sizes:     COMRAM   BANK0   BANK1   BANK2   BANK3   BANK4   BANK5   BANK6   BANK7
  2519 ;;      Params:         0       0       0       0       0       0       0       0       0
  2520 ;;      Locals:         2       0       0       0       0       0       0       0       0
  2521 ;;      Temps:          0       0       0       0       0       0       0       0       0
  2522 ;;      Totals:         2       0       0       0       0       0       0       0       0
  2523 ;;Total ram usage:        2 bytes
  2524 ;; Hardware stack levels used: 1
  2525 ;; Hardware stack levels required when called: 1
  2526 ;; This function calls:
  2527 ;;		_I2C_Ack
  2528 ;;		_I2C_Nack
  2529 ;;		_I2C_Ready
  2530 ;; This function is called by:
  2531 ;;		_RTC_Read_Clock
  2532 ;;		_RTC_Read_Calendar
  2533 ;; This function uses a non-reentrant model
  2534 ;;
  2535                           
  2536                           	psect	text15
  2537   001298                     __ptext15:
  2538                           	callstack 0
  2539   001298                     _I2C_Read:
  2540                           	callstack 28
  2541                           
  2542                           ;incstack = 0
  2543                           ;I2C_Read@flag stored from wreg
  2544   001298  6E01               	movwf	I2C_Read@flag^0,c
  2545   00129A                     
  2546                           ;i2c.c: 12: char I2C_Read(char flag);i2c.c: 14: {;i2c.c: 15:         char buffer;;i2c.c:
      +                           16:         RCEN = 1;
  2547   00129A  86C5               	bsf	4037,3,c	;volatile
  2548   00129C                     l117:
  2549   00129C  A0C7               	btfss	199,0,c	;volatile
  2550   00129E  EF53  F009         	goto	u731
  2551   0012A2  EF55  F009         	goto	u730
  2552   0012A6                     u731:
  2553   0012A6  EF4E  F009         	goto	l117
  2554   0012AA                     u730:
  2555   0012AA                     
  2556                           ;i2c.c: 19:         buffer = SSPBUF;
  2557   0012AA  CFC9 F002          	movff	4041,I2C_Read@buffer	;volatile
  2558   0012AE                     
  2559                           ;i2c.c: 21:         if(flag==0)
  2560   0012AE  5001               	movf	I2C_Read@flag^0,w,c
  2561   0012B0  A4D8               	btfss	status,2,c
  2562   0012B2  EF5D  F009         	goto	u741
  2563   0012B6  EF5F  F009         	goto	u740
  2564   0012BA                     u741:
  2565   0012BA  EF63  F009         	goto	l1689
  2566   0012BE                     u740:
  2567   0012BE                     
  2568                           ;i2c.c: 22:             I2C_Ack();
  2569   0012BE  ECE1  F009         	call	_I2C_Ack	;wreg free
  2570   0012C2  EF65  F009         	goto	l121
  2571   0012C6                     l1689:
  2572                           
  2573                           ;i2c.c: 24:             I2C_Nack();
  2574   0012C6  ECD7  F009         	call	_I2C_Nack	;wreg free
  2575   0012CA                     l121:
  2576                           
  2577                           ;i2c.c: 25:         I2C_Ready();
  2578   0012CA  ECF5  F009         	call	_I2C_Ready	;wreg free
  2579   0012CE                     
  2580                           ;i2c.c: 26:         return(buffer);
  2581   0012CE  5002               	movf	I2C_Read@buffer^0,w,c
  2582   0012D0  0012               	return		;funcret
  2583   0012D2                     __end_of_I2C_Read:
  2584                           	callstack 0
  2585                           
  2586 ;; *************** function _I2C_Ready *****************
  2587 ;; Defined at:
  2588 ;;		line 43 in file "i2c.c"
  2589 ;; Parameters:    Size  Location     Type
  2590 ;;		None
  2591 ;; Auto vars:     Size  Location     Type
  2592 ;;		None
  2593 ;; Return value:  Size  Location     Type
  2594 ;;                  1    wreg      void 
  2595 ;; Registers used:
  2596 ;;		None
  2597 ;; Tracked objects:
  2598 ;;		On entry : 0/0
  2599 ;;		On exit  : 0/0
  2600 ;;		Unchanged: 0/0
  2601 ;; Data sizes:     COMRAM   BANK0   BANK1   BANK2   BANK3   BANK4   BANK5   BANK6   BANK7
  2602 ;;      Params:         0       0       0       0       0       0       0       0       0
  2603 ;;      Locals:         0       0       0       0       0       0       0       0       0
  2604 ;;      Temps:          0       0       0       0       0       0       0       0       0
  2605 ;;      Totals:         0       0       0       0       0       0       0       0       0
  2606 ;;Total ram usage:        0 bytes
  2607 ;; Hardware stack levels used: 1
  2608 ;; This function calls:
  2609 ;;		Nothing
  2610 ;; This function is called by:
  2611 ;;		_I2C_Read
  2612 ;;		_I2C_Write
  2613 ;; This function uses a non-reentrant model
  2614 ;;
  2615                           
  2616                           	psect	text16
  2617   0013EA                     __ptext16:
  2618                           	callstack 0
  2619   0013EA                     _I2C_Ready:
  2620                           	callstack 28
  2621   0013EA                     l128:
  2622   0013EA  A69E               	btfss	3998,3,c	;volatile
  2623   0013EC  EFFA  F009         	goto	u571
  2624   0013F0  EFFC  F009         	goto	u570
  2625   0013F4                     u571:
  2626   0013F4  EFF5  F009         	goto	l128
  2627   0013F8                     u570:
  2628   0013F8                     
  2629                           ;i2c.c: 46:     SSPIF=0;
  2630   0013F8  969E               	bcf	3998,3,c	;volatile
  2631   0013FA  0012               	return		;funcret
  2632   0013FC                     __end_of_I2C_Ready:
  2633                           	callstack 0
  2634                           
  2635 ;; *************** function _I2C_Nack *****************
  2636 ;; Defined at:
  2637 ;;		line 118 in file "i2c.c"
  2638 ;; Parameters:    Size  Location     Type
  2639 ;;		None
  2640 ;; Auto vars:     Size  Location     Type
  2641 ;;		None
  2642 ;; Return value:  Size  Location     Type
  2643 ;;                  1    wreg      void 
  2644 ;; Registers used:
  2645 ;;		None
  2646 ;; Tracked objects:
  2647 ;;		On entry : 0/0
  2648 ;;		On exit  : 0/0
  2649 ;;		Unchanged: 0/0
  2650 ;; Data sizes:     COMRAM   BANK0   BANK1   BANK2   BANK3   BANK4   BANK5   BANK6   BANK7
  2651 ;;      Params:         0       0       0       0       0       0       0       0       0
  2652 ;;      Locals:         0       0       0       0       0       0       0       0       0
  2653 ;;      Temps:          0       0       0       0       0       0       0       0       0
  2654 ;;      Totals:         0       0       0       0       0       0       0       0       0
  2655 ;;Total ram usage:        0 bytes
  2656 ;; Hardware stack levels used: 1
  2657 ;; This function calls:
  2658 ;;		Nothing
  2659 ;; This function is called by:
  2660 ;;		_I2C_Read
  2661 ;; This function uses a non-reentrant model
  2662 ;;
  2663                           
  2664                           	psect	text17
  2665   0013AE                     __ptext17:
  2666                           	callstack 0
  2667   0013AE                     _I2C_Nack:
  2668                           	callstack 28
  2669   0013AE                     
  2670                           ;i2c.c: 120:     ACKDT=1;
  2671   0013AE  8AC5               	bsf	4037,5,c	;volatile
  2672                           
  2673                           ;i2c.c: 121:  ACKEN=1;
  2674   0013B0  88C5               	bsf	4037,4,c	;volatile
  2675   0013B2                     l179:
  2676   0013B2  B8C5               	btfsc	4037,4,c	;volatile
  2677   0013B4  EFDE  F009         	goto	u661
  2678   0013B8  EFE0  F009         	goto	u660
  2679   0013BC                     u661:
  2680   0013BC  EFD9  F009         	goto	l179
  2681   0013C0                     u660:
  2682   0013C0  0012               	return		;funcret
  2683   0013C2                     __end_of_I2C_Nack:
  2684                           	callstack 0
  2685                           
  2686 ;; *************** function _I2C_Ack *****************
  2687 ;; Defined at:
  2688 ;;		line 111 in file "i2c.c"
  2689 ;; Parameters:    Size  Location     Type
  2690 ;;		None
  2691 ;; Auto vars:     Size  Location     Type
  2692 ;;		None
  2693 ;; Return value:  Size  Location     Type
  2694 ;;                  1    wreg      void 
  2695 ;; Registers used:
  2696 ;;		None
  2697 ;; Tracked objects:
  2698 ;;		On entry : 0/0
  2699 ;;		On exit  : 0/0
  2700 ;;		Unchanged: 0/0
  2701 ;; Data sizes:     COMRAM   BANK0   BANK1   BANK2   BANK3   BANK4   BANK5   BANK6   BANK7
  2702 ;;      Params:         0       0       0       0       0       0       0       0       0
  2703 ;;      Locals:         0       0       0       0       0       0       0       0       0
  2704 ;;      Temps:          0       0       0       0       0       0       0       0       0
  2705 ;;      Totals:         0       0       0       0       0       0       0       0       0
  2706 ;;Total ram usage:        0 bytes
  2707 ;; Hardware stack levels used: 1
  2708 ;; This function calls:
  2709 ;;		Nothing
  2710 ;; This function is called by:
  2711 ;;		_I2C_Read
  2712 ;; This function uses a non-reentrant model
  2713 ;;
  2714                           
  2715                           	psect	text18
  2716   0013C2                     __ptext18:
  2717                           	callstack 0
  2718   0013C2                     _I2C_Ack:
  2719                           	callstack 28
  2720   0013C2                     
  2721                           ;i2c.c: 113:     ACKDT=0;
  2722   0013C2  9AC5               	bcf	4037,5,c	;volatile
  2723                           
  2724                           ;i2c.c: 114:  ACKEN=1;
  2725   0013C4  88C5               	bsf	4037,4,c	;volatile
  2726   0013C6                     l173:
  2727   0013C6  B8C5               	btfsc	4037,4,c	;volatile
  2728   0013C8  EFE8  F009         	goto	u651
  2729   0013CC  EFEA  F009         	goto	u650
  2730   0013D0                     u651:
  2731   0013D0  EFE3  F009         	goto	l173
  2732   0013D4                     u650:
  2733   0013D4  0012               	return		;funcret
  2734   0013D6                     __end_of_I2C_Ack:
  2735                           	callstack 0
  2736                           
  2737 ;; *************** function _LCD_String_xy *****************
  2738 ;; Defined at:
  2739 ;;		line 63 in file "lcd_4b.c"
  2740 ;; Parameters:    Size  Location     Type
  2741 ;;  row             1    wreg     unsigned char 
  2742 ;;  pos             1   10[COMRAM] unsigned char 
  2743 ;;  msg             2   11[COMRAM] PTR const unsigned char 
  2744 ;;		 -> main@date(10), main@hours(10), STR_2(3), STR_1(3), 
  2745 ;; Auto vars:     Size  Location     Type
  2746 ;;  row             1   13[COMRAM] unsigned char 
  2747 ;;  location        1   14[COMRAM] unsigned char 
  2748 ;; Return value:  Size  Location     Type
  2749 ;;                  1    wreg      void 
  2750 ;; Registers used:
  2751 ;;		wreg, fsr1l, fsr1h, status,2, status,0, tblptrl, tblptrh, tblptru, cstack
  2752 ;; Tracked objects:
  2753 ;;		On entry : 0/0
  2754 ;;		On exit  : 0/0
  2755 ;;		Unchanged: 0/0
  2756 ;; Data sizes:     COMRAM   BANK0   BANK1   BANK2   BANK3   BANK4   BANK5   BANK6   BANK7
  2757 ;;      Params:         3       0       0       0       0       0       0       0       0
  2758 ;;      Locals:         2       0       0       0       0       0       0       0       0
  2759 ;;      Temps:          0       0       0       0       0       0       0       0       0
  2760 ;;      Totals:         5       0       0       0       0       0       0       0       0
  2761 ;;Total ram usage:        5 bytes
  2762 ;; Hardware stack levels used: 1
  2763 ;; Hardware stack levels required when called: 3
  2764 ;; This function calls:
  2765 ;;		_LCD_Command
  2766 ;;		_LCD_String
  2767 ;; This function is called by:
  2768 ;;		_main
  2769 ;; This function uses a non-reentrant model
  2770 ;;
  2771                           
  2772                           	psect	text19
  2773   000E92                     __ptext19:
  2774                           	callstack 0
  2775   000E92                     _LCD_String_xy:
  2776                           	callstack 27
  2777                           
  2778                           ;incstack = 0
  2779                           ;LCD_String_xy@row stored from wreg
  2780   000E92  6E0E               	movwf	LCD_String_xy@row^0,c
  2781   000E94                     
  2782                           ;lcd_4b.c: 66:     if(row==1)
  2783   000E94  040E               	decf	LCD_String_xy@row^0,w,c
  2784   000E96  A4D8               	btfss	status,2,c
  2785   000E98  EF50  F007         	goto	u801
  2786   000E9C  EF52  F007         	goto	u800
  2787   000EA0                     u801:
  2788   000EA0  EF59  F007         	goto	l1787
  2789   000EA4                     u800:
  2790   000EA4                     
  2791                           ;lcd_4b.c: 67:     {;lcd_4b.c: 68:         location=(0x80) | ((pos) & 0x0f);
  2792   000EA4  500B               	movf	LCD_String_xy@pos^0,w,c
  2793   000EA6  0B0F               	andlw	15
  2794   000EA8  0980               	iorlw	128
  2795   000EAA  6E0F               	movwf	LCD_String_xy@location^0,c
  2796   000EAC                     
  2797                           ;lcd_4b.c: 69:         LCD_Command(location);
  2798   000EAC  500F               	movf	LCD_String_xy@location^0,w,c
  2799   000EAE  EC9C  F008         	call	_LCD_Command
  2800   000EB2                     l1787:
  2801                           
  2802                           ;lcd_4b.c: 71:     if(row==2)
  2803   000EB2  0E02               	movlw	2
  2804   000EB4  180E               	xorwf	LCD_String_xy@row^0,w,c
  2805   000EB6  A4D8               	btfss	status,2,c
  2806   000EB8  EF60  F007         	goto	u811
  2807   000EBC  EF62  F007         	goto	u810
  2808   000EC0                     u811:
  2809   000EC0  EF69  F007         	goto	l1793
  2810   000EC4                     u810:
  2811   000EC4                     
  2812                           ;lcd_4b.c: 72:     {;lcd_4b.c: 73:         location=(0xC0) | ((pos) & 0x0f);
  2813   000EC4  500B               	movf	LCD_String_xy@pos^0,w,c
  2814   000EC6  0B0F               	andlw	15
  2815   000EC8  09C0               	iorlw	192
  2816   000ECA  6E0F               	movwf	LCD_String_xy@location^0,c
  2817   000ECC                     
  2818                           ;lcd_4b.c: 74:         LCD_Command(location);
  2819   000ECC  500F               	movf	LCD_String_xy@location^0,w,c
  2820   000ECE  EC9C  F008         	call	_LCD_Command
  2821   000ED2                     l1793:
  2822                           
  2823                           ;lcd_4b.c: 76:     if(row==3)
  2824   000ED2  0E03               	movlw	3
  2825   000ED4  180E               	xorwf	LCD_String_xy@row^0,w,c
  2826   000ED6  A4D8               	btfss	status,2,c
  2827   000ED8  EF70  F007         	goto	u821
  2828   000EDC  EF72  F007         	goto	u820
  2829   000EE0                     u821:
  2830   000EE0  EF79  F007         	goto	l1799
  2831   000EE4                     u820:
  2832   000EE4                     
  2833                           ;lcd_4b.c: 77:     {;lcd_4b.c: 78:         location=(0x94) | ((pos) & 0x0f);
  2834   000EE4  500B               	movf	LCD_String_xy@pos^0,w,c
  2835   000EE6  0B0F               	andlw	15
  2836   000EE8  0994               	iorlw	148
  2837   000EEA  6E0F               	movwf	LCD_String_xy@location^0,c
  2838   000EEC                     
  2839                           ;lcd_4b.c: 79:         LCD_Command(location);
  2840   000EEC  500F               	movf	LCD_String_xy@location^0,w,c
  2841   000EEE  EC9C  F008         	call	_LCD_Command
  2842   000EF2                     l1799:
  2843                           
  2844                           ;lcd_4b.c: 81:     if(row==4)
  2845   000EF2  0E04               	movlw	4
  2846   000EF4  180E               	xorwf	LCD_String_xy@row^0,w,c
  2847   000EF6  A4D8               	btfss	status,2,c
  2848   000EF8  EF80  F007         	goto	u831
  2849   000EFC  EF82  F007         	goto	u830
  2850   000F00                     u831:
  2851   000F00  EF89  F007         	goto	l1805
  2852   000F04                     u830:
  2853   000F04                     
  2854                           ;lcd_4b.c: 82:     {;lcd_4b.c: 83:         location=(0xD4) | ((pos) & 0x0f);
  2855   000F04  500B               	movf	LCD_String_xy@pos^0,w,c
  2856   000F06  0B0F               	andlw	15
  2857   000F08  09D4               	iorlw	212
  2858   000F0A  6E0F               	movwf	LCD_String_xy@location^0,c
  2859   000F0C                     
  2860                           ;lcd_4b.c: 84:         LCD_Command(location);
  2861   000F0C  500F               	movf	LCD_String_xy@location^0,w,c
  2862   000F0E  EC9C  F008         	call	_LCD_Command
  2863   000F12                     l1805:
  2864                           
  2865                           ;lcd_4b.c: 87:     LCD_String(msg);
  2866   000F12  C00C  F009         	movff	LCD_String_xy@msg,LCD_String@msg
  2867   000F16  C00D  F00A         	movff	LCD_String_xy@msg+1,LCD_String@msg+1
  2868   000F1A  ECCD  F007         	call	_LCD_String	;wreg free
  2869   000F1E  0012               	return		;funcret
  2870   000F20                     __end_of_LCD_String_xy:
  2871                           	callstack 0
  2872                           
  2873 ;; *************** function _LCD_String *****************
  2874 ;; Defined at:
  2875 ;;		line 54 in file "lcd_4b.c"
  2876 ;; Parameters:    Size  Location     Type
  2877 ;;  msg             2    8[COMRAM] PTR const unsigned char 
  2878 ;;		 -> STR_18(4), STR_17(4), STR_16(4), STR_15(4), 
  2879 ;;		 -> STR_14(4), STR_13(4), STR_12(4), main@year(10), 
  2880 ;;		 -> main@month(10), main@date(10), main@hours(10), main@mins(10), 
  2881 ;;		 -> main@secs(10), STR_2(3), STR_1(3), 
  2882 ;; Auto vars:     Size  Location     Type
  2883 ;;		None
  2884 ;; Return value:  Size  Location     Type
  2885 ;;                  1    wreg      void 
  2886 ;; Registers used:
  2887 ;;		wreg, fsr1l, fsr1h, status,2, status,0, tblptrl, tblptrh, tblptru, cstack
  2888 ;; Tracked objects:
  2889 ;;		On entry : 0/0
  2890 ;;		On exit  : 0/0
  2891 ;;		Unchanged: 0/0
  2892 ;; Data sizes:     COMRAM   BANK0   BANK1   BANK2   BANK3   BANK4   BANK5   BANK6   BANK7
  2893 ;;      Params:         2       0       0       0       0       0       0       0       0
  2894 ;;      Locals:         0       0       0       0       0       0       0       0       0
  2895 ;;      Temps:          0       0       0       0       0       0       0       0       0
  2896 ;;      Totals:         2       0       0       0       0       0       0       0       0
  2897 ;;Total ram usage:        2 bytes
  2898 ;; Hardware stack levels used: 1
  2899 ;; Hardware stack levels required when called: 2
  2900 ;; This function calls:
  2901 ;;		_LCD_Char
  2902 ;; This function is called by:
  2903 ;;		_main
  2904 ;;		_LCD_String_xy
  2905 ;; This function uses a non-reentrant model
  2906 ;;
  2907                           
  2908                           	psect	text20
  2909   000F9A                     __ptext20:
  2910                           	callstack 0
  2911   000F9A                     _LCD_String:
  2912                           	callstack 27
  2913   000F9A                     
  2914                           ;lcd_4b.c: 54: void LCD_String(const char *msg);lcd_4b.c: 55: {;lcd_4b.c: 56:  while((*m
      +                          sg)!=0)
  2915   000F9A  EFE3  F007         	goto	l1703
  2916   000F9E                     l1699:
  2917                           
  2918                           ;lcd_4b.c: 57:  {;lcd_4b.c: 58:    LCD_Char(*msg);
  2919   000F9E  C009  FFF6         	movff	LCD_String@msg,tblptrl
  2920   000FA2  C00A  FFF7         	movff	LCD_String@msg+1,tblptrh
  2921   000FA6  6AF8               	clrf	tblptru,c
  2922   000FA8  0E07               	movlw	(high __ramtop+-1)
  2923   000FAA  64F7               	cpfsgt	tblptrh,c
  2924   000FAC  D003               	bra	u767
  2925   000FAE  0008               	tblrd		*
  2926   000FB0  50F5               	movf	tablat,w,c
  2927   000FB2  D005               	bra	u760
  2928   000FB4                     u767:
  2929   000FB4  CFF6 FFE1          	movff	tblptrl,fsr1l
  2930   000FB8  CFF7 FFE2          	movff	tblptrh,fsr1h
  2931   000FBC  50E7               	movf	indf1,w,c
  2932   000FBE                     u760:
  2933   000FBE  EC76  F008         	call	_LCD_Char
  2934   000FC2                     
  2935                           ;lcd_4b.c: 59:    msg++;
  2936   000FC2  4A09               	infsnz	LCD_String@msg^0,f,c
  2937   000FC4  2A0A               	incf	(LCD_String@msg+1)^0,f,c
  2938   000FC6                     l1703:
  2939                           
  2940                           ;lcd_4b.c: 56:  while((*msg)!=0)
  2941   000FC6  C009  FFF6         	movff	LCD_String@msg,tblptrl
  2942   000FCA  C00A  FFF7         	movff	LCD_String@msg+1,tblptrh
  2943   000FCE  6AF8               	clrf	tblptru,c
  2944   000FD0  0E07               	movlw	(high __ramtop+-1)
  2945   000FD2  64F7               	cpfsgt	tblptrh,c
  2946   000FD4  D003               	bra	u777
  2947   000FD6  0008               	tblrd		*
  2948   000FD8  50F5               	movf	tablat,w,c
  2949   000FDA  D005               	bra	u770
  2950   000FDC                     u777:
  2951   000FDC  CFF6 FFE1          	movff	tblptrl,fsr1l
  2952   000FE0  CFF7 FFE2          	movff	tblptrh,fsr1h
  2953   000FE4  50E7               	movf	indf1,w,c
  2954   000FE6                     u770:
  2955   000FE6  0900               	iorlw	0
  2956   000FE8  A4D8               	btfss	status,2,c
  2957   000FEA  EFF9  F007         	goto	u781
  2958   000FEE  EFFB  F007         	goto	u780
  2959   000FF2                     u781:
  2960   000FF2  EFCF  F007         	goto	l1699
  2961   000FF6                     u780:
  2962   000FF6  0012               	return		;funcret
  2963   000FF8                     __end_of_LCD_String:
  2964                           	callstack 0
  2965                           
  2966 ;; *************** function _LCD_Char *****************
  2967 ;; Defined at:
  2968 ;;		line 39 in file "lcd_4b.c"
  2969 ;; Parameters:    Size  Location     Type
  2970 ;;  dat             1    wreg     unsigned char 
  2971 ;; Auto vars:     Size  Location     Type
  2972 ;;  dat             1    7[COMRAM] unsigned char 
  2973 ;; Return value:  Size  Location     Type
  2974 ;;                  1    wreg      void 
  2975 ;; Registers used:
  2976 ;;		wreg, status,2, status,0, cstack
  2977 ;; Tracked objects:
  2978 ;;		On entry : 0/0
  2979 ;;		On exit  : 0/0
  2980 ;;		Unchanged: 0/0
  2981 ;; Data sizes:     COMRAM   BANK0   BANK1   BANK2   BANK3   BANK4   BANK5   BANK6   BANK7
  2982 ;;      Params:         0       0       0       0       0       0       0       0       0
  2983 ;;      Locals:         1       0       0       0       0       0       0       0       0
  2984 ;;      Temps:          1       0       0       0       0       0       0       0       0
  2985 ;;      Totals:         2       0       0       0       0       0       0       0       0
  2986 ;;Total ram usage:        2 bytes
  2987 ;; Hardware stack levels used: 1
  2988 ;; Hardware stack levels required when called: 1
  2989 ;; This function calls:
  2990 ;;		_MSdelay
  2991 ;; This function is called by:
  2992 ;;		_LCD_String
  2993 ;; This function uses a non-reentrant model
  2994 ;;
  2995                           
  2996                           	psect	text21
  2997   0010EC                     __ptext21:
  2998                           	callstack 0
  2999   0010EC                     _LCD_Char:
  3000                           	callstack 27
  3001                           
  3002                           ;incstack = 0
  3003                           ;LCD_Char@dat stored from wreg
  3004   0010EC  6E08               	movwf	LCD_Char@dat^0,c
  3005   0010EE                     
  3006                           ;lcd_4b.c: 39: void LCD_Char(unsigned char dat);lcd_4b.c: 40: {;lcd_4b.c: 41:  LATB = (L
      +                          ATB & 0x0f) | (0xF0 & dat);
  3007   0010EE  C008  F007         	movff	LCD_Char@dat,??_LCD_Char
  3008   0010F2  0EF0               	movlw	240
  3009   0010F4  1607               	andwf	??_LCD_Char^0,f,c
  3010   0010F6  508A               	movf	138,w,c	;volatile
  3011   0010F8  0B0F               	andlw	15
  3012   0010FA  1007               	iorwf	??_LCD_Char^0,w,c
  3013   0010FC  6E8A               	movwf	138,c	;volatile
  3014   0010FE                     
  3015                           ;lcd_4b.c: 42:  LATB2 = 1;
  3016   0010FE  848A               	bsf	3978,2,c	;volatile
  3017   001100                     
  3018                           ;lcd_4b.c: 43:  LATB3 = 1;
  3019   001100  868A               	bsf	3978,3,c	;volatile
  3020   001102                     
  3021                           ;lcd_4b.c: 44:  __nop();
  3022   001102  F000               	nop	
  3023   001104                     
  3024                           ;lcd_4b.c: 45:  LATB3 = 0;
  3025   001104  968A               	bcf	3978,3,c	;volatile
  3026   001106                     
  3027                           ;lcd_4b.c: 46:  MSdelay(1);
  3028   001106  0E00               	movlw	0
  3029   001108  6E02               	movwf	(MSdelay@val+1)^0,c
  3030   00110A  0E01               	movlw	1
  3031   00110C  6E01               	movwf	MSdelay@val^0,c
  3032   00110E  ECC2  F008         	call	_MSdelay	;wreg free
  3033   001112                     
  3034                           ;lcd_4b.c: 47:     LATB = (LATB & 0x0f) | (dat<<4);
  3035   001112  C008  F007         	movff	LCD_Char@dat,??_LCD_Char
  3036   001116  3A07               	swapf	??_LCD_Char^0,f,c
  3037   001118  0EF0               	movlw	240
  3038   00111A  1607               	andwf	??_LCD_Char^0,f,c
  3039   00111C  508A               	movf	138,w,c	;volatile
  3040   00111E  0B0F               	andlw	15
  3041   001120  1007               	iorwf	??_LCD_Char^0,w,c
  3042   001122  6E8A               	movwf	138,c	;volatile
  3043   001124                     
  3044                           ;lcd_4b.c: 48:  LATB3 = 1;
  3045   001124  868A               	bsf	3978,3,c	;volatile
  3046   001126                     
  3047                           ;lcd_4b.c: 49:  __nop();
  3048   001126  F000               	nop	
  3049   001128                     
  3050                           ;lcd_4b.c: 50:  LATB3 = 0;
  3051   001128  968A               	bcf	3978,3,c	;volatile
  3052                           
  3053                           ;lcd_4b.c: 51:  MSdelay(3);
  3054   00112A  0E00               	movlw	0
  3055   00112C  6E02               	movwf	(MSdelay@val+1)^0,c
  3056   00112E  0E03               	movlw	3
  3057   001130  6E01               	movwf	MSdelay@val^0,c
  3058   001132  ECC2  F008         	call	_MSdelay	;wreg free
  3059   001136  0012               	return		;funcret
  3060   001138                     __end_of_LCD_Char:
  3061                           	callstack 0
  3062                           
  3063 ;; *************** function _LCD_Init *****************
  3064 ;; Defined at:
  3065 ;;		line 11 in file "lcd_4b.c"
  3066 ;; Parameters:    Size  Location     Type
  3067 ;;		None
  3068 ;; Auto vars:     Size  Location     Type
  3069 ;;		None
  3070 ;; Return value:  Size  Location     Type
  3071 ;;                  1    wreg      void 
  3072 ;; Registers used:
  3073 ;;		wreg, status,2, status,0, cstack
  3074 ;; Tracked objects:
  3075 ;;		On entry : 0/0
  3076 ;;		On exit  : 0/0
  3077 ;;		Unchanged: 0/0
  3078 ;; Data sizes:     COMRAM   BANK0   BANK1   BANK2   BANK3   BANK4   BANK5   BANK6   BANK7
  3079 ;;      Params:         0       0       0       0       0       0       0       0       0
  3080 ;;      Locals:         0       0       0       0       0       0       0       0       0
  3081 ;;      Temps:          0       0       0       0       0       0       0       0       0
  3082 ;;      Totals:         0       0       0       0       0       0       0       0       0
  3083 ;;Total ram usage:        0 bytes
  3084 ;; Hardware stack levels used: 1
  3085 ;; Hardware stack levels required when called: 2
  3086 ;; This function calls:
  3087 ;;		_LCD_Command
  3088 ;;		_MSdelay
  3089 ;; This function is called by:
  3090 ;;		_main
  3091 ;; This function uses a non-reentrant model
  3092 ;;
  3093                           
  3094                           	psect	text22
  3095   0012D2                     __ptext22:
  3096                           	callstack 0
  3097   0012D2                     _LCD_Init:
  3098                           	callstack 28
  3099   0012D2                     
  3100                           ;lcd_4b.c: 13:     TRISB = 0;
  3101   0012D2  0E00               	movlw	0
  3102   0012D4  6E93               	movwf	147,c	;volatile
  3103   0012D6                     
  3104                           ;lcd_4b.c: 14:     MSdelay(15);
  3105   0012D6  0E00               	movlw	0
  3106   0012D8  6E02               	movwf	(MSdelay@val+1)^0,c
  3107   0012DA  0E0F               	movlw	15
  3108   0012DC  6E01               	movwf	MSdelay@val^0,c
  3109   0012DE  ECC2  F008         	call	_MSdelay	;wreg free
  3110   0012E2                     
  3111                           ;lcd_4b.c: 15:     LCD_Command(0x02);
  3112   0012E2  0E02               	movlw	2
  3113   0012E4  EC9C  F008         	call	_LCD_Command
  3114   0012E8                     
  3115                           ;lcd_4b.c: 16:     LCD_Command(0x28);
  3116   0012E8  0E28               	movlw	40
  3117   0012EA  EC9C  F008         	call	_LCD_Command
  3118   0012EE                     
  3119                           ;lcd_4b.c: 18:  LCD_Command(0x01);
  3120   0012EE  0E01               	movlw	1
  3121   0012F0  EC9C  F008         	call	_LCD_Command
  3122   0012F4                     
  3123                           ;lcd_4b.c: 19:     LCD_Command(0x0c);
  3124   0012F4  0E0C               	movlw	12
  3125   0012F6  EC9C  F008         	call	_LCD_Command
  3126   0012FA                     
  3127                           ;lcd_4b.c: 20:  LCD_Command(0x06);
  3128   0012FA  0E06               	movlw	6
  3129   0012FC  EC9C  F008         	call	_LCD_Command
  3130   001300  0012               	return		;funcret
  3131   001302                     __end_of_LCD_Init:
  3132                           	callstack 0
  3133                           
  3134 ;; *************** function _LCD_Clear *****************
  3135 ;; Defined at:
  3136 ;;		line 90 in file "lcd_4b.c"
  3137 ;; Parameters:    Size  Location     Type
  3138 ;;		None
  3139 ;; Auto vars:     Size  Location     Type
  3140 ;;		None
  3141 ;; Return value:  Size  Location     Type
  3142 ;;                  1    wreg      void 
  3143 ;; Registers used:
  3144 ;;		wreg, status,2, status,0, cstack
  3145 ;; Tracked objects:
  3146 ;;		On entry : 0/0
  3147 ;;		On exit  : 0/0
  3148 ;;		Unchanged: 0/0
  3149 ;; Data sizes:     COMRAM   BANK0   BANK1   BANK2   BANK3   BANK4   BANK5   BANK6   BANK7
  3150 ;;      Params:         0       0       0       0       0       0       0       0       0
  3151 ;;      Locals:         0       0       0       0       0       0       0       0       0
  3152 ;;      Temps:          0       0       0       0       0       0       0       0       0
  3153 ;;      Totals:         0       0       0       0       0       0       0       0       0
  3154 ;;Total ram usage:        0 bytes
  3155 ;; Hardware stack levels used: 1
  3156 ;; Hardware stack levels required when called: 2
  3157 ;; This function calls:
  3158 ;;		_LCD_Command
  3159 ;;		_MSdelay
  3160 ;; This function is called by:
  3161 ;;		_main
  3162 ;; This function uses a non-reentrant model
  3163 ;;
  3164                           
  3165                           	psect	text23
  3166   0013D6                     __ptext23:
  3167                           	callstack 0
  3168   0013D6                     _LCD_Clear:
  3169                           	callstack 28
  3170   0013D6                     
  3171                           ;lcd_4b.c: 92:     LCD_Command(0x01);
  3172   0013D6  0E01               	movlw	1
  3173   0013D8  EC9C  F008         	call	_LCD_Command
  3174                           
  3175                           ;lcd_4b.c: 93:     MSdelay(3);
  3176   0013DC  0E00               	movlw	0
  3177   0013DE  6E02               	movwf	(MSdelay@val+1)^0,c
  3178   0013E0  0E03               	movlw	3
  3179   0013E2  6E01               	movwf	MSdelay@val^0,c
  3180   0013E4  ECC2  F008         	call	_MSdelay	;wreg free
  3181   0013E8  0012               	return		;funcret
  3182   0013EA                     __end_of_LCD_Clear:
  3183                           	callstack 0
  3184                           
  3185 ;; *************** function _LCD_Command *****************
  3186 ;; Defined at:
  3187 ;;		line 23 in file "lcd_4b.c"
  3188 ;; Parameters:    Size  Location     Type
  3189 ;;  cmd             1    wreg     unsigned char 
  3190 ;; Auto vars:     Size  Location     Type
  3191 ;;  cmd             1    7[COMRAM] unsigned char 
  3192 ;; Return value:  Size  Location     Type
  3193 ;;                  1    wreg      void 
  3194 ;; Registers used:
  3195 ;;		wreg, status,2, status,0, cstack
  3196 ;; Tracked objects:
  3197 ;;		On entry : 0/0
  3198 ;;		On exit  : 0/0
  3199 ;;		Unchanged: 0/0
  3200 ;; Data sizes:     COMRAM   BANK0   BANK1   BANK2   BANK3   BANK4   BANK5   BANK6   BANK7
  3201 ;;      Params:         0       0       0       0       0       0       0       0       0
  3202 ;;      Locals:         1       0       0       0       0       0       0       0       0
  3203 ;;      Temps:          1       0       0       0       0       0       0       0       0
  3204 ;;      Totals:         2       0       0       0       0       0       0       0       0
  3205 ;;Total ram usage:        2 bytes
  3206 ;; Hardware stack levels used: 1
  3207 ;; Hardware stack levels required when called: 1
  3208 ;; This function calls:
  3209 ;;		_MSdelay
  3210 ;; This function is called by:
  3211 ;;		_LCD_Init
  3212 ;;		_LCD_String_xy
  3213 ;;		_LCD_Clear
  3214 ;; This function uses a non-reentrant model
  3215 ;;
  3216                           
  3217                           	psect	text24
  3218   001138                     __ptext24:
  3219                           	callstack 0
  3220   001138                     _LCD_Command:
  3221                           	callstack 28
  3222                           
  3223                           ;incstack = 0
  3224                           ;LCD_Command@cmd stored from wreg
  3225   001138  6E08               	movwf	LCD_Command@cmd^0,c
  3226   00113A                     
  3227                           ;lcd_4b.c: 23: void LCD_Command(unsigned char cmd );lcd_4b.c: 24: {;lcd_4b.c: 25:  LATB 
      +                          = (LATB & 0x0f) |(0xF0 & cmd);
  3228   00113A  C008  F007         	movff	LCD_Command@cmd,??_LCD_Command
  3229   00113E  0EF0               	movlw	240
  3230   001140  1607               	andwf	??_LCD_Command^0,f,c
  3231   001142  508A               	movf	138,w,c	;volatile
  3232   001144  0B0F               	andlw	15
  3233   001146  1007               	iorwf	??_LCD_Command^0,w,c
  3234   001148  6E8A               	movwf	138,c	;volatile
  3235   00114A                     
  3236                           ;lcd_4b.c: 26:  LATB2 = 0;
  3237   00114A  948A               	bcf	3978,2,c	;volatile
  3238   00114C                     
  3239                           ;lcd_4b.c: 27:  LATB3 = 1;
  3240   00114C  868A               	bsf	3978,3,c	;volatile
  3241   00114E                     
  3242                           ;lcd_4b.c: 28:  __nop();
  3243   00114E  F000               	nop	
  3244   001150                     
  3245                           ;lcd_4b.c: 29:  LATB3 = 0;
  3246   001150  968A               	bcf	3978,3,c	;volatile
  3247   001152                     
  3248                           ;lcd_4b.c: 30:  MSdelay(1);
  3249   001152  0E00               	movlw	0
  3250   001154  6E02               	movwf	(MSdelay@val+1)^0,c
  3251   001156  0E01               	movlw	1
  3252   001158  6E01               	movwf	MSdelay@val^0,c
  3253   00115A  ECC2  F008         	call	_MSdelay	;wreg free
  3254   00115E                     
  3255                           ;lcd_4b.c: 31:     LATB = (LATB & 0x0f) | (cmd<<4);
  3256   00115E  C008  F007         	movff	LCD_Command@cmd,??_LCD_Command
  3257   001162  3A07               	swapf	??_LCD_Command^0,f,c
  3258   001164  0EF0               	movlw	240
  3259   001166  1607               	andwf	??_LCD_Command^0,f,c
  3260   001168  508A               	movf	138,w,c	;volatile
  3261   00116A  0B0F               	andlw	15
  3262   00116C  1007               	iorwf	??_LCD_Command^0,w,c
  3263   00116E  6E8A               	movwf	138,c	;volatile
  3264   001170                     
  3265                           ;lcd_4b.c: 32:  LATB3 = 1;
  3266   001170  868A               	bsf	3978,3,c	;volatile
  3267   001172                     
  3268                           ;lcd_4b.c: 33:  __nop();
  3269   001172  F000               	nop	
  3270   001174                     
  3271                           ;lcd_4b.c: 34:  LATB3 = 0;
  3272   001174  968A               	bcf	3978,3,c	;volatile
  3273                           
  3274                           ;lcd_4b.c: 35:  MSdelay(3);
  3275   001176  0E00               	movlw	0
  3276   001178  6E02               	movwf	(MSdelay@val+1)^0,c
  3277   00117A  0E03               	movlw	3
  3278   00117C  6E01               	movwf	MSdelay@val^0,c
  3279   00117E  ECC2  F008         	call	_MSdelay	;wreg free
  3280   001182  0012               	return		;funcret
  3281   001184                     __end_of_LCD_Command:
  3282                           	callstack 0
  3283                           
  3284 ;; *************** function _MSdelay *****************
  3285 ;; Defined at:
  3286 ;;		line 14 in file "msdelay.c"
  3287 ;; Parameters:    Size  Location     Type
  3288 ;;  val             2    0[COMRAM] unsigned int 
  3289 ;; Auto vars:     Size  Location     Type
  3290 ;;  j               2    4[COMRAM] unsigned int 
  3291 ;;  i               2    2[COMRAM] unsigned int 
  3292 ;; Return value:  Size  Location     Type
  3293 ;;                  1    wreg      void 
  3294 ;; Registers used:
  3295 ;;		wreg, status,2, status,0
  3296 ;; Tracked objects:
  3297 ;;		On entry : 0/0
  3298 ;;		On exit  : 0/0
  3299 ;;		Unchanged: 0/0
  3300 ;; Data sizes:     COMRAM   BANK0   BANK1   BANK2   BANK3   BANK4   BANK5   BANK6   BANK7
  3301 ;;      Params:         2       0       0       0       0       0       0       0       0
  3302 ;;      Locals:         4       0       0       0       0       0       0       0       0
  3303 ;;      Temps:          0       0       0       0       0       0       0       0       0
  3304 ;;      Totals:         6       0       0       0       0       0       0       0       0
  3305 ;;Total ram usage:        6 bytes
  3306 ;; Hardware stack levels used: 1
  3307 ;; This function calls:
  3308 ;;		Nothing
  3309 ;; This function is called by:
  3310 ;;		_main
  3311 ;;		_LCD_Init
  3312 ;;		_LCD_Command
  3313 ;;		_LCD_Char
  3314 ;;		_LCD_Clear
  3315 ;; This function uses a non-reentrant model
  3316 ;;
  3317                           
  3318                           	psect	text25
  3319   001184                     __ptext25:
  3320                           	callstack 0
  3321   001184                     _MSdelay:
  3322                           	callstack 30
  3323   001184                     
  3324                           ;msdelay.c: 14: void MSdelay(unsigned int val);msdelay.c: 15: {;msdelay.c: 16:  unsigned
      +                           int i,j;;msdelay.c: 17:  for(i=0;i<val;i++)
  3325   001184  0E00               	movlw	0
  3326   001186  6E04               	movwf	(MSdelay@i+1)^0,c
  3327   001188  0E00               	movlw	0
  3328   00118A  6E03               	movwf	MSdelay@i^0,c
  3329   00118C  EFDB  F008         	goto	l1545
  3330   001190                     l1533:
  3331                           
  3332                           ;msdelay.c: 18:      for(j=0;j<165;j++);
  3333   001190  0E00               	movlw	0
  3334   001192  6E06               	movwf	(MSdelay@j+1)^0,c
  3335   001194  0E00               	movlw	0
  3336   001196  6E05               	movwf	MSdelay@j^0,c
  3337   001198                     l1539:
  3338   001198  4A05               	infsnz	MSdelay@j^0,f,c
  3339   00119A  2A06               	incf	(MSdelay@j+1)^0,f,c
  3340   00119C  5006               	movf	(MSdelay@j+1)^0,w,c
  3341   00119E  E109               	bnz	u550
  3342   0011A0  0EA5               	movlw	165
  3343   0011A2  5C05               	subwf	MSdelay@j^0,w,c
  3344   0011A4  A0D8               	btfss	status,0,c
  3345   0011A6  EFD7  F008         	goto	u551
  3346   0011AA  EFD9  F008         	goto	u550
  3347   0011AE                     u551:
  3348   0011AE  EFCC  F008         	goto	l1539
  3349   0011B2                     u550:
  3350   0011B2  4A03               	infsnz	MSdelay@i^0,f,c
  3351   0011B4  2A04               	incf	(MSdelay@i+1)^0,f,c
  3352   0011B6                     l1545:
  3353   0011B6  5001               	movf	MSdelay@val^0,w,c
  3354   0011B8  5C03               	subwf	MSdelay@i^0,w,c
  3355   0011BA  5002               	movf	(MSdelay@val+1)^0,w,c
  3356   0011BC  5804               	subwfb	(MSdelay@i+1)^0,w,c
  3357   0011BE  A0D8               	btfss	status,0,c
  3358   0011C0  EFE4  F008         	goto	u561
  3359   0011C4  EFE6  F008         	goto	u560
  3360   0011C8                     u561:
  3361   0011C8  EFC8  F008         	goto	l1533
  3362   0011CC                     u560:
  3363   0011CC  0012               	return		;funcret
  3364   0011CE                     __end_of_MSdelay:
  3365                           	callstack 0
  3366                           
  3367 ;; *************** function _I2C_Init *****************
  3368 ;; Defined at:
  3369 ;;		line 29 in file "i2c.c"
  3370 ;; Parameters:    Size  Location     Type
  3371 ;;		None
  3372 ;; Auto vars:     Size  Location     Type
  3373 ;;		None
  3374 ;; Return value:  Size  Location     Type
  3375 ;;                  1    wreg      void 
  3376 ;; Registers used:
  3377 ;;		wreg, status,2
  3378 ;; Tracked objects:
  3379 ;;		On entry : 0/0
  3380 ;;		On exit  : 0/0
  3381 ;;		Unchanged: 0/0
  3382 ;; Data sizes:     COMRAM   BANK0   BANK1   BANK2   BANK3   BANK4   BANK5   BANK6   BANK7
  3383 ;;      Params:         0       0       0       0       0       0       0       0       0
  3384 ;;      Locals:         0       0       0       0       0       0       0       0       0
  3385 ;;      Temps:          0       0       0       0       0       0       0       0       0
  3386 ;;      Totals:         0       0       0       0       0       0       0       0       0
  3387 ;;Total ram usage:        0 bytes
  3388 ;; Hardware stack levels used: 1
  3389 ;; This function calls:
  3390 ;;		Nothing
  3391 ;; This function is called by:
  3392 ;;		_main
  3393 ;; This function uses a non-reentrant model
  3394 ;;
  3395                           
  3396                           	psect	text26
  3397   001380                     __ptext26:
  3398                           	callstack 0
  3399   001380                     _I2C_Init:
  3400                           	callstack 30
  3401   001380                     
  3402                           ;i2c.c: 31:     TRISB0=1;
  3403   001380  8093               	bsf	3987,0,c	;volatile
  3404                           
  3405                           ;i2c.c: 32:  TRISB1=1;
  3406   001382  8293               	bsf	3987,1,c	;volatile
  3407   001384                     
  3408                           ;i2c.c: 33:  SSPSTAT=80;
  3409   001384  0E50               	movlw	80
  3410   001386  6EC7               	movwf	199,c	;volatile
  3411                           
  3412                           ;i2c.c: 34:     SSPCON1=0x28;
  3413   001388  0E28               	movlw	40
  3414   00138A  6EC6               	movwf	198,c	;volatile
  3415                           
  3416                           ;i2c.c: 36:  SSPCON2=0;
  3417   00138C  0E00               	movlw	0
  3418   00138E  6EC5               	movwf	197,c	;volatile
  3419                           
  3420                           ;i2c.c: 37:     SSPADD=((8000000/(4*100000))-1);
  3421   001390  0E13               	movlw	19
  3422   001392  6EC8               	movwf	200,c	;volatile
  3423   001394                     
  3424                           ;i2c.c: 38:     SSPIE=1;
  3425   001394  869D               	bsf	3997,3,c	;volatile
  3426   001396                     
  3427                           ;i2c.c: 39:     SSPIF=0;
  3428   001396  969E               	bcf	3998,3,c	;volatile
  3429   001398  0012               	return		;funcret
  3430   00139A                     __end_of_I2C_Init:
  3431                           	callstack 0
  3432                           
  3433                           	psect	rparam
  3434   000000                     
  3435                           	psect	config
  3436                           
  3437                           ;Config register CONFIG1L @ 0x300000
  3438                           ;	PLL Prescaler Selection bits
  3439                           ;	PLLDIV = 1, No prescale (4 MHz oscillator input drives PLL directly)
  3440                           ;	System Clock Postscaler Selection bits
  3441                           ;	CPUDIV = OSC1_PLL2, [Primary Oscillator Src: /1][96 MHz PLL Src: /2]
  3442                           ;	USB Clock Selection bit (used in Full-Speed USB mode only; UCFG:FSEN = 1)
  3443                           ;	USBDIV = 1, USB clock source comes directly from the primary oscillator block with no 
      +                          postscale
  3444   300000                     	org	3145728
  3445   300000  00                 	db	0
  3446                           
  3447                           ;Config register CONFIG1H @ 0x300001
  3448                           ;	Oscillator Selection bits
  3449                           ;	FOSC = INTOSC_EC, Internal oscillator, CLKO function on RA6, EC used by USB (INTCKO)
  3450                           ;	Fail-Safe Clock Monitor Enable bit
  3451                           ;	FCMEN = OFF, Fail-Safe Clock Monitor disabled
  3452                           ;	Internal/External Oscillator Switchover bit
  3453                           ;	IESO = OFF, Oscillator Switchover mode disabled
  3454   300001                     	org	3145729
  3455   300001  09                 	db	9
  3456                           
  3457                           ;Config register CONFIG2L @ 0x300002
  3458                           ;	Power-up Timer Enable bit
  3459                           ;	PWRT = OFF, PWRT disabled
  3460                           ;	Brown-out Reset Enable bits
  3461                           ;	BOR = ON, Brown-out Reset enabled in hardware only (SBOREN is disabled)
  3462                           ;	Brown-out Reset Voltage bits
  3463                           ;	BORV = 3, Minimum setting 2.05V
  3464                           ;	USB Voltage Regulator Enable bit
  3465                           ;	VREGEN = OFF, USB voltage regulator disabled
  3466   300002                     	org	3145730
  3467   300002  1F                 	db	31
  3468                           
  3469                           ;Config register CONFIG2H @ 0x300003
  3470                           ;	Watchdog Timer Enable bit
  3471                           ;	WDT = OFF, WDT disabled (control is placed on the SWDTEN bit)
  3472                           ;	Watchdog Timer Postscale Select bits
  3473                           ;	WDTPS = 32768, 1:32768
  3474   300003                     	org	3145731
  3475   300003  1E                 	db	30
  3476                           
  3477                           ; Padding undefined space
  3478   300004                     	org	3145732
  3479   300004  FF                 	db	255
  3480                           
  3481                           ;Config register CONFIG3H @ 0x300005
  3482                           ;	CCP2 MUX bit
  3483                           ;	CCP2MX = ON, CCP2 input/output is multiplexed with RC1
  3484                           ;	PORTB A/D Enable bit
  3485                           ;	PBADEN = OFF, PORTB<4:0> pins are configured as digital I/O on Reset
  3486                           ;	Low-Power Timer 1 Oscillator Enable bit
  3487                           ;	LPT1OSC = OFF, Timer1 configured for higher power operation
  3488                           ;	MCLR Pin Enable bit
  3489                           ;	MCLRE = OFF, RE3 input pin enabled; MCLR pin disabled
  3490   300005                     	org	3145733
  3491   300005  01                 	db	1
  3492                           
  3493                           ;Config register CONFIG4L @ 0x300006
  3494                           ;	Stack Full/Underflow Reset Enable bit
  3495                           ;	STVREN = ON, Stack full/underflow will cause Reset
  3496                           ;	Single-Supply ICSP Enable bit
  3497                           ;	LVP = OFF, Single-Supply ICSP disabled
  3498                           ;	Dedicated In-Circuit Debug/Programming Port (ICPORT) Enable bit
  3499                           ;	ICPRT = OFF, ICPORT disabled
  3500                           ;	Extended Instruction Set Enable bit
  3501                           ;	XINST = OFF, Instruction set extension and Indexed Addressing mode disabled (Legacy mo
      +                          de)
  3502                           ;	Background Debugger Enable bit
  3503                           ;	DEBUG = 0x1, unprogrammed default
  3504   300006                     	org	3145734
  3505   300006  81                 	db	129
  3506                           
  3507                           ; Padding undefined space
  3508   300007                     	org	3145735
  3509   300007  FF                 	db	255
  3510                           
  3511                           ;Config register CONFIG5L @ 0x300008
  3512                           ;	Code Protection bit
  3513                           ;	CP0 = OFF, Block 0 (000800-001FFFh) is not code-protected
  3514                           ;	Code Protection bit
  3515                           ;	CP1 = OFF, Block 1 (002000-003FFFh) is not code-protected
  3516                           ;	Code Protection bit
  3517                           ;	CP2 = OFF, Block 2 (004000-005FFFh) is not code-protected
  3518                           ;	Code Protection bit
  3519                           ;	CP3 = OFF, Block 3 (006000-007FFFh) is not code-protected
  3520   300008                     	org	3145736
  3521   300008  0F                 	db	15
  3522                           
  3523                           ;Config register CONFIG5H @ 0x300009
  3524                           ;	Boot Block Code Protection bit
  3525                           ;	CPB = OFF, Boot block (000000-0007FFh) is not code-protected
  3526                           ;	Data EEPROM Code Protection bit
  3527                           ;	CPD = OFF, Data EEPROM is not code-protected
  3528   300009                     	org	3145737
  3529   300009  C0                 	db	192
  3530                           
  3531                           ;Config register CONFIG6L @ 0x30000A
  3532                           ;	Write Protection bit
  3533                           ;	WRT0 = OFF, Block 0 (000800-001FFFh) is not write-protected
  3534                           ;	Write Protection bit
  3535                           ;	WRT1 = OFF, Block 1 (002000-003FFFh) is not write-protected
  3536                           ;	Write Protection bit
  3537                           ;	WRT2 = OFF, Block 2 (004000-005FFFh) is not write-protected
  3538                           ;	Write Protection bit
  3539                           ;	WRT3 = OFF, Block 3 (006000-007FFFh) is not write-protected
  3540   30000A                     	org	3145738
  3541   30000A  0F                 	db	15
  3542                           
  3543                           ;Config register CONFIG6H @ 0x30000B
  3544                           ;	Configuration Register Write Protection bit
  3545                           ;	WRTC = OFF, Configuration registers (300000-3000FFh) are not write-protected
  3546                           ;	Boot Block Write Protection bit
  3547                           ;	WRTB = OFF, Boot block (000000-0007FFh) is not write-protected
  3548                           ;	Data EEPROM Write Protection bit
  3549                           ;	WRTD = OFF, Data EEPROM is not write-protected
  3550   30000B                     	org	3145739
  3551   30000B  E0                 	db	224
  3552                           
  3553                           ;Config register CONFIG7L @ 0x30000C
  3554                           ;	Table Read Protection bit
  3555                           ;	EBTR0 = OFF, Block 0 (000800-001FFFh) is not protected from table reads executed in ot
      +                          her blocks
  3556                           ;	Table Read Protection bit
  3557                           ;	EBTR1 = OFF, Block 1 (002000-003FFFh) is not protected from table reads executed in ot
      +                          her blocks
  3558                           ;	Table Read Protection bit
  3559                           ;	EBTR2 = OFF, Block 2 (004000-005FFFh) is not protected from table reads executed in ot
      +                          her blocks
  3560                           ;	Table Read Protection bit
  3561                           ;	EBTR3 = OFF, Block 3 (006000-007FFFh) is not protected from table reads executed in ot
      +                          her blocks
  3562   30000C                     	org	3145740
  3563   30000C  0F                 	db	15
  3564                           
  3565                           ;Config register CONFIG7H @ 0x30000D
  3566                           ;	Boot Block Table Read Protection bit
  3567                           ;	EBTRB = OFF, Boot block (000000-0007FFh) is not protected from table reads executed in
      +                           other blocks
  3568   30000D                     	org	3145741
  3569   30000D  40                 	db	64
  3570                           tosu	equ	0xFFF
  3571                           tosh	equ	0xFFE
  3572                           tosl	equ	0xFFD
  3573                           stkptr	equ	0xFFC
  3574                           pclatu	equ	0xFFB
  3575                           pclath	equ	0xFFA
  3576                           pcl	equ	0xFF9
  3577                           tblptru	equ	0xFF8
  3578                           tblptrh	equ	0xFF7
  3579                           tblptrl	equ	0xFF6
  3580                           tablat	equ	0xFF5
  3581                           prodh	equ	0xFF4
  3582                           prodl	equ	0xFF3
  3583                           indf0	equ	0xFEF
  3584                           postinc0	equ	0xFEE
  3585                           postdec0	equ	0xFED
  3586                           preinc0	equ	0xFEC
  3587                           plusw0	equ	0xFEB
  3588                           fsr0h	equ	0xFEA
  3589                           fsr0l	equ	0xFE9
  3590                           wreg	equ	0xFE8
  3591                           indf1	equ	0xFE7
  3592                           postinc1	equ	0xFE6
  3593                           postdec1	equ	0xFE5
  3594                           preinc1	equ	0xFE4
  3595                           plusw1	equ	0xFE3
  3596                           fsr1h	equ	0xFE2
  3597                           fsr1l	equ	0xFE1
  3598                           bsr	equ	0xFE0
  3599                           indf2	equ	0xFDF
  3600                           postinc2	equ	0xFDE
  3601                           postdec2	equ	0xFDD
  3602                           preinc2	equ	0xFDC
  3603                           plusw2	equ	0xFDB
  3604                           fsr2h	equ	0xFDA
  3605                           fsr2l	equ	0xFD9
  3606                           status	equ	0xFD8

Data Sizes:
    Strings     54
    Constant    0
    Data        7
    BSS         51
    Persistent  0
    Stack       0

Auto Spaces:
    Space          Size  Autos    Used
    COMRAM           95     88      93
    BANK0           160     69     122
    BANK1           256      0       0
    BANK2           256      0       0
    BANK3           256      0       0
    BANK4           256      0       0
    BANK5           256      0       0
    BANK6           256      0       0
    BANK7           256      0       0

Pointer List with Targets:

    fputs@s	PTR const unsigned char  size(2) Largest target is 32
		 -> dbuf(BANK0[32]), 

    fputs@fp	PTR struct _IO_FILE size(2) Largest target is 12
		 -> sprintf@f(COMRAM[12]), 

    fputc@fp...source	PTR const unsigned char  size(2) Largest target is 0

    fputc@fp...buffer	PTR unsigned char  size(2) Largest target is 0

    fputc@fp	PTR struct _IO_FILE size(2) Largest target is 12
		 -> sprintf@f(COMRAM[12]), 

    vfprintf@ap	PTR PTR void  size(2) Largest target is 2
		 -> sprintf@ap(COMRAM[2]), 

    vfprintf@fp	PTR struct _IO_FILE size(2) Largest target is 12
		 -> sprintf@f(COMRAM[12]), 

    vfprintf@fmt	PTR const unsigned char  size(2) Largest target is 8
		 -> STR_11(CODE[4]), STR_10(CODE[4]), STR_9(CODE[8]), STR_8(CODE[8]), 
		 -> STR_7(CODE[4]), STR_6(CODE[4]), STR_5(CODE[8]), STR_4(CODE[4]), 
		 -> STR_3(CODE[4]), 

    vfprintf@cfmt	PTR unsigned char  size(2) Largest target is 8
		 -> STR_11(CODE[4]), STR_10(CODE[4]), STR_9(CODE[8]), STR_8(CODE[8]), 
		 -> STR_7(CODE[4]), STR_6(CODE[4]), STR_5(CODE[8]), STR_4(CODE[4]), 
		 -> STR_3(CODE[4]), 

    vfpfcnvrt@fp	PTR struct _IO_FILE size(2) Largest target is 12
		 -> sprintf@f(COMRAM[12]), 

    vfpfcnvrt@ap	PTR PTR void  size(2) Largest target is 2
		 -> sprintf@ap(COMRAM[2]), 

    vfpfcnvrt@cp	PTR unsigned char  size(2) Largest target is 8
		 -> STR_11(CODE[4]), STR_10(CODE[4]), STR_9(CODE[8]), STR_8(CODE[8]), 
		 -> STR_7(CODE[4]), STR_6(CODE[4]), STR_5(CODE[8]), STR_4(CODE[4]), 
		 -> STR_3(CODE[4]), 

    vfpfcnvrt@fmt	PTR PTR unsigned char  size(2) Largest target is 2
		 -> vfprintf@cfmt(COMRAM[2]), 

    S878$vp	PTR void  size(2) Largest target is 0

    convarg.vp	PTR void  size(2) Largest target is 0

    xtoa@fp	PTR struct _IO_FILE size(2) Largest target is 12
		 -> sprintf@f(COMRAM[12]), 

    pad@buf	PTR unsigned char  size(2) Largest target is 32
		 -> dbuf(BANK0[32]), 

    pad@fp	PTR struct _IO_FILE size(2) Largest target is 12
		 -> sprintf@f(COMRAM[12]), 

    sprintf@fmt	PTR const unsigned char  size(2) Largest target is 8
		 -> STR_11(CODE[4]), STR_10(CODE[4]), STR_9(CODE[8]), STR_8(CODE[8]), 
		 -> STR_7(CODE[4]), STR_6(CODE[4]), STR_5(CODE[8]), STR_4(CODE[4]), 
		 -> STR_3(CODE[4]), 

    sprintf@s	PTR unsigned char  size(2) Largest target is 10
		 -> main@year(BANK0[10]), main@month(BANK0[10]), main@date(BANK0[10]), main@hours(BANK0[10]), 
		 -> main@mins(BANK0[10]), main@secs(BANK0[10]), 

    sprintf@ap	PTR void [1] size(2) Largest target is 2
		 -> ?_sprintf(COMRAM[2]), 

    S830$source	PTR const unsigned char  size(2) Largest target is 0

    f...source	PTR const unsigned char  size(2) Largest target is 0

    S830$buffer	PTR unsigned char  size(2) Largest target is 0

    f...buffer	PTR unsigned char  size(2) Largest target is 0

    LCD_String_xy@msg	PTR const unsigned char  size(2) Largest target is 10
		 -> main@date(BANK0[10]), main@hours(BANK0[10]), STR_2(CODE[3]), STR_1(CODE[3]), 

    LCD_String@msg	PTR const unsigned char  size(2) Largest target is 10
		 -> STR_18(CODE[4]), STR_17(CODE[4]), STR_16(CODE[4]), STR_15(CODE[4]), 
		 -> STR_14(CODE[4]), STR_13(CODE[4]), STR_12(CODE[4]), main@year(BANK0[10]), 
		 -> main@month(BANK0[10]), main@date(BANK0[10]), main@hours(BANK0[10]), main@mins(BANK0[10]), 
		 -> main@secs(BANK0[10]), STR_2(CODE[3]), STR_1(CODE[3]), 


Critical Paths under _main in COMRAM

    _main->_sprintf
    _sprintf->_vfprintf
    _vfprintf->_vfpfcnvrt
    _vfpfcnvrt->_xtoa
    _xtoa->_pad
    _pad->_fputs
    _fputs->_fputc
    _RTC_Read_Clock->_I2C_Read
    _RTC_Read_Clock->_I2C_Repeated_Start
    _RTC_Read_Clock->_I2C_Start
    _RTC_Read_Calendar->_I2C_Read
    _RTC_Read_Calendar->_I2C_Repeated_Start
    _RTC_Read_Calendar->_I2C_Start
    _I2C_Start->_I2C_Write
    _I2C_Repeated_Start->_I2C_Write
    _LCD_String_xy->_LCD_String
    _LCD_String->_LCD_Char
    _LCD_Char->_MSdelay
    _LCD_Init->_LCD_Command
    _LCD_Clear->_LCD_Command
    _LCD_Command->_MSdelay

Critical Paths under _main in BANK0

    None.

Critical Paths under _main in BANK1

    None.

Critical Paths under _main in BANK2

    None.

Critical Paths under _main in BANK3

    None.

Critical Paths under _main in BANK4

    None.

Critical Paths under _main in BANK5

    None.

Critical Paths under _main in BANK6

    None.

Critical Paths under _main in BANK7

    None.

Call Graph Tables:

 ---------------------------------------------------------------------------------
 (Depth) Function   	        Calls       Base Space   Used Autos Params    Refs
 ---------------------------------------------------------------------------------
 (0) _main                                                72    72      0   14967
                                             85 COMRAM     3     3      0
                                              0 BANK0     69    69      0
                           _I2C_Init
                           _I2C_Stop
                          _LCD_Clear
                           _LCD_Init
                         _LCD_String
                      _LCD_String_xy
                            _MSdelay
                  _RTC_Read_Calendar
                     _RTC_Read_Clock
                            _sprintf
 ---------------------------------------------------------------------------------
 (1) _sprintf                                             22    16      6    5630
                                             65 COMRAM    20    14      6
                           _vfprintf
 ---------------------------------------------------------------------------------
 (2) _vfprintf                                             8     2      6    4063
                                             57 COMRAM     8     2      6
                          _vfpfcnvrt
 ---------------------------------------------------------------------------------
 (3) _vfpfcnvrt                                           19    13      6    3713
                                             43 COMRAM    14     8      6
                              _fputc
                               _xtoa
 ---------------------------------------------------------------------------------
 (4) _xtoa                                                16    12      4    2493
                                             27 COMRAM    16    12      4
                                _pad
 ---------------------------------------------------------------------------------
 (5) _pad                                                 11     5      6    1999
                                             16 COMRAM    11     5      6
                              _fputc
                              _fputs
 ---------------------------------------------------------------------------------
 (6) _fputs                                                7     3      4     931
                                              9 COMRAM     7     3      4
                              _fputc
 ---------------------------------------------------------------------------------
 (7) _fputc                                                9     5      4     682
                                              0 COMRAM     9     5      4
                              _putch
 ---------------------------------------------------------------------------------
 (8) _putch                                                1     1      0       0
 ---------------------------------------------------------------------------------
 (1) _RTC_Read_Clock                                       2     2      0     177
                                              2 COMRAM     2     2      0
                           _I2C_Read
                 _I2C_Repeated_Start
                          _I2C_Start
                          _I2C_Write
 ---------------------------------------------------------------------------------
 (1) _RTC_Read_Calendar                                    2     2      0     177
                                              2 COMRAM     2     2      0
                           _I2C_Read
                 _I2C_Repeated_Start
                          _I2C_Start
                           _I2C_Stop
                          _I2C_Write
 ---------------------------------------------------------------------------------
 (2) _I2C_Stop                                             0     0      0       0
 ---------------------------------------------------------------------------------
 (2) _I2C_Start                                            1     1      0      44
                                              1 COMRAM     1     1      0
                          _I2C_Write
 ---------------------------------------------------------------------------------
 (2) _I2C_Repeated_Start                                   1     1      0      44
                                              1 COMRAM     1     1      0
                          _I2C_Write
 ---------------------------------------------------------------------------------
 (2) _I2C_Write                                            1     1      0      22
                                              0 COMRAM     1     1      0
                          _I2C_Ready
 ---------------------------------------------------------------------------------
 (2) _I2C_Read                                             2     2      0      45
                                              0 COMRAM     2     2      0
                            _I2C_Ack
                           _I2C_Nack
                          _I2C_Ready
 ---------------------------------------------------------------------------------
 (3) _I2C_Ready                                            0     0      0       0
 ---------------------------------------------------------------------------------
 (3) _I2C_Nack                                             0     0      0       0
 ---------------------------------------------------------------------------------
 (3) _I2C_Ack                                              0     0      0       0
 ---------------------------------------------------------------------------------
 (1) _LCD_String_xy                                        5     2      3    3496
                                             10 COMRAM     5     2      3
                        _LCD_Command
                         _LCD_String
 ---------------------------------------------------------------------------------
 (2) _LCD_String                                           2     0      2    1777
                                              8 COMRAM     2     0      2
                           _LCD_Char
 ---------------------------------------------------------------------------------
 (3) _LCD_Char                                             2     2      0     668
                                              6 COMRAM     2     2      0
                            _MSdelay
 ---------------------------------------------------------------------------------
 (1) _LCD_Init                                             0     0      0    1292
                        _LCD_Command
                            _MSdelay
 ---------------------------------------------------------------------------------
 (1) _LCD_Clear                                            0     0      0    1292
                        _LCD_Command
                            _MSdelay
 ---------------------------------------------------------------------------------
 (2) _LCD_Command                                          2     2      0     668
                                              6 COMRAM     2     2      0
                            _MSdelay
 ---------------------------------------------------------------------------------
 (1) _MSdelay                                              6     4      2     624
                                              0 COMRAM     6     4      2
 ---------------------------------------------------------------------------------
 (1) _I2C_Init                                             0     0      0       0
 ---------------------------------------------------------------------------------
 Estimated maximum stack depth 8
 ---------------------------------------------------------------------------------

 Call Graph Graphs:

 _main (ROOT)
   _I2C_Init
   _I2C_Stop
   _LCD_Clear
     _LCD_Command
       _MSdelay
     _MSdelay
   _LCD_Init
     _LCD_Command
     _MSdelay
   _LCD_String
     _LCD_Char
       _MSdelay
   _LCD_String_xy
     _LCD_Command
     _LCD_String
   _MSdelay
   _RTC_Read_Calendar
     _I2C_Read
       _I2C_Ack
       _I2C_Nack
       _I2C_Ready
     _I2C_Repeated_Start
       _I2C_Write
         _I2C_Ready
     _I2C_Start
       _I2C_Write
     _I2C_Stop
     _I2C_Write
   _RTC_Read_Clock
     _I2C_Read
     _I2C_Repeated_Start
     _I2C_Start
     _I2C_Write
   _sprintf
     _vfprintf
       _vfpfcnvrt
         _fputc
           _putch
         _xtoa
           _pad
             _fputc
             _fputs
               _fputc

 Address spaces:
Name               Size   Autos  Total    Cost      Usage
BIGRAM             7FF      0       0      27        0.0%
EEDATA             100      0       0       0        0.0%
BITBANK7           100      0       0      19        0.0%
BANK7              100      0       0      20        0.0%
BITBANK6           100      0       0      17        0.0%
BANK6              100      0       0      18        0.0%
BITBANK5           100      0       0      15        0.0%
BANK5              100      0       0      16        0.0%
BITBANK4           100      0       0      13        0.0%
BANK4              100      0       0      14        0.0%
BITBANK3           100      0       0      11        0.0%
BANK3              100      0       0      12        0.0%
BITBANK2           100      0       0       9        0.0%
BANK2              100      0       0      10        0.0%
BITBANK1           100      0       0       7        0.0%
BANK1              100      0       0       8        0.0%
BITBANK0            A0      0       0       5        0.0%
BANK0               A0     45      7A       6       76.2%
BITCOMRAM           5F      0       0       0        0.0%
COMRAM              5F     58      5D       1       97.9%
BITBIGSFRh          2C      0       0      21        0.0%
BITBIGSFRllll       2A      0       0      26        0.0%
BITBIGSFRllhh       26      0       0      23        0.0%
BITBIGSFRllhl        9      0       0      24        0.0%
BITBIGSFRlhhh        9      0       0      22        0.0%
BITBIGSFRlllh        8      0       0      25        0.0%
BIGSFR               0      0       0     200        0.0%
BITSFR               0      0       0     200        0.0%
SFR                  0      0       0     200        0.0%
STACK                0      0       0       2        0.0%
NULL                 0      0       0       0        0.0%
ABS                  0      0      D7       3        0.0%
DATA                 0      0      D7       4        0.0%
CODE                 0      0       0       0        0.0%


Microchip Technology PIC18 Macro Assembler V2.41 build 20230208172133 
Symbol Table                                                                                   Sun Dec  7 13:01:35 2025

                          ?_LCD_Command 0001                             _SSPSTATbits 0FC7  
                                    l43 1212                                      l46 1050  
                           ?_LCD_String 0009  RTC_Read_Calendar@read_calendar_address 0004  
                                   l121 12CA                                     l202 1182  
                                   l130 13F8                                     l122 12D0  
                                   l211 0FF6                                     l131 13FA  
                                   l125 1398                                     l221 13E8  
                                   l205 1136                                     l117 129C  
                                   l119 12AA                                     l128 13EA  
                                   l152 1334                                     l145 1306  
                                   l161 139C                                     l218 0F1E  
                                   l154 1342                                     l147 1314  
                                   l163 13AA                                     l156 135C  
                                   l229 11CC                                     l173 13C6  
                                   l149 132E                                     l165 13AC  
                                   l182 13C0                                     l176 13D4  
                                   l169 137E                                     l179 13B2  
                                   l199 1300                                     l952 0F98  
                                   l928 10EA                                     l948 0F42  
                                   l956 0CC4                                     l958 0CCC  
                                   l968 0DC6                                     l984 109E  
                                   l977 0CA8                                     l996 0E90  
                                   u500 0E14                                     u501 0E10  
                                   u510 0E4A                                     u511 0E46  
                                   u520 1256                                     _PEN 7E2A  
                                   u521 1252                                     u530 0F2E  
                                   u610 0D7A                                     u531 0F2A  
                                   u611 0D76                                     u700 1324  
                                   u540 0F84                                     u620 0D8C  
                                   u701 1320                                     u541 0F80  
                                   u621 0D88                                     u605 0D4A  
                                   u550 11B2                                     u710 1342  
                                   u630 0DA6                                     u551 11AE  
                                   u711 133E                                     u631 0DA2  
                                   u560 11CC                                     u800 0EA4  
                                   u640 1376                                     u720 1352  
                                   u480 0DDA                                     u561 11C8  
                                   u801 0EA0                                     u641 1372  
                                   u721 134E                                     u481 0DD6  
                                   u810 0EC4                                     u650 13D4  
                                   u570 13F8                                     u730 12AA  
                                   u490 0DEC                                     u811 0EC0  
                                   u651 13D0                                     u571 13F4  
                                   u731 12A6                                     u491 0DE8  
                                   u820 0EE4                                     u660 13C0  
                                   u740 12BE                                     u580 0CB8  
                                   u821 0EE0                                     u661 13BC  
                                   u741 12BA                                     u581 0CB4  
                                   u830 0F04                                     u750 13AA  
                                   u590 0D02                                     u670 0B98  
                                   u831 0F00                                     u751 13A6  
                                   u591 0CFE                                     u671 0B94  
                                   u760 0FBE                                     u680 0BE2  
                                   u681 0BDE                                     u841 084C  
                                   u770 0FE6                                     u690 1314  
                                   u691 1310                                     u780 0FF6  
                                   u860 08B4                                     u781 0FF2  
                                   u861 08B0                                     u790 1096  
                                   u854 0892                                     u767 0FB4  
                                   u791 1092                                     u855 088C  
                                   u880 08EE                                     u777 0FDC  
                                   u881 08EA                                     u874 08CC  
                                   u875 08C6                                     _Day 00AB  
                       __end_of_I2C_Ack 13D6                                     _pad 0F20  
                                   _min 00AF                                     _sec 00B1  
                                   wreg 0FE8                             LCD_Char@dat 0008  
                                  l1004 1256                                    l1007 1404  
                                  l1501 0DF6                                    l1503 0E14  
                                  l1511 1220                                    l1505 0E4A  
                                  l1513 1232                                    l1521 0F3A  
                                  l1531 1184                                    l1611 1100  
                                  l1603 13C2                                    l1515 1236  
                                  l1523 0F4E                                    l1541 119C  
                                  l1533 1190                                    l1621 1124  
                                  l1613 1102                                    l1701 0FC2  
                                  l1605 13AE                                    l1509 1214  
                                  l1525 0F62                                    l1517 0F20  
                                  l1543 11B2                                    l1711 114E  
                                  l1623 1126                                    l1615 1104  
                                  l1607 10EE                                    l1703 0FC6  
                                  l1527 0F66                                    l1519 0F2E  
                                  l1551 0CB8                                    l1631 0BA6  
                                  l1545 11B6                                    l1721 1172  
                                  l1713 1150                                    l1705 113A  
                                  l1625 1128                                    l1617 1106  
                                  l1609 10FE                                    l1801 0F04  
                                  l1529 0F84                                    l1561 0CF2  
                                  l1553 0CD4                                    l1641 0C2A  
                                  l1633 0BB2                                    l1539 1198  
                                  l1723 1174                                    l1715 1152  
                                  l1707 114A                                    l1619 1112  
                                  l1803 0F0C                                    l1547 13EA  
                                  l1571 0D32                                    l1563 0D02  
                                  l1555 0CDC                                    l1635 0BB6  
                                  l1627 0B74                                    l1731 1096  
                                  l1811 10B8                                    l1717 115E  
                                  l1709 114C                                    l1805 0F12  
                                  l1741 1202                                    l1581 0D8C  
                                  l1573 0D38                                    l1565 0D12  
                                  l1557 0CE6                                    l1549 0CAA  
                                  l1637 0BC6                                    l1629 0B98  
                                  l1653 0C80                                    l1725 1052  
                                  l1813 10C0                                    l1901 0B00  
                                  l1821 0842                                    l1719 1170  
                                  l1591 1368                                    l1671 1332  
                                  l1663 1304                                    l1751 103C  
                                  l1743 0FFA                                    l1735 11D0  
                                  l1495 0DC8                                    l1583 0DA6  
                                  l1575 0D3E                                    l1567 0D1E  
                                  l1559 0CEC                                    l1647 0C42  
                                  l1639 0BE2                                    l1727 105E  
                                  l1815 10DC                                    l1807 10A0  
                                  l1831 0864                                    l1823 0854  
                                  l1761 1396                                    l1593 1376  
                                  l1753 104C                                    l1745 100C  
                                  l1737 11E2                                    l1497 0DDA  
                                  l1569 0D22                                    l1577 0D5E  
                                  l1649 0C6E                                    l1729 107A  
                                  l1809 10B0                                    l1905 0B10  
                                  l1841 08EE                                    l1833 0870  
                                  l1825 0858                                    l1755 1380  
                                  l1771 12EE                                    l1763 12D2  
                                  l1691 12CE                                    l1683 129A  
                                  l1587 1360                                    l1675 1356  
                                  l1667 1328                                    l1747 101C  
                                  l1739 11F2                                    l1499 0DEC  
                                  l1579 0D7A                                    l1851 0958  
                                  l1843 0904                                    l1835 0876  
                                  l1827 085C                                    l1819 0838  
                                  l1757 1384                                    l1773 12F4  
                                  l1765 12D6                                    l1781 0E94  
                                  l1685 12AE                                    l1589 1364  
                                  l1677 135C                                    l1749 102C  
                                  l1861 09AA                                    l1853 0974  
                                  l1845 0916                                    l1837 087A  
                                  l1829 0860                                    l1759 1394  
                                  l1775 12FA                                    l1767 12E2  
                                  l1791 0ECC                                    l1783 0EA4  
                                  l1687 12BE                                    l1599 137C  
                                  l1695 139A                                    l1863 09C6  
                                  l1855 0986                                    l1847 0920  
                                  l1839 08B4                                    l1777 13D6  
                                  l1769 12E8                                    l1697 0F9A  
                                  l1793 0ED2                                    l1785 0EAC  
                                  l1689 12C6                                    l1961 0C60  
                                  l1881 0A56                                    l1865 09E2  
                                  l1873 0A14                                    l1857 0992  
                                  l1849 093C                                    l1699 0F9E  
                                  l1795 0EE4                                    l1787 0EB2  
                                  l1779 0E94                                    l1891 0AB0  
                                  l1883 0A72                                    l1875 0A1A  
                                  l1867 09FE                                    l1859 09A2  
                                  l1797 0EEC                                    l1789 0EC4  
                                  l1893 0AC0                                    l1885 0A84  
                                  l1877 0A1E                                    ?_pad 0011  
                                  l1799 0EF2                                    l1959 0B32  
                                  l1895 0AD0                                    l1887 0A90  
                                  l1879 0A3A                                    l1897 0AE0  
                                  l1889 0AA0                                    l1899 0AF0  
                                  STR_1 0834                                    STR_2 0831  
                                  STR_3 0811                                    STR_4 080D  
                                  STR_5 0809                                    STR_6 0811  
                                  STR_7 080D                                    STR_8 0809  
                                  STR_9 0801                                    _LATB 0F8A  
                                  _RCEN 7E2B                                    _RSEN 7E29  
                                  _Date 00A9                                    _Year 00A5  
                        main@Clock_type 00A3                                    _dbuf 00B3  
                                  _main 0838                         ?_RTC_Read_Clock 0001  
                                  _hour 00AD                        __end_of_I2C_Nack 13C2  
                                  _prec 005B                        __end_of_I2C_Init 139A  
                      __end_of_I2C_Read 12D2                                    pad@i 0018  
                                  pad@p 0015                                    fsr1h 0FE2  
                                  fsr2h 0FDA                                    indf1 0FE7  
                                  indf2 0FDF                                    fsr1l 0FE1  
                                  pad@w 001A                                    fsr2l 0FD9  
                                  _xtoa 0CAA                        __end_of_I2C_Stop 13AE  
                                  start 0000                         __end_of_MSdelay 11CE  
                         _LCD_String_xy 0E92                            ___param_bank 0000  
      RTC_Read_Clock@read_clock_address 0004                                   ??_pad 0017  
                      __end_of_LCD_Char 1138                        __end_of_LCD_Init 1302  
                                 ?_main 0001                                   _ACKEN 7E2C  
                                 _ACKDT 7E2D                                   STR_10 0805  
                                 STR_11 0811                                   STR_12 0825  
                                 STR_13 0821                                   STR_14 0819  
                                 STR_15 0815                                   STR_16 082D  
                                 STR_17 081D                                   STR_18 0829  
                                 ?_xtoa 001C                                   _LATB2 7C52  
                                 _LATB3 7C53                            vfpfcnvrt@fmt 002E  
                                 _TRISB 0F93                                   _SSPIE 7CEB  
                                 _SSPIF 7CF3                                   _Month 00A7  
                                 _flags 005D                                   _fputc 0DC8  
                                 _fputs 1214                       __end_of_I2C_Ready 13FC  
                                 pad@fp 0011                                   _width 0059  
                                 _putch 1404                       __end_of_I2C_Start 1330  
                     __end_of_I2C_Write 1380                                   tablat 0FF5  
                                 plusw1 0FE3                                   plusw2 0FDB  
                                 status 0FD8                         __end_of_sprintf 10EC  
                                 xtoa@c 002B                                   xtoa@d 001E  
                                 xtoa@i 0029                                   xtoa@p 0027  
                                 xtoa@w 0023                          ?_LCD_String_xy 000B  
                       __initialization 1258                            __end_of_main 0B74  
                          __end_of_xtoa 0DC8                               ??_I2C_Ack 0001  
                                ??_main 0056                                  ??_xtoa 0020  
                     __end_of_LCD_Clear 13EA                           __activetblptr 0002  
                                ?_fputc 0001                                  ?_fputs 000A  
                                ?_putch 0001                        LCD_String_xy@msg 000C  
                      LCD_String_xy@pos 000B                        LCD_String_xy@row 000E  
                             ??_MSdelay 0003                                  _OSCCON 0FD3  
                                _SSPADD 0FC8                                  _TRISB0 7C98  
                                _TRISB1 7C99                                  _SSPBUF 0FC9  
                          vfprintf@cfmt 0040                                  clear_0 127E  
                                isa$std 0001                      _I2C_Repeated_Start 1330  
                                pad@buf 0013                                  fputc@c 0001  
                                fputs@c 000E                                  fputs@i 000F  
                             ?_I2C_Nack 0001                                  fputs@s 000A  
                             ?_I2C_Init 0001                               ?_I2C_Read 0001  
                             ?_I2C_Stop 0001                            __mediumconst 0000  
                                tblptrh 0FF7                                  tblptrl 0FF6  
                                tblptru 0FF8                     ?_I2C_Repeated_Start 0001  
                                putch@c 0001                        __end_of_vfprintf 10A0  
                             ??_sprintf 0048                                  xtoa@fp 001C  
                             ?_LCD_Char 0001                              __accesstop 0060  
               __end_of__initialization 128E                               ?_LCD_Init 0001  
                       ??_LCD_String_xy 000E                           ___rparam_used 0001  
                  ??_I2C_Repeated_Start 0002                          __pcstackCOMRAM 0001  
                          __pidataBANK0 13FC                           __end_of_fputc 0E92  
                         __end_of_fputs 1258                           __end_of_putch 1406  
                          ??_LCD_String 000B                              ??_I2C_Nack 0001  
                            ??_I2C_Init 0001                              ??_I2C_Read 0001  
                            ??_I2C_Stop 0001                        ??_RTC_Read_Clock 0003  
                               ??_fputc 0005                                 ??_fputs 000E  
                               ??_putch 0001                              __pbssBANK0 00A5  
                            ??_LCD_Char 0007                              ??_LCD_Init 0009  
                    __end_of_LCD_String 0FF8                            I2C_Read@flag 0001  
                        I2C_Read@buffer 0002                                 _I2C_Ack 13C2  
                               _ACKSTAT 7E2E                                 _SSPCON1 0FC6  
                               _SSPCON2 0FC5                                 _SSPSTAT 0FC7  
                               _MSdelay 1184                               _I2C_Ready 13EA  
                             _I2C_Start 1302                               _I2C_Write 135E  
                         LCD_String@msg 0009                                 __Hparam 0000  
                               __Lparam 0000                       _RTC_Read_Calendar 0FF8  
                             ?_vfprintf 003A                            __psmallconst 0800  
                    ?_RTC_Read_Calendar 0001                                 __pcinit 1258  
                               __ramtop 0800                                 __ptext0 0838  
                               __ptext1 10A0                                 __ptext2 1052  
                               __ptext3 0B74                                 __ptext4 0CAA  
                               __ptext5 0F20                                 __ptext6 1214  
                               __ptext7 0DC8                                 __ptext8 1404  
                               __ptext9 11CE                     ??_RTC_Read_Calendar 0003  
                             _LCD_Clear 13D6                                 _sprintf 10A0  
                  end_of_initialization 128E                                 fputc@fp 0003  
                        LCD_Command@cmd 0008                           __Lmediumconst 0000  
                               fputs@fp 000C                              ?_I2C_Ready 0001  
                            ?_I2C_Start 0001                              ?_I2C_Write 0001  
             __end_of_RTC_Read_Calendar 1052                       __end_of_vfpfcnvrt 0CAA  
                               postdec1 0FE5                                 postdec2 0FDD  
                               postinc0 0FEE                                 postinc1 0FE6  
                               postinc2 0FDE                        vfpfcnvrt@convarg 0034  
                            ??_vfprintf 0040                              ?_LCD_Clear 0001  
                         ??_LCD_Command 0007                             vfpfcnvrt@ap 0030  
                           vfpfcnvrt@cp 0038                             vfpfcnvrt@fp 002C  
                   start_initialization 1258                             __end_of_pad 0F9A  
  I2C_Repeated_Start@slave_read_address 0002                             ??_I2C_Ready 0001  
                           ??_I2C_Start 0002                             ??_I2C_Write 0001  
                 __end_of_LCD_String_xy 0F20                             vfprintf@fmt 003C  
                           __pdataBANK0 00D3                                ?_I2C_Ack 0001  
                   __end_of_LCD_Command 1184                             __pbssCOMRAM 0059  
                         __pcstackBANK0 0060                             ??_LCD_Clear 0009  
                              ?_MSdelay 0001                             __smallconst 0800  
                              _I2C_Nack 13AE                                _I2C_Init 1380  
                              _I2C_Read 1298                                _I2C_Stop 139A  
                 LCD_String_xy@location 000F                                ?_sprintf 0042  
                              MSdelay@i 0003                                MSdelay@j 0005  
                              _LCD_Char 10EC                                _LCD_Init 12D2  
                             main@F3571 00D3                               main@AM_PM 00A4  
                           _LCD_Command 1138                               _vfpfcnvrt 0B74  
                             main@hours 0099                               main@month 0071  
                             copy_data0 126C            I2C_Start@slave_write_address 0002  
                              __Hrparam 0000                              vfprintf@ap 003E  
                              __Lrparam 0000                              vfprintf@fp 003A  
                         I2C_Write@data 0001                              ?_vfpfcnvrt 002C  
                            sprintf@fmt 0044                                __ptext10 0FF8  
                              __ptext11 139A                                __ptext20 0F9A  
                              __ptext12 1302                                __ptext21 10EC  
                              __ptext13 1330                                __ptext22 12D2  
                              __ptext14 135E                                __ptext23 13D6  
                              __ptext15 1298                                __ptext24 1138  
                              __ptext16 13EA                                __ptext25 1184  
                              __ptext17 13AE                                __ptext26 1380  
                              __ptext18 13C2                                __ptext19 0E92  
                            MSdelay@val 0001                                isa$xinst 0000  
                              _xtoa$905 0025                                _vfprintf 1052  
                              main@date 0067                                main@days 0060  
                              main@mins 008F                                main@secs 0085  
                              main@year 007B                              _LCD_String 0F9A  
                             sprintf@ap 0048              __end_of_I2C_Repeated_Start 135E  
                        _RTC_Read_Clock 11CE                             ??_vfpfcnvrt 0032  
                              sprintf@f 004A                                sprintf@s 0042  
                           _SSPCON2bits 0FC5                  __end_of_RTC_Read_Clock 1214  
