

Microchip MPLAB XC8 Assembler V2.41 build 20230208172133 
                                                                                               Sun Dec  7 16:21:44 2025

Microchip MPLAB XC8 C Compiler v2.41 (Free license) build 20230208172133 Og1 
     1                           	processor	18F4550
     2                           	fnconf	rparam,??,?,0
     3                           	pagewidth 120
     4                           	opt	flic
     5                           	psect	idataBANK0,global,class=CODE,delta=1,noexec
     6                           	psect	smallconst,global,reloc=2,class=SMALLCONST,delta=1,noexec
     7                           	psect	cinit,global,reloc=2,class=CODE,delta=1
     8                           	psect	bssBANK0,global,class=BANK0,space=1,delta=1,lowdata,noexec
     9                           	psect	dataBANK0,global,class=BANK0,space=1,delta=1,lowdata,noexec
    10                           	psect	cstackBANK0,global,class=BANK0,space=1,delta=1,lowdata,noexec
    11                           	psect	cstackCOMRAM,global,class=COMRAM,space=1,delta=1,lowdata,noexec
    12                           	psect	text0,global,reloc=2,class=CODE,delta=1
    13                           	psect	text1,global,reloc=2,class=CODE,delta=1
    14                           	psect	text2,global,reloc=2,class=CODE,delta=1
    15                           	psect	text3,global,reloc=2,class=CODE,delta=1
    16                           	psect	text4,global,reloc=2,class=CODE,delta=1
    17                           	psect	text5,global,reloc=2,class=CODE,delta=1
    18                           	psect	text6,global,reloc=2,class=CODE,delta=1
    19                           	psect	text7,global,reloc=2,class=CODE,delta=1
    20                           	psect	text8,global,reloc=2,class=CODE,delta=1
    21                           	psect	text9,global,reloc=2,class=CODE,delta=1
    22                           	psect	text10,global,reloc=2,class=CODE,delta=1
    23                           	psect	text11,global,reloc=2,class=CODE,delta=1
    24                           	psect	text12,global,reloc=2,class=CODE,delta=1
    25                           	psect	text13,global,reloc=2,class=CODE,delta=1,group=3
    26                           	psect	text14,global,reloc=2,class=CODE,delta=1,group=1
    27                           	psect	text15,global,reloc=2,class=CODE,delta=1,group=1
    28                           	psect	text16,global,reloc=2,class=CODE,delta=1,group=1
    29                           	psect	text17,global,reloc=2,class=CODE,delta=1,group=3
    30                           	psect	text18,global,reloc=2,class=CODE,delta=1,group=1
    31                           	psect	text19,global,reloc=2,class=CODE,delta=1,group=3
    32                           	psect	text20,global,reloc=2,class=CODE,delta=1,group=1
    33                           	psect	text21,global,reloc=2,class=CODE,delta=1,group=2
    34                           	psect	text22,global,reloc=2,class=CODE,delta=1,group=1
    35                           	psect	text23,global,reloc=2,class=CODE,delta=1,group=1
    36                           	psect	text24,global,reloc=2,class=CODE,delta=1,group=3
    37                           	psect	text25,global,reloc=2,class=CODE,delta=1,group=3
    38                           	psect	text26,global,reloc=2,class=CODE,delta=1,group=3
    39                           	psect	text27,global,reloc=2,class=CODE,delta=1,group=3
    40                           	psect	text28,global,reloc=2,class=CODE,delta=1,group=2
    41                           	psect	text29,global,reloc=2,class=CODE,delta=1,group=2
    42                           	psect	text30,global,reloc=2,class=CODE,delta=1
    43                           	psect	text31,global,reloc=2,class=CODE,delta=1
    44                           	psect	text32,global,reloc=2,class=CODE,delta=1
    45                           	psect	text33,global,reloc=2,class=CODE,delta=1
    46                           	psect	text34,global,reloc=2,class=CODE,delta=1
    47                           	psect	text35,global,reloc=2,class=CODE,delta=1
    48                           	psect	text36,global,reloc=2,class=CODE,delta=1
    49                           	psect	text37,global,reloc=2,class=CODE,delta=1
    50                           	psect	text38,global,reloc=2,class=CODE,delta=1
    51                           	psect	text39,global,reloc=2,class=CODE,delta=1
    52                           	psect	text40,global,reloc=2,class=CODE,delta=1
    53                           	psect	text41,global,reloc=2,class=CODE,delta=1
    54                           	psect	text42,global,reloc=2,class=CODE,delta=1
    55                           	psect	text43,global,reloc=2,class=CODE,delta=1
    56                           	psect	text44,global,reloc=2,class=CODE,delta=1
    57                           	psect	text45,global,reloc=2,class=CODE,delta=1
    58                           	psect	text46,global,reloc=2,class=CODE,delta=1
    59                           	psect	text47,global,reloc=2,class=CODE,delta=1
    60                           	psect	intsave_regs,global,class=BIGRAM,space=1,delta=1,noexec
    61                           	psect	rparam,global,class=COMRAM,space=1,delta=1,noexec
    62                           	psect	config,global,abs,ovrld,class=CONFIG,space=4,delta=1,noexec
    63   000000                     
    64                           ; Generated 23/03/2023 GMT
    65                           ; 
    66                           ; Copyright © 2023, Microchip Technology Inc. and its subsidiaries ("Microchip")
    67                           ; All rights reserved.
    68                           ; 
    69                           ; This software is developed by Microchip Technology Inc. and its subsidiaries ("Microch
      +                          ip").
    70                           ; 
    71                           ; Redistribution and use in source and binary forms, with or without modification, are
    72                           ; permitted provided that the following conditions are met:
    73                           ; 
    74                           ;     1. Redistributions of source code must retain the above copyright notice, this lis
      +                          t of
    75                           ;        conditions and the following disclaimer.
    76                           ; 
    77                           ;     2. Redistributions in binary form must reproduce the above copyright notice, this 
      +                          list
    78                           ;        of conditions and the following disclaimer in the documentation and/or other
    79                           ;        materials provided with the distribution. Publication is not required when
    80                           ;        this file is used in an embedded application.
    81                           ; 
    82                           ;     3. Microchip's name may not be used to endorse or promote products derived from th
      +                          is
    83                           ;        software without specific prior written permission.
    84                           ; 
    85                           ; THIS SOFTWARE IS PROVIDED BY MICROCHIP "AS IS" AND ANY EXPRESS OR IMPLIED WARRANTIES,
    86                           ; INCLUDING, BUT NOT LIMITED TO, THE IMPLIED WARRANTIES OF MERCHANTABILITY AND FITNESS F
      +                          OR
    87                           ; PURPOSE ARE DISCLAIMED.  IN NO EVENT SHALL MICROCHIP BE LIABLE FOR ANY DIRECT, INDIREC
      +                          T,
    88                           ; INCIDENTAL, SPECIAL, EXEMPLARY, OR CONSEQUENTIAL DAMAGES (INCLUDING BUT NOT LIMITED TO
    89                           ; PROCUREMENT OF SUBSTITUTE GOODS OR SERVICES; LOSS OF USE, DATA OR PROFITS; OR BUSINESS
    90                           ; INTERRUPTION) HOWSOEVER CAUSED AND ON ANY THEORY OF LIABILITY, WHETHER IN CONTRACT, ST
      +                          RICT
    91                           ; LIABILITY, OR TORT (INCLUDING NEGLIGENCE OR OTHERWISE) ARISING IN ANY WAY OUT OF THE U
      +                          SE OF
    92                           ; THIS SOFTWARE, EVEN IF ADVISED OF THE POSSIBILITY OF SUCH DAMAGE.
    93                           ; 
    94                           ; 
    95                           ; Code-generator required, PIC18F4550 Definitions
    96                           ; 
    97                           ; SFR Addresses
    98   000000                     
    99                           	psect	idataBANK0
   100   002548                     __pidataBANK0:
   101                           	callstack 0
   102                           
   103                           ;initializer for stoa@F1156
   104   002548  28                 	db	40
   105   002549  6E                 	db	110
   106   00254A  75                 	db	117
   107   00254B  6C                 	db	108
   108   00254C  6C                 	db	108
   109   00254D  29                 	db	41
   110   00254E  00                 	db	0
   111                           
   112                           ;initializer for Modo_Manual@last_ent
   113   00254F  01                 	db	1
   114                           
   115                           ;initializer for Modo_Manual@last_dow
   116   002550  01                 	db	1
   117                           
   118                           ;initializer for Modo_Manual@last_inc
   119   002551  01                 	db	1
   120   000000                     _SSPCON1	set	4038
   121   000000                     _SSPSTAT	set	4039
   122   000000                     _TRISBbits	set	3987
   123   000000                     _ADRESL	set	4035
   124   000000                     _ADRESH	set	4036
   125   000000                     _ADCON0	set	4034
   126   000000                     _RSEN	set	32297
   127   000000                     _TRISB	set	3987
   128   000000                     _SSPSTATbits	set	4039
   129   000000                     _SSPCON2bits	set	4037
   130   000000                     _SSPCON2	set	4037
   131   000000                     _ADCON0bits	set	4034
   132   000000                     _LATB3	set	31827
   133   000000                     _LATB2	set	31826
   134   000000                     _ACKEN	set	32300
   135   000000                     _ACKDT	set	32301
   136   000000                     _R_W	set	32314
   137   000000                     _SEN	set	32296
   138   000000                     _RCEN	set	32299
   139   000000                     _BF	set	32312
   140   000000                     _PEN	set	32298
   141   000000                     _LATD2	set	31842
   142   000000                     _LATC7	set	31839
   143   000000                     _LATC6	set	31838
   144   000000                     _LATC2	set	31834
   145   000000                     _LATC1	set	31833
   146   000000                     _LATD0	set	31840
   147   000000                     _LATD3	set	31843
   148   000000                     _PORTAbits	set	3968
   149   000000                     _PORTC	set	3970
   150   000000                     _TRISC	set	3988
   151   000000                     _TRISD	set	3989
   152   000000                     _OSCCON	set	4051
   153   000000                     _ADCON2	set	4032
   154   000000                     _ADCON1	set	4033
   155   000000                     _LATB	set	3978
   156   000000                     _TRISAbits	set	3986
   157   000000                     _PORTD	set	3971
   158   000000                     _LATC0	set	31832
   159   000000                     _LATD7	set	31847
   160   000000                     _SSPBUF	set	4041
   161   000000                     _SSPADD	set	4040
   162                           
   163                           	psect	smallconst
   164   000800                     __psmallconst:
   165                           	callstack 0
   166   000800  00                 	db	0
   167   000801                     STR_2:
   168   000801  45                 	db	69	;'E'
   169   000802  6E                 	db	110	;'n'
   170   000803  67                 	db	103	;'g'
   171   000804  65                 	db	101	;'e'
   172   000805  6E                 	db	110	;'n'
   173   000806  68                 	db	104	;'h'
   174   000807  61                 	db	97	;'a'
   175   000808  72                 	db	114	;'r'
   176   000809  69                 	db	105	;'i'
   177   00080A  61                 	db	97	;'a'
   178   00080B  20                 	db	32
   179   00080C  45                 	db	69	;'E'
   180   00080D  6C                 	db	108	;'l'
   181   00080E  65                 	db	101	;'e'
   182   00080F  74                 	db	116	;'t'
   183   000810  72                 	db	114	;'r'
   184   000811  69                 	db	105	;'i'
   185   000812  63                 	db	99	;'c'
   186   000813  61                 	db	97	;'a'
   187   000814  00                 	db	0
   188   000815                     STR_13:
   189   000815  25                 	db	37
   190   000816  30                 	db	48	;'0'
   191   000817  32                 	db	50	;'2'
   192   000818  78                 	db	120	;'x'
   193   000819  2F                 	db	47
   194   00081A  25                 	db	37
   195   00081B  30                 	db	48	;'0'
   196   00081C  32                 	db	50	;'2'
   197   00081D  78                 	db	120	;'x'
   198   00081E  20                 	db	32
   199   00081F  25                 	db	37
   200   000820  30                 	db	48	;'0'
   201   000821  32                 	db	50	;'2'
   202   000822  78                 	db	120	;'x'
   203   000823  3A                 	db	58	;':'
   204   000824  25                 	db	37
   205   000825  30                 	db	48	;'0'
   206   000826  32                 	db	50	;'2'
   207   000827  78                 	db	120	;'x'
   208   000828  00                 	db	0
   209   000829                     STR_3:
   210   000829  57                 	db	87	;'W'
   211   00082A  65                 	db	101	;'e'
   212   00082B  6C                 	db	108	;'l'
   213   00082C  69                 	db	105	;'i'
   214   00082D  6E                 	db	110	;'n'
   215   00082E  67                 	db	103	;'g'
   216   00082F  74                 	db	116	;'t'
   217   000830  6F                 	db	111	;'o'
   218   000831  6E                 	db	110	;'n'
   219   000832  20                 	db	32
   220   000833  43                 	db	67	;'C'
   221   000834  6F                 	db	111	;'o'
   222   000835  72                 	db	114	;'r'
   223   000836  72                 	db	114	;'r'
   224   000837  65                 	db	101	;'e'
   225   000838  69                 	db	105	;'i'
   226   000839  61                 	db	97	;'a'
   227   00083A  00                 	db	0
   228   00083B                     STR_14:
   229   00083B  46                 	db	70	;'F'
   230   00083C  41                 	db	65	;'A'
   231   00083D  4C                 	db	76	;'L'
   232   00083E  48                 	db	72	;'H'
   233   00083F  41                 	db	65	;'A'
   234   000840  21                 	db	33
   235   000841  20                 	db	32
   236   000842  50                 	db	80	;'P'
   237   000843  72                 	db	114	;'r'
   238   000844  65                 	db	101	;'e'
   239   000845  73                 	db	115	;'s'
   240   000846  73                 	db	115	;'s'
   241   000847  20                 	db	32
   242   000848  41                 	db	65	;'A'
   243   000849  6C                 	db	108	;'l'
   244   00084A  74                 	db	116	;'t'
   245   00084B  61                 	db	97	;'a'
   246   00084C  00                 	db	0
   247   00084D                     STR_8:
   248   00084D  20                 	db	32
   249   00084E  20                 	db	32
   250   00084F  20                 	db	32
   251   000850  20                 	db	32
   252   000851  20                 	db	32
   253   000852  20                 	db	32
   254   000853  20                 	db	32
   255   000854  20                 	db	32
   256   000855  20                 	db	32
   257   000856  20                 	db	32
   258   000857  20                 	db	32
   259   000858  20                 	db	32
   260   000859  20                 	db	32
   261   00085A  20                 	db	32
   262   00085B  20                 	db	32
   263   00085C  20                 	db	32
   264   00085D  00                 	db	0
   265   00085E                     STR_16:
   266   00085E  50                 	db	80	;'P'
   267   00085F  72                 	db	114	;'r'
   268   000860  6F                 	db	111	;'o'
   269   000861  6E                 	db	110	;'n'
   270   000862  74                 	db	116	;'t'
   271   000863  6F                 	db	111	;'o'
   272   000864  20                 	db	32
   273   000865  20                 	db	32
   274   000866  20                 	db	32
   275   000867  20                 	db	32
   276   000868  20                 	db	32
   277   000869  20                 	db	32
   278   00086A  20                 	db	32
   279   00086B  20                 	db	32
   280   00086C  20                 	db	32
   281   00086D  20                 	db	32
   282   00086E  00                 	db	0
   283   00086F                     STR_15:
   284   00086F  43                 	db	67	;'C'
   285   000870  69                 	db	105	;'i'
   286   000871  63                 	db	99	;'c'
   287   000872  6C                 	db	108	;'l'
   288   000873  6F                 	db	111	;'o'
   289   000874  20                 	db	32
   290   000875  41                 	db	65	;'A'
   291   000876  74                 	db	116	;'t'
   292   000877  69                 	db	105	;'i'
   293   000878  76                 	db	118	;'v'
   294   000879  6F                 	db	111	;'o'
   295   00087A  20                 	db	32
   296   00087B  20                 	db	32
   297   00087C  20                 	db	32
   298   00087D  20                 	db	32
   299   00087E  20                 	db	32
   300   00087F  00                 	db	0
   301   000880                     STR_17:
   302   000880  4D                 	db	77	;'M'
   303   000881  61                 	db	97	;'a'
   304   000882  6E                 	db	110	;'n'
   305   000883  75                 	db	117	;'u'
   306   000884  61                 	db	97	;'a'
   307   000885  6C                 	db	108	;'l'
   308   000886  20                 	db	32
   309   000887  56                 	db	86	;'V'
   310   000888  3A                 	db	58	;':'
   311   000889  25                 	db	37
   312   00088A  64                 	db	100	;'d'
   313   00088B  20                 	db	32
   314   00088C  20                 	db	32
   315   00088D  20                 	db	32
   316   00088E  20                 	db	32
   317   00088F  00                 	db	0
   318   000890                     STR_6:
   319   000890  46                 	db	70	;'F'
   320   000891  69                 	db	105	;'i'
   321   000892  6C                 	db	108	;'l'
   322   000893  74                 	db	116	;'t'
   323   000894  72                 	db	114	;'r'
   324   000895  6F                 	db	111	;'o'
   325   000896  20                 	db	32
   326   000897  64                 	db	100	;'d'
   327   000898  65                 	db	101	;'e'
   328   000899  20                 	db	32
   329   00089A  4D                 	db	77	;'M'
   330   00089B  61                 	db	97	;'a'
   331   00089C  6E                 	db	110	;'n'
   332   00089D  67                 	db	103	;'g'
   333   00089E  61                 	db	97	;'a'
   334   00089F  00                 	db	0
   335   0008A0                     STR_5:
   336   0008A0  53                 	db	83	;'S'
   337   0008A1  65                 	db	101	;'e'
   338   0008A2  71                 	db	113	;'q'
   339   0008A3  2E                 	db	46
   340   0008A4  20                 	db	32
   341   0008A5  4C                 	db	76	;'L'
   342   0008A6  69                 	db	105	;'i'
   343   0008A7  6D                 	db	109	;'m'
   344   0008A8  70                 	db	112	;'p'
   345   0008A9  65                 	db	101	;'e'
   346   0008AA  7A                 	db	122	;'z'
   347   0008AB  61                 	db	97	;'a'
   348   0008AC  00                 	db	0
   349   0008AD                     STR_4:
   350   0008AD  52                 	db	82	;'R'
   351   0008AE  41                 	db	65	;'A'
   352   0008AF  3A                 	db	58	;':'
   353   0008B0  20                 	db	32
   354   0008B1  31                 	db	49	;'1'
   355   0008B2  30                 	db	48	;'0'
   356   0008B3  36                 	db	54	;'6'
   357   0008B4  33                 	db	51	;'3'
   358   0008B5  36                 	db	54	;'6'
   359   0008B6  37                 	db	55	;'7'
   360   0008B7  37                 	db	55	;'7'
   361   0008B8  00                 	db	0
   362   0008B9                     STR_12:
   363   0008B9  50                 	db	80	;'P'
   364   0008BA  72                 	db	114	;'r'
   365   0008BB  65                 	db	101	;'e'
   366   0008BC  73                 	db	115	;'s'
   367   0008BD  73                 	db	115	;'s'
   368   0008BE  3A                 	db	58	;':'
   369   0008BF  25                 	db	37
   370   0008C0  34                 	db	52	;'4'
   371   0008C1  64                 	db	100	;'d'
   372   0008C2  6D                 	db	109	;'m'
   373   0008C3  56                 	db	86	;'V'
   374   0008C4  00                 	db	0
   375   0008C5                     STR_9:
   376   0008C5  25                 	db	37
   377   0008C6  73                 	db	115	;'s'
   378   0008C7  20                 	db	32
   379   0008C8  43                 	db	67	;'C'
   380   0008C9  69                 	db	105	;'i'
   381   0008CA  63                 	db	99	;'c'
   382   0008CB  3A                 	db	58	;':'
   383   0008CC  25                 	db	37
   384   0008CD  30                 	db	48	;'0'
   385   0008CE  34                 	db	52	;'4'
   386   0008CF  64                 	db	100	;'d'
   387   0008D0  00                 	db	0
   388   0008D1                     STR_7:
   389   0008D1  42                 	db	66	;'B'
   390   0008D2  65                 	db	101	;'e'
   391   0008D3  6D                 	db	109	;'m'
   392   0008D4  2D                 	db	45
   393   0008D5  76                 	db	118	;'v'
   394   0008D6  69                 	db	105	;'i'
   395   0008D7  6E                 	db	110	;'n'
   396   0008D8  64                 	db	100	;'d'
   397   0008D9  6F                 	db	111	;'o'
   398   0008DA  21                 	db	33
   399   0008DB  00                 	db	0
   400   0008DC                     STR_1:
   401   0008DC  55                 	db	85	;'U'
   402   0008DD  4E                 	db	78	;'N'
   403   0008DE  49                 	db	73	;'I'
   404   0008DF  55                 	db	85	;'U'
   405   0008E0  42                 	db	66	;'B'
   406   0008E1  45                 	db	69	;'E'
   407   0008E2  00                 	db	0
   408   0008E3                     STR_11:
   409   0008E3  4D                 	db	77	;'M'
   410   0008E4  61                 	db	97	;'a'
   411   0008E5  6E                 	db	110	;'n'
   412   0008E6  20                 	db	32
   413   0008E7  00                 	db	0
   414   0008E8                     STR_10:
   415   0008E8  41                 	db	65	;'A'
   416   0008E9  75                 	db	117	;'u'
   417   0008EA  74                 	db	116	;'t'
   418   0008EB  6F                 	db	111	;'o'
   419   0008EC  00                 	db	0
   420   0008ED                     STR_18:
   421   0008ED  6C                 	db	108	;'l'
   422   0008EE  6C                 	db	108	;'l'
   423   0008EF  73                 	db	115	;'s'
   424   0008F0  00                 	db	0
   425   0008F1  00                 	db	0	; dummy byte at the end
   426   000000                     
   427                           ; #config settings
   428                           
   429                           	psect	cinit
   430   002318                     __pcinit:
   431                           	callstack 0
   432   002318                     start_initialization:
   433                           	callstack 0
   434   002318                     __initialization:
   435                           	callstack 0
   436                           
   437                           ; Initialize objects allocated to BANK0 (10 bytes)
   438                           ; load TBLPTR registers with __pidataBANK0
   439   002318  0E48               	movlw	low __pidataBANK0
   440   00231A  6EF6               	movwf	tblptrl,c
   441   00231C  0E25               	movlw	high __pidataBANK0
   442   00231E  6EF7               	movwf	tblptrh,c
   443   002320  0E00               	movlw	low (__pidataBANK0 shr (0+16))
   444   002322  6EF8               	movwf	tblptru,c
   445   002324  EE00  F0B0         	lfsr	0,__pdataBANK0
   446   002328  EE10 F00A          	lfsr	1,10
   447   00232C                     copy_data0:
   448   00232C  0009               	tblrd		*+
   449   00232E  CFF5 FFEE          	movff	tablat,postinc0
   450   002332  50E5               	movf	postdec1,w,c
   451   002334  50E1               	movf	fsr1l,w,c
   452   002336  E1FA               	bnz	copy_data0
   453                           
   454                           ; Clear objects allocated to BANK0 (80 bytes)
   455   002338  EE00  F060         	lfsr	0,__pbssBANK0
   456   00233C  0E50               	movlw	80
   457   00233E                     clear_0:
   458   00233E  6AEE               	clrf	postinc0,c
   459   002340  06E8               	decf	wreg,f,c
   460   002342  E1FD               	bnz	clear_0
   461   002344                     end_of_initialization:
   462                           	callstack 0
   463   002344                     __end_of__initialization:
   464                           	callstack 0
   465   002344  0E00               	movlw	low (__Lmediumconst shr (0+16))
   466   002346  6EF8               	movwf	tblptru,c
   467   002348  0100               	movlb	0
   468   00234A  EFF9  F00A         	goto	_main	;jump to C main() function
   469                           
   470                           	psect	bssBANK0
   471   000060                     __pbssBANK0:
   472                           	callstack 0
   473   000060                     _width:
   474                           	callstack 0
   475   000060                     	ds	2
   476   000062                     _prec:
   477                           	callstack 0
   478   000062                     	ds	2
   479   000064                     Modo_Manual@manual_display_timer:
   480                           	callstack 0
   481   000064                     	ds	2
   482   000066                     Sequenciador_Automatico@estado_timer:
   483                           	callstack 0
   484   000066                     	ds	2
   485   000068                     Display_Menu_Principal@display_timer:
   486                           	callstack 0
   487   000068                     	ds	2
   488   00006A                     _adc_pressao:
   489                           	callstack 0
   490   00006A                     	ds	2
   491   00006C                     _temporizador:
   492                           	callstack 0
   493   00006C                     	ds	2
   494   00006E                     _contador_ciclos:
   495                           	callstack 0
   496   00006E                     	ds	2
   497   000070                     _flags:
   498                           	callstack 0
   499   000070                     	ds	1
   500   000071                     Sequenciador_Automatico@estado:
   501                           	callstack 0
   502   000071                     	ds	1
   503   000072                     Sequenciador_Automatico@valvula_atual:
   504                           	callstack 0
   505   000072                     	ds	1
   506   000073                     Display_Menu_Principal@linha_toggle:
   507                           	callstack 0
   508   000073                     	ds	1
   509   000074                     _falha_pressao:
   510                           	callstack 0
   511   000074                     	ds	1
   512   000075                     _ciclo_em_andamento:
   513                           	callstack 0
   514   000075                     	ds	1
   515   000076                     _valvula_selecionada:
   516                           	callstack 0
   517   000076                     	ds	1
   518   000077                     _modo_operacao:
   519                           	callstack 0
   520   000077                     	ds	1
   521   000078                     _dbuf:
   522                           	callstack 0
   523   000078                     	ds	32
   524   000098                     _lcd_buffer:
   525                           	callstack 0
   526   000098                     	ds	17
   527   0000A9                     _rtc:
   528                           	callstack 0
   529   0000A9                     	ds	7
   530                           
   531                           	psect	dataBANK0
   532   0000B0                     __pdataBANK0:
   533                           	callstack 0
   534   0000B0                     stoa@F1156:
   535                           	callstack 0
   536   0000B0                     	ds	7
   537   0000B7                     Modo_Manual@last_ent:
   538                           	callstack 0
   539   0000B7                     	ds	1
   540   0000B8                     Modo_Manual@last_dow:
   541                           	callstack 0
   542   0000B8                     	ds	1
   543   0000B9                     Modo_Manual@last_inc:
   544                           	callstack 0
   545   0000B9                     	ds	1
   546                           
   547                           	psect	cstackBANK0
   548   0000BA                     __pcstackBANK0:
   549                           	callstack 0
   550   0000BA                     ??_Modo_Manual:
   551   0000BA                     ??_Display_Menu_Principal:
   552                           
   553                           ; 1 bytes @ 0x0
   554   0000BA                     	ds	2
   555   0000BC                     Display_Menu_Principal@pressao_mv:
   556                           	callstack 0
   557                           
   558                           ; 2 bytes @ 0x2
   559   0000BC                     	ds	2
   560   0000BE                     _Display_Menu_Principal$371:
   561                           	callstack 0
   562                           
   563                           ; 2 bytes @ 0x4
   564   0000BE                     	ds	2
   565                           
   566                           	psect	cstackCOMRAM
   567   000001                     __pcstackCOMRAM:
   568                           	callstack 0
   569   000001                     ?_strlen:
   570                           	callstack 0
   571   000001                     ?_strncmp:
   572                           	callstack 0
   573   000001                     ?___wmul:
   574                           	callstack 0
   575   000001                     ?___awdiv:
   576                           	callstack 0
   577   000001                     ?___awmod:
   578                           	callstack 0
   579   000001                     I2C_Write@v_i2cData_u8:
   580                           	callstack 0
   581   000001                     I2C_Read@v_ackOption_u8:
   582                           	callstack 0
   583   000001                     MSdelay@val:
   584                           	callstack 0
   585   000001                     ___wmul@multiplier:
   586                           	callstack 0
   587   000001                     ___awdiv@dividend:
   588                           	callstack 0
   589   000001                     ___awmod@dividend:
   590                           	callstack 0
   591   000001                     fputc@c:
   592                           	callstack 0
   593   000001                     strlen@s:
   594                           	callstack 0
   595   000001                     strncmp@_l:
   596                           	callstack 0
   597                           
   598                           ; 2 bytes @ 0x0
   599   000001                     	ds	1
   600   000002                     I2C_Read@v_i2cData_u8:
   601                           	callstack 0
   602                           
   603                           ; 1 bytes @ 0x1
   604   000002                     	ds	1
   605   000003                     Ler_EEPROM@endereco:
   606                           	callstack 0
   607   000003                     RTC_GetDateTime@rtc:
   608                           	callstack 0
   609   000003                     MSdelay@i:
   610                           	callstack 0
   611   000003                     ___wmul@multiplicand:
   612                           	callstack 0
   613   000003                     ___awdiv@divisor:
   614                           	callstack 0
   615   000003                     ___awmod@divisor:
   616                           	callstack 0
   617   000003                     fputc@fp:
   618                           	callstack 0
   619   000003                     strlen@a:
   620                           	callstack 0
   621   000003                     strncmp@_r:
   622                           	callstack 0
   623                           
   624                           ; 2 bytes @ 0x2
   625   000003                     	ds	2
   626   000005                     ??_fputc:
   627   000005                     Ler_EEPROM@dado:
   628                           	callstack 0
   629   000005                     ___awdiv@counter:
   630                           	callstack 0
   631   000005                     ___awmod@counter:
   632                           	callstack 0
   633   000005                     MSdelay@j:
   634                           	callstack 0
   635   000005                     ___wmul@product:
   636                           	callstack 0
   637   000005                     strncmp@n:
   638                           	callstack 0
   639                           
   640                           ; 2 bytes @ 0x4
   641   000005                     	ds	1
   642   000006                     ??_Ler_Contador_EEPROM:
   643   000006                     ___awdiv@sign:
   644                           	callstack 0
   645   000006                     ___awmod@sign:
   646                           	callstack 0
   647                           
   648                           ; 1 bytes @ 0x5
   649   000006                     	ds	1
   650   000007                     ??_LCD_Command:
   651   000007                     ??_strncmp:
   652   000007                     ??_LCD_Char:
   653   000007                     ?_Ler_ADC:
   654                           	callstack 0
   655   000007                     ?_abs:
   656                           	callstack 0
   657   000007                     ?_read_prec_or_width:
   658                           	callstack 0
   659   000007                     Beep@tipo:
   660                           	callstack 0
   661   000007                     Escrever_EEPROM@endereco:
   662                           	callstack 0
   663   000007                     ___awdiv@quotient:
   664                           	callstack 0
   665   000007                     read_prec_or_width@fmt:
   666                           	callstack 0
   667   000007                     abs@a:
   668                           	callstack 0
   669                           
   670                           ; 2 bytes @ 0x6
   671   000007                     	ds	1
   672   000008                     Ler_Contador_EEPROM@high:
   673                           	callstack 0
   674   000008                     LCD_Command@cmd:
   675                           	callstack 0
   676   000008                     LCD_Char@dat:
   677                           	callstack 0
   678   000008                     strncmp@l:
   679                           	callstack 0
   680                           
   681                           ; 2 bytes @ 0x7
   682   000008                     	ds	1
   683   000009                     ??_Ler_ADC:
   684   000009                     ??_abs:
   685   000009                     Escrever_EEPROM@dado:
   686                           	callstack 0
   687   000009                     Ler_Contador_EEPROM@low:
   688                           	callstack 0
   689   000009                     LCD_String@msg:
   690                           	callstack 0
   691   000009                     read_prec_or_width@ap:
   692                           	callstack 0
   693                           
   694                           ; 2 bytes @ 0x8
   695   000009                     	ds	1
   696   00000A                     ??_Sequenciador_Automatico:
   697   00000A                     stoa@fp:
   698                           	callstack 0
   699   00000A                     fputs@s:
   700                           	callstack 0
   701   00000A                     strncmp@r:
   702                           	callstack 0
   703                           
   704                           ; 2 bytes @ 0x9
   705   00000A                     	ds	1
   706   00000B                     ??_read_prec_or_width:
   707   00000B                     Ler_ADC@canal:
   708                           	callstack 0
   709   00000B                     LCD_String_xy@pos:
   710                           	callstack 0
   711                           
   712                           ; 1 bytes @ 0xA
   713   00000B                     	ds	1
   714   00000C                     LCD_String_xy@msg:
   715                           	callstack 0
   716   00000C                     stoa@s:
   717                           	callstack 0
   718   00000C                     fputs@fp:
   719                           	callstack 0
   720                           
   721                           ; 2 bytes @ 0xB
   722   00000C                     	ds	1
   723   00000D                     read_prec_or_width@c:
   724                           	callstack 0
   725                           
   726                           ; 1 bytes @ 0xC
   727   00000D                     	ds	1
   728   00000E                     ??_stoa:
   729   00000E                     LCD_String_xy@row:
   730                           	callstack 0
   731   00000E                     fputs@c:
   732                           	callstack 0
   733   00000E                     read_prec_or_width@n:
   734                           	callstack 0
   735                           
   736                           ; 2 bytes @ 0xD
   737   00000E                     	ds	1
   738   00000F                     LCD_String_xy@location:
   739                           	callstack 0
   740   00000F                     fputs@i:
   741                           	callstack 0
   742   00000F                     stoa@nuls:
   743                           	callstack 0
   744                           
   745                           ; 7 bytes @ 0xE
   746   00000F                     	ds	1
   747   000010                     
   748                           ; 1 bytes @ 0xF
   749   000010                     	ds	1
   750   000011                     pad@fp:
   751                           	callstack 0
   752                           
   753                           ; 2 bytes @ 0x10
   754   000011                     	ds	2
   755   000013                     pad@buf:
   756                           	callstack 0
   757                           
   758                           ; 2 bytes @ 0x12
   759   000013                     	ds	2
   760   000015                     pad@p:
   761                           	callstack 0
   762                           
   763                           ; 2 bytes @ 0x14
   764   000015                     	ds	1
   765   000016                     stoa@i:
   766                           	callstack 0
   767                           
   768                           ; 2 bytes @ 0x15
   769   000016                     	ds	1
   770   000017                     ??_pad:
   771                           
   772                           ; 1 bytes @ 0x16
   773   000017                     	ds	1
   774   000018                     pad@i:
   775                           	callstack 0
   776   000018                     stoa@w:
   777                           	callstack 0
   778                           
   779                           ; 2 bytes @ 0x17
   780   000018                     	ds	2
   781   00001A                     pad@w:
   782                           	callstack 0
   783   00001A                     stoa@cp:
   784                           	callstack 0
   785                           
   786                           ; 2 bytes @ 0x19
   787   00001A                     	ds	2
   788   00001C                     dtoa@fp:
   789                           	callstack 0
   790   00001C                     stoa@p:
   791                           	callstack 0
   792   00001C                     xtoa@fp:
   793                           	callstack 0
   794                           
   795                           ; 2 bytes @ 0x1B
   796   00001C                     	ds	2
   797   00001E                     dtoa@d:
   798                           	callstack 0
   799   00001E                     stoa@l:
   800                           	callstack 0
   801   00001E                     xtoa@d:
   802                           	callstack 0
   803                           
   804                           ; 2 bytes @ 0x1D
   805   00001E                     	ds	2
   806   000020                     ??_xtoa:
   807   000020                     _dtoa$1244:
   808                           	callstack 0
   809                           
   810                           ; 2 bytes @ 0x1F
   811   000020                     	ds	2
   812   000022                     dtoa@p:
   813                           	callstack 0
   814                           
   815                           ; 2 bytes @ 0x21
   816   000022                     	ds	1
   817   000023                     _xtoa$1264:
   818                           	callstack 0
   819                           
   820                           ; 2 bytes @ 0x22
   821   000023                     	ds	1
   822   000024                     dtoa@w:
   823                           	callstack 0
   824                           
   825                           ; 2 bytes @ 0x23
   826   000024                     	ds	1
   827   000025                     xtoa@p:
   828                           	callstack 0
   829                           
   830                           ; 2 bytes @ 0x24
   831   000025                     	ds	1
   832   000026                     dtoa@i:
   833                           	callstack 0
   834                           
   835                           ; 2 bytes @ 0x25
   836   000026                     	ds	1
   837   000027                     xtoa@w:
   838                           	callstack 0
   839                           
   840                           ; 2 bytes @ 0x26
   841   000027                     	ds	1
   842   000028                     dtoa@s:
   843                           	callstack 0
   844                           
   845                           ; 1 bytes @ 0x27
   846   000028                     	ds	1
   847   000029                     xtoa@i:
   848                           	callstack 0
   849                           
   850                           ; 2 bytes @ 0x28
   851   000029                     	ds	2
   852   00002B                     xtoa@c:
   853                           	callstack 0
   854                           
   855                           ; 1 bytes @ 0x2A
   856   00002B                     	ds	1
   857   00002C                     vfpfcnvrt@fp:
   858                           	callstack 0
   859                           
   860                           ; 2 bytes @ 0x2B
   861   00002C                     	ds	2
   862   00002E                     vfpfcnvrt@fmt:
   863                           	callstack 0
   864                           
   865                           ; 2 bytes @ 0x2D
   866   00002E                     	ds	2
   867   000030                     vfpfcnvrt@ap:
   868                           	callstack 0
   869                           
   870                           ; 2 bytes @ 0x2F
   871   000030                     	ds	2
   872   000032                     ??_vfpfcnvrt:
   873                           
   874                           ; 1 bytes @ 0x31
   875   000032                     	ds	2
   876   000034                     vfpfcnvrt@done:
   877                           	callstack 0
   878                           
   879                           ; 2 bytes @ 0x33
   880   000034                     	ds	2
   881   000036                     _vfpfcnvrt$1291:
   882                           	callstack 0
   883                           
   884                           ; 2 bytes @ 0x35
   885   000036                     	ds	2
   886   000038                     vfpfcnvrt@convarg:
   887                           	callstack 0
   888                           
   889                           ; 4 bytes @ 0x37
   890   000038                     	ds	4
   891   00003C                     vfpfcnvrt@cp:
   892                           	callstack 0
   893                           
   894                           ; 2 bytes @ 0x3B
   895   00003C                     	ds	2
   896   00003E                     ?_vfprintf:
   897                           	callstack 0
   898   00003E                     vfprintf@fp:
   899                           	callstack 0
   900                           
   901                           ; 2 bytes @ 0x3D
   902   00003E                     	ds	2
   903   000040                     vfprintf@fmt:
   904                           	callstack 0
   905                           
   906                           ; 2 bytes @ 0x3F
   907   000040                     	ds	2
   908   000042                     vfprintf@ap:
   909                           	callstack 0
   910                           
   911                           ; 2 bytes @ 0x41
   912   000042                     	ds	2
   913   000044                     vfprintf@cfmt:
   914                           	callstack 0
   915                           
   916                           ; 2 bytes @ 0x43
   917   000044                     	ds	2
   918   000046                     ?_sprintf:
   919                           	callstack 0
   920   000046                     sprintf@s:
   921                           	callstack 0
   922                           
   923                           ; 2 bytes @ 0x45
   924   000046                     	ds	2
   925   000048                     sprintf@fmt:
   926                           	callstack 0
   927                           
   928                           ; 2 bytes @ 0x47
   929   000048                     	ds	10
   930   000052                     sprintf@ap:
   931                           	callstack 0
   932                           
   933                           ; 2 bytes @ 0x51
   934   000052                     	ds	2
   935   000054                     sprintf@f:
   936                           	callstack 0
   937                           
   938                           ; 12 bytes @ 0x53
   939   000054                     	ds	12
   940   000060                     
   941                           ; 1 bytes @ 0x5F
   942 ;;
   943 ;;Main: autosize = 0, tempsize = 0, incstack = 0, save=0
   944 ;;
   945 ;; *************** function _main *****************
   946 ;; Defined at:
   947 ;;		line 100 in file "main_piee2.c"
   948 ;; Parameters:    Size  Location     Type
   949 ;;		None
   950 ;; Auto vars:     Size  Location     Type
   951 ;;		None
   952 ;; Return value:  Size  Location     Type
   953 ;;                  2  112[None  ] int 
   954 ;; Registers used:
   955 ;;		wreg, fsr1l, fsr1h, fsr2l, fsr2h, status,2, status,0, tblptrl, tblptrh, tblptru, prodl, prodh, cstack
   956 ;; Tracked objects:
   957 ;;		On entry : 0/0
   958 ;;		On exit  : 0/0
   959 ;;		Unchanged: 0/0
   960 ;; Data sizes:     COMRAM   BANK0   BANK1   BANK2   BANK3   BANK4   BANK5   BANK6   BANK7
   961 ;;      Params:         0       0       0       0       0       0       0       0       0
   962 ;;      Locals:         0       0       0       0       0       0       0       0       0
   963 ;;      Temps:          0       0       0       0       0       0       0       0       0
   964 ;;      Totals:         0       0       0       0       0       0       0       0       0
   965 ;;Total ram usage:        0 bytes
   966 ;; Hardware stack levels required when called: 9
   967 ;; This function calls:
   968 ;;		_ADC_Init
   969 ;;		_Beep
   970 ;;		_Display_Mensagens_Iniciais
   971 ;;		_Display_Menu_Principal
   972 ;;		_I2C_Init
   973 ;;		_LCD_Init
   974 ;;		_Ler_ADC
   975 ;;		_Ler_Contador_EEPROM
   976 ;;		_MSdelay
   977 ;;		_Modo_Manual
   978 ;;		_RTC_Init
   979 ;;		_Salvar_Contador_EEPROM
   980 ;;		_Sequenciador_Automatico
   981 ;;		_Verificar_Falha_Pressao
   982 ;; This function is called by:
   983 ;;		Startup code after reset
   984 ;; This function uses a non-reentrant model
   985 ;;
   986                           
   987                           	psect	text0
   988   0015F2                     __ptext0:
   989                           	callstack 0
   990   0015F2                     _main:
   991                           	callstack 22
   992   0015F2                     
   993                           ;main_piee2.c: 102:     OSCCON = 0x72;
   994   0015F2  0E72               	movlw	114
   995   0015F4  6ED3               	movwf	211,c	;volatile
   996                           
   997                           ;main_piee2.c: 105:     TRISD = 0x00;
   998   0015F6  0E00               	movlw	0
   999   0015F8  6E95               	movwf	149,c	;volatile
  1000                           
  1001                           ;main_piee2.c: 106:     TRISC = 0x00;
  1002   0015FA  0E00               	movlw	0
  1003   0015FC  6E94               	movwf	148,c	;volatile
  1004                           
  1005                           ;main_piee2.c: 107:     PORTC = 0x00;
  1006   0015FE  0E00               	movlw	0
  1007   001600  6E82               	movwf	130,c	;volatile
  1008                           
  1009                           ;main_piee2.c: 108:     PORTD = 0x00;
  1010   001602  0E00               	movlw	0
  1011   001604  6E83               	movwf	131,c	;volatile
  1012   001606                     
  1013                           ;main_piee2.c: 111:     TRISAbits.TRISA2 = 1;
  1014   001606  8492               	bsf	146,2,c	;volatile
  1015   001608                     
  1016                           ;main_piee2.c: 112:     TRISAbits.TRISA3 = 1;
  1017   001608  8692               	bsf	146,3,c	;volatile
  1018   00160A                     
  1019                           ;main_piee2.c: 113:     TRISAbits.TRISA4 = 1;
  1020   00160A  8892               	bsf	146,4,c	;volatile
  1021   00160C                     
  1022                           ;main_piee2.c: 114:     TRISAbits.TRISA5 = 1;
  1023   00160C  8A92               	bsf	146,5,c	;volatile
  1024   00160E                     
  1025                           ;main_piee2.c: 115:     TRISAbits.TRISA6 = 1;
  1026   00160E  8C92               	bsf	146,6,c	;volatile
  1027   001610                     
  1028                           ;main_piee2.c: 116:     TRISAbits.TRISA0 = 1;
  1029   001610  8092               	bsf	146,0,c	;volatile
  1030   001612                     
  1031                           ;main_piee2.c: 119:     LCD_Init();
  1032   001612  ECDA  F011         	call	_LCD_Init	;wreg free
  1033   001616                     
  1034                           ;main_piee2.c: 120:     RTC_Init();
  1035   001616  EC43  F012         	call	_RTC_Init	;wreg free
  1036   00161A                     
  1037                           ;main_piee2.c: 121:     ADC_Init();
  1038   00161A  ECA9  F012         	call	_ADC_Init	;wreg free
  1039   00161E                     
  1040                           ;main_piee2.c: 122:     I2C_Init();
  1041   00161E  EC60  F012         	call	_I2C_Init	;wreg free
  1042   001622                     
  1043                           ;main_piee2.c: 125:     Ler_Contador_EEPROM();
  1044   001622  ECA7  F011         	call	_Ler_Contador_EEPROM	;wreg free
  1045   001626                     
  1046                           ;main_piee2.c: 128:     Beep(1);
  1047   001626  0E01               	movlw	1
  1048   001628  ECA1  F00F         	call	_Beep
  1049   00162C                     
  1050                           ;main_piee2.c: 129:     Display_Mensagens_Iniciais();
  1051   00162C  ECF7  F00D         	call	_Display_Mensagens_Iniciais	;wreg free
  1052   001630                     
  1053                           ;main_piee2.c: 130:     Beep(2);
  1054   001630  0E02               	movlw	2
  1055   001632  ECA1  F00F         	call	_Beep
  1056   001636                     
  1057                           ;main_piee2.c: 133:     rtc.hour = 0x12;
  1058   001636  0E12               	movlw	18
  1059   001638  0100               	movlb	0	; () banked
  1060   00163A  6FAB               	movwf	(_rtc+2)& (0+255),b
  1061   00163C                     
  1062                           ; BSR set to: 0
  1063                           ;main_piee2.c: 134:     rtc.min = 0x00;
  1064   00163C  0E00               	movlw	0
  1065   00163E  6FAA               	movwf	(_rtc+1)& (0+255),b
  1066   001640                     
  1067                           ; BSR set to: 0
  1068                           ;main_piee2.c: 135:     rtc.sec = 0x00;
  1069   001640  0E00               	movlw	0
  1070   001642  6FA9               	movwf	_rtc& (0+255),b
  1071   001644                     
  1072                           ; BSR set to: 0
  1073                           ;main_piee2.c: 136:     rtc.date = 0x07;
  1074   001644  0E07               	movlw	7
  1075   001646  6FAD               	movwf	(_rtc+4)& (0+255),b
  1076   001648                     
  1077                           ; BSR set to: 0
  1078                           ;main_piee2.c: 137:     rtc.month = 0x12;
  1079   001648  0E12               	movlw	18
  1080   00164A  6FAE               	movwf	(_rtc+5)& (0+255),b
  1081   00164C                     
  1082                           ; BSR set to: 0
  1083                           ;main_piee2.c: 138:     rtc.year = 0x25;
  1084   00164C  0E25               	movlw	37
  1085   00164E  6FAF               	movwf	(_rtc+6)& (0+255),b
  1086   001650                     l3258:
  1087                           
  1088                           ; BSR set to: 0
  1089                           ;main_piee2.c: 142:         adc_pressao = Ler_ADC(0);
  1090   001650  0E00               	movlw	0
  1091   001652  EC2F  F011         	call	_Ler_ADC
  1092   001656  C007  F06A         	movff	?_Ler_ADC,_adc_pressao
  1093   00165A  C008  F06B         	movff	?_Ler_ADC+1,_adc_pressao+1
  1094   00165E                     
  1095                           ;main_piee2.c: 145:         Verificar_Falha_Pressao();
  1096   00165E  EC09  F012         	call	_Verificar_Falha_Pressao	;wreg free
  1097   001662                     
  1098                           ;main_piee2.c: 148:         if(PORTAbits.RA6 == 0) {
  1099   001662  BC80               	btfsc	128,6,c	;volatile
  1100   001664  EF36  F00B         	goto	u2561
  1101   001668  EF38  F00B         	goto	u2560
  1102   00166C                     u2561:
  1103   00166C  EF68  F00B         	goto	l114
  1104   001670                     u2560:
  1105   001670                     
  1106                           ;main_piee2.c: 149:             MSdelay(50);
  1107   001670  0E00               	movlw	0
  1108   001672  6E02               	movwf	(MSdelay@val+1)^0,c
  1109   001674  0E32               	movlw	50
  1110   001676  6E01               	movwf	MSdelay@val^0,c
  1111   001678  ECC4  F010         	call	_MSdelay	;wreg free
  1112   00167C                     
  1113                           ;main_piee2.c: 150:             if(PORTAbits.RA6 == 0) {
  1114   00167C  BC80               	btfsc	128,6,c	;volatile
  1115   00167E  EF43  F00B         	goto	u2571
  1116   001682  EF45  F00B         	goto	u2570
  1117   001686                     u2571:
  1118   001686  EF68  F00B         	goto	l114
  1119   00168A                     u2570:
  1120   00168A                     
  1121                           ;main_piee2.c: 151:                 if(modo_operacao == 1) {
  1122   00168A  0100               	movlb	0	; () banked
  1123   00168C  0577               	decf	_modo_operacao& (0+255),w,b
  1124   00168E  A4D8               	btfss	status,2,c
  1125   001690  EF4C  F00B         	goto	u2581
  1126   001694  EF4E  F00B         	goto	u2580
  1127   001698                     u2581:
  1128   001698  EF56  F00B         	goto	l116
  1129   00169C                     u2580:
  1130   00169C                     
  1131                           ; BSR set to: 0
  1132                           ;main_piee2.c: 152:                     contador_ciclos = 0;
  1133   00169C  0E00               	movlw	0
  1134   00169E  6F6F               	movwf	(_contador_ciclos+1)& (0+255),b
  1135   0016A0  0E00               	movlw	0
  1136   0016A2  6F6E               	movwf	_contador_ciclos& (0+255),b
  1137   0016A4                     
  1138                           ; BSR set to: 0
  1139                           ;main_piee2.c: 153:                     Salvar_Contador_EEPROM();
  1140   0016A4  EC31  F012         	call	_Salvar_Contador_EEPROM	;wreg free
  1141                           
  1142                           ;main_piee2.c: 154:                 } else {
  1143   0016A8  EF61  F00B         	goto	l118
  1144   0016AC                     l116:
  1145                           
  1146                           ; BSR set to: 0
  1147                           ;main_piee2.c: 156:                     PORTC = 0xFF;
  1148   0016AC  6882               	setf	130,c	;volatile
  1149                           
  1150                           ;main_piee2.c: 157:                     LATD7 = 1;
  1151   0016AE  8E8C               	bsf	3980,7,c	;volatile
  1152   0016B0                     
  1153                           ; BSR set to: 0
  1154                           ;main_piee2.c: 158:                     MSdelay(2000);
  1155   0016B0  0E07               	movlw	7
  1156   0016B2  6E02               	movwf	(MSdelay@val+1)^0,c
  1157   0016B4  0ED0               	movlw	208
  1158   0016B6  6E01               	movwf	MSdelay@val^0,c
  1159   0016B8  ECC4  F010         	call	_MSdelay	;wreg free
  1160   0016BC                     
  1161                           ;main_piee2.c: 159:                     PORTC = 0x00;
  1162   0016BC  0E00               	movlw	0
  1163   0016BE  6E82               	movwf	130,c	;volatile
  1164   0016C0                     
  1165                           ;main_piee2.c: 160:                     LATD7 = 0;
  1166   0016C0  9E8C               	bcf	3980,7,c	;volatile
  1167   0016C2                     l118:
  1168   0016C2  AC80               	btfss	128,6,c	;volatile
  1169   0016C4  EF66  F00B         	goto	u2591
  1170   0016C8  EF68  F00B         	goto	u2590
  1171   0016CC                     u2591:
  1172   0016CC  EF61  F00B         	goto	l118
  1173   0016D0                     u2590:
  1174   0016D0                     l114:
  1175                           
  1176                           ;main_piee2.c: 167:         if(PORTAbits.RA2 == 0 && modo_operacao == 1) {
  1177   0016D0  B480               	btfsc	128,2,c	;volatile
  1178   0016D2  EF6D  F00B         	goto	u2601
  1179   0016D6  EF6F  F00B         	goto	u2600
  1180   0016DA                     u2601:
  1181   0016DA  EF82  F00B         	goto	l121
  1182   0016DE                     u2600:
  1183   0016DE  0100               	movlb	0	; () banked
  1184   0016E0  0577               	decf	_modo_operacao& (0+255),w,b
  1185   0016E2  A4D8               	btfss	status,2,c
  1186   0016E4  EF76  F00B         	goto	u2611
  1187   0016E8  EF78  F00B         	goto	u2610
  1188   0016EC                     u2611:
  1189   0016EC  EF82  F00B         	goto	l121
  1190   0016F0                     u2610:
  1191   0016F0                     
  1192                           ; BSR set to: 0
  1193                           ;main_piee2.c: 168:             modo_operacao = 0;
  1194   0016F0  0E00               	movlw	0
  1195   0016F2  6F77               	movwf	_modo_operacao& (0+255),b
  1196                           
  1197                           ;main_piee2.c: 169:             ciclo_em_andamento = 0;
  1198   0016F4  0E00               	movlw	0
  1199   0016F6  6F75               	movwf	_ciclo_em_andamento& (0+255),b
  1200                           
  1201                           ;main_piee2.c: 170:             PORTC = 0x00;
  1202   0016F8  0E00               	movlw	0
  1203   0016FA  6E82               	movwf	130,c	;volatile
  1204   0016FC                     
  1205                           ; BSR set to: 0
  1206                           ;main_piee2.c: 171:             LATD7 = 0;
  1207   0016FC  9E8C               	bcf	3980,7,c	;volatile
  1208   0016FE                     
  1209                           ; BSR set to: 0
  1210                           ;main_piee2.c: 172:             LATD3 = 0;
  1211   0016FE  968C               	bcf	3980,3,c	;volatile
  1212                           
  1213                           ;main_piee2.c: 173:         } else if(PORTAbits.RA2 == 1 && modo_operacao == 0) {
  1214   001700  EF94  F00B         	goto	l122
  1215   001704                     l121:
  1216   001704  A480               	btfss	128,2,c	;volatile
  1217   001706  EF87  F00B         	goto	u2621
  1218   00170A  EF89  F00B         	goto	u2620
  1219   00170E                     u2621:
  1220   00170E  EF94  F00B         	goto	l122
  1221   001712                     u2620:
  1222   001712  0100               	movlb	0	; () banked
  1223   001714  5177               	movf	_modo_operacao& (0+255),w,b
  1224   001716  A4D8               	btfss	status,2,c
  1225   001718  EF90  F00B         	goto	u2631
  1226   00171C  EF92  F00B         	goto	u2630
  1227   001720                     u2631:
  1228   001720  EF94  F00B         	goto	l122
  1229   001724                     u2630:
  1230   001724                     
  1231                           ; BSR set to: 0
  1232                           ;main_piee2.c: 174:             modo_operacao = 1;
  1233   001724  0E01               	movlw	1
  1234   001726  6F77               	movwf	_modo_operacao& (0+255),b
  1235   001728                     l122:
  1236                           
  1237                           ;main_piee2.c: 178:         if(modo_operacao == 0) {
  1238   001728  0100               	movlb	0	; () banked
  1239   00172A  5177               	movf	_modo_operacao& (0+255),w,b
  1240   00172C  A4D8               	btfss	status,2,c
  1241   00172E  EF9B  F00B         	goto	u2641
  1242   001732  EF9D  F00B         	goto	u2640
  1243   001736                     u2641:
  1244   001736  EFA1  F00B         	goto	l3294
  1245   00173A                     u2640:
  1246   00173A                     
  1247                           ; BSR set to: 0
  1248                           ;main_piee2.c: 179:             Modo_Manual();
  1249   00173A  EC52  F007         	call	_Modo_Manual	;wreg free
  1250                           
  1251                           ;main_piee2.c: 180:         } else {
  1252   00173E  EFA3  F00B         	goto	l3296
  1253   001742                     l3294:
  1254                           
  1255                           ; BSR set to: 0
  1256                           ;main_piee2.c: 181:             Sequenciador_Automatico();
  1257   001742  EC21  F006         	call	_Sequenciador_Automatico	;wreg free
  1258   001746                     l3296:
  1259                           
  1260                           ;main_piee2.c: 185:         Display_Menu_Principal();
  1261   001746  EC52  F009         	call	_Display_Menu_Principal	;wreg free
  1262   00174A                     
  1263                           ;main_piee2.c: 188:         MSdelay(10);
  1264   00174A  0E00               	movlw	0
  1265   00174C  6E02               	movwf	(MSdelay@val+1)^0,c
  1266   00174E  0E0A               	movlw	10
  1267   001750  6E01               	movwf	MSdelay@val^0,c
  1268   001752  ECC4  F010         	call	_MSdelay	;wreg free
  1269   001756                     
  1270                           ;main_piee2.c: 189:         temporizador++;
  1271   001756  0100               	movlb	0	; () banked
  1272   001758  4B6C               	infsnz	_temporizador& (0+255),f,b
  1273   00175A  2B6D               	incf	(_temporizador+1)& (0+255),f,b
  1274   00175C  EF28  F00B         	goto	l3258
  1275   001760  EF00  F000         	goto	start
  1276   001764                     __end_of_main:
  1277                           	callstack 0
  1278                           
  1279 ;; *************** function _Verificar_Falha_Pressao *****************
  1280 ;; Defined at:
  1281 ;;		line 502 in file "main_piee2.c"
  1282 ;; Parameters:    Size  Location     Type
  1283 ;;		None
  1284 ;; Auto vars:     Size  Location     Type
  1285 ;;		None
  1286 ;; Return value:  Size  Location     Type
  1287 ;;                  1    wreg      void 
  1288 ;; Registers used:
  1289 ;;		wreg, status,2, status,0
  1290 ;; Tracked objects:
  1291 ;;		On entry : 0/0
  1292 ;;		On exit  : 0/0
  1293 ;;		Unchanged: 0/0
  1294 ;; Data sizes:     COMRAM   BANK0   BANK1   BANK2   BANK3   BANK4   BANK5   BANK6   BANK7
  1295 ;;      Params:         0       0       0       0       0       0       0       0       0
  1296 ;;      Locals:         0       0       0       0       0       0       0       0       0
  1297 ;;      Temps:          0       0       0       0       0       0       0       0       0
  1298 ;;      Totals:         0       0       0       0       0       0       0       0       0
  1299 ;;Total ram usage:        0 bytes
  1300 ;; Hardware stack levels used: 1
  1301 ;; This function calls:
  1302 ;;		Nothing
  1303 ;; This function is called by:
  1304 ;;		_main
  1305 ;; This function uses a non-reentrant model
  1306 ;;
  1307                           
  1308                           	psect	text1
  1309   002412                     __ptext1:
  1310                           	callstack 0
  1311   002412                     _Verificar_Falha_Pressao:
  1312                           	callstack 30
  1313   002412                     
  1314                           ;main_piee2.c: 504:     if(adc_pressao > 819) {
  1315   002412  0E34               	movlw	52
  1316   002414  0100               	movlb	0	; () banked
  1317   002416  5D6A               	subwf	_adc_pressao& (0+255),w,b
  1318   002418  0E03               	movlw	3
  1319   00241A  596B               	subwfb	(_adc_pressao+1)& (0+255),w,b
  1320   00241C  A0D8               	btfss	status,0,c
  1321   00241E  EF13  F012         	goto	u2311
  1322   002422  EF15  F012         	goto	u2310
  1323   002426                     u2311:
  1324   002426  EF1A  F012         	goto	l3000
  1325   00242A                     u2310:
  1326   00242A                     
  1327                           ; BSR set to: 0
  1328                           ;main_piee2.c: 505:         falha_pressao = 1;
  1329   00242A  0E01               	movlw	1
  1330   00242C  6F74               	movwf	_falha_pressao& (0+255),b
  1331   00242E                     
  1332                           ; BSR set to: 0
  1333                           ;main_piee2.c: 506:         LATD2 = 1;
  1334   00242E  848C               	bsf	3980,2,c	;volatile
  1335                           
  1336                           ;main_piee2.c: 507:     } else {
  1337   002430  EF1D  F012         	goto	l262
  1338   002434                     l3000:
  1339                           
  1340                           ; BSR set to: 0
  1341                           ;main_piee2.c: 508:         falha_pressao = 0;
  1342   002434  0E00               	movlw	0
  1343   002436  6F74               	movwf	_falha_pressao& (0+255),b
  1344   002438                     
  1345                           ; BSR set to: 0
  1346                           ;main_piee2.c: 509:         LATD2 = 0;
  1347   002438  948C               	bcf	3980,2,c	;volatile
  1348   00243A                     l262:
  1349                           
  1350                           ; BSR set to: 0
  1351   00243A  0012               	return		;funcret
  1352   00243C                     __end_of_Verificar_Falha_Pressao:
  1353                           	callstack 0
  1354                           
  1355 ;; *************** function _Sequenciador_Automatico *****************
  1356 ;; Defined at:
  1357 ;;		line 278 in file "main_piee2.c"
  1358 ;; Parameters:    Size  Location     Type
  1359 ;;		None
  1360 ;; Auto vars:     Size  Location     Type
  1361 ;;		None
  1362 ;; Return value:  Size  Location     Type
  1363 ;;                  1    wreg      void 
  1364 ;; Registers used:
  1365 ;;		wreg, status,2, status,0, cstack
  1366 ;; Tracked objects:
  1367 ;;		On entry : 0/0
  1368 ;;		On exit  : 0/0
  1369 ;;		Unchanged: 0/0
  1370 ;; Data sizes:     COMRAM   BANK0   BANK1   BANK2   BANK3   BANK4   BANK5   BANK6   BANK7
  1371 ;;      Params:         0       0       0       0       0       0       0       0       0
  1372 ;;      Locals:         0       0       0       0       0       0       0       0       0
  1373 ;;      Temps:          2       0       0       0       0       0       0       0       0
  1374 ;;      Totals:         2       0       0       0       0       0       0       0       0
  1375 ;;Total ram usage:        2 bytes
  1376 ;; Hardware stack levels used: 1
  1377 ;; Hardware stack levels required when called: 4
  1378 ;; This function calls:
  1379 ;;		_Salvar_Contador_EEPROM
  1380 ;; This function is called by:
  1381 ;;		_main
  1382 ;; This function uses a non-reentrant model
  1383 ;;
  1384                           
  1385                           	psect	text2
  1386   000C42                     __ptext2:
  1387                           	callstack 0
  1388   000C42                     _Sequenciador_Automatico:
  1389                           	callstack 26
  1390   000C42                     
  1391                           ;main_piee2.c: 279:     static uint8_t valvula_atual = 0;;main_piee2.c: 280:     static 
      +                          uint16_t estado_timer = 0;;main_piee2.c: 281:     static uint8_t estado = 0;;main_piee2.
      +                          c: 283:     if(falha_pressao) {
  1392   000C42  0100               	movlb	0	; () banked
  1393   000C44  5174               	movf	_falha_pressao& (0+255),w,b
  1394   000C46  B4D8               	btfsc	status,2,c
  1395   000C48  EF28  F006         	goto	u2441
  1396   000C4C  EF2A  F006         	goto	u2440
  1397   000C50                     u2441:
  1398   000C50  EF34  F007         	goto	l3154
  1399   000C54                     u2440:
  1400   000C54                     
  1401                           ; BSR set to: 0
  1402                           ;main_piee2.c: 284:         ciclo_em_andamento = 0;
  1403   000C54  0E00               	movlw	0
  1404   000C56  6F75               	movwf	_ciclo_em_andamento& (0+255),b
  1405   000C58                     
  1406                           ; BSR set to: 0
  1407                           ;main_piee2.c: 285:         LATD3 = 0;
  1408   000C58  968C               	bcf	3980,3,c	;volatile
  1409                           
  1410                           ;main_piee2.c: 286:         PORTC = 0x00;
  1411   000C5A  0E00               	movlw	0
  1412   000C5C  6E82               	movwf	130,c	;volatile
  1413   000C5E                     
  1414                           ; BSR set to: 0
  1415                           ;main_piee2.c: 287:         LATD7 = 0;
  1416   000C5E  9E8C               	bcf	3980,7,c	;volatile
  1417   000C60  EF51  F007         	goto	l168
  1418   000C64                     l3108:
  1419                           
  1420                           ; BSR set to: 0
  1421                           ;main_piee2.c: 293:             ciclo_em_andamento = 0;
  1422   000C64  0E00               	movlw	0
  1423   000C66  6F75               	movwf	_ciclo_em_andamento& (0+255),b
  1424   000C68                     
  1425                           ; BSR set to: 0
  1426                           ;main_piee2.c: 294:             LATD3 = 0;
  1427   000C68  968C               	bcf	3980,3,c	;volatile
  1428   000C6A                     
  1429                           ; BSR set to: 0
  1430                           ;main_piee2.c: 295:             if(estado_timer++ >= 3000) {
  1431   000C6A  5166               	movf	Sequenciador_Automatico@estado_timer& (0+255),w,b
  1432   000C6C  6E0A               	movwf	??_Sequenciador_Automatico^0,c
  1433   000C6E  5167               	movf	(Sequenciador_Automatico@estado_timer+1)& (0+255),w,b
  1434   000C70  6E0B               	movwf	(??_Sequenciador_Automatico+1)^0,c
  1435   000C72  4B66               	infsnz	Sequenciador_Automatico@estado_timer& (0+255),f,b
  1436   000C74  2B67               	incf	(Sequenciador_Automatico@estado_timer+1)& (0+255),f,b
  1437   000C76  0EB8               	movlw	184
  1438   000C78  5C0A               	subwf	??_Sequenciador_Automatico^0,w,c
  1439   000C7A  0E0B               	movlw	11
  1440   000C7C  580B               	subwfb	(??_Sequenciador_Automatico+1)^0,w,c
  1441   000C7E  A0D8               	btfss	status,0,c
  1442   000C80  EF44  F006         	goto	u2451
  1443   000C84  EF46  F006         	goto	u2450
  1444   000C88                     u2451:
  1445   000C88  EF51  F007         	goto	l168
  1446   000C8C                     u2450:
  1447   000C8C                     
  1448                           ; BSR set to: 0
  1449                           ;main_piee2.c: 296:                 estado = 1;
  1450   000C8C  0E01               	movlw	1
  1451   000C8E  6F71               	movwf	Sequenciador_Automatico@estado& (0+255),b
  1452                           
  1453                           ;main_piee2.c: 297:                 estado_timer = 0;
  1454   000C90  0E00               	movlw	0
  1455   000C92  6F67               	movwf	(Sequenciador_Automatico@estado_timer+1)& (0+255),b
  1456   000C94  0E00               	movlw	0
  1457   000C96  6F66               	movwf	Sequenciador_Automatico@estado_timer& (0+255),b
  1458                           
  1459                           ;main_piee2.c: 298:                 valvula_atual = 0;
  1460   000C98  0E00               	movlw	0
  1461   000C9A  6F72               	movwf	Sequenciador_Automatico@valvula_atual& (0+255),b
  1462                           
  1463                           ;main_piee2.c: 299:                 ciclo_em_andamento = 1;
  1464   000C9C  0E01               	movlw	1
  1465   000C9E  6F75               	movwf	_ciclo_em_andamento& (0+255),b
  1466   000CA0                     
  1467                           ; BSR set to: 0
  1468                           ;main_piee2.c: 300:                 LATD3 = 1;
  1469   000CA0  868C               	bsf	3980,3,c	;volatile
  1470   000CA2                     
  1471                           ; BSR set to: 0
  1472                           ;main_piee2.c: 301:                 contador_ciclos++;
  1473   000CA2  4B6E               	infsnz	_contador_ciclos& (0+255),f,b
  1474   000CA4  2B6F               	incf	(_contador_ciclos+1)& (0+255),f,b
  1475   000CA6                     
  1476                           ; BSR set to: 0
  1477                           ;main_piee2.c: 302:                 Salvar_Contador_EEPROM();
  1478   000CA6  EC31  F012         	call	_Salvar_Contador_EEPROM	;wreg free
  1479   000CAA  EF51  F007         	goto	l168
  1480   000CAE                     l175:
  1481                           
  1482                           ; BSR set to: 0
  1483   000CAE  808B               	bsf	3979,0,c	;volatile
  1484   000CB0  EF96  F006         	goto	l3126
  1485   000CB4                     l177:
  1486                           
  1487                           ; BSR set to: 0
  1488   000CB4  828B               	bsf	3979,1,c	;volatile
  1489   000CB6  EF96  F006         	goto	l3126
  1490   000CBA                     l178:
  1491                           
  1492                           ; BSR set to: 0
  1493   000CBA  848B               	bsf	3979,2,c	;volatile
  1494   000CBC  EF96  F006         	goto	l3126
  1495   000CC0                     l181:
  1496                           
  1497                           ; BSR set to: 0
  1498   000CC0  8C8B               	bsf	3979,6,c	;volatile
  1499   000CC2  EF96  F006         	goto	l3126
  1500   000CC6                     l182:
  1501                           
  1502                           ; BSR set to: 0
  1503   000CC6  8E8B               	bsf	3979,7,c	;volatile
  1504   000CC8  EF96  F006         	goto	l3126
  1505   000CCC                     l183:
  1506                           
  1507                           ; BSR set to: 0
  1508   000CCC  8E8C               	bsf	3980,7,c	;volatile
  1509   000CCE  EF96  F006         	goto	l3126
  1510   000CD2                     l3124:
  1511                           
  1512                           ; BSR set to: 0
  1513   000CD2  5172               	movf	Sequenciador_Automatico@valvula_atual& (0+255),w,b
  1514   000CD4  6E0A               	movwf	??_Sequenciador_Automatico^0,c
  1515   000CD6  6A0B               	clrf	(??_Sequenciador_Automatico+1)^0,c
  1516                           
  1517                           ; Switch on 2 bytes has been partitioned into a top level switch of size 1, and 1 sub-sw
      +                          itches
  1518                           ; Switch size 1, requested type "simple"
  1519                           ; Number of cases is 1, Range of values is 0 to 0
  1520                           ; switch strategies available:
  1521                           ; Name         Instructions Cycles
  1522                           ; simple_byte            4     3 (average)
  1523                           ;	Chosen strategy is simple_byte
  1524   000CD8  500B               	movf	(??_Sequenciador_Automatico+1)^0,w,c
  1525   000CDA  0A00               	xorlw	0	; case 0
  1526   000CDC  B4D8               	btfsc	status,2,c
  1527   000CDE  EF73  F006         	goto	l3462
  1528   000CE2  EF96  F006         	goto	l3126
  1529   000CE6                     l3462:
  1530                           
  1531                           ; BSR set to: 0
  1532                           ; Switch size 1, requested type "simple"
  1533                           ; Number of cases is 8, Range of values is 0 to 7
  1534                           ; switch strategies available:
  1535                           ; Name         Instructions Cycles
  1536                           ; simple_byte           25    13 (average)
  1537                           ;	Chosen strategy is simple_byte
  1538   000CE6  500A               	movf	??_Sequenciador_Automatico^0,w,c
  1539   000CE8  0A00               	xorlw	0	; case 0
  1540   000CEA  B4D8               	btfsc	status,2,c
  1541   000CEC  EF57  F006         	goto	l175
  1542   000CF0  0A01               	xorlw	1	; case 1
  1543   000CF2  B4D8               	btfsc	status,2,c
  1544   000CF4  EF5A  F006         	goto	l177
  1545   000CF8  0A03               	xorlw	3	; case 2
  1546   000CFA  B4D8               	btfsc	status,2,c
  1547   000CFC  EF5D  F006         	goto	l178
  1548   000D00  0A01               	xorlw	1	; case 3
  1549   000D02  B4D8               	btfsc	status,2,c
  1550   000D04  EF5D  F006         	goto	l178
  1551   000D08  0A07               	xorlw	7	; case 4
  1552   000D0A  B4D8               	btfsc	status,2,c
  1553   000D0C  EF5D  F006         	goto	l178
  1554   000D10  0A01               	xorlw	1	; case 5
  1555   000D12  B4D8               	btfsc	status,2,c
  1556   000D14  EF60  F006         	goto	l181
  1557   000D18  0A03               	xorlw	3	; case 6
  1558   000D1A  B4D8               	btfsc	status,2,c
  1559   000D1C  EF63  F006         	goto	l182
  1560   000D20  0A01               	xorlw	1	; case 7
  1561   000D22  B4D8               	btfsc	status,2,c
  1562   000D24  EF66  F006         	goto	l183
  1563   000D28  EF96  F006         	goto	l3126
  1564   000D2C                     l3126:
  1565                           
  1566                           ; BSR set to: 0
  1567                           ;main_piee2.c: 319:             if(estado_timer++ >= 200) {
  1568   000D2C  5166               	movf	Sequenciador_Automatico@estado_timer& (0+255),w,b
  1569   000D2E  6E0A               	movwf	??_Sequenciador_Automatico^0,c
  1570   000D30  5167               	movf	(Sequenciador_Automatico@estado_timer+1)& (0+255),w,b
  1571   000D32  6E0B               	movwf	(??_Sequenciador_Automatico+1)^0,c
  1572   000D34  4B66               	infsnz	Sequenciador_Automatico@estado_timer& (0+255),f,b
  1573   000D36  2B67               	incf	(Sequenciador_Automatico@estado_timer+1)& (0+255),f,b
  1574   000D38  500B               	movf	(??_Sequenciador_Automatico+1)^0,w,c
  1575   000D3A  E109               	bnz	u2460
  1576   000D3C  0EC8               	movlw	200
  1577   000D3E  5C0A               	subwf	??_Sequenciador_Automatico^0,w,c
  1578   000D40  A0D8               	btfss	status,0,c
  1579   000D42  EFA5  F006         	goto	u2461
  1580   000D46  EFA7  F006         	goto	u2460
  1581   000D4A                     u2461:
  1582   000D4A  EF51  F007         	goto	l168
  1583   000D4E                     u2460:
  1584   000D4E  EFBB  F006         	goto	l3132
  1585   000D52                     l186:
  1586                           
  1587                           ; BSR set to: 0
  1588   000D52  908B               	bcf	3979,0,c	;volatile
  1589   000D54  EFE8  F006         	goto	l3134
  1590   000D58                     l188:
  1591                           
  1592                           ; BSR set to: 0
  1593   000D58  928B               	bcf	3979,1,c	;volatile
  1594   000D5A  EFE8  F006         	goto	l3134
  1595   000D5E                     l189:
  1596                           
  1597                           ; BSR set to: 0
  1598   000D5E  948B               	bcf	3979,2,c	;volatile
  1599   000D60  EFE8  F006         	goto	l3134
  1600   000D64                     l192:
  1601                           
  1602                           ; BSR set to: 0
  1603   000D64  9C8B               	bcf	3979,6,c	;volatile
  1604   000D66  EFE8  F006         	goto	l3134
  1605   000D6A                     l193:
  1606                           
  1607                           ; BSR set to: 0
  1608   000D6A  9E8B               	bcf	3979,7,c	;volatile
  1609   000D6C  EFE8  F006         	goto	l3134
  1610   000D70                     l194:
  1611                           
  1612                           ; BSR set to: 0
  1613   000D70  9E8C               	bcf	3980,7,c	;volatile
  1614   000D72  EFE8  F006         	goto	l3134
  1615   000D76                     l3132:
  1616                           
  1617                           ; BSR set to: 0
  1618   000D76  5172               	movf	Sequenciador_Automatico@valvula_atual& (0+255),w,b
  1619   000D78  6E0A               	movwf	??_Sequenciador_Automatico^0,c
  1620   000D7A  6A0B               	clrf	(??_Sequenciador_Automatico+1)^0,c
  1621                           
  1622                           ; Switch on 2 bytes has been partitioned into a top level switch of size 1, and 1 sub-sw
      +                          itches
  1623                           ; Switch size 1, requested type "simple"
  1624                           ; Number of cases is 1, Range of values is 0 to 0
  1625                           ; switch strategies available:
  1626                           ; Name         Instructions Cycles
  1627                           ; simple_byte            4     3 (average)
  1628                           ;	Chosen strategy is simple_byte
  1629   000D7C  500B               	movf	(??_Sequenciador_Automatico+1)^0,w,c
  1630   000D7E  0A00               	xorlw	0	; case 0
  1631   000D80  B4D8               	btfsc	status,2,c
  1632   000D82  EFC5  F006         	goto	l3464
  1633   000D86  EFE8  F006         	goto	l3134
  1634   000D8A                     l3464:
  1635                           
  1636                           ; BSR set to: 0
  1637                           ; Switch size 1, requested type "simple"
  1638                           ; Number of cases is 8, Range of values is 0 to 7
  1639                           ; switch strategies available:
  1640                           ; Name         Instructions Cycles
  1641                           ; simple_byte           25    13 (average)
  1642                           ;	Chosen strategy is simple_byte
  1643   000D8A  500A               	movf	??_Sequenciador_Automatico^0,w,c
  1644   000D8C  0A00               	xorlw	0	; case 0
  1645   000D8E  B4D8               	btfsc	status,2,c
  1646   000D90  EFA9  F006         	goto	l186
  1647   000D94  0A01               	xorlw	1	; case 1
  1648   000D96  B4D8               	btfsc	status,2,c
  1649   000D98  EFAC  F006         	goto	l188
  1650   000D9C  0A03               	xorlw	3	; case 2
  1651   000D9E  B4D8               	btfsc	status,2,c
  1652   000DA0  EFAF  F006         	goto	l189
  1653   000DA4  0A01               	xorlw	1	; case 3
  1654   000DA6  B4D8               	btfsc	status,2,c
  1655   000DA8  EFAF  F006         	goto	l189
  1656   000DAC  0A07               	xorlw	7	; case 4
  1657   000DAE  B4D8               	btfsc	status,2,c
  1658   000DB0  EFAF  F006         	goto	l189
  1659   000DB4  0A01               	xorlw	1	; case 5
  1660   000DB6  B4D8               	btfsc	status,2,c
  1661   000DB8  EFB2  F006         	goto	l192
  1662   000DBC  0A03               	xorlw	3	; case 6
  1663   000DBE  B4D8               	btfsc	status,2,c
  1664   000DC0  EFB5  F006         	goto	l193
  1665   000DC4  0A01               	xorlw	1	; case 7
  1666   000DC6  B4D8               	btfsc	status,2,c
  1667   000DC8  EFB8  F006         	goto	l194
  1668   000DCC  EFE8  F006         	goto	l3134
  1669   000DD0                     l3134:
  1670                           
  1671                           ; BSR set to: 0
  1672                           ;main_piee2.c: 332:                 estado = 2;
  1673   000DD0  0E02               	movlw	2
  1674   000DD2  6F71               	movwf	Sequenciador_Automatico@estado& (0+255),b
  1675                           
  1676                           ;main_piee2.c: 333:                 estado_timer = 0;
  1677   000DD4  0E00               	movlw	0
  1678   000DD6  6F67               	movwf	(Sequenciador_Automatico@estado_timer+1)& (0+255),b
  1679   000DD8  0E00               	movlw	0
  1680   000DDA  6F66               	movwf	Sequenciador_Automatico@estado_timer& (0+255),b
  1681   000DDC  EF51  F007         	goto	l168
  1682   000DE0                     l3136:
  1683                           
  1684                           ; BSR set to: 0
  1685                           ;main_piee2.c: 338:             if(estado_timer++ >= 500) {
  1686   000DE0  5166               	movf	Sequenciador_Automatico@estado_timer& (0+255),w,b
  1687   000DE2  6E0A               	movwf	??_Sequenciador_Automatico^0,c
  1688   000DE4  5167               	movf	(Sequenciador_Automatico@estado_timer+1)& (0+255),w,b
  1689   000DE6  6E0B               	movwf	(??_Sequenciador_Automatico+1)^0,c
  1690   000DE8  4B66               	infsnz	Sequenciador_Automatico@estado_timer& (0+255),f,b
  1691   000DEA  2B67               	incf	(Sequenciador_Automatico@estado_timer+1)& (0+255),f,b
  1692   000DEC  0EF4               	movlw	244
  1693   000DEE  5C0A               	subwf	??_Sequenciador_Automatico^0,w,c
  1694   000DF0  0E01               	movlw	1
  1695   000DF2  580B               	subwfb	(??_Sequenciador_Automatico+1)^0,w,c
  1696   000DF4  A0D8               	btfss	status,0,c
  1697   000DF6  EFFF  F006         	goto	u2471
  1698   000DFA  EF01  F007         	goto	u2470
  1699   000DFE                     u2471:
  1700   000DFE  EF51  F007         	goto	l168
  1701   000E02                     u2470:
  1702   000E02                     
  1703                           ; BSR set to: 0
  1704                           ;main_piee2.c: 339:                 estado = 1;
  1705   000E02  0E01               	movlw	1
  1706   000E04  6F71               	movwf	Sequenciador_Automatico@estado& (0+255),b
  1707                           
  1708                           ;main_piee2.c: 340:                 estado_timer = 0;
  1709   000E06  0E00               	movlw	0
  1710   000E08  6F67               	movwf	(Sequenciador_Automatico@estado_timer+1)& (0+255),b
  1711   000E0A  0E00               	movlw	0
  1712   000E0C  6F66               	movwf	Sequenciador_Automatico@estado_timer& (0+255),b
  1713   000E0E                     
  1714                           ; BSR set to: 0
  1715                           ;main_piee2.c: 341:                 valvula_atual++;
  1716   000E0E  2B72               	incf	Sequenciador_Automatico@valvula_atual& (0+255),f,b
  1717   000E10                     
  1718                           ; BSR set to: 0
  1719                           ;main_piee2.c: 343:                 if(valvula_atual >= 8) {
  1720   000E10  0E07               	movlw	7
  1721   000E12  6572               	cpfsgt	Sequenciador_Automatico@valvula_atual& (0+255),b
  1722   000E14  EF0E  F007         	goto	u2481
  1723   000E18  EF10  F007         	goto	u2480
  1724   000E1C                     u2481:
  1725   000E1C  EF51  F007         	goto	l168
  1726   000E20                     u2480:
  1727   000E20                     
  1728                           ; BSR set to: 0
  1729                           ;main_piee2.c: 344:                     estado = 3;
  1730   000E20  0E03               	movlw	3
  1731   000E22  6F71               	movwf	Sequenciador_Automatico@estado& (0+255),b
  1732                           
  1733                           ;main_piee2.c: 345:                     estado_timer = 0;
  1734   000E24  0E00               	movlw	0
  1735   000E26  6F67               	movwf	(Sequenciador_Automatico@estado_timer+1)& (0+255),b
  1736   000E28  0E00               	movlw	0
  1737   000E2A  6F66               	movwf	Sequenciador_Automatico@estado_timer& (0+255),b
  1738                           
  1739                           ;main_piee2.c: 346:                     ciclo_em_andamento = 0;
  1740   000E2C  0E00               	movlw	0
  1741   000E2E  6F75               	movwf	_ciclo_em_andamento& (0+255),b
  1742   000E30                     
  1743                           ; BSR set to: 0
  1744                           ;main_piee2.c: 347:                     LATD3 = 0;
  1745   000E30  968C               	bcf	3980,3,c	;volatile
  1746   000E32  EF51  F007         	goto	l168
  1747   000E36                     l3148:
  1748                           
  1749                           ; BSR set to: 0
  1750                           ;main_piee2.c: 353:             if(estado_timer++ >= 100) {
  1751   000E36  5166               	movf	Sequenciador_Automatico@estado_timer& (0+255),w,b
  1752   000E38  6E0A               	movwf	??_Sequenciador_Automatico^0,c
  1753   000E3A  5167               	movf	(Sequenciador_Automatico@estado_timer+1)& (0+255),w,b
  1754   000E3C  6E0B               	movwf	(??_Sequenciador_Automatico+1)^0,c
  1755   000E3E  4B66               	infsnz	Sequenciador_Automatico@estado_timer& (0+255),f,b
  1756   000E40  2B67               	incf	(Sequenciador_Automatico@estado_timer+1)& (0+255),f,b
  1757   000E42  500B               	movf	(??_Sequenciador_Automatico+1)^0,w,c
  1758   000E44  E109               	bnz	u2490
  1759   000E46  0E64               	movlw	100
  1760   000E48  5C0A               	subwf	??_Sequenciador_Automatico^0,w,c
  1761   000E4A  A0D8               	btfss	status,0,c
  1762   000E4C  EF2A  F007         	goto	u2491
  1763   000E50  EF2C  F007         	goto	u2490
  1764   000E54                     u2491:
  1765   000E54  EF51  F007         	goto	l168
  1766   000E58                     u2490:
  1767   000E58                     
  1768                           ; BSR set to: 0
  1769                           ;main_piee2.c: 354:                 estado = 0;
  1770   000E58  0E00               	movlw	0
  1771   000E5A  6F71               	movwf	Sequenciador_Automatico@estado& (0+255),b
  1772                           
  1773                           ;main_piee2.c: 355:                 estado_timer = 0;
  1774   000E5C  0E00               	movlw	0
  1775   000E5E  6F67               	movwf	(Sequenciador_Automatico@estado_timer+1)& (0+255),b
  1776   000E60  0E00               	movlw	0
  1777   000E62  6F66               	movwf	Sequenciador_Automatico@estado_timer& (0+255),b
  1778   000E64  EF51  F007         	goto	l168
  1779   000E68                     l3154:
  1780                           
  1781                           ; BSR set to: 0
  1782   000E68  5171               	movf	Sequenciador_Automatico@estado& (0+255),w,b
  1783   000E6A  6E0A               	movwf	??_Sequenciador_Automatico^0,c
  1784   000E6C  6A0B               	clrf	(??_Sequenciador_Automatico+1)^0,c
  1785                           
  1786                           ; Switch on 2 bytes has been partitioned into a top level switch of size 1, and 1 sub-sw
      +                          itches
  1787                           ; Switch size 1, requested type "simple"
  1788                           ; Number of cases is 1, Range of values is 0 to 0
  1789                           ; switch strategies available:
  1790                           ; Name         Instructions Cycles
  1791                           ; simple_byte            4     3 (average)
  1792                           ;	Chosen strategy is simple_byte
  1793   000E6E  500B               	movf	(??_Sequenciador_Automatico+1)^0,w,c
  1794   000E70  0A00               	xorlw	0	; case 0
  1795   000E72  B4D8               	btfsc	status,2,c
  1796   000E74  EF3E  F007         	goto	l3466
  1797   000E78  EF51  F007         	goto	l168
  1798   000E7C                     l3466:
  1799                           
  1800                           ; BSR set to: 0
  1801                           ; Switch size 1, requested type "simple"
  1802                           ; Number of cases is 4, Range of values is 0 to 3
  1803                           ; switch strategies available:
  1804                           ; Name         Instructions Cycles
  1805                           ; simple_byte           13     7 (average)
  1806                           ;	Chosen strategy is simple_byte
  1807   000E7C  500A               	movf	??_Sequenciador_Automatico^0,w,c
  1808   000E7E  0A00               	xorlw	0	; case 0
  1809   000E80  B4D8               	btfsc	status,2,c
  1810   000E82  EF32  F006         	goto	l3108
  1811   000E86  0A01               	xorlw	1	; case 1
  1812   000E88  B4D8               	btfsc	status,2,c
  1813   000E8A  EF69  F006         	goto	l3124
  1814   000E8E  0A03               	xorlw	3	; case 2
  1815   000E90  B4D8               	btfsc	status,2,c
  1816   000E92  EFF0  F006         	goto	l3136
  1817   000E96  0A01               	xorlw	1	; case 3
  1818   000E98  B4D8               	btfsc	status,2,c
  1819   000E9A  EF1B  F007         	goto	l3148
  1820   000E9E  EF51  F007         	goto	l168
  1821   000EA2                     l168:
  1822   000EA2  0012               	return		;funcret
  1823   000EA4                     __end_of_Sequenciador_Automatico:
  1824                           	callstack 0
  1825                           
  1826 ;; *************** function _Salvar_Contador_EEPROM *****************
  1827 ;; Defined at:
  1828 ;;		line 452 in file "main_piee2.c"
  1829 ;; Parameters:    Size  Location     Type
  1830 ;;		None
  1831 ;; Auto vars:     Size  Location     Type
  1832 ;;		None
  1833 ;; Return value:  Size  Location     Type
  1834 ;;                  1    wreg      void 
  1835 ;; Registers used:
  1836 ;;		wreg, status,2, status,0, cstack
  1837 ;; Tracked objects:
  1838 ;;		On entry : 0/0
  1839 ;;		On exit  : 0/0
  1840 ;;		Unchanged: 0/0
  1841 ;; Data sizes:     COMRAM   BANK0   BANK1   BANK2   BANK3   BANK4   BANK5   BANK6   BANK7
  1842 ;;      Params:         0       0       0       0       0       0       0       0       0
  1843 ;;      Locals:         0       0       0       0       0       0       0       0       0
  1844 ;;      Temps:          0       0       0       0       0       0       0       0       0
  1845 ;;      Totals:         0       0       0       0       0       0       0       0       0
  1846 ;;Total ram usage:        0 bytes
  1847 ;; Hardware stack levels used: 1
  1848 ;; Hardware stack levels required when called: 3
  1849 ;; This function calls:
  1850 ;;		_Escrever_EEPROM
  1851 ;; This function is called by:
  1852 ;;		_main
  1853 ;;		_Sequenciador_Automatico
  1854 ;; This function uses a non-reentrant model
  1855 ;;
  1856                           
  1857                           	psect	text3
  1858   002462                     __ptext3:
  1859                           	callstack 0
  1860   002462                     _Salvar_Contador_EEPROM:
  1861                           	callstack 26
  1862   002462                     
  1863                           ;main_piee2.c: 453:     Escrever_EEPROM(0x0000, (contador_ciclos >> 8) & 0xFF);
  1864   002462  0E00               	movlw	0
  1865   002464  6E08               	movwf	(Escrever_EEPROM@endereco+1)^0,c
  1866   002466  0E00               	movlw	0
  1867   002468  6E07               	movwf	Escrever_EEPROM@endereco^0,c
  1868   00246A  0100               	movlb	0	; () banked
  1869   00246C  516F               	movf	(_contador_ciclos+1)& (0+255),w,b
  1870   00246E  6E09               	movwf	Escrever_EEPROM@dado^0,c
  1871   002470  ECF2  F011         	call	_Escrever_EEPROM	;wreg free
  1872                           
  1873                           ;main_piee2.c: 454:     Escrever_EEPROM(0x0000 + 1, contador_ciclos & 0xFF);
  1874   002474  0E00               	movlw	0
  1875   002476  6E08               	movwf	(Escrever_EEPROM@endereco+1)^0,c
  1876   002478  0E01               	movlw	1
  1877   00247A  6E07               	movwf	Escrever_EEPROM@endereco^0,c
  1878   00247C  C06E  F009         	movff	_contador_ciclos,Escrever_EEPROM@dado
  1879   002480  ECF2  F011         	call	_Escrever_EEPROM	;wreg free
  1880   002484  0012               	return		;funcret
  1881   002486                     __end_of_Salvar_Contador_EEPROM:
  1882                           	callstack 0
  1883                           
  1884 ;; *************** function _Escrever_EEPROM *****************
  1885 ;; Defined at:
  1886 ;;		line 435 in file "main_piee2.c"
  1887 ;; Parameters:    Size  Location     Type
  1888 ;;  endereco        2    6[COMRAM] unsigned short 
  1889 ;;  dado            1    8[COMRAM] unsigned char 
  1890 ;; Auto vars:     Size  Location     Type
  1891 ;;		None
  1892 ;; Return value:  Size  Location     Type
  1893 ;;                  1    wreg      void 
  1894 ;; Registers used:
  1895 ;;		wreg, status,2, status,0, cstack
  1896 ;; Tracked objects:
  1897 ;;		On entry : 0/0
  1898 ;;		On exit  : 0/0
  1899 ;;		Unchanged: 0/0
  1900 ;; Data sizes:     COMRAM   BANK0   BANK1   BANK2   BANK3   BANK4   BANK5   BANK6   BANK7
  1901 ;;      Params:         3       0       0       0       0       0       0       0       0
  1902 ;;      Locals:         0       0       0       0       0       0       0       0       0
  1903 ;;      Temps:          0       0       0       0       0       0       0       0       0
  1904 ;;      Totals:         3       0       0       0       0       0       0       0       0
  1905 ;;Total ram usage:        3 bytes
  1906 ;; Hardware stack levels used: 1
  1907 ;; Hardware stack levels required when called: 2
  1908 ;; This function calls:
  1909 ;;		_I2C_Start
  1910 ;;		_I2C_Stop
  1911 ;;		_I2C_Write
  1912 ;;		_MSdelay
  1913 ;; This function is called by:
  1914 ;;		_Salvar_Contador_EEPROM
  1915 ;; This function uses a non-reentrant model
  1916 ;;
  1917                           
  1918                           	psect	text4
  1919   0023E4                     __ptext4:
  1920                           	callstack 0
  1921   0023E4                     _Escrever_EEPROM:
  1922                           	callstack 26
  1923   0023E4                     
  1924                           ;main_piee2.c: 436:     I2C_Start();
  1925   0023E4  EC92  F012         	call	_I2C_Start	;wreg free
  1926   0023E8                     
  1927                           ;main_piee2.c: 437:     I2C_Write(0xA0);
  1928   0023E8  0EA0               	movlw	160
  1929   0023EA  EC53  F012         	call	_I2C_Write
  1930   0023EE                     
  1931                           ;main_piee2.c: 438:     I2C_Write((endereco >> 8) & 0xFF);
  1932   0023EE  5008               	movf	(Escrever_EEPROM@endereco+1)^0,w,c
  1933   0023F0  EC53  F012         	call	_I2C_Write
  1934   0023F4                     
  1935                           ;main_piee2.c: 439:     I2C_Write(endereco & 0xFF);
  1936   0023F4  5007               	movf	Escrever_EEPROM@endereco^0,w,c
  1937   0023F6  EC53  F012         	call	_I2C_Write
  1938   0023FA                     
  1939                           ;main_piee2.c: 440:     I2C_Write(dado);
  1940   0023FA  5009               	movf	Escrever_EEPROM@dado^0,w,c
  1941   0023FC  EC53  F012         	call	_I2C_Write
  1942   002400                     
  1943                           ;main_piee2.c: 441:     I2C_Stop();
  1944   002400  EC89  F012         	call	_I2C_Stop	;wreg free
  1945   002404                     
  1946                           ;main_piee2.c: 443:     MSdelay(10);
  1947   002404  0E00               	movlw	0
  1948   002406  6E02               	movwf	(MSdelay@val+1)^0,c
  1949   002408  0E0A               	movlw	10
  1950   00240A  6E01               	movwf	MSdelay@val^0,c
  1951   00240C  ECC4  F010         	call	_MSdelay	;wreg free
  1952   002410  0012               	return		;funcret
  1953   002412                     __end_of_Escrever_EEPROM:
  1954                           	callstack 0
  1955                           
  1956 ;; *************** function _RTC_Init *****************
  1957 ;; Defined at:
  1958 ;;		line 458 in file "main_piee2.c"
  1959 ;; Parameters:    Size  Location     Type
  1960 ;;		None
  1961 ;; Auto vars:     Size  Location     Type
  1962 ;;		None
  1963 ;; Return value:  Size  Location     Type
  1964 ;;                  1    wreg      void 
  1965 ;; Registers used:
  1966 ;;		wreg, status,2, cstack
  1967 ;; Tracked objects:
  1968 ;;		On entry : 0/0
  1969 ;;		On exit  : 0/0
  1970 ;;		Unchanged: 0/0
  1971 ;; Data sizes:     COMRAM   BANK0   BANK1   BANK2   BANK3   BANK4   BANK5   BANK6   BANK7
  1972 ;;      Params:         0       0       0       0       0       0       0       0       0
  1973 ;;      Locals:         0       0       0       0       0       0       0       0       0
  1974 ;;      Temps:          0       0       0       0       0       0       0       0       0
  1975 ;;      Totals:         0       0       0       0       0       0       0       0       0
  1976 ;;Total ram usage:        0 bytes
  1977 ;; Hardware stack levels used: 1
  1978 ;; Hardware stack levels required when called: 2
  1979 ;; This function calls:
  1980 ;;		_I2C_Init
  1981 ;;		_I2C_Start
  1982 ;;		_I2C_Stop
  1983 ;;		_I2C_Write
  1984 ;; This function is called by:
  1985 ;;		_main
  1986 ;; This function uses a non-reentrant model
  1987 ;;
  1988                           
  1989                           	psect	text5
  1990   002486                     __ptext5:
  1991                           	callstack 0
  1992   002486                     _RTC_Init:
  1993                           	callstack 28
  1994   002486                     
  1995                           ;main_piee2.c: 459:     I2C_Init();
  1996   002486  EC60  F012         	call	_I2C_Init	;wreg free
  1997   00248A                     
  1998                           ;main_piee2.c: 461:     I2C_Start();
  1999   00248A  EC92  F012         	call	_I2C_Start	;wreg free
  2000   00248E                     
  2001                           ;main_piee2.c: 462:     I2C_Write(0xD0);
  2002   00248E  0ED0               	movlw	208
  2003   002490  EC53  F012         	call	_I2C_Write
  2004   002494                     
  2005                           ;main_piee2.c: 463:     I2C_Write(0x07);
  2006   002494  0E07               	movlw	7
  2007   002496  EC53  F012         	call	_I2C_Write
  2008   00249A                     
  2009                           ;main_piee2.c: 464:     I2C_Write(0x00);
  2010   00249A  0E00               	movlw	0
  2011   00249C  EC53  F012         	call	_I2C_Write
  2012   0024A0                     
  2013                           ;main_piee2.c: 465:     I2C_Stop();
  2014   0024A0  EC89  F012         	call	_I2C_Stop	;wreg free
  2015   0024A4  0012               	return		;funcret
  2016   0024A6                     __end_of_RTC_Init:
  2017                           	callstack 0
  2018                           
  2019 ;; *************** function _I2C_Init *****************
  2020 ;; Defined at:
  2021 ;;		line 46 in file "i2c.c"
  2022 ;; Parameters:    Size  Location     Type
  2023 ;;		None
  2024 ;; Auto vars:     Size  Location     Type
  2025 ;;		None
  2026 ;; Return value:  Size  Location     Type
  2027 ;;                  1    wreg      void 
  2028 ;; Registers used:
  2029 ;;		wreg, status,2
  2030 ;; Tracked objects:
  2031 ;;		On entry : 0/0
  2032 ;;		On exit  : 0/0
  2033 ;;		Unchanged: 0/0
  2034 ;; Data sizes:     COMRAM   BANK0   BANK1   BANK2   BANK3   BANK4   BANK5   BANK6   BANK7
  2035 ;;      Params:         0       0       0       0       0       0       0       0       0
  2036 ;;      Locals:         0       0       0       0       0       0       0       0       0
  2037 ;;      Temps:          0       0       0       0       0       0       0       0       0
  2038 ;;      Totals:         0       0       0       0       0       0       0       0       0
  2039 ;;Total ram usage:        0 bytes
  2040 ;; Hardware stack levels used: 1
  2041 ;; This function calls:
  2042 ;;		Nothing
  2043 ;; This function is called by:
  2044 ;;		_main
  2045 ;;		_RTC_Init
  2046 ;; This function uses a non-reentrant model
  2047 ;;
  2048                           
  2049                           	psect	text6
  2050   0024C0                     __ptext6:
  2051                           	callstack 0
  2052   0024C0                     _I2C_Init:
  2053                           	callstack 29
  2054   0024C0                     
  2055                           ;i2c.c: 48:  (TRISBbits.TRISB1) = 0x01u;
  2056   0024C0  8293               	bsf	147,1,c	;volatile
  2057                           
  2058                           ;i2c.c: 49:  (TRISBbits.TRISB0) = 0x01u;
  2059   0024C2  8093               	bsf	147,0,c	;volatile
  2060   0024C4                     
  2061                           ;i2c.c: 51:  SSPSTAT = 0x80;
  2062   0024C4  0E80               	movlw	128
  2063   0024C6  6EC7               	movwf	199,c	;volatile
  2064                           
  2065                           ;i2c.c: 52:  SSPCON1 = 0x28;
  2066   0024C8  0E28               	movlw	40
  2067   0024CA  6EC6               	movwf	198,c	;volatile
  2068                           
  2069                           ;i2c.c: 53:     SSPCON2 = 0x00;
  2070   0024CC  0E00               	movlw	0
  2071   0024CE  6EC5               	movwf	197,c	;volatile
  2072                           
  2073                           ;i2c.c: 59:  SSPADD = 4;
  2074   0024D0  0E04               	movlw	4
  2075   0024D2  6EC8               	movwf	200,c	;volatile
  2076   0024D4  0012               	return		;funcret
  2077   0024D6                     __end_of_I2C_Init:
  2078                           	callstack 0
  2079                           
  2080 ;; *************** function _Modo_Manual *****************
  2081 ;; Defined at:
  2082 ;;		line 362 in file "main_piee2.c"
  2083 ;; Parameters:    Size  Location     Type
  2084 ;;		None
  2085 ;; Auto vars:     Size  Location     Type
  2086 ;;		None
  2087 ;; Return value:  Size  Location     Type
  2088 ;;                  1    wreg      void 
  2089 ;; Registers used:
  2090 ;;		wreg, fsr1l, fsr1h, fsr2l, fsr2h, status,2, status,0, tblptrl, tblptrh, tblptru, prodl, prodh, cstack
  2091 ;; Tracked objects:
  2092 ;;		On entry : 0/0
  2093 ;;		On exit  : 0/0
  2094 ;;		Unchanged: 0/0
  2095 ;; Data sizes:     COMRAM   BANK0   BANK1   BANK2   BANK3   BANK4   BANK5   BANK6   BANK7
  2096 ;;      Params:         0       0       0       0       0       0       0       0       0
  2097 ;;      Locals:         0       0       0       0       0       0       0       0       0
  2098 ;;      Temps:          0       2       0       0       0       0       0       0       0
  2099 ;;      Totals:         0       2       0       0       0       0       0       0       0
  2100 ;;Total ram usage:        2 bytes
  2101 ;; Hardware stack levels used: 1
  2102 ;; Hardware stack levels required when called: 8
  2103 ;; This function calls:
  2104 ;;		_LCD_String_xy
  2105 ;;		_MSdelay
  2106 ;;		_sprintf
  2107 ;; This function is called by:
  2108 ;;		_main
  2109 ;; This function uses a non-reentrant model
  2110 ;;
  2111                           
  2112                           	psect	text7
  2113   000EA4                     __ptext7:
  2114                           	callstack 0
  2115   000EA4                     _Modo_Manual:
  2116                           	callstack 22
  2117   000EA4                     
  2118                           ;main_piee2.c: 363:     static uint8_t last_inc = 1;;main_piee2.c: 364:     static uint8
      +                          _t last_dow = 1;;main_piee2.c: 365:     static uint8_t last_ent = 1;;main_piee2.c: 368: 
      +                              if(PORTAbits.RA3 == 0 && last_inc == 1) {
  2119   000EA4  B680               	btfsc	128,3,c	;volatile
  2120   000EA6  EF57  F007         	goto	u2321
  2121   000EAA  EF59  F007         	goto	u2320
  2122   000EAE                     u2321:
  2123   000EAE  EF7B  F007         	goto	l3018
  2124   000EB2                     u2320:
  2125   000EB2  0100               	movlb	0	; () banked
  2126   000EB4  05B9               	decf	Modo_Manual@last_inc& (0+255),w,b
  2127   000EB6  A4D8               	btfss	status,2,c
  2128   000EB8  EF60  F007         	goto	u2331
  2129   000EBC  EF62  F007         	goto	u2330
  2130   000EC0                     u2331:
  2131   000EC0  EF7B  F007         	goto	l3018
  2132   000EC4                     u2330:
  2133   000EC4                     
  2134                           ; BSR set to: 0
  2135                           ;main_piee2.c: 369:         MSdelay(50);
  2136   000EC4  0E00               	movlw	0
  2137   000EC6  6E02               	movwf	(MSdelay@val+1)^0,c
  2138   000EC8  0E32               	movlw	50
  2139   000ECA  6E01               	movwf	MSdelay@val^0,c
  2140   000ECC  ECC4  F010         	call	_MSdelay	;wreg free
  2141   000ED0                     
  2142                           ;main_piee2.c: 370:         if(PORTAbits.RA3 == 0) {
  2143   000ED0  B680               	btfsc	128,3,c	;volatile
  2144   000ED2  EF6D  F007         	goto	u2341
  2145   000ED6  EF6F  F007         	goto	u2340
  2146   000EDA                     u2341:
  2147   000EDA  EF7B  F007         	goto	l3018
  2148   000EDE                     u2340:
  2149   000EDE                     
  2150                           ;main_piee2.c: 371:             valvula_selecionada++;
  2151   000EDE  0100               	movlb	0	; () banked
  2152   000EE0  2B76               	incf	_valvula_selecionada& (0+255),f,b
  2153   000EE2                     
  2154                           ; BSR set to: 0
  2155                           ;main_piee2.c: 372:             if(valvula_selecionada >= 8) {
  2156   000EE2  0E07               	movlw	7
  2157   000EE4  6576               	cpfsgt	_valvula_selecionada& (0+255),b
  2158   000EE6  EF77  F007         	goto	u2351
  2159   000EEA  EF79  F007         	goto	u2350
  2160   000EEE                     u2351:
  2161   000EEE  EF7B  F007         	goto	l3018
  2162   000EF2                     u2350:
  2163   000EF2                     
  2164                           ; BSR set to: 0
  2165                           ;main_piee2.c: 373:                 valvula_selecionada = 0;
  2166   000EF2  0E00               	movlw	0
  2167   000EF4  6F76               	movwf	_valvula_selecionada& (0+255),b
  2168   000EF6                     l3018:
  2169                           
  2170                           ;main_piee2.c: 377:     last_inc = PORTAbits.RA3;
  2171   000EF6  0E00               	movlw	0
  2172   000EF8  B680               	btfsc	128,3,c	;volatile
  2173   000EFA  0E01               	movlw	1
  2174   000EFC  0100               	movlb	0	; () banked
  2175   000EFE  6FB9               	movwf	Modo_Manual@last_inc& (0+255),b
  2176   000F00                     
  2177                           ; BSR set to: 0
  2178                           ;main_piee2.c: 379:     if(PORTAbits.RA4 == 0 && last_dow == 1) {
  2179   000F00  B880               	btfsc	128,4,c	;volatile
  2180   000F02  EF85  F007         	goto	u2361
  2181   000F06  EF87  F007         	goto	u2360
  2182   000F0A                     u2361:
  2183   000F0A  EFAA  F007         	goto	l3034
  2184   000F0E                     u2360:
  2185   000F0E                     
  2186                           ; BSR set to: 0
  2187   000F0E  05B8               	decf	Modo_Manual@last_dow& (0+255),w,b
  2188   000F10  A4D8               	btfss	status,2,c
  2189   000F12  EF8D  F007         	goto	u2371
  2190   000F16  EF8F  F007         	goto	u2370
  2191   000F1A                     u2371:
  2192   000F1A  EFAA  F007         	goto	l3034
  2193   000F1E                     u2370:
  2194   000F1E                     
  2195                           ; BSR set to: 0
  2196                           ;main_piee2.c: 380:         MSdelay(50);
  2197   000F1E  0E00               	movlw	0
  2198   000F20  6E02               	movwf	(MSdelay@val+1)^0,c
  2199   000F22  0E32               	movlw	50
  2200   000F24  6E01               	movwf	MSdelay@val^0,c
  2201   000F26  ECC4  F010         	call	_MSdelay	;wreg free
  2202   000F2A                     
  2203                           ;main_piee2.c: 381:         if(PORTAbits.RA4 == 0) {
  2204   000F2A  B880               	btfsc	128,4,c	;volatile
  2205   000F2C  EF9A  F007         	goto	u2381
  2206   000F30  EF9C  F007         	goto	u2380
  2207   000F34                     u2381:
  2208   000F34  EFAA  F007         	goto	l3034
  2209   000F38                     u2380:
  2210   000F38                     
  2211                           ;main_piee2.c: 382:             if(valvula_selecionada == 0) {
  2212   000F38  0100               	movlb	0	; () banked
  2213   000F3A  5176               	movf	_valvula_selecionada& (0+255),w,b
  2214   000F3C  A4D8               	btfss	status,2,c
  2215   000F3E  EFA3  F007         	goto	u2391
  2216   000F42  EFA5  F007         	goto	u2390
  2217   000F46                     u2391:
  2218   000F46  EFA9  F007         	goto	l3032
  2219   000F4A                     u2390:
  2220   000F4A                     
  2221                           ; BSR set to: 0
  2222                           ;main_piee2.c: 383:                 valvula_selecionada = 8 - 1;
  2223   000F4A  0E07               	movlw	7
  2224   000F4C  6F76               	movwf	_valvula_selecionada& (0+255),b
  2225                           
  2226                           ;main_piee2.c: 384:             } else {
  2227   000F4E  EFAA  F007         	goto	l3034
  2228   000F52                     l3032:
  2229                           
  2230                           ; BSR set to: 0
  2231                           ;main_piee2.c: 385:                 valvula_selecionada--;
  2232   000F52  0776               	decf	_valvula_selecionada& (0+255),f,b
  2233   000F54                     l3034:
  2234                           
  2235                           ;main_piee2.c: 389:     last_dow = PORTAbits.RA4;
  2236   000F54  0E00               	movlw	0
  2237   000F56  B880               	btfsc	128,4,c	;volatile
  2238   000F58  0E01               	movlw	1
  2239   000F5A  0100               	movlb	0	; () banked
  2240   000F5C  6FB8               	movwf	Modo_Manual@last_dow& (0+255),b
  2241   000F5E                     
  2242                           ; BSR set to: 0
  2243                           ;main_piee2.c: 392:     if(PORTAbits.RA5 == 0 && last_ent == 1) {
  2244   000F5E  BA80               	btfsc	128,5,c	;volatile
  2245   000F60  EFB4  F007         	goto	u2401
  2246   000F64  EFB6  F007         	goto	u2400
  2247   000F68                     u2401:
  2248   000F68  EF37  F008         	goto	l3082
  2249   000F6C                     u2400:
  2250   000F6C                     
  2251                           ; BSR set to: 0
  2252   000F6C  05B7               	decf	Modo_Manual@last_ent& (0+255),w,b
  2253   000F6E  A4D8               	btfss	status,2,c
  2254   000F70  EFBC  F007         	goto	u2411
  2255   000F74  EFBE  F007         	goto	u2410
  2256   000F78                     u2411:
  2257   000F78  EF37  F008         	goto	l3082
  2258   000F7C                     u2410:
  2259   000F7C                     
  2260                           ; BSR set to: 0
  2261                           ;main_piee2.c: 393:         MSdelay(50);
  2262   000F7C  0E00               	movlw	0
  2263   000F7E  6E02               	movwf	(MSdelay@val+1)^0,c
  2264   000F80  0E32               	movlw	50
  2265   000F82  6E01               	movwf	MSdelay@val^0,c
  2266   000F84  ECC4  F010         	call	_MSdelay	;wreg free
  2267   000F88                     
  2268                           ;main_piee2.c: 394:         if(PORTAbits.RA5 == 0) {
  2269   000F88  BA80               	btfsc	128,5,c	;volatile
  2270   000F8A  EFC9  F007         	goto	u2421
  2271   000F8E  EFCB  F007         	goto	u2420
  2272   000F92                     u2421:
  2273   000F92  EF37  F008         	goto	l3082
  2274   000F96                     u2420:
  2275   000F96  EF09  F008         	goto	l3080
  2276   000F9A                     l218:
  2277                           
  2278                           ; BSR set to: 0
  2279   000F9A  808B               	bsf	3979,0,c	;volatile
  2280   000F9C                     
  2281                           ; BSR set to: 0
  2282   000F9C  0E07               	movlw	7
  2283   000F9E  6E02               	movwf	(MSdelay@val+1)^0,c
  2284   000FA0  0ED0               	movlw	208
  2285   000FA2  6E01               	movwf	MSdelay@val^0,c
  2286   000FA4  ECC4  F010         	call	_MSdelay	;wreg free
  2287   000FA8  908B               	bcf	3979,0,c	;volatile
  2288   000FAA  EF37  F008         	goto	l3082
  2289   000FAE                     l220:
  2290                           
  2291                           ; BSR set to: 0
  2292   000FAE  828B               	bsf	3979,1,c	;volatile
  2293   000FB0                     
  2294                           ; BSR set to: 0
  2295   000FB0  0E07               	movlw	7
  2296   000FB2  6E02               	movwf	(MSdelay@val+1)^0,c
  2297   000FB4  0ED0               	movlw	208
  2298   000FB6  6E01               	movwf	MSdelay@val^0,c
  2299   000FB8  ECC4  F010         	call	_MSdelay	;wreg free
  2300   000FBC  928B               	bcf	3979,1,c	;volatile
  2301   000FBE  EF37  F008         	goto	l3082
  2302   000FC2                     l221:
  2303                           
  2304                           ; BSR set to: 0
  2305   000FC2  848B               	bsf	3979,2,c	;volatile
  2306   000FC4                     
  2307                           ; BSR set to: 0
  2308   000FC4  0E07               	movlw	7
  2309   000FC6  6E02               	movwf	(MSdelay@val+1)^0,c
  2310   000FC8  0ED0               	movlw	208
  2311   000FCA  6E01               	movwf	MSdelay@val^0,c
  2312   000FCC  ECC4  F010         	call	_MSdelay	;wreg free
  2313   000FD0  948B               	bcf	3979,2,c	;volatile
  2314   000FD2  EF37  F008         	goto	l3082
  2315   000FD6                     l224:
  2316                           
  2317                           ; BSR set to: 0
  2318   000FD6  8C8B               	bsf	3979,6,c	;volatile
  2319   000FD8                     
  2320                           ; BSR set to: 0
  2321   000FD8  0E07               	movlw	7
  2322   000FDA  6E02               	movwf	(MSdelay@val+1)^0,c
  2323   000FDC  0ED0               	movlw	208
  2324   000FDE  6E01               	movwf	MSdelay@val^0,c
  2325   000FE0  ECC4  F010         	call	_MSdelay	;wreg free
  2326   000FE4  9C8B               	bcf	3979,6,c	;volatile
  2327   000FE6  EF37  F008         	goto	l3082
  2328   000FEA                     l225:
  2329                           
  2330                           ; BSR set to: 0
  2331   000FEA  8E8B               	bsf	3979,7,c	;volatile
  2332   000FEC                     
  2333                           ; BSR set to: 0
  2334   000FEC  0E07               	movlw	7
  2335   000FEE  6E02               	movwf	(MSdelay@val+1)^0,c
  2336   000FF0  0ED0               	movlw	208
  2337   000FF2  6E01               	movwf	MSdelay@val^0,c
  2338   000FF4  ECC4  F010         	call	_MSdelay	;wreg free
  2339   000FF8  9E8B               	bcf	3979,7,c	;volatile
  2340   000FFA  EF37  F008         	goto	l3082
  2341   000FFE                     l226:
  2342                           
  2343                           ; BSR set to: 0
  2344   000FFE  8E8C               	bsf	3980,7,c	;volatile
  2345   001000                     
  2346                           ; BSR set to: 0
  2347   001000  0E07               	movlw	7
  2348   001002  6E02               	movwf	(MSdelay@val+1)^0,c
  2349   001004  0ED0               	movlw	208
  2350   001006  6E01               	movwf	MSdelay@val^0,c
  2351   001008  ECC4  F010         	call	_MSdelay	;wreg free
  2352   00100C  9E8C               	bcf	3980,7,c	;volatile
  2353   00100E  EF37  F008         	goto	l3082
  2354   001012                     l3080:
  2355   001012  0100               	movlb	0	; () banked
  2356   001014  5176               	movf	_valvula_selecionada& (0+255),w,b
  2357   001016  6FBA               	movwf	??_Modo_Manual& (0+255),b
  2358   001018  6BBB               	clrf	(??_Modo_Manual+1)& (0+255),b
  2359                           
  2360                           ; Switch on 2 bytes has been partitioned into a top level switch of size 1, and 1 sub-sw
      +                          itches
  2361                           ; Switch size 1, requested type "simple"
  2362                           ; Number of cases is 1, Range of values is 0 to 0
  2363                           ; switch strategies available:
  2364                           ; Name         Instructions Cycles
  2365                           ; simple_byte            4     3 (average)
  2366                           ;	Chosen strategy is simple_byte
  2367   00101A  51BB               	movf	(??_Modo_Manual+1)& (0+255),w,b
  2368   00101C  0A00               	xorlw	0	; case 0
  2369   00101E  B4D8               	btfsc	status,2,c
  2370   001020  EF14  F008         	goto	l3468
  2371   001024  EF37  F008         	goto	l3082
  2372   001028                     l3468:
  2373                           
  2374                           ; BSR set to: 0
  2375                           ; Switch size 1, requested type "simple"
  2376                           ; Number of cases is 8, Range of values is 0 to 7
  2377                           ; switch strategies available:
  2378                           ; Name         Instructions Cycles
  2379                           ; simple_byte           25    13 (average)
  2380                           ;	Chosen strategy is simple_byte
  2381   001028  51BA               	movf	??_Modo_Manual& (0+255),w,b
  2382   00102A  0A00               	xorlw	0	; case 0
  2383   00102C  B4D8               	btfsc	status,2,c
  2384   00102E  EFCD  F007         	goto	l218
  2385   001032  0A01               	xorlw	1	; case 1
  2386   001034  B4D8               	btfsc	status,2,c
  2387   001036  EFD7  F007         	goto	l220
  2388   00103A  0A03               	xorlw	3	; case 2
  2389   00103C  B4D8               	btfsc	status,2,c
  2390   00103E  EFE1  F007         	goto	l221
  2391   001042  0A01               	xorlw	1	; case 3
  2392   001044  B4D8               	btfsc	status,2,c
  2393   001046  EFE1  F007         	goto	l221
  2394   00104A  0A07               	xorlw	7	; case 4
  2395   00104C  B4D8               	btfsc	status,2,c
  2396   00104E  EFE1  F007         	goto	l221
  2397   001052  0A01               	xorlw	1	; case 5
  2398   001054  B4D8               	btfsc	status,2,c
  2399   001056  EFEB  F007         	goto	l224
  2400   00105A  0A03               	xorlw	3	; case 6
  2401   00105C  B4D8               	btfsc	status,2,c
  2402   00105E  EFF5  F007         	goto	l225
  2403   001062  0A01               	xorlw	1	; case 7
  2404   001064  B4D8               	btfsc	status,2,c
  2405   001066  EFFF  F007         	goto	l226
  2406   00106A  EF37  F008         	goto	l3082
  2407   00106E                     l3082:
  2408                           
  2409                           ;main_piee2.c: 408:     last_ent = PORTAbits.RA5;
  2410   00106E  0E00               	movlw	0
  2411   001070  BA80               	btfsc	128,5,c	;volatile
  2412   001072  0E01               	movlw	1
  2413   001074  0100               	movlb	0	; () banked
  2414   001076  6FB7               	movwf	Modo_Manual@last_ent& (0+255),b
  2415   001078                     
  2416                           ; BSR set to: 0
  2417                           ;main_piee2.c: 411:     static uint16_t manual_display_timer = 0;;main_piee2.c: 412:    
      +                           if(manual_display_timer++ >= 100) {
  2418   001078  5164               	movf	Modo_Manual@manual_display_timer& (0+255),w,b
  2419   00107A  6FBA               	movwf	??_Modo_Manual& (0+255),b
  2420   00107C  5165               	movf	(Modo_Manual@manual_display_timer+1)& (0+255),w,b
  2421   00107E  6FBB               	movwf	(??_Modo_Manual+1)& (0+255),b
  2422   001080  4B64               	infsnz	Modo_Manual@manual_display_timer& (0+255),f,b
  2423   001082  2B65               	incf	(Modo_Manual@manual_display_timer+1)& (0+255),f,b
  2424   001084  51BB               	movf	(??_Modo_Manual+1)& (0+255),w,b
  2425   001086  E109               	bnz	u2430
  2426   001088  0E64               	movlw	100
  2427   00108A  5DBA               	subwf	??_Modo_Manual& (0+255),w,b
  2428   00108C  A0D8               	btfss	status,0,c
  2429   00108E  EF4B  F008         	goto	u2431
  2430   001092  EF4D  F008         	goto	u2430
  2431   001096                     u2431:
  2432   001096  EF6A  F008         	goto	l230
  2433   00109A                     u2430:
  2434   00109A                     
  2435                           ; BSR set to: 0
  2436                           ;main_piee2.c: 413:         manual_display_timer = 0;
  2437   00109A  0E00               	movlw	0
  2438   00109C  6F65               	movwf	(Modo_Manual@manual_display_timer+1)& (0+255),b
  2439   00109E  0E00               	movlw	0
  2440   0010A0  6F64               	movwf	Modo_Manual@manual_display_timer& (0+255),b
  2441   0010A2                     
  2442                           ; BSR set to: 0
  2443                           ;main_piee2.c: 414:         sprintf(lcd_buffer, "Manual V:%d    ", valvula_selecionada +
      +                           1);
  2444   0010A2  0E98               	movlw	low _lcd_buffer
  2445   0010A4  6E46               	movwf	sprintf@s^0,c
  2446   0010A6  0E00               	movlw	high _lcd_buffer
  2447   0010A8  6E47               	movwf	(sprintf@s+1)^0,c
  2448   0010AA  0E80               	movlw	low STR_17
  2449   0010AC  6E48               	movwf	sprintf@fmt^0,c
  2450   0010AE  0E08               	movlw	high STR_17
  2451   0010B0  6E49               	movwf	(sprintf@fmt+1)^0,c
  2452   0010B2  0E01               	movlw	1
  2453   0010B4  2576               	addwf	_valvula_selecionada& (0+255),w,b
  2454   0010B6  6E4A               	movwf	(?_sprintf+4)^0,c
  2455   0010B8  6A4B               	clrf	(?_sprintf+5)^0,c
  2456   0010BA  0E00               	movlw	0
  2457   0010BC  224B               	addwfc	(?_sprintf+5)^0,f,c
  2458   0010BE  EC52  F010         	call	_sprintf	;wreg free
  2459   0010C2                     
  2460                           ;main_piee2.c: 415:         LCD_String_xy(2, 1, lcd_buffer);
  2461   0010C2  0E01               	movlw	1
  2462   0010C4  6E0B               	movwf	LCD_String_xy@pos^0,c
  2463   0010C6  0E98               	movlw	low _lcd_buffer
  2464   0010C8  6E0C               	movwf	LCD_String_xy@msg^0,c
  2465   0010CA  0E00               	movlw	high _lcd_buffer
  2466   0010CC  6E0D               	movwf	(LCD_String_xy@msg+1)^0,c
  2467   0010CE  0E02               	movlw	2
  2468   0010D0  EC5A  F00F         	call	_LCD_String_xy
  2469   0010D4                     l230:
  2470   0010D4  0012               	return		;funcret
  2471   0010D6                     __end_of_Modo_Manual:
  2472                           	callstack 0
  2473                           
  2474 ;; *************** function _Ler_Contador_EEPROM *****************
  2475 ;; Defined at:
  2476 ;;		line 446 in file "main_piee2.c"
  2477 ;; Parameters:    Size  Location     Type
  2478 ;;		None
  2479 ;; Auto vars:     Size  Location     Type
  2480 ;;  low             1    8[COMRAM] unsigned char 
  2481 ;;  high            1    7[COMRAM] unsigned char 
  2482 ;; Return value:  Size  Location     Type
  2483 ;;                  1    wreg      void 
  2484 ;; Registers used:
  2485 ;;		wreg, status,2, status,0, cstack
  2486 ;; Tracked objects:
  2487 ;;		On entry : 0/0
  2488 ;;		On exit  : 0/0
  2489 ;;		Unchanged: 0/0
  2490 ;; Data sizes:     COMRAM   BANK0   BANK1   BANK2   BANK3   BANK4   BANK5   BANK6   BANK7
  2491 ;;      Params:         0       0       0       0       0       0       0       0       0
  2492 ;;      Locals:         2       0       0       0       0       0       0       0       0
  2493 ;;      Temps:          2       0       0       0       0       0       0       0       0
  2494 ;;      Totals:         4       0       0       0       0       0       0       0       0
  2495 ;;Total ram usage:        4 bytes
  2496 ;; Hardware stack levels used: 1
  2497 ;; Hardware stack levels required when called: 3
  2498 ;; This function calls:
  2499 ;;		_Ler_EEPROM
  2500 ;; This function is called by:
  2501 ;;		_main
  2502 ;; This function uses a non-reentrant model
  2503 ;;
  2504                           
  2505                           	psect	text8
  2506   00234E                     __ptext8:
  2507                           	callstack 0
  2508   00234E                     _Ler_Contador_EEPROM:
  2509                           	callstack 27
  2510   00234E                     
  2511                           ;main_piee2.c: 447:     uint8_t high = Ler_EEPROM(0x0000);
  2512   00234E  0E00               	movlw	0
  2513   002350  6E04               	movwf	(Ler_EEPROM@endereco+1)^0,c
  2514   002352  0E00               	movlw	0
  2515   002354  6E03               	movwf	Ler_EEPROM@endereco^0,c
  2516   002356  ECC2  F011         	call	_Ler_EEPROM	;wreg free
  2517   00235A  6E08               	movwf	Ler_Contador_EEPROM@high^0,c
  2518                           
  2519                           ;main_piee2.c: 448:     uint8_t low = Ler_EEPROM(0x0000 + 1);
  2520   00235C  0E00               	movlw	0
  2521   00235E  6E04               	movwf	(Ler_EEPROM@endereco+1)^0,c
  2522   002360  0E01               	movlw	1
  2523   002362  6E03               	movwf	Ler_EEPROM@endereco^0,c
  2524   002364  ECC2  F011         	call	_Ler_EEPROM	;wreg free
  2525   002368  6E09               	movwf	Ler_Contador_EEPROM@low^0,c
  2526   00236A                     
  2527                           ;main_piee2.c: 449:     contador_ciclos = (high << 8) | low;
  2528   00236A  5009               	movf	Ler_Contador_EEPROM@low^0,w,c
  2529   00236C  C008  F006         	movff	Ler_Contador_EEPROM@high,??_Ler_Contador_EEPROM
  2530   002370  6A07               	clrf	(??_Ler_Contador_EEPROM+1)^0,c
  2531   002372  C006  F007         	movff	??_Ler_Contador_EEPROM,??_Ler_Contador_EEPROM+1
  2532   002376  6A06               	clrf	??_Ler_Contador_EEPROM^0,c
  2533   002378  1006               	iorwf	??_Ler_Contador_EEPROM^0,w,c
  2534   00237A  0100               	movlb	0	; () banked
  2535   00237C  6F6E               	movwf	_contador_ciclos& (0+255),b
  2536   00237E  5007               	movf	(??_Ler_Contador_EEPROM+1)^0,w,c
  2537   002380  6F6F               	movwf	(_contador_ciclos+1)& (0+255),b
  2538   002382                     
  2539                           ; BSR set to: 0
  2540   002382  0012               	return		;funcret
  2541   002384                     __end_of_Ler_Contador_EEPROM:
  2542                           	callstack 0
  2543                           
  2544 ;; *************** function _Ler_EEPROM *****************
  2545 ;; Defined at:
  2546 ;;		line 420 in file "main_piee2.c"
  2547 ;; Parameters:    Size  Location     Type
  2548 ;;  endereco        2    2[COMRAM] unsigned short 
  2549 ;; Auto vars:     Size  Location     Type
  2550 ;;  dado            1    4[COMRAM] unsigned char 
  2551 ;; Return value:  Size  Location     Type
  2552 ;;                  1    wreg      unsigned char 
  2553 ;; Registers used:
  2554 ;;		wreg, status,2, status,0, cstack
  2555 ;; Tracked objects:
  2556 ;;		On entry : 0/0
  2557 ;;		On exit  : 0/0
  2558 ;;		Unchanged: 0/0
  2559 ;; Data sizes:     COMRAM   BANK0   BANK1   BANK2   BANK3   BANK4   BANK5   BANK6   BANK7
  2560 ;;      Params:         2       0       0       0       0       0       0       0       0
  2561 ;;      Locals:         1       0       0       0       0       0       0       0       0
  2562 ;;      Temps:          0       0       0       0       0       0       0       0       0
  2563 ;;      Totals:         3       0       0       0       0       0       0       0       0
  2564 ;;Total ram usage:        3 bytes
  2565 ;; Hardware stack levels used: 1
  2566 ;; Hardware stack levels required when called: 2
  2567 ;; This function calls:
  2568 ;;		_I2C_Read
  2569 ;;		_I2C_Restart
  2570 ;;		_I2C_Start
  2571 ;;		_I2C_Stop
  2572 ;;		_I2C_Write
  2573 ;; This function is called by:
  2574 ;;		_Ler_Contador_EEPROM
  2575 ;; This function uses a non-reentrant model
  2576 ;;
  2577                           
  2578                           	psect	text9
  2579   002384                     __ptext9:
  2580                           	callstack 0
  2581   002384                     _Ler_EEPROM:
  2582                           	callstack 27
  2583   002384                     
  2584                           ;main_piee2.c: 421:     uint8_t dado;;main_piee2.c: 423:     I2C_Start();
  2585   002384  EC92  F012         	call	_I2C_Start	;wreg free
  2586   002388                     
  2587                           ;main_piee2.c: 424:     I2C_Write(0xA0);
  2588   002388  0EA0               	movlw	160
  2589   00238A  EC53  F012         	call	_I2C_Write
  2590   00238E                     
  2591                           ;main_piee2.c: 425:     I2C_Write((endereco >> 8) & 0xFF);
  2592   00238E  5004               	movf	(Ler_EEPROM@endereco+1)^0,w,c
  2593   002390  EC53  F012         	call	_I2C_Write
  2594   002394                     
  2595                           ;main_piee2.c: 426:     I2C_Write(endereco & 0xFF);
  2596   002394  5003               	movf	Ler_EEPROM@endereco^0,w,c
  2597   002396  EC53  F012         	call	_I2C_Write
  2598   00239A                     
  2599                           ;main_piee2.c: 427:     I2C_Restart();
  2600   00239A  EC9B  F012         	call	_I2C_Restart	;wreg free
  2601                           
  2602                           ;main_piee2.c: 428:     I2C_Write(0xA1);
  2603   00239E  0EA1               	movlw	161
  2604   0023A0  EC53  F012         	call	_I2C_Write
  2605   0023A4                     
  2606                           ;main_piee2.c: 429:     dado = I2C_Read(0);
  2607   0023A4  0E00               	movlw	0
  2608   0023A6  EC6F  F011         	call	_I2C_Read
  2609   0023AA  6E05               	movwf	Ler_EEPROM@dado^0,c
  2610   0023AC                     
  2611                           ;main_piee2.c: 430:     I2C_Stop();
  2612   0023AC  EC89  F012         	call	_I2C_Stop	;wreg free
  2613   0023B0                     
  2614                           ;main_piee2.c: 432:     return dado;
  2615   0023B0  5005               	movf	Ler_EEPROM@dado^0,w,c
  2616   0023B2  0012               	return		;funcret
  2617   0023B4                     __end_of_Ler_EEPROM:
  2618                           	callstack 0
  2619                           
  2620 ;; *************** function _Ler_ADC *****************
  2621 ;; Defined at:
  2622 ;;		line 492 in file "main_piee2.c"
  2623 ;; Parameters:    Size  Location     Type
  2624 ;;  canal           1    wreg     unsigned char 
  2625 ;; Auto vars:     Size  Location     Type
  2626 ;;  canal           1   10[COMRAM] unsigned char 
  2627 ;; Return value:  Size  Location     Type
  2628 ;;                  2    6[COMRAM] unsigned short 
  2629 ;; Registers used:
  2630 ;;		wreg, status,2, status,0, cstack
  2631 ;; Tracked objects:
  2632 ;;		On entry : 0/0
  2633 ;;		On exit  : 0/0
  2634 ;;		Unchanged: 0/0
  2635 ;; Data sizes:     COMRAM   BANK0   BANK1   BANK2   BANK3   BANK4   BANK5   BANK6   BANK7
  2636 ;;      Params:         2       0       0       0       0       0       0       0       0
  2637 ;;      Locals:         1       0       0       0       0       0       0       0       0
  2638 ;;      Temps:          2       0       0       0       0       0       0       0       0
  2639 ;;      Totals:         5       0       0       0       0       0       0       0       0
  2640 ;;Total ram usage:        5 bytes
  2641 ;; Hardware stack levels used: 1
  2642 ;; Hardware stack levels required when called: 1
  2643 ;; This function calls:
  2644 ;;		_MSdelay
  2645 ;; This function is called by:
  2646 ;;		_main
  2647 ;; This function uses a non-reentrant model
  2648 ;;
  2649                           
  2650                           	psect	text10
  2651   00225E                     __ptext10:
  2652                           	callstack 0
  2653   00225E                     _Ler_ADC:
  2654                           	callstack 29
  2655                           
  2656                           ;incstack = 0
  2657                           ;Ler_ADC@canal stored from wreg
  2658   00225E  6E0B               	movwf	Ler_ADC@canal^0,c
  2659   002260                     
  2660                           ;main_piee2.c: 493:     ADCON0 = (canal << 2) | 0x01;
  2661   002260  440B               	rlncf	Ler_ADC@canal^0,w,c
  2662   002262  46E8               	rlncf	wreg,f,c
  2663   002264  0BFC               	andlw	252
  2664   002266  0901               	iorlw	1
  2665   002268  6EC2               	movwf	194,c	;volatile
  2666   00226A                     
  2667                           ;main_piee2.c: 494:     MSdelay(1);
  2668   00226A  0E00               	movlw	0
  2669   00226C  6E02               	movwf	(MSdelay@val+1)^0,c
  2670   00226E  0E01               	movlw	1
  2671   002270  6E01               	movwf	MSdelay@val^0,c
  2672   002272  ECC4  F010         	call	_MSdelay	;wreg free
  2673   002276                     
  2674                           ;main_piee2.c: 496:     ADCON0bits.GO = 1;
  2675   002276  82C2               	bsf	194,1,c	;volatile
  2676   002278                     l254:
  2677   002278  B2C2               	btfsc	194,1,c	;volatile
  2678   00227A  EF41  F011         	goto	u2301
  2679   00227E  EF43  F011         	goto	u2300
  2680   002282                     u2301:
  2681   002282  EF3C  F011         	goto	l254
  2682   002286                     u2300:
  2683   002286                     
  2684                           ;main_piee2.c: 499:     return ((ADRESH << 8) | ADRESL);
  2685   002286  50C3               	movf	195,w,c	;volatile
  2686   002288  CFC4 F009          	movff	4036,??_Ler_ADC	;volatile
  2687   00228C  6A0A               	clrf	(??_Ler_ADC+1)^0,c
  2688   00228E  C009  F00A         	movff	??_Ler_ADC,??_Ler_ADC+1
  2689   002292  6A09               	clrf	??_Ler_ADC^0,c
  2690   002294  1009               	iorwf	??_Ler_ADC^0,w,c
  2691   002296  6E07               	movwf	?_Ler_ADC^0,c
  2692   002298  500A               	movf	(??_Ler_ADC+1)^0,w,c
  2693   00229A  6E08               	movwf	(?_Ler_ADC+1)^0,c
  2694   00229C  0012               	return		;funcret
  2695   00229E                     __end_of_Ler_ADC:
  2696                           	callstack 0
  2697                           
  2698 ;; *************** function _LCD_Init *****************
  2699 ;; Defined at:
  2700 ;;		line 14 in file "lcd_4b.c"
  2701 ;; Parameters:    Size  Location     Type
  2702 ;;		None
  2703 ;; Auto vars:     Size  Location     Type
  2704 ;;		None
  2705 ;; Return value:  Size  Location     Type
  2706 ;;                  1    wreg      void 
  2707 ;; Registers used:
  2708 ;;		wreg, status,2, status,0, cstack
  2709 ;; Tracked objects:
  2710 ;;		On entry : 0/0
  2711 ;;		On exit  : 0/0
  2712 ;;		Unchanged: 0/0
  2713 ;; Data sizes:     COMRAM   BANK0   BANK1   BANK2   BANK3   BANK4   BANK5   BANK6   BANK7
  2714 ;;      Params:         0       0       0       0       0       0       0       0       0
  2715 ;;      Locals:         0       0       0       0       0       0       0       0       0
  2716 ;;      Temps:          0       0       0       0       0       0       0       0       0
  2717 ;;      Totals:         0       0       0       0       0       0       0       0       0
  2718 ;;Total ram usage:        0 bytes
  2719 ;; Hardware stack levels used: 1
  2720 ;; Hardware stack levels required when called: 2
  2721 ;; This function calls:
  2722 ;;		_LCD_Command
  2723 ;;		_MSdelay
  2724 ;; This function is called by:
  2725 ;;		_main
  2726 ;; This function uses a non-reentrant model
  2727 ;;
  2728                           
  2729                           	psect	text11
  2730   0023B4                     __ptext11:
  2731                           	callstack 0
  2732   0023B4                     _LCD_Init:
  2733                           	callstack 28
  2734   0023B4                     
  2735                           ;lcd_4b.c: 16:     TRISB = 0;
  2736   0023B4  0E00               	movlw	0
  2737   0023B6  6E93               	movwf	147,c	;volatile
  2738   0023B8                     
  2739                           ;lcd_4b.c: 17:     MSdelay(15);
  2740   0023B8  0E00               	movlw	0
  2741   0023BA  6E02               	movwf	(MSdelay@val+1)^0,c
  2742   0023BC  0E0F               	movlw	15
  2743   0023BE  6E01               	movwf	MSdelay@val^0,c
  2744   0023C0  ECC4  F010         	call	_MSdelay	;wreg free
  2745   0023C4                     
  2746                           ;lcd_4b.c: 18:     LCD_Command(0x02);
  2747   0023C4  0E02               	movlw	2
  2748   0023C6  EC9E  F010         	call	_LCD_Command
  2749   0023CA                     
  2750                           ;lcd_4b.c: 19:     LCD_Command(0x28);
  2751   0023CA  0E28               	movlw	40
  2752   0023CC  EC9E  F010         	call	_LCD_Command
  2753   0023D0                     
  2754                           ;lcd_4b.c: 21:  LCD_Command(0x01);
  2755   0023D0  0E01               	movlw	1
  2756   0023D2  EC9E  F010         	call	_LCD_Command
  2757   0023D6                     
  2758                           ;lcd_4b.c: 22:     LCD_Command(0x0c);
  2759   0023D6  0E0C               	movlw	12
  2760   0023D8  EC9E  F010         	call	_LCD_Command
  2761   0023DC                     
  2762                           ;lcd_4b.c: 23:  LCD_Command(0x06);
  2763   0023DC  0E06               	movlw	6
  2764   0023DE  EC9E  F010         	call	_LCD_Command
  2765   0023E2  0012               	return		;funcret
  2766   0023E4                     __end_of_LCD_Init:
  2767                           	callstack 0
  2768                           
  2769 ;; *************** function _Display_Menu_Principal *****************
  2770 ;; Defined at:
  2771 ;;		line 225 in file "main_piee2.c"
  2772 ;; Parameters:    Size  Location     Type
  2773 ;;		None
  2774 ;; Auto vars:     Size  Location     Type
  2775 ;;  pressao_mv      2    2[BANK0 ] unsigned short 
  2776 ;; Return value:  Size  Location     Type
  2777 ;;                  1    wreg      void 
  2778 ;; Registers used:
  2779 ;;		wreg, fsr1l, fsr1h, fsr2l, fsr2h, status,2, status,0, tblptrl, tblptrh, tblptru, prodl, prodh, cstack
  2780 ;; Tracked objects:
  2781 ;;		On entry : 0/0
  2782 ;;		On exit  : 0/0
  2783 ;;		Unchanged: 0/0
  2784 ;; Data sizes:     COMRAM   BANK0   BANK1   BANK2   BANK3   BANK4   BANK5   BANK6   BANK7
  2785 ;;      Params:         0       0       0       0       0       0       0       0       0
  2786 ;;      Locals:         0       4       0       0       0       0       0       0       0
  2787 ;;      Temps:          0       2       0       0       0       0       0       0       0
  2788 ;;      Totals:         0       6       0       0       0       0       0       0       0
  2789 ;;Total ram usage:        6 bytes
  2790 ;; Hardware stack levels used: 1
  2791 ;; Hardware stack levels required when called: 8
  2792 ;; This function calls:
  2793 ;;		_LCD_String_xy
  2794 ;;		_RTC_GetDateTime
  2795 ;;		___wmul
  2796 ;;		_sprintf
  2797 ;; This function is called by:
  2798 ;;		_main
  2799 ;; This function uses a non-reentrant model
  2800 ;;
  2801                           
  2802                           	psect	text12
  2803   0012A4                     __ptext12:
  2804                           	callstack 0
  2805   0012A4                     _Display_Menu_Principal:
  2806                           	callstack 22
  2807   0012A4                     
  2808                           ;main_piee2.c: 226:     static uint16_t display_timer = 0;;main_piee2.c: 227:     static
      +                           uint8_t linha_toggle = 0;;main_piee2.c: 229:     if(display_timer++ >= 50) {
  2809   0012A4  0100               	movlb	0	; () banked
  2810   0012A6  5168               	movf	Display_Menu_Principal@display_timer& (0+255),w,b
  2811   0012A8  6FBA               	movwf	??_Display_Menu_Principal& (0+255),b
  2812   0012AA  5169               	movf	(Display_Menu_Principal@display_timer+1)& (0+255),w,b
  2813   0012AC  6FBB               	movwf	(??_Display_Menu_Principal+1)& (0+255),b
  2814   0012AE  4B68               	infsnz	Display_Menu_Principal@display_timer& (0+255),f,b
  2815   0012B0  2B69               	incf	(Display_Menu_Principal@display_timer+1)& (0+255),f,b
  2816   0012B2  51BB               	movf	(??_Display_Menu_Principal+1)& (0+255),w,b
  2817   0012B4  E109               	bnz	u2500
  2818   0012B6  0E32               	movlw	50
  2819   0012B8  5DBA               	subwf	??_Display_Menu_Principal& (0+255),w,b
  2820   0012BA  A0D8               	btfss	status,0,c
  2821   0012BC  EF62  F009         	goto	u2501
  2822   0012C0  EF64  F009         	goto	u2500
  2823   0012C4                     u2501:
  2824   0012C4  EF2E  F00A         	goto	l152
  2825   0012C8                     u2500:
  2826   0012C8                     
  2827                           ; BSR set to: 0
  2828                           ;main_piee2.c: 230:         display_timer = 0;
  2829   0012C8  0E00               	movlw	0
  2830   0012CA  6F69               	movwf	(Display_Menu_Principal@display_timer+1)& (0+255),b
  2831   0012CC  0E00               	movlw	0
  2832   0012CE  6F68               	movwf	Display_Menu_Principal@display_timer& (0+255),b
  2833   0012D0                     
  2834                           ; BSR set to: 0
  2835                           ;main_piee2.c: 231:         linha_toggle ^= 1;
  2836   0012D0  0E01               	movlw	1
  2837   0012D2  1B73               	xorwf	Display_Menu_Principal@linha_toggle& (0+255),f,b
  2838   0012D4                     
  2839                           ; BSR set to: 0
  2840                           ;main_piee2.c: 233:         LCD_String_xy(1, 1, "                ");
  2841   0012D4  0E01               	movlw	1
  2842   0012D6  6E0B               	movwf	LCD_String_xy@pos^0,c
  2843   0012D8  0E4D               	movlw	low STR_8
  2844   0012DA  6E0C               	movwf	LCD_String_xy@msg^0,c
  2845   0012DC  0E08               	movlw	high STR_8
  2846   0012DE  6E0D               	movwf	(LCD_String_xy@msg+1)^0,c
  2847   0012E0  0E01               	movlw	1
  2848   0012E2  EC5A  F00F         	call	_LCD_String_xy
  2849   0012E6                     
  2850                           ;main_piee2.c: 235:         if(linha_toggle) {
  2851   0012E6  0100               	movlb	0	; () banked
  2852   0012E8  5173               	movf	Display_Menu_Principal@linha_toggle& (0+255),w,b
  2853   0012EA  B4D8               	btfsc	status,2,c
  2854   0012EC  EF7A  F009         	goto	u2511
  2855   0012F0  EF7C  F009         	goto	u2510
  2856   0012F4                     u2511:
  2857   0012F4  EFD9  F009         	goto	l3200
  2858   0012F8                     u2510:
  2859   0012F8                     
  2860                           ; BSR set to: 0
  2861                           ;main_piee2.c: 237:             sprintf(lcd_buffer, "%s Cic:%04d",
  2862   0012F8  5177               	movf	_modo_operacao& (0+255),w,b
  2863   0012FA  A4D8               	btfss	status,2,c
  2864   0012FC  EF82  F009         	goto	u2521
  2865   001300  EF84  F009         	goto	u2520
  2866   001304                     u2521:
  2867   001304  EF8A  F009         	goto	l3188
  2868   001308                     u2520:
  2869   001308                     
  2870                           ; BSR set to: 0
  2871   001308  0EE3               	movlw	low STR_11
  2872   00130A  6FBE               	movwf	_Display_Menu_Principal$371& (0+255),b
  2873   00130C  0E08               	movlw	high STR_11
  2874   00130E  6FBF               	movwf	(_Display_Menu_Principal$371+1)& (0+255),b
  2875   001310  EF8E  F009         	goto	l3190
  2876   001314                     l3188:
  2877                           
  2878                           ; BSR set to: 0
  2879   001314  0EE8               	movlw	low STR_10
  2880   001316  6FBE               	movwf	_Display_Menu_Principal$371& (0+255),b
  2881   001318  0E08               	movlw	high STR_10
  2882   00131A  6FBF               	movwf	(_Display_Menu_Principal$371+1)& (0+255),b
  2883   00131C                     l3190:
  2884                           
  2885                           ; BSR set to: 0
  2886   00131C  0E98               	movlw	low _lcd_buffer
  2887   00131E  6E46               	movwf	sprintf@s^0,c
  2888   001320  0E00               	movlw	high _lcd_buffer
  2889   001322  6E47               	movwf	(sprintf@s+1)^0,c
  2890   001324  0EC5               	movlw	low STR_9
  2891   001326  6E48               	movwf	sprintf@fmt^0,c
  2892   001328  0E08               	movlw	high STR_9
  2893   00132A  6E49               	movwf	(sprintf@fmt+1)^0,c
  2894   00132C  C0BE  F04A         	movff	_Display_Menu_Principal$371,?_sprintf+4
  2895   001330  C0BF  F04B         	movff	_Display_Menu_Principal$371+1,?_sprintf+5
  2896   001334  C06E  F04C         	movff	_contador_ciclos,?_sprintf+6
  2897   001338  C06F  F04D         	movff	_contador_ciclos+1,?_sprintf+7
  2898   00133C  EC52  F010         	call	_sprintf	;wreg free
  2899   001340                     
  2900                           ;main_piee2.c: 240:             LCD_String_xy(1, 1, lcd_buffer);
  2901   001340  0E01               	movlw	1
  2902   001342  6E0B               	movwf	LCD_String_xy@pos^0,c
  2903   001344  0E98               	movlw	low _lcd_buffer
  2904   001346  6E0C               	movwf	LCD_String_xy@msg^0,c
  2905   001348  0E00               	movlw	high _lcd_buffer
  2906   00134A  6E0D               	movwf	(LCD_String_xy@msg+1)^0,c
  2907   00134C  0E01               	movlw	1
  2908   00134E  EC5A  F00F         	call	_LCD_String_xy
  2909   001352                     
  2910                           ;main_piee2.c: 243:             uint16_t pressao_mv = (adc_pressao * 5000) / 1024;
  2911   001352  C06A  F001         	movff	_adc_pressao,___wmul@multiplier
  2912   001356  C06B  F002         	movff	_adc_pressao+1,___wmul@multiplier+1
  2913   00135A  0E13               	movlw	19
  2914   00135C  6E04               	movwf	(___wmul@multiplicand+1)^0,c
  2915   00135E  0E88               	movlw	136
  2916   001360  6E03               	movwf	___wmul@multiplicand^0,c
  2917   001362  EC1E  F012         	call	___wmul	;wreg free
  2918   001366  0E0A               	movlw	10
  2919   001368  0100               	movlb	0	; () banked
  2920   00136A  6FBA               	movwf	??_Display_Menu_Principal& (0+255),b
  2921   00136C                     u2535:
  2922   00136C  90D8               	bcf	status,0,c
  2923   00136E  3202               	rrcf	(?___wmul+1)^0,f,c
  2924   001370  3201               	rrcf	?___wmul^0,f,c
  2925   001372  2FBA               	decfsz	??_Display_Menu_Principal& (0+255),f,b
  2926   001374  EFB6  F009         	goto	u2535
  2927   001378  C001  F0BC         	movff	?___wmul,Display_Menu_Principal@pressao_mv
  2928   00137C  C002  F0BD         	movff	?___wmul+1,Display_Menu_Principal@pressao_mv+1
  2929   001380                     
  2930                           ; BSR set to: 0
  2931                           ;main_piee2.c: 244:             sprintf(lcd_buffer, "Press:%4dmV", pressao_mv);
  2932   001380  0E98               	movlw	low _lcd_buffer
  2933   001382  6E46               	movwf	sprintf@s^0,c
  2934   001384  0E00               	movlw	high _lcd_buffer
  2935   001386  6E47               	movwf	(sprintf@s+1)^0,c
  2936   001388  0EB9               	movlw	low STR_12
  2937   00138A  6E48               	movwf	sprintf@fmt^0,c
  2938   00138C  0E08               	movlw	high STR_12
  2939   00138E  6E49               	movwf	(sprintf@fmt+1)^0,c
  2940   001390  C0BC  F04A         	movff	Display_Menu_Principal@pressao_mv,?_sprintf+4
  2941   001394  C0BD  F04B         	movff	Display_Menu_Principal@pressao_mv+1,?_sprintf+5
  2942   001398  EC52  F010         	call	_sprintf	;wreg free
  2943   00139C                     
  2944                           ;main_piee2.c: 245:             LCD_String_xy(2, 1, lcd_buffer);
  2945   00139C  0E01               	movlw	1
  2946   00139E  6E0B               	movwf	LCD_String_xy@pos^0,c
  2947   0013A0  0E98               	movlw	low _lcd_buffer
  2948   0013A2  6E0C               	movwf	LCD_String_xy@msg^0,c
  2949   0013A4  0E00               	movlw	high _lcd_buffer
  2950   0013A6  6E0D               	movwf	(LCD_String_xy@msg+1)^0,c
  2951   0013A8  0E02               	movlw	2
  2952   0013AA  EC5A  F00F         	call	_LCD_String_xy
  2953                           
  2954                           ;main_piee2.c: 246:         } else {
  2955   0013AE  EF2E  F00A         	goto	l152
  2956   0013B2                     l3200:
  2957                           
  2958                           ; BSR set to: 0
  2959                           ;main_piee2.c: 248:             RTC_GetDateTime(&rtc);
  2960   0013B2  0EA9               	movlw	low _rtc
  2961   0013B4  6E03               	movwf	RTC_GetDateTime@rtc^0,c
  2962   0013B6  0E00               	movlw	high _rtc
  2963   0013B8  6E04               	movwf	(RTC_GetDateTime@rtc+1)^0,c
  2964   0013BA  EC06  F00F         	call	_RTC_GetDateTime	;wreg free
  2965   0013BE                     
  2966                           ;main_piee2.c: 249:             sprintf(lcd_buffer, "%02x/%02x %02x:%02x",
  2967   0013BE  0E98               	movlw	low _lcd_buffer
  2968   0013C0  6E46               	movwf	sprintf@s^0,c
  2969   0013C2  0E00               	movlw	high _lcd_buffer
  2970   0013C4  6E47               	movwf	(sprintf@s+1)^0,c
  2971   0013C6  0E15               	movlw	low STR_13
  2972   0013C8  6E48               	movwf	sprintf@fmt^0,c
  2973   0013CA  0E08               	movlw	high STR_13
  2974   0013CC  6E49               	movwf	(sprintf@fmt+1)^0,c
  2975   0013CE  C0AD  F04A         	movff	_rtc+4,?_sprintf+4
  2976   0013D2  6A4B               	clrf	(?_sprintf+5)^0,c
  2977   0013D4  C0AE  F04C         	movff	_rtc+5,?_sprintf+6
  2978   0013D8  6A4D               	clrf	(?_sprintf+7)^0,c
  2979   0013DA  C0AB  F04E         	movff	_rtc+2,?_sprintf+8
  2980   0013DE  6A4F               	clrf	(?_sprintf+9)^0,c
  2981   0013E0  C0AA  F050         	movff	_rtc+1,?_sprintf+10
  2982   0013E4  6A51               	clrf	(?_sprintf+11)^0,c
  2983   0013E6  EC52  F010         	call	_sprintf	;wreg free
  2984   0013EA                     
  2985                           ;main_piee2.c: 252:             LCD_String_xy(1, 1, lcd_buffer);
  2986   0013EA  0E01               	movlw	1
  2987   0013EC  6E0B               	movwf	LCD_String_xy@pos^0,c
  2988   0013EE  0E98               	movlw	low _lcd_buffer
  2989   0013F0  6E0C               	movwf	LCD_String_xy@msg^0,c
  2990   0013F2  0E00               	movlw	high _lcd_buffer
  2991   0013F4  6E0D               	movwf	(LCD_String_xy@msg+1)^0,c
  2992   0013F6  0E01               	movlw	1
  2993   0013F8  EC5A  F00F         	call	_LCD_String_xy
  2994   0013FC                     
  2995                           ;main_piee2.c: 255:             if(falha_pressao) {
  2996   0013FC  0100               	movlb	0	; () banked
  2997   0013FE  5174               	movf	_falha_pressao& (0+255),w,b
  2998   001400  B4D8               	btfsc	status,2,c
  2999   001402  EF05  F00A         	goto	u2541
  3000   001406  EF07  F00A         	goto	u2540
  3001   00140A                     u2541:
  3002   00140A  EF12  F00A         	goto	l3210
  3003   00140E                     u2540:
  3004   00140E                     
  3005                           ; BSR set to: 0
  3006                           ;main_piee2.c: 256:                 LCD_String_xy(2, 1, "FALHA! Press Alta");
  3007   00140E  0E01               	movlw	1
  3008   001410  6E0B               	movwf	LCD_String_xy@pos^0,c
  3009   001412  0E3B               	movlw	low STR_14
  3010   001414  6E0C               	movwf	LCD_String_xy@msg^0,c
  3011   001416  0E08               	movlw	high STR_14
  3012   001418  6E0D               	movwf	(LCD_String_xy@msg+1)^0,c
  3013   00141A  0E02               	movlw	2
  3014   00141C  EC5A  F00F         	call	_LCD_String_xy
  3015                           
  3016                           ;main_piee2.c: 257:             } else if(ciclo_em_andamento) {
  3017   001420  EF2E  F00A         	goto	l152
  3018   001424                     l3210:
  3019                           
  3020                           ; BSR set to: 0
  3021   001424  5175               	movf	_ciclo_em_andamento& (0+255),w,b
  3022   001426  B4D8               	btfsc	status,2,c
  3023   001428  EF18  F00A         	goto	u2551
  3024   00142C  EF1A  F00A         	goto	u2550
  3025   001430                     u2551:
  3026   001430  EF25  F00A         	goto	l3214
  3027   001434                     u2550:
  3028   001434                     
  3029                           ; BSR set to: 0
  3030                           ;main_piee2.c: 258:                 LCD_String_xy(2, 1, "Ciclo Ativo     ");
  3031   001434  0E01               	movlw	1
  3032   001436  6E0B               	movwf	LCD_String_xy@pos^0,c
  3033   001438  0E6F               	movlw	low STR_15
  3034   00143A  6E0C               	movwf	LCD_String_xy@msg^0,c
  3035   00143C  0E08               	movlw	high STR_15
  3036   00143E  6E0D               	movwf	(LCD_String_xy@msg+1)^0,c
  3037   001440  0E02               	movlw	2
  3038   001442  EC5A  F00F         	call	_LCD_String_xy
  3039                           
  3040                           ;main_piee2.c: 259:             } else {
  3041   001446  EF2E  F00A         	goto	l152
  3042   00144A                     l3214:
  3043                           
  3044                           ; BSR set to: 0
  3045                           ;main_piee2.c: 260:                 LCD_String_xy(2, 1, "Pronto          ");
  3046   00144A  0E01               	movlw	1
  3047   00144C  6E0B               	movwf	LCD_String_xy@pos^0,c
  3048   00144E  0E5E               	movlw	low STR_16
  3049   001450  6E0C               	movwf	LCD_String_xy@msg^0,c
  3050   001452  0E08               	movlw	high STR_16
  3051   001454  6E0D               	movwf	(LCD_String_xy@msg+1)^0,c
  3052   001456  0E02               	movlw	2
  3053   001458  EC5A  F00F         	call	_LCD_String_xy
  3054   00145C                     l152:
  3055   00145C  0012               	return		;funcret
  3056   00145E                     __end_of_Display_Menu_Principal:
  3057                           	callstack 0
  3058                           
  3059 ;; *************** function _sprintf *****************
  3060 ;; Defined at:
  3061 ;;		line 9 in file "/Applications/microchip/xc8/v2.41/pic/sources/c99/common/nf_sprintf.c"
  3062 ;; Parameters:    Size  Location     Type
  3063 ;;  s               2   69[COMRAM] PTR unsigned char 
  3064 ;;		 -> lcd_buffer(17), 
  3065 ;;  fmt             2   71[COMRAM] PTR const unsigned char 
  3066 ;;		 -> STR_17(16), STR_13(20), STR_12(12), STR_9(12), 
  3067 ;; Auto vars:     Size  Location     Type
  3068 ;;  f              12   83[COMRAM] struct _IO_FILE
  3069 ;;  ap              2   81[COMRAM] PTR void [1]
  3070 ;;		 -> ?_sprintf(2), 
  3071 ;;  ret             2    0        int 
  3072 ;; Return value:  Size  Location     Type
  3073 ;;                  2   69[COMRAM] int 
  3074 ;; Registers used:
  3075 ;;		wreg, fsr1l, fsr1h, fsr2l, fsr2h, status,2, status,0, tblptrl, tblptrh, tblptru, prodl, prodh, cstack
  3076 ;; Tracked objects:
  3077 ;;		On entry : 0/0
  3078 ;;		On exit  : 0/0
  3079 ;;		Unchanged: 0/0
  3080 ;; Data sizes:     COMRAM   BANK0   BANK1   BANK2   BANK3   BANK4   BANK5   BANK6   BANK7
  3081 ;;      Params:        12       0       0       0       0       0       0       0       0
  3082 ;;      Locals:        14       0       0       0       0       0       0       0       0
  3083 ;;      Temps:          0       0       0       0       0       0       0       0       0
  3084 ;;      Totals:        26       0       0       0       0       0       0       0       0
  3085 ;;Total ram usage:       26 bytes
  3086 ;; Hardware stack levels used: 1
  3087 ;; Hardware stack levels required when called: 7
  3088 ;; This function calls:
  3089 ;;		_vfprintf
  3090 ;; This function is called by:
  3091 ;;		_Display_Menu_Principal
  3092 ;;		_Modo_Manual
  3093 ;; This function uses a non-reentrant model
  3094 ;;
  3095                           
  3096                           	psect	text13
  3097   0020A4                     __ptext13:
  3098                           	callstack 0
  3099   0020A4                     _sprintf:
  3100                           	callstack 22
  3101   0020A4  0E4A               	movlw	low (?_sprintf+4)
  3102   0020A6  6E52               	movwf	sprintf@ap^0,c
  3103   0020A8  0E00               	movlw	high (?_sprintf+4)
  3104   0020AA  6E53               	movwf	(sprintf@ap+1)^0,c
  3105   0020AC  C046  F054         	movff	sprintf@s,sprintf@f
  3106   0020B0  C047  F055         	movff	sprintf@s+1,sprintf@f+1
  3107   0020B4  0E00               	movlw	0
  3108   0020B6  6E58               	movwf	(sprintf@f+4)^0,c
  3109   0020B8  0E00               	movlw	0
  3110   0020BA  6E57               	movwf	(sprintf@f+3)^0,c
  3111   0020BC  0E00               	movlw	0
  3112   0020BE  6E5F               	movwf	(sprintf@f+11)^0,c
  3113   0020C0  0E00               	movlw	0
  3114   0020C2  6E5E               	movwf	(sprintf@f+10)^0,c
  3115   0020C4  0E54               	movlw	low sprintf@f
  3116   0020C6  6E3E               	movwf	vfprintf@fp^0,c
  3117   0020C8  0E00               	movlw	high sprintf@f
  3118   0020CA  6E3F               	movwf	(vfprintf@fp+1)^0,c
  3119   0020CC  C048  F040         	movff	sprintf@fmt,vfprintf@fmt
  3120   0020D0  C049  F041         	movff	sprintf@fmt+1,vfprintf@fmt+1
  3121   0020D4  0E52               	movlw	low sprintf@ap
  3122   0020D6  6E42               	movwf	vfprintf@ap^0,c
  3123   0020D8  0E00               	movlw	high sprintf@ap
  3124   0020DA  6E43               	movwf	(vfprintf@ap+1)^0,c
  3125   0020DC  EC04  F010         	call	_vfprintf	;wreg free
  3126   0020E0  5057               	movf	(sprintf@f+3)^0,w,c
  3127   0020E2  2446               	addwf	sprintf@s^0,w,c
  3128   0020E4  6ED9               	movwf	fsr2l,c
  3129   0020E6  5058               	movf	(sprintf@f+4)^0,w,c
  3130   0020E8  2047               	addwfc	(sprintf@s+1)^0,w,c
  3131   0020EA  6EDA               	movwf	fsr2h,c
  3132   0020EC  6ADF               	clrf	indf2,c
  3133   0020EE  0012               	return		;funcret
  3134   0020F0                     __end_of_sprintf:
  3135                           	callstack 0
  3136                           
  3137 ;; *************** function _vfprintf *****************
  3138 ;; Defined at:
  3139 ;;		line 1546 in file "/Applications/microchip/xc8/v2.41/pic/sources/c99/common/doprnt.c"
  3140 ;; Parameters:    Size  Location     Type
  3141 ;;  fp              2   61[COMRAM] PTR struct _IO_FILE
  3142 ;;		 -> sprintf@f(12), 
  3143 ;;  fmt             2   63[COMRAM] PTR const unsigned char 
  3144 ;;		 -> STR_17(16), STR_13(20), STR_12(12), STR_9(12), 
  3145 ;;  ap              2   65[COMRAM] PTR PTR void 
  3146 ;;		 -> sprintf@ap(2), 
  3147 ;; Auto vars:     Size  Location     Type
  3148 ;;  cfmt            2   67[COMRAM] PTR unsigned char 
  3149 ;;		 -> STR_17(16), STR_13(20), STR_12(12), STR_9(12), 
  3150 ;; Return value:  Size  Location     Type
  3151 ;;                  2   61[COMRAM] int 
  3152 ;; Registers used:
  3153 ;;		wreg, fsr1l, fsr1h, fsr2l, fsr2h, status,2, status,0, tblptrl, tblptrh, tblptru, prodl, prodh, cstack
  3154 ;; Tracked objects:
  3155 ;;		On entry : 0/0
  3156 ;;		On exit  : 0/0
  3157 ;;		Unchanged: 0/0
  3158 ;; Data sizes:     COMRAM   BANK0   BANK1   BANK2   BANK3   BANK4   BANK5   BANK6   BANK7
  3159 ;;      Params:         6       0       0       0       0       0       0       0       0
  3160 ;;      Locals:         2       0       0       0       0       0       0       0       0
  3161 ;;      Temps:          0       0       0       0       0       0       0       0       0
  3162 ;;      Totals:         8       0       0       0       0       0       0       0       0
  3163 ;;Total ram usage:        8 bytes
  3164 ;; Hardware stack levels used: 1
  3165 ;; Hardware stack levels required when called: 6
  3166 ;; This function calls:
  3167 ;;		_vfpfcnvrt
  3168 ;; This function is called by:
  3169 ;;		_sprintf
  3170 ;; This function uses a non-reentrant model
  3171 ;;
  3172                           
  3173                           	psect	text14
  3174   002008                     __ptext14:
  3175                           	callstack 0
  3176   002008                     _vfprintf:
  3177                           	callstack 22
  3178   002008                     
  3179                           ;/Applications/microchip/xc8/v2.41/pic/sources/c99/common/doprnt.c: 1546: int vfprintf(F
      +                          ILE *fp, const char *fmt, va_list ap);/Applications/microchip/xc8/v2.41/pic/sources/c99/
      +                          common/doprnt.c: 1547: {;/Applications/microchip/xc8/v2.41/pic/sources/c99/common/doprnt
      +                          .c: 1549:     char *cfmt;;/Applications/microchip/xc8/v2.41/pic/sources/c99/common/doprn
      +                          t.c: 1551:     cfmt = (char *)fmt;
  3180   002008  C040  F044         	movff	vfprintf@fmt,vfprintf@cfmt
  3181   00200C  C041  F045         	movff	vfprintf@fmt+1,vfprintf@cfmt+1
  3182                           
  3183                           ;/Applications/microchip/xc8/v2.41/pic/sources/c99/common/doprnt.c: 1555:     while (*cf
      +                          mt) {
  3184   002010  EF18  F010         	goto	l2818
  3185   002014                     l2816:
  3186                           
  3187                           ;/Applications/microchip/xc8/v2.41/pic/sources/c99/common/doprnt.c: 1559:    vfpfcnvrt(f
      +                          p, &cfmt, ap);
  3188   002014  C03E  F02C         	movff	vfprintf@fp,vfpfcnvrt@fp
  3189   002018  C03F  F02D         	movff	vfprintf@fp+1,vfpfcnvrt@fp+1
  3190   00201C  0E44               	movlw	low vfprintf@cfmt
  3191   00201E  6E2E               	movwf	vfpfcnvrt@fmt^0,c
  3192   002020  0E00               	movlw	high vfprintf@cfmt
  3193   002022  6E2F               	movwf	(vfpfcnvrt@fmt+1)^0,c
  3194   002024  C042  F030         	movff	vfprintf@ap,vfpfcnvrt@ap
  3195   002028  C043  F031         	movff	vfprintf@ap+1,vfpfcnvrt@ap+1
  3196   00202C  EC79  F004         	call	_vfpfcnvrt	;wreg free
  3197   002030                     l2818:
  3198                           
  3199                           ;/Applications/microchip/xc8/v2.41/pic/sources/c99/common/doprnt.c: 1555:     while (*cf
      +                          mt) {
  3200   002030  C044  FFF6         	movff	vfprintf@cfmt,tblptrl
  3201   002034  C045  FFF7         	movff	vfprintf@cfmt+1,tblptrh
  3202   002038                     	if	0	;tblptru may be non-zero
  3203   002038                     	endif
  3204   002038                     	if	0	;tblptru may be non-zero
  3205   002038                     	endif
  3206   002038  0008               	tblrd		*
  3207   00203A  50F5               	movf	tablat,w,c
  3208   00203C  0900               	iorlw	0
  3209   00203E  A4D8               	btfss	status,2,c
  3210   002040  EF24  F010         	goto	u2231
  3211   002044  EF26  F010         	goto	u2230
  3212   002048                     u2231:
  3213   002048  EF0A  F010         	goto	l2816
  3214   00204C                     u2230:
  3215   00204C                     
  3216                           ;/Applications/microchip/xc8/v2.41/pic/sources/c99/common/doprnt.c: 1564:  return 0;
  3217   00204C  0E00               	movlw	0
  3218   00204E  6E3F               	movwf	(?_vfprintf+1)^0,c
  3219   002050  0E00               	movlw	0
  3220   002052  6E3E               	movwf	?_vfprintf^0,c
  3221   002054  0012               	return		;funcret
  3222   002056                     __end_of_vfprintf:
  3223                           	callstack 0
  3224                           
  3225 ;; *************** function _vfpfcnvrt *****************
  3226 ;; Defined at:
  3227 ;;		line 1048 in file "/Applications/microchip/xc8/v2.41/pic/sources/c99/common/doprnt.c"
  3228 ;; Parameters:    Size  Location     Type
  3229 ;;  fp              2   43[COMRAM] PTR struct _IO_FILE
  3230 ;;		 -> sprintf@f(12), 
  3231 ;;  fmt             2   45[COMRAM] PTR PTR unsigned char 
  3232 ;;		 -> vfprintf@cfmt(2), 
  3233 ;;  ap              2   47[COMRAM] PTR PTR void 
  3234 ;;		 -> sprintf@ap(2), 
  3235 ;; Auto vars:     Size  Location     Type
  3236 ;;  convarg         4   55[COMRAM] struct .
  3237 ;;  cp              2   59[COMRAM] PTR unsigned char 
  3238 ;;		 -> STR_17(16), STR_13(20), STR_12(12), STR_9(12), 
  3239 ;;  done            2   51[COMRAM] int 
  3240 ;;  i               2    0        int 
  3241 ;;  c               1    0        unsigned char 
  3242 ;; Return value:  Size  Location     Type
  3243 ;;                  1    wreg      void 
  3244 ;; Registers used:
  3245 ;;		wreg, fsr1l, fsr1h, fsr2l, fsr2h, status,2, status,0, tblptrl, tblptrh, tblptru, prodl, prodh, cstack
  3246 ;; Tracked objects:
  3247 ;;		On entry : 0/0
  3248 ;;		On exit  : 0/0
  3249 ;;		Unchanged: 0/0
  3250 ;; Data sizes:     COMRAM   BANK0   BANK1   BANK2   BANK3   BANK4   BANK5   BANK6   BANK7
  3251 ;;      Params:         6       0       0       0       0       0       0       0       0
  3252 ;;      Locals:        10       0       0       0       0       0       0       0       0
  3253 ;;      Temps:          2       0       0       0       0       0       0       0       0
  3254 ;;      Totals:        18       0       0       0       0       0       0       0       0
  3255 ;;Total ram usage:       18 bytes
  3256 ;; Hardware stack levels used: 1
  3257 ;; Hardware stack levels required when called: 5
  3258 ;; This function calls:
  3259 ;;		_dtoa
  3260 ;;		_fputc
  3261 ;;		_read_prec_or_width
  3262 ;;		_stoa
  3263 ;;		_strncmp
  3264 ;;		_xtoa
  3265 ;; This function is called by:
  3266 ;;		_vfprintf
  3267 ;; This function uses a non-reentrant model
  3268 ;;
  3269                           
  3270                           	psect	text15
  3271   0008F2                     __ptext15:
  3272                           	callstack 0
  3273   0008F2                     _vfpfcnvrt:
  3274                           	callstack 22
  3275   0008F2                     
  3276                           ;/Applications/microchip/xc8/v2.41/pic/sources/c99/common/doprnt.c: 1048: vfpfcnvrt(FILE
      +                           *fp, char *fmt[], va_list ap);/Applications/microchip/xc8/v2.41/pic/sources/c99/common/
      +                          doprnt.c: 1049: {;/Applications/microchip/xc8/v2.41/pic/sources/c99/common/doprnt.c: 105
      +                          0:     char c, *cp;;/Applications/microchip/xc8/v2.41/pic/sources/c99/common/doprnt.c: 1
      +                          051:     int done, i;;/Applications/microchip/xc8/v2.41/pic/sources/c99/common/doprnt.c:
      +                           1059:  } convarg;;/Applications/microchip/xc8/v2.41/pic/sources/c99/common/doprnt.c: 10
      +                          62:     if ((*fmt)[0] == '%') {
  3277   0008F2  C02E  FFD9         	movff	vfpfcnvrt@fmt,fsr2l
  3278   0008F6  C02F  FFDA         	movff	vfpfcnvrt@fmt+1,fsr2h
  3279   0008FA  CFDE FFF6          	movff	postinc2,tblptrl
  3280   0008FE  CFDD FFF7          	movff	postdec2,tblptrh
  3281   000902                     	if	0	;tblptru may be non-zero
  3282   000902                     	endif
  3283   000902                     	if	0	;tblptru may be non-zero
  3284   000902                     	endif
  3285   000902  0008               	tblrd		*
  3286   000904  50F5               	movf	tablat,w,c
  3287   000906  0A25               	xorlw	37
  3288   000908  A4D8               	btfss	status,2,c
  3289   00090A  EF89  F004         	goto	u2081
  3290   00090E  EF8B  F004         	goto	u2080
  3291   000912                     u2081:
  3292   000912  EF0C  F006         	goto	l2740
  3293   000916                     u2080:
  3294   000916                     
  3295                           ;/Applications/microchip/xc8/v2.41/pic/sources/c99/common/doprnt.c: 1063:         ++*fmt
      +                          ;
  3296   000916  C02E  FFD9         	movff	vfpfcnvrt@fmt,fsr2l
  3297   00091A  C02F  FFDA         	movff	vfpfcnvrt@fmt+1,fsr2h
  3298   00091E  2ADE               	incf	postinc2,f,c
  3299   000920  0E00               	movlw	0
  3300   000922  22DD               	addwfc	postdec2,f,c
  3301   000924                     
  3302                           ;/Applications/microchip/xc8/v2.41/pic/sources/c99/common/doprnt.c: 1065:         flags 
      +                          = width = 0;
  3303   000924  0E00               	movlw	0
  3304   000926  0100               	movlb	0	; () banked
  3305   000928  6F61               	movwf	(_width+1)& (0+255),b
  3306   00092A  0E00               	movlw	0
  3307   00092C  6F60               	movwf	_width& (0+255),b
  3308   00092E  C060  F070         	movff	_width,_flags
  3309   000932                     
  3310                           ; BSR set to: 0
  3311                           ;/Applications/microchip/xc8/v2.41/pic/sources/c99/common/doprnt.c: 1066:         prec =
      +                           -1;
  3312   000932  6962               	setf	_prec& (0+255),b
  3313   000934  6963               	setf	(_prec+1)& (0+255),b
  3314   000936                     
  3315                           ; BSR set to: 0
  3316                           ;/Applications/microchip/xc8/v2.41/pic/sources/c99/common/doprnt.c: 1070:         done =
      +                           0;
  3317   000936  0E00               	movlw	0
  3318   000938  6E35               	movwf	(vfpfcnvrt@done+1)^0,c
  3319   00093A  0E00               	movlw	0
  3320   00093C  6E34               	movwf	vfpfcnvrt@done^0,c
  3321                           
  3322                           ;/Applications/microchip/xc8/v2.41/pic/sources/c99/common/doprnt.c: 1071:         while 
      +                          (!done) {
  3323   00093E  EFCC  F004         	goto	l2688
  3324   000942                     l2678:
  3325                           
  3326                           ;/Applications/microchip/xc8/v2.41/pic/sources/c99/common/doprnt.c: 1081:               
      +                                flags |= (1 << 1);
  3327   000942  0100               	movlb	0	; () banked
  3328   000944  8370               	bsf	_flags& (0+255),1,b
  3329   000946                     
  3330                           ; BSR set to: 0
  3331                           ;/Applications/microchip/xc8/v2.41/pic/sources/c99/common/doprnt.c: 1082:               
      +                                ++*fmt;
  3332   000946  C02E  FFD9         	movff	vfpfcnvrt@fmt,fsr2l
  3333   00094A  C02F  FFDA         	movff	vfpfcnvrt@fmt+1,fsr2h
  3334   00094E  2ADE               	incf	postinc2,f,c
  3335   000950  0E00               	movlw	0
  3336   000952  22DD               	addwfc	postdec2,f,c
  3337                           
  3338                           ;/Applications/microchip/xc8/v2.41/pic/sources/c99/common/doprnt.c: 1083:               
      +                                break;
  3339   000954  EFCC  F004         	goto	l2688
  3340   000958                     l2682:
  3341                           
  3342                           ;/Applications/microchip/xc8/v2.41/pic/sources/c99/common/doprnt.c: 1104:               
      +                                done = 1;
  3343   000958  0E00               	movlw	0
  3344   00095A  6E35               	movwf	(vfpfcnvrt@done+1)^0,c
  3345   00095C  0E01               	movlw	1
  3346   00095E  6E34               	movwf	vfpfcnvrt@done^0,c
  3347                           
  3348                           ;/Applications/microchip/xc8/v2.41/pic/sources/c99/common/doprnt.c: 1105:               
      +                                break;
  3349   000960  EFCC  F004         	goto	l2688
  3350   000964                     l2686:
  3351   000964  C02E  FFD9         	movff	vfpfcnvrt@fmt,fsr2l
  3352   000968  C02F  FFDA         	movff	vfpfcnvrt@fmt+1,fsr2h
  3353   00096C  CFDE FFF6          	movff	postinc2,tblptrl
  3354   000970  CFDD FFF7          	movff	postdec2,tblptrh
  3355   000974                     	if	0	;tblptru may be non-zero
  3356   000974                     	endif
  3357   000974                     	if	0	;tblptru may be non-zero
  3358   000974                     	endif
  3359   000974  0008               	tblrd		*
  3360   000976  50F5               	movf	tablat,w,c
  3361   000978  6E32               	movwf	??_vfpfcnvrt^0,c
  3362   00097A  6A33               	clrf	(??_vfpfcnvrt+1)^0,c
  3363                           
  3364                           ; Switch on 2 bytes has been partitioned into a top level switch of size 1, and 1 sub-sw
      +                          itches
  3365                           ; Switch size 1, requested type "simple"
  3366                           ; Number of cases is 1, Range of values is 0 to 0
  3367                           ; switch strategies available:
  3368                           ; Name         Instructions Cycles
  3369                           ; simple_byte            4     3 (average)
  3370                           ;	Chosen strategy is simple_byte
  3371   00097C  5033               	movf	(??_vfpfcnvrt+1)^0,w,c
  3372   00097E  0A00               	xorlw	0	; case 0
  3373   000980  B4D8               	btfsc	status,2,c
  3374   000982  EFC5  F004         	goto	l3470
  3375   000986  EFAC  F004         	goto	l2682
  3376   00098A                     l3470:
  3377                           
  3378                           ; Switch size 1, requested type "simple"
  3379                           ; Number of cases is 1, Range of values is 48 to 48
  3380                           ; switch strategies available:
  3381                           ; Name         Instructions Cycles
  3382                           ; simple_byte            4     3 (average)
  3383                           ;	Chosen strategy is simple_byte
  3384   00098A  5032               	movf	??_vfpfcnvrt^0,w,c
  3385   00098C  0A30               	xorlw	48	; case 48
  3386   00098E  B4D8               	btfsc	status,2,c
  3387   000990  EFA1  F004         	goto	l2678
  3388   000994  EFAC  F004         	goto	l2682
  3389   000998                     l2688:
  3390                           
  3391                           ;/Applications/microchip/xc8/v2.41/pic/sources/c99/common/doprnt.c: 1071:         while 
      +                          (!done) {
  3392   000998  5034               	movf	vfpfcnvrt@done^0,w,c
  3393   00099A  1035               	iorwf	(vfpfcnvrt@done+1)^0,w,c
  3394   00099C  B4D8               	btfsc	status,2,c
  3395   00099E  EFD3  F004         	goto	u2091
  3396   0009A2  EFD5  F004         	goto	u2090
  3397   0009A6                     u2091:
  3398   0009A6  EFB2  F004         	goto	l2686
  3399   0009AA                     u2090:
  3400   0009AA                     
  3401                           ;/Applications/microchip/xc8/v2.41/pic/sources/c99/common/doprnt.c: 1117:   width = read
      +                          _prec_or_width(fmt, ap);
  3402   0009AA  C02E  F007         	movff	vfpfcnvrt@fmt,read_prec_or_width@fmt
  3403   0009AE  C02F  F008         	movff	vfpfcnvrt@fmt+1,read_prec_or_width@fmt+1
  3404   0009B2  C030  F009         	movff	vfpfcnvrt@ap,read_prec_or_width@ap
  3405   0009B6  C031  F00A         	movff	vfpfcnvrt@ap+1,read_prec_or_width@ap+1
  3406   0009BA  EC32  F00D         	call	_read_prec_or_width	;wreg free
  3407   0009BE  C007  F060         	movff	?_read_prec_or_width,_width
  3408   0009C2  C008  F061         	movff	?_read_prec_or_width+1,_width+1
  3409   0009C6                     
  3410                           ;/Applications/microchip/xc8/v2.41/pic/sources/c99/common/doprnt.c: 1118:   if (width < 
      +                          0) {
  3411   0009C6  0100               	movlb	0	; () banked
  3412   0009C8  BF61               	btfsc	(_width+1)& (0+255),7,b
  3413   0009CA  EFEB  F004         	goto	u2100
  3414   0009CE  EFE9  F004         	goto	u2101
  3415   0009D2                     u2101:
  3416   0009D2  EFF0  F004         	goto	l2696
  3417   0009D6                     u2100:
  3418   0009D6                     
  3419                           ; BSR set to: 0
  3420                           ;/Applications/microchip/xc8/v2.41/pic/sources/c99/common/doprnt.c: 1119:    flags |= (1
      +                           << 0);
  3421   0009D6  8170               	bsf	_flags& (0+255),0,b
  3422                           
  3423                           ;/Applications/microchip/xc8/v2.41/pic/sources/c99/common/doprnt.c: 1120:    width = -wi
      +                          dth;
  3424   0009D8  6D60               	negf	_width& (0+255),b
  3425   0009DA  1F61               	comf	(_width+1)& (0+255),f,b
  3426   0009DC  B0D8               	btfsc	status,0,c
  3427   0009DE  2B61               	incf	(_width+1)& (0+255),f,b
  3428   0009E0                     l2696:
  3429                           
  3430                           ; BSR set to: 0
  3431                           ;/Applications/microchip/xc8/v2.41/pic/sources/c99/common/doprnt.c: 1143:   cp = *fmt;
  3432   0009E0  C02E  FFD9         	movff	vfpfcnvrt@fmt,fsr2l
  3433   0009E4  C02F  FFDA         	movff	vfpfcnvrt@fmt+1,fsr2h
  3434   0009E8  CFDE F03C          	movff	postinc2,vfpfcnvrt@cp
  3435   0009EC  CFDD F03D          	movff	postdec2,vfpfcnvrt@cp+1
  3436   0009F0                     
  3437                           ; BSR set to: 0
  3438                           ;/Applications/microchip/xc8/v2.41/pic/sources/c99/common/doprnt.c: 1213:   if (*cp == '
      +                          d' || *cp == 'i') {
  3439   0009F0  C03C  FFF6         	movff	vfpfcnvrt@cp,tblptrl
  3440   0009F4  C03D  FFF7         	movff	vfpfcnvrt@cp+1,tblptrh
  3441   0009F8                     	if	0	;tblptru may be non-zero
  3442   0009F8                     	endif
  3443   0009F8                     	if	0	;tblptru may be non-zero
  3444   0009F8                     	endif
  3445   0009F8  0008               	tblrd		*
  3446   0009FA  50F5               	movf	tablat,w,c
  3447   0009FC  0A64               	xorlw	100
  3448   0009FE  B4D8               	btfsc	status,2,c
  3449   000A00  EF04  F005         	goto	u2111
  3450   000A04  EF06  F005         	goto	u2110
  3451   000A08                     u2111:
  3452   000A08  EF14  F005         	goto	l2702
  3453   000A0C                     u2110:
  3454   000A0C                     
  3455                           ; BSR set to: 0
  3456   000A0C  C03C  FFF6         	movff	vfpfcnvrt@cp,tblptrl
  3457   000A10  C03D  FFF7         	movff	vfpfcnvrt@cp+1,tblptrh
  3458   000A14                     	if	0	;tblptru may be non-zero
  3459   000A14                     	endif
  3460   000A14                     	if	0	;tblptru may be non-zero
  3461   000A14                     	endif
  3462   000A14  0008               	tblrd		*
  3463   000A16  50F5               	movf	tablat,w,c
  3464   000A18  0A69               	xorlw	105
  3465   000A1A  A4D8               	btfss	status,2,c
  3466   000A1C  EF12  F005         	goto	u2121
  3467   000A20  EF14  F005         	goto	u2120
  3468   000A24                     u2121:
  3469   000A24  EF42  F005         	goto	l2708
  3470   000A28                     u2120:
  3471   000A28                     l2702:
  3472                           
  3473                           ; BSR set to: 0
  3474                           ;/Applications/microchip/xc8/v2.41/pic/sources/c99/common/doprnt.c: 1256:    convarg.sin
      +                          t = (vfpf_sint_t)(int)(*(int *)__va_arg(*(int **)ap, (int)0));
  3475   000A28  C030  FFD9         	movff	vfpfcnvrt@ap,fsr2l
  3476   000A2C  C031  FFDA         	movff	vfpfcnvrt@ap+1,fsr2h
  3477   000A30  CFDF F032          	movff	indf2,??_vfpfcnvrt
  3478   000A34  0E02               	movlw	2
  3479   000A36  26DE               	addwf	postinc2,f,c
  3480   000A38  CFDF F033          	movff	indf2,??_vfpfcnvrt+1
  3481   000A3C  0E00               	movlw	0
  3482   000A3E  22DD               	addwfc	postdec2,f,c
  3483   000A40  C032  FFD9         	movff	??_vfpfcnvrt,fsr2l
  3484   000A44  C033  FFDA         	movff	??_vfpfcnvrt+1,fsr2h
  3485   000A48  CFDE F038          	movff	postinc2,vfpfcnvrt@convarg
  3486   000A4C  CFDD F039          	movff	postdec2,vfpfcnvrt@convarg+1
  3487                           
  3488                           ;/Applications/microchip/xc8/v2.41/pic/sources/c99/common/doprnt.c: 1258:    *fmt = cp+1
      +                          ;
  3489   000A50  0E01               	movlw	1
  3490   000A52  243C               	addwf	vfpfcnvrt@cp^0,w,c
  3491   000A54  6E32               	movwf	??_vfpfcnvrt^0,c
  3492   000A56  0E00               	movlw	0
  3493   000A58  203D               	addwfc	(vfpfcnvrt@cp+1)^0,w,c
  3494   000A5A  6E33               	movwf	(??_vfpfcnvrt+1)^0,c
  3495   000A5C  C02E  FFD9         	movff	vfpfcnvrt@fmt,fsr2l
  3496   000A60  C02F  FFDA         	movff	vfpfcnvrt@fmt+1,fsr2h
  3497   000A64  C032  FFDE         	movff	??_vfpfcnvrt,postinc2
  3498   000A68  C033  FFDD         	movff	??_vfpfcnvrt+1,postdec2
  3499   000A6C                     
  3500                           ; BSR set to: 0
  3501                           ;/Applications/microchip/xc8/v2.41/pic/sources/c99/common/doprnt.c: 1259:    return (voi
      +                          d) dtoa(fp, convarg.sint);;	Return value of _vfpfcnvrt is never used
  3502   000A6C  C02C  F01C         	movff	vfpfcnvrt@fp,dtoa@fp
  3503   000A70  C02D  F01D         	movff	vfpfcnvrt@fp+1,dtoa@fp+1
  3504   000A74  C038  F01E         	movff	vfpfcnvrt@convarg,dtoa@d
  3505   000A78  C039  F01F         	movff	vfpfcnvrt@convarg+1,dtoa@d+1
  3506   000A7C  EC6B  F008         	call	_dtoa	;wreg free
  3507   000A80  EF20  F006         	goto	l1200
  3508   000A84                     l2708:
  3509                           
  3510                           ; BSR set to: 0
  3511   000A84  C03C  FFF6         	movff	vfpfcnvrt@cp,tblptrl
  3512   000A88  C03D  FFF7         	movff	vfpfcnvrt@cp+1,tblptrh
  3513   000A8C                     	if	0	;tblptru may be non-zero
  3514   000A8C                     	endif
  3515   000A8C                     	if	0	;tblptru may be non-zero
  3516   000A8C                     	endif
  3517   000A8C  0008               	tblrd		*
  3518   000A8E  50F5               	movf	tablat,w,c
  3519   000A90  0A78               	xorlw	120
  3520   000A92  A4D8               	btfss	status,2,c
  3521   000A94  EF4E  F005         	goto	u2131
  3522   000A98  EF50  F005         	goto	u2130
  3523   000A9C                     u2131:
  3524   000A9C  EF96  F005         	goto	l2720
  3525   000AA0                     u2130:
  3526   000AA0                     
  3527                           ; BSR set to: 0
  3528                           ;/Applications/microchip/xc8/v2.41/pic/sources/c99/common/doprnt.c: 1278:     ) {;/Appli
      +                          cations/microchip/xc8/v2.41/pic/sources/c99/common/doprnt.c: 1321:    convarg.uint = (vf
      +                          pf_uint_t)(unsigned int)(*(unsigned int *)__va_arg(*(unsigned int **)ap, (unsigned int)0
      +                          ));
  3529   000AA0  C030  FFD9         	movff	vfpfcnvrt@ap,fsr2l
  3530   000AA4  C031  FFDA         	movff	vfpfcnvrt@ap+1,fsr2h
  3531   000AA8  CFDF F032          	movff	indf2,??_vfpfcnvrt
  3532   000AAC  0E02               	movlw	2
  3533   000AAE  26DE               	addwf	postinc2,f,c
  3534   000AB0  CFDF F033          	movff	indf2,??_vfpfcnvrt+1
  3535   000AB4  0E00               	movlw	0
  3536   000AB6  22DD               	addwfc	postdec2,f,c
  3537   000AB8  C032  FFD9         	movff	??_vfpfcnvrt,fsr2l
  3538   000ABC  C033  FFDA         	movff	??_vfpfcnvrt+1,fsr2h
  3539   000AC0  CFDE F038          	movff	postinc2,vfpfcnvrt@convarg
  3540   000AC4  CFDD F039          	movff	postdec2,vfpfcnvrt@convarg+1
  3541                           
  3542                           ;/Applications/microchip/xc8/v2.41/pic/sources/c99/common/doprnt.c: 1323:    *fmt = cp+1
      +                          ;
  3543   000AC8  0E01               	movlw	1
  3544   000ACA  243C               	addwf	vfpfcnvrt@cp^0,w,c
  3545   000ACC  6E32               	movwf	??_vfpfcnvrt^0,c
  3546   000ACE  0E00               	movlw	0
  3547   000AD0  203D               	addwfc	(vfpfcnvrt@cp+1)^0,w,c
  3548   000AD2  6E33               	movwf	(??_vfpfcnvrt+1)^0,c
  3549   000AD4  C02E  FFD9         	movff	vfpfcnvrt@fmt,fsr2l
  3550   000AD8  C02F  FFDA         	movff	vfpfcnvrt@fmt+1,fsr2h
  3551   000ADC  C032  FFDE         	movff	??_vfpfcnvrt,postinc2
  3552   000AE0  C033  FFDD         	movff	??_vfpfcnvrt+1,postdec2
  3553                           
  3554                           ;/Applications/microchip/xc8/v2.41/pic/sources/c99/common/doprnt.c: 1324:    switch (*cp
      +                          ) {
  3555   000AE4  EF80  F005         	goto	l2718
  3556   000AE8                     l2712:
  3557                           
  3558                           ; BSR set to: 0
  3559                           ;/Applications/microchip/xc8/v2.41/pic/sources/c99/common/doprnt.c: 1340:      return (v
      +                          oid) xtoa(fp,convarg.uint);;	Return value of _vfpfcnvrt is never used
  3560   000AE8  C02C  F01C         	movff	vfpfcnvrt@fp,xtoa@fp
  3561   000AEC  C02D  F01D         	movff	vfpfcnvrt@fp+1,xtoa@fp+1
  3562   000AF0  C038  F01E         	movff	vfpfcnvrt@convarg,xtoa@d
  3563   000AF4  C039  F01F         	movff	vfpfcnvrt@convarg+1,xtoa@d+1
  3564   000AF8  ECB2  F00B         	call	_xtoa	;wreg free
  3565   000AFC  EF20  F006         	goto	l1200
  3566   000B00                     l2718:
  3567                           
  3568                           ; BSR set to: 0
  3569   000B00  C03C  FFF6         	movff	vfpfcnvrt@cp,tblptrl
  3570   000B04  C03D  FFF7         	movff	vfpfcnvrt@cp+1,tblptrh
  3571   000B08                     	if	0	;tblptru may be non-zero
  3572   000B08                     	endif
  3573   000B08                     	if	0	;tblptru may be non-zero
  3574   000B08                     	endif
  3575   000B08  0008               	tblrd		*
  3576   000B0A  50F5               	movf	tablat,w,c
  3577   000B0C  6E32               	movwf	??_vfpfcnvrt^0,c
  3578   000B0E  6A33               	clrf	(??_vfpfcnvrt+1)^0,c
  3579                           
  3580                           ; Switch on 2 bytes has been partitioned into a top level switch of size 1, and 1 sub-sw
      +                          itches
  3581                           ; Switch size 1, requested type "simple"
  3582                           ; Number of cases is 1, Range of values is 0 to 0
  3583                           ; switch strategies available:
  3584                           ; Name         Instructions Cycles
  3585                           ; simple_byte            4     3 (average)
  3586                           ;	Chosen strategy is simple_byte
  3587   000B10  5033               	movf	(??_vfpfcnvrt+1)^0,w,c
  3588   000B12  0A00               	xorlw	0	; case 0
  3589   000B14  B4D8               	btfsc	status,2,c
  3590   000B16  EF8F  F005         	goto	l3472
  3591   000B1A  EF96  F005         	goto	l2720
  3592   000B1E                     l3472:
  3593                           
  3594                           ; BSR set to: 0
  3595                           ; Switch size 1, requested type "simple"
  3596                           ; Number of cases is 1, Range of values is 120 to 120
  3597                           ; switch strategies available:
  3598                           ; Name         Instructions Cycles
  3599                           ; simple_byte            4     3 (average)
  3600                           ;	Chosen strategy is simple_byte
  3601   000B1E  5032               	movf	??_vfpfcnvrt^0,w,c
  3602   000B20  0A78               	xorlw	120	; case 120
  3603   000B22  B4D8               	btfsc	status,2,c
  3604   000B24  EF74  F005         	goto	l2712
  3605   000B28  EF96  F005         	goto	l2720
  3606   000B2C                     l2720:
  3607                           
  3608                           ; BSR set to: 0
  3609                           ;/Applications/microchip/xc8/v2.41/pic/sources/c99/common/doprnt.c: 1409:         if (*f
      +                          mt[0] == 's' || !strncmp(*fmt, "lls", ((sizeof("lls")/sizeof("lls"[0]))-1))) {
  3610   000B2C  C02E  FFD9         	movff	vfpfcnvrt@fmt,fsr2l
  3611   000B30  C02F  FFDA         	movff	vfpfcnvrt@fmt+1,fsr2h
  3612   000B34  CFDE FFF6          	movff	postinc2,tblptrl
  3613   000B38  CFDD FFF7          	movff	postdec2,tblptrh
  3614   000B3C                     	if	0	;tblptru may be non-zero
  3615   000B3C                     	endif
  3616   000B3C                     	if	0	;tblptru may be non-zero
  3617   000B3C                     	endif
  3618   000B3C  0008               	tblrd		*
  3619   000B3E  50F5               	movf	tablat,w,c
  3620   000B40  0A73               	xorlw	115
  3621   000B42  B4D8               	btfsc	status,2,c
  3622   000B44  EFA6  F005         	goto	u2141
  3623   000B48  EFA8  F005         	goto	u2140
  3624   000B4C                     u2141:
  3625   000B4C  EFC3  F005         	goto	l2724
  3626   000B50                     u2140:
  3627   000B50                     
  3628                           ; BSR set to: 0
  3629   000B50  C02E  FFD9         	movff	vfpfcnvrt@fmt,fsr2l
  3630   000B54  C02F  FFDA         	movff	vfpfcnvrt@fmt+1,fsr2h
  3631   000B58  CFDE F001          	movff	postinc2,strncmp@_l
  3632   000B5C  CFDD F002          	movff	postdec2,strncmp@_l+1
  3633   000B60  0EED               	movlw	low STR_18
  3634   000B62  6E03               	movwf	strncmp@_r^0,c
  3635   000B64  0E08               	movlw	high STR_18
  3636   000B66  6E04               	movwf	(strncmp@_r+1)^0,c
  3637   000B68  0E00               	movlw	0
  3638   000B6A  6E06               	movwf	(strncmp@n+1)^0,c
  3639   000B6C  0E03               	movlw	3
  3640   000B6E  6E05               	movwf	strncmp@n^0,c
  3641   000B70  EC5E  F00C         	call	_strncmp	;wreg free
  3642   000B74  5001               	movf	?_strncmp^0,w,c
  3643   000B76  1002               	iorwf	(?_strncmp+1)^0,w,c
  3644   000B78  A4D8               	btfss	status,2,c
  3645   000B7A  EFC1  F005         	goto	u2151
  3646   000B7E  EFC3  F005         	goto	u2150
  3647   000B82                     u2151:
  3648   000B82  EF03  F006         	goto	l2736
  3649   000B86                     u2150:
  3650   000B86                     l2724:
  3651                           
  3652                           ;/Applications/microchip/xc8/v2.41/pic/sources/c99/common/doprnt.c: 1411:    *fmt += *fm
      +                          t[0] == 's' ? 1 : ((sizeof("lls")/sizeof("lls"[0]))-1);
  3653   000B86  C02E  FFD9         	movff	vfpfcnvrt@fmt,fsr2l
  3654   000B8A  C02F  FFDA         	movff	vfpfcnvrt@fmt+1,fsr2h
  3655   000B8E  CFDE FFF6          	movff	postinc2,tblptrl
  3656   000B92  CFDD FFF7          	movff	postdec2,tblptrh
  3657   000B96                     	if	0	;tblptru may be non-zero
  3658   000B96                     	endif
  3659   000B96                     	if	0	;tblptru may be non-zero
  3660   000B96                     	endif
  3661   000B96  0008               	tblrd		*
  3662   000B98  50F5               	movf	tablat,w,c
  3663   000B9A  0A73               	xorlw	115
  3664   000B9C  B4D8               	btfsc	status,2,c
  3665   000B9E  EFD3  F005         	goto	u2161
  3666   000BA2  EFD5  F005         	goto	u2160
  3667   000BA6                     u2161:
  3668   000BA6  EFDB  F005         	goto	l2728
  3669   000BAA                     u2160:
  3670   000BAA  0E00               	movlw	0
  3671   000BAC  6E37               	movwf	(_vfpfcnvrt$1291+1)^0,c
  3672   000BAE  0E03               	movlw	3
  3673   000BB0  6E36               	movwf	_vfpfcnvrt$1291^0,c
  3674   000BB2  EFDF  F005         	goto	l2730
  3675   000BB6                     l2728:
  3676   000BB6  0E00               	movlw	0
  3677   000BB8  6E37               	movwf	(_vfpfcnvrt$1291+1)^0,c
  3678   000BBA  0E01               	movlw	1
  3679   000BBC  6E36               	movwf	_vfpfcnvrt$1291^0,c
  3680   000BBE                     l2730:
  3681   000BBE  C02E  FFD9         	movff	vfpfcnvrt@fmt,fsr2l
  3682   000BC2  C02F  FFDA         	movff	vfpfcnvrt@fmt+1,fsr2h
  3683   000BC6  5036               	movf	_vfpfcnvrt$1291^0,w,c
  3684   000BC8  26DE               	addwf	postinc2,f,c
  3685   000BCA  5037               	movf	(_vfpfcnvrt$1291+1)^0,w,c
  3686   000BCC  22DD               	addwfc	postdec2,f,c
  3687   000BCE                     
  3688                           ;/Applications/microchip/xc8/v2.41/pic/sources/c99/common/doprnt.c: 1412:             re
      +                          turn (void) stoa(fp, (*(char * *)__va_arg(*(char * **)ap, (char *)0)));;	Return value of
      +                           _vfpfcnvrt is never used
  3689   000BCE  C02C  F00A         	movff	vfpfcnvrt@fp,stoa@fp
  3690   000BD2  C02D  F00B         	movff	vfpfcnvrt@fp+1,stoa@fp+1
  3691   000BD6  C030  FFD9         	movff	vfpfcnvrt@ap,fsr2l
  3692   000BDA  C031  FFDA         	movff	vfpfcnvrt@ap+1,fsr2h
  3693   000BDE  CFDF F032          	movff	indf2,??_vfpfcnvrt
  3694   000BE2  0E02               	movlw	2
  3695   000BE4  26DE               	addwf	postinc2,f,c
  3696   000BE6  CFDF F033          	movff	indf2,??_vfpfcnvrt+1
  3697   000BEA  0E00               	movlw	0
  3698   000BEC  22DD               	addwfc	postdec2,f,c
  3699   000BEE  C032  FFD9         	movff	??_vfpfcnvrt,fsr2l
  3700   000BF2  C033  FFDA         	movff	??_vfpfcnvrt+1,fsr2h
  3701   000BF6  CFDE F00C          	movff	postinc2,stoa@s
  3702   000BFA  CFDD F00D          	movff	postdec2,stoa@s+1
  3703   000BFE  EC2F  F00A         	call	_stoa	;wreg free
  3704   000C02  EF20  F006         	goto	l1200
  3705   000C06                     l2736:
  3706                           
  3707                           ;/Applications/microchip/xc8/v2.41/pic/sources/c99/common/doprnt.c: 1535:         ++*fmt
      +                          ;
  3708   000C06  C02E  FFD9         	movff	vfpfcnvrt@fmt,fsr2l
  3709   000C0A  C02F  FFDA         	movff	vfpfcnvrt@fmt+1,fsr2h
  3710   000C0E  2ADE               	incf	postinc2,f,c
  3711   000C10  0E00               	movlw	0
  3712   000C12  22DD               	addwfc	postdec2,f,c
  3713   000C14  EF20  F006         	goto	l1200
  3714   000C18                     l2740:
  3715                           
  3716                           ;/Applications/microchip/xc8/v2.41/pic/sources/c99/common/doprnt.c: 1540:     fputc((int
      +                          )(*fmt)[0], fp);
  3717   000C18  C02E  FFD9         	movff	vfpfcnvrt@fmt,fsr2l
  3718   000C1C  C02F  FFDA         	movff	vfpfcnvrt@fmt+1,fsr2h
  3719   000C20  CFDE FFF6          	movff	postinc2,tblptrl
  3720   000C24  CFDD FFF7          	movff	postdec2,tblptrh
  3721   000C28                     	if	0	;tblptru may be non-zero
  3722   000C28                     	endif
  3723   000C28                     	if	0	;tblptru may be non-zero
  3724   000C28                     	endif
  3725   000C28  0008               	tblrd		*
  3726   000C2A  50F5               	movf	tablat,w,c
  3727   000C2C  6E01               	movwf	fputc@c^0,c
  3728   000C2E  6A02               	clrf	(fputc@c+1)^0,c
  3729   000C30  C02C  F003         	movff	vfpfcnvrt@fp,fputc@fp
  3730   000C34  C02D  F004         	movff	vfpfcnvrt@fp+1,fputc@fp+1
  3731   000C38  ECCD  F00C         	call	_fputc	;wreg free
  3732   000C3C  EF03  F006         	goto	l2736
  3733   000C40                     l1200:
  3734   000C40  0012               	return		;funcret
  3735   000C42                     __end_of_vfpfcnvrt:
  3736                           	callstack 0
  3737                           
  3738 ;; *************** function _xtoa *****************
  3739 ;; Defined at:
  3740 ;;		line 955 in file "/Applications/microchip/xc8/v2.41/pic/sources/c99/common/doprnt.c"
  3741 ;; Parameters:    Size  Location     Type
  3742 ;;  fp              2   27[COMRAM] PTR struct _IO_FILE
  3743 ;;		 -> sprintf@f(12), 
  3744 ;;  d               2   29[COMRAM] unsigned int 
  3745 ;; Auto vars:     Size  Location     Type
  3746 ;;  i               2   40[COMRAM] int 
  3747 ;;  w               2   38[COMRAM] int 
  3748 ;;  p               2   36[COMRAM] int 
  3749 ;;  c               1   42[COMRAM] unsigned char 
  3750 ;; Return value:  Size  Location     Type
  3751 ;;                  1    wreg      void 
  3752 ;; Registers used:
  3753 ;;		wreg, fsr1l, fsr1h, fsr2l, fsr2h, status,2, status,0, cstack
  3754 ;; Tracked objects:
  3755 ;;		On entry : 0/0
  3756 ;;		On exit  : 0/0
  3757 ;;		Unchanged: 0/0
  3758 ;; Data sizes:     COMRAM   BANK0   BANK1   BANK2   BANK3   BANK4   BANK5   BANK6   BANK7
  3759 ;;      Params:         4       0       0       0       0       0       0       0       0
  3760 ;;      Locals:         9       0       0       0       0       0       0       0       0
  3761 ;;      Temps:          3       0       0       0       0       0       0       0       0
  3762 ;;      Totals:        16       0       0       0       0       0       0       0       0
  3763 ;;Total ram usage:       16 bytes
  3764 ;; Hardware stack levels used: 1
  3765 ;; Hardware stack levels required when called: 4
  3766 ;; This function calls:
  3767 ;;		_pad
  3768 ;; This function is called by:
  3769 ;;		_vfpfcnvrt
  3770 ;; This function uses a non-reentrant model
  3771 ;;
  3772                           
  3773                           	psect	text16
  3774   001764                     __ptext16:
  3775                           	callstack 0
  3776   001764                     _xtoa:
  3777                           	callstack 22
  3778   001764                     
  3779                           ;/Applications/microchip/xc8/v2.41/pic/sources/c99/common/doprnt.c: 955: static void xto
      +                          a(FILE *fp, vfpf_uint_t d);/Applications/microchip/xc8/v2.41/pic/sources/c99/common/dopr
      +                          nt.c: 958: {;/Applications/microchip/xc8/v2.41/pic/sources/c99/common/doprnt.c: 959:  ch
      +                          ar c;;/Applications/microchip/xc8/v2.41/pic/sources/c99/common/doprnt.c: 960:     int i,
      +                           p, w;;/Applications/microchip/xc8/v2.41/pic/sources/c99/common/doprnt.c: 967:     if (!
      +                          (prec < 0)) {
  3780   001764  0100               	movlb	0	; () banked
  3781   001766  BF63               	btfsc	(_prec+1)& (0+255),7,b
  3782   001768  EFB8  F00B         	goto	u1871
  3783   00176C  EFBA  F00B         	goto	u1870
  3784   001770                     u1871:
  3785   001770  EFBB  F00B         	goto	l2562
  3786   001774                     u1870:
  3787   001774                     
  3788                           ; BSR set to: 0
  3789                           ;/Applications/microchip/xc8/v2.41/pic/sources/c99/common/doprnt.c: 968:         flags &
      +                          = ~(1 << 1);
  3790   001774  9370               	bcf	_flags& (0+255),1,b
  3791   001776                     l2562:
  3792                           
  3793                           ; BSR set to: 0
  3794                           ;/Applications/microchip/xc8/v2.41/pic/sources/c99/common/doprnt.c: 971:     p = (0 <= p
      +                          rec) ? prec : 1;
  3795   001776  BF63               	btfsc	(_prec+1)& (0+255),7,b
  3796   001778  EFC2  F00B         	goto	u1880
  3797   00177C  EFC0  F00B         	goto	u1881
  3798   001780                     u1881:
  3799   001780  EFC8  F00B         	goto	l1163
  3800   001784                     u1880:
  3801   001784                     
  3802                           ; BSR set to: 0
  3803   001784  0E00               	movlw	0
  3804   001786  6E26               	movwf	(xtoa@p+1)^0,c
  3805   001788  0E01               	movlw	1
  3806   00178A  6E25               	movwf	xtoa@p^0,c
  3807   00178C  EFCC  F00B         	goto	l1165
  3808   001790                     l1163:
  3809                           
  3810                           ; BSR set to: 0
  3811   001790  C062  F025         	movff	_prec,xtoa@p
  3812   001794  C063  F026         	movff	_prec+1,xtoa@p+1
  3813   001798                     l1165:
  3814                           
  3815                           ; BSR set to: 0
  3816                           ;/Applications/microchip/xc8/v2.41/pic/sources/c99/common/doprnt.c: 972:     w = width;
  3817   001798  C060  F027         	movff	_width,xtoa@w
  3818   00179C  C061  F028         	movff	_width+1,xtoa@w+1
  3819   0017A0                     
  3820                           ; BSR set to: 0
  3821                           ;/Applications/microchip/xc8/v2.41/pic/sources/c99/common/doprnt.c: 981:     i = sizeof(
      +                          dbuf) - 1;
  3822   0017A0  0E00               	movlw	0
  3823   0017A2  6E2A               	movwf	(xtoa@i+1)^0,c
  3824   0017A4  0E1F               	movlw	31
  3825   0017A6  6E29               	movwf	xtoa@i^0,c
  3826   0017A8                     
  3827                           ; BSR set to: 0
  3828                           ;/Applications/microchip/xc8/v2.41/pic/sources/c99/common/doprnt.c: 982:     dbuf[i] = '
      +                          \0';
  3829   0017A8  0E00               	movlw	0
  3830   0017AA  6F97               	movwf	(_dbuf+31)& (0+255),b
  3831                           
  3832                           ;/Applications/microchip/xc8/v2.41/pic/sources/c99/common/doprnt.c: 983:     while (!(i 
      +                          < 2) && (d || (0 < p)
  3833   0017AC  EF14  F00C         	goto	l2590
  3834   0017B0                     l2570:
  3835                           
  3836                           ;/Applications/microchip/xc8/v2.41/pic/sources/c99/common/doprnt.c: 987:     )) {;/Appli
      +                          cations/microchip/xc8/v2.41/pic/sources/c99/common/doprnt.c: 988:         --i;
  3837   0017B0  0629               	decf	xtoa@i^0,f,c
  3838   0017B2  A0D8               	btfss	status,0,c
  3839   0017B4  062A               	decf	(xtoa@i+1)^0,f,c
  3840   0017B6                     
  3841                           ;/Applications/microchip/xc8/v2.41/pic/sources/c99/common/doprnt.c: 989:         c = d &
      +                           0x0f;
  3842   0017B6  501E               	movf	xtoa@d^0,w,c
  3843   0017B8  0B0F               	andlw	15
  3844   0017BA  6E2B               	movwf	xtoa@c^0,c
  3845   0017BC                     
  3846                           ;/Applications/microchip/xc8/v2.41/pic/sources/c99/common/doprnt.c: 991:         c = (c 
      +                          < 10) ? (int)'0' + c : (int)'a' + (c - 10);
  3847   0017BC  0E09               	movlw	9
  3848   0017BE  642B               	cpfsgt	xtoa@c^0,c
  3849   0017C0  EFE4  F00B         	goto	u1891
  3850   0017C4  EFE6  F00B         	goto	u1890
  3851   0017C8                     u1891:
  3852   0017C8  EFEE  F00B         	goto	l2578
  3853   0017CC                     u1890:
  3854   0017CC  0E57               	movlw	87
  3855   0017CE  242B               	addwf	xtoa@c^0,w,c
  3856   0017D0  6E23               	movwf	_xtoa$1264^0,c
  3857   0017D2  6A24               	clrf	(_xtoa$1264+1)^0,c
  3858   0017D4  0E00               	movlw	0
  3859   0017D6  2224               	addwfc	(_xtoa$1264+1)^0,f,c
  3860   0017D8  EFF4  F00B         	goto	l2580
  3861   0017DC                     l2578:
  3862   0017DC  0E30               	movlw	48
  3863   0017DE  242B               	addwf	xtoa@c^0,w,c
  3864   0017E0  6E23               	movwf	_xtoa$1264^0,c
  3865   0017E2  6A24               	clrf	(_xtoa$1264+1)^0,c
  3866   0017E4  0E00               	movlw	0
  3867   0017E6  2224               	addwfc	(_xtoa$1264+1)^0,f,c
  3868   0017E8                     l2580:
  3869   0017E8  C023  F02B         	movff	_xtoa$1264,xtoa@c
  3870   0017EC                     
  3871                           ;/Applications/microchip/xc8/v2.41/pic/sources/c99/common/doprnt.c: 1000:         dbuf[i
      +                          ] = (char)c;
  3872   0017EC  0E78               	movlw	low _dbuf
  3873   0017EE  2429               	addwf	xtoa@i^0,w,c
  3874   0017F0  6ED9               	movwf	fsr2l,c
  3875   0017F2  0E00               	movlw	high _dbuf
  3876   0017F4  202A               	addwfc	(xtoa@i+1)^0,w,c
  3877   0017F6  6EDA               	movwf	fsr2h,c
  3878   0017F8  C02B  FFDF         	movff	xtoa@c,indf2
  3879   0017FC                     
  3880                           ;/Applications/microchip/xc8/v2.41/pic/sources/c99/common/doprnt.c: 1001:         --p;
  3881   0017FC  0625               	decf	xtoa@p^0,f,c
  3882   0017FE  A0D8               	btfss	status,0,c
  3883   001800  0626               	decf	(xtoa@p+1)^0,f,c
  3884   001802                     
  3885                           ;/Applications/microchip/xc8/v2.41/pic/sources/c99/common/doprnt.c: 1002:         --w;
  3886   001802  0627               	decf	xtoa@w^0,f,c
  3887   001804  A0D8               	btfss	status,0,c
  3888   001806  0628               	decf	(xtoa@w+1)^0,f,c
  3889   001808                     
  3890                           ;/Applications/microchip/xc8/v2.41/pic/sources/c99/common/doprnt.c: 1003:         d = d 
      +                          >> 4;
  3891   001808  C01E  F020         	movff	xtoa@d,??_xtoa
  3892   00180C  C01F  F021         	movff	xtoa@d+1,??_xtoa+1
  3893   001810  0E04               	movlw	4
  3894   001812  6E22               	movwf	(??_xtoa+2)^0,c
  3895   001814                     u1905:
  3896   001814  90D8               	bcf	status,0,c
  3897   001816  3221               	rrcf	(??_xtoa+1)^0,f,c
  3898   001818  3220               	rrcf	??_xtoa^0,f,c
  3899   00181A  2E22               	decfsz	(??_xtoa+2)^0,f,c
  3900   00181C  EF0A  F00C         	goto	u1905
  3901   001820  C020  F01E         	movff	??_xtoa,xtoa@d
  3902   001824  C021  F01F         	movff	??_xtoa+1,xtoa@d+1
  3903   001828                     l2590:
  3904                           
  3905                           ;/Applications/microchip/xc8/v2.41/pic/sources/c99/common/doprnt.c: 983:     while (!(i 
      +                          < 2) && (d || (0 < p)
  3906   001828  BE2A               	btfsc	(xtoa@i+1)^0,7,c
  3907   00182A  EF20  F00C         	goto	u1911
  3908   00182E  502A               	movf	(xtoa@i+1)^0,w,c
  3909   001830  E109               	bnz	u1910
  3910   001832  0E02               	movlw	2
  3911   001834  5C29               	subwf	xtoa@i^0,w,c
  3912   001836  A0D8               	btfss	status,0,c
  3913   001838  EF20  F00C         	goto	u1911
  3914   00183C  EF22  F00C         	goto	u1910
  3915   001840                     u1911:
  3916   001840  EF4D  F00C         	goto	l2600
  3917   001844                     u1910:
  3918   001844  501E               	movf	xtoa@d^0,w,c
  3919   001846  101F               	iorwf	(xtoa@d+1)^0,w,c
  3920   001848  A4D8               	btfss	status,2,c
  3921   00184A  EF29  F00C         	goto	u1921
  3922   00184E  EF2B  F00C         	goto	u1920
  3923   001852                     u1921:
  3924   001852  EFD8  F00B         	goto	l2570
  3925   001856                     u1920:
  3926   001856  BE26               	btfsc	(xtoa@p+1)^0,7,c
  3927   001858  EF38  F00C         	goto	u1930
  3928   00185C  5026               	movf	(xtoa@p+1)^0,w,c
  3929   00185E  E106               	bnz	u1931
  3930   001860  0425               	decf	xtoa@p^0,w,c
  3931   001862  B0D8               	btfsc	status,0,c
  3932   001864  EF36  F00C         	goto	u1931
  3933   001868  EF38  F00C         	goto	u1930
  3934   00186C                     u1931:
  3935   00186C  EFD8  F00B         	goto	l2570
  3936   001870                     u1930:
  3937   001870  BE28               	btfsc	(xtoa@w+1)^0,7,c
  3938   001872  EF43  F00C         	goto	u1941
  3939   001876  5028               	movf	(xtoa@w+1)^0,w,c
  3940   001878  E108               	bnz	u1940
  3941   00187A  0427               	decf	xtoa@w^0,w,c
  3942   00187C  A0D8               	btfss	status,0,c
  3943   00187E  EF43  F00C         	goto	u1941
  3944   001882  EF45  F00C         	goto	u1940
  3945   001886                     u1941:
  3946   001886  EF4D  F00C         	goto	l2600
  3947   00188A                     u1940:
  3948   00188A  0100               	movlb	0	; () banked
  3949   00188C  B370               	btfsc	_flags& (0+255),1,b
  3950   00188E  EF4B  F00C         	goto	u1951
  3951   001892  EF4D  F00C         	goto	u1950
  3952   001896                     u1951:
  3953   001896  EFD8  F00B         	goto	l2570
  3954   00189A                     u1950:
  3955   00189A                     l2600:
  3956                           
  3957                           ;/Applications/microchip/xc8/v2.41/pic/sources/c99/common/doprnt.c: 1023:     return (vo
      +                          id) pad(fp, &dbuf[i], w);
  3958   00189A  C01C  F011         	movff	xtoa@fp,pad@fp
  3959   00189E  C01D  F012         	movff	xtoa@fp+1,pad@fp+1
  3960   0018A2  0E78               	movlw	low _dbuf
  3961   0018A4  2429               	addwf	xtoa@i^0,w,c
  3962   0018A6  6E13               	movwf	pad@buf^0,c
  3963   0018A8  0E00               	movlw	high _dbuf
  3964   0018AA  202A               	addwfc	(xtoa@i+1)^0,w,c
  3965   0018AC  6E14               	movwf	(pad@buf+1)^0,c
  3966   0018AE  C027  F015         	movff	xtoa@w,pad@p
  3967   0018B2  C028  F016         	movff	xtoa@w+1,pad@p+1
  3968   0018B6  ECAF  F00E         	call	_pad	;wreg free
  3969   0018BA  0012               	return		;funcret
  3970   0018BC                     __end_of_xtoa:
  3971                           	callstack 0
  3972                           
  3973 ;; *************** function _strncmp *****************
  3974 ;; Defined at:
  3975 ;;		line 3 in file "/Applications/microchip/xc8/v2.41/pic/sources/c99/common/strncmp.c"
  3976 ;; Parameters:    Size  Location     Type
  3977 ;;  _l              2    0[COMRAM] PTR const unsigned char 
  3978 ;;		 -> STR_17(16), STR_13(20), STR_12(12), STR_9(12), 
  3979 ;;  _r              2    2[COMRAM] PTR const unsigned char 
  3980 ;;		 -> STR_20(4), 
  3981 ;;  n               2    4[COMRAM] unsigned int 
  3982 ;; Auto vars:     Size  Location     Type
  3983 ;;  r               2    9[COMRAM] PTR const unsigned char 
  3984 ;;		 -> STR_20(4), 
  3985 ;;  l               2    7[COMRAM] PTR const unsigned char 
  3986 ;;		 -> STR_17(16), STR_13(20), STR_12(12), STR_9(12), 
  3987 ;; Return value:  Size  Location     Type
  3988 ;;                  2    0[COMRAM] int 
  3989 ;; Registers used:
  3990 ;;		wreg, status,2, status,0, tblptrl, tblptrh, tblptru
  3991 ;; Tracked objects:
  3992 ;;		On entry : 0/0
  3993 ;;		On exit  : 0/0
  3994 ;;		Unchanged: 0/0
  3995 ;; Data sizes:     COMRAM   BANK0   BANK1   BANK2   BANK3   BANK4   BANK5   BANK6   BANK7
  3996 ;;      Params:         6       0       0       0       0       0       0       0       0
  3997 ;;      Locals:         4       0       0       0       0       0       0       0       0
  3998 ;;      Temps:          1       0       0       0       0       0       0       0       0
  3999 ;;      Totals:        11       0       0       0       0       0       0       0       0
  4000 ;;Total ram usage:       11 bytes
  4001 ;; Hardware stack levels used: 1
  4002 ;; This function calls:
  4003 ;;		Nothing
  4004 ;; This function is called by:
  4005 ;;		_vfpfcnvrt
  4006 ;; This function uses a non-reentrant model
  4007 ;;
  4008                           
  4009                           	psect	text17
  4010   0018BC                     __ptext17:
  4011                           	callstack 0
  4012   0018BC                     _strncmp:
  4013                           	callstack 26
  4014   0018BC  C001  F008         	movff	strncmp@_l,strncmp@l
  4015   0018C0  C002  F009         	movff	strncmp@_l+1,strncmp@l+1
  4016   0018C4  C003  F00A         	movff	strncmp@_r,strncmp@r
  4017   0018C8  C004  F00B         	movff	strncmp@_r+1,strncmp@r+1
  4018   0018CC  0605               	decf	strncmp@n^0,f,c
  4019   0018CE  A0D8               	btfss	status,0,c
  4020   0018D0  0606               	decf	(strncmp@n+1)^0,f,c
  4021   0018D2  2805               	incf	strncmp@n^0,w,c
  4022   0018D4  E106               	bnz	u1981
  4023   0018D6  2806               	incf	(strncmp@n+1)^0,w,c
  4024   0018D8  A4D8               	btfss	status,2,c
  4025   0018DA  EF71  F00C         	goto	u1981
  4026   0018DE  EF73  F00C         	goto	u1980
  4027   0018E2                     u1981:
  4028   0018E2  EF80  F00C         	goto	l2624
  4029   0018E6                     u1980:
  4030   0018E6  0E00               	movlw	0
  4031   0018E8  6E02               	movwf	(?_strncmp+1)^0,c
  4032   0018EA  0E00               	movlw	0
  4033   0018EC  6E01               	movwf	?_strncmp^0,c
  4034   0018EE  EFCC  F00C         	goto	l1259
  4035   0018F2                     l2622:
  4036   0018F2  4A08               	infsnz	strncmp@l^0,f,c
  4037   0018F4  2A09               	incf	(strncmp@l+1)^0,f,c
  4038   0018F6  4A0A               	infsnz	strncmp@r^0,f,c
  4039   0018F8  2A0B               	incf	(strncmp@r+1)^0,f,c
  4040   0018FA  0605               	decf	strncmp@n^0,f,c
  4041   0018FC  A0D8               	btfss	status,0,c
  4042   0018FE  0606               	decf	(strncmp@n+1)^0,f,c
  4043   001900                     l2624:
  4044   001900  C008  FFF6         	movff	strncmp@l,tblptrl
  4045   001904  C009  FFF7         	movff	strncmp@l+1,tblptrh
  4046   001908                     	if	0	;tblptru may be non-zero
  4047   001908                     	endif
  4048   001908                     	if	0	;tblptru may be non-zero
  4049   001908                     	endif
  4050   001908  0008               	tblrd		*
  4051   00190A  50F5               	movf	tablat,w,c
  4052   00190C  0900               	iorlw	0
  4053   00190E  B4D8               	btfsc	status,2,c
  4054   001910  EF8C  F00C         	goto	u1991
  4055   001914  EF8E  F00C         	goto	u1990
  4056   001918                     u1991:
  4057   001918  EFBA  F00C         	goto	l2632
  4058   00191C                     u1990:
  4059   00191C  C00A  FFF6         	movff	strncmp@r,tblptrl
  4060   001920  C00B  FFF7         	movff	strncmp@r+1,tblptrh
  4061   001924                     	if	0	;tblptru may be non-zero
  4062   001924                     	endif
  4063   001924                     	if	0	;tblptru may be non-zero
  4064   001924                     	endif
  4065   001924  0008               	tblrd		*
  4066   001926  50F5               	movf	tablat,w,c
  4067   001928  0900               	iorlw	0
  4068   00192A  B4D8               	btfsc	status,2,c
  4069   00192C  EF9A  F00C         	goto	u2001
  4070   001930  EF9C  F00C         	goto	u2000
  4071   001934                     u2001:
  4072   001934  EFBA  F00C         	goto	l2632
  4073   001938                     u2000:
  4074   001938  5005               	movf	strncmp@n^0,w,c
  4075   00193A  1006               	iorwf	(strncmp@n+1)^0,w,c
  4076   00193C  B4D8               	btfsc	status,2,c
  4077   00193E  EFA3  F00C         	goto	u2011
  4078   001942  EFA5  F00C         	goto	u2010
  4079   001946                     u2011:
  4080   001946  EFBA  F00C         	goto	l2632
  4081   00194A                     u2010:
  4082   00194A  C008  FFF6         	movff	strncmp@l,tblptrl
  4083   00194E  C009  FFF7         	movff	strncmp@l+1,tblptrh
  4084   001952                     	if	0	;tblptru may be non-zero
  4085   001952                     	endif
  4086   001952                     	if	0	;tblptru may be non-zero
  4087   001952                     	endif
  4088   001952  0008               	tblrd		*
  4089   001954  CFF5 F007          	movff	tablat,??_strncmp
  4090   001958  C00A  FFF6         	movff	strncmp@r,tblptrl
  4091   00195C  C00B  FFF7         	movff	strncmp@r+1,tblptrh
  4092   001960                     	if	0	;tblptru may be non-zero
  4093   001960                     	endif
  4094   001960                     	if	0	;tblptru may be non-zero
  4095   001960                     	endif
  4096   001960  0008               	tblrd		*
  4097   001962  50F5               	movf	tablat,w,c
  4098   001964  1807               	xorwf	??_strncmp^0,w,c
  4099   001966  B4D8               	btfsc	status,2,c
  4100   001968  EFB8  F00C         	goto	u2021
  4101   00196C  EFBA  F00C         	goto	u2020
  4102   001970                     u2021:
  4103   001970  EF79  F00C         	goto	l2622
  4104   001974                     u2020:
  4105   001974                     l2632:
  4106   001974  C008  FFF6         	movff	strncmp@l,tblptrl
  4107   001978  C009  FFF7         	movff	strncmp@l+1,tblptrh
  4108   00197C                     	if	0	;tblptru may be non-zero
  4109   00197C                     	endif
  4110   00197C                     	if	0	;tblptru may be non-zero
  4111   00197C                     	endif
  4112   00197C  0008               	tblrd		*
  4113   00197E  CFF5 F007          	movff	tablat,??_strncmp
  4114   001982  C00A  FFF6         	movff	strncmp@r,tblptrl
  4115   001986  C00B  FFF7         	movff	strncmp@r+1,tblptrh
  4116   00198A                     	if	0	;tblptru may be non-zero
  4117   00198A                     	endif
  4118   00198A                     	if	0	;tblptru may be non-zero
  4119   00198A                     	endif
  4120   00198A  0008               	tblrd		*
  4121   00198C  50F5               	movf	tablat,w,c
  4122   00198E  5C07               	subwf	??_strncmp^0,w,c
  4123   001990  6E01               	movwf	?_strncmp^0,c
  4124   001992  6A02               	clrf	(?_strncmp+1)^0,c
  4125   001994  A0D8               	btfss	status,0,c
  4126   001996  0602               	decf	(?_strncmp+1)^0,f,c
  4127   001998                     l1259:
  4128   001998  0012               	return		;funcret
  4129   00199A                     __end_of_strncmp:
  4130                           	callstack 0
  4131                           
  4132 ;; *************** function _stoa *****************
  4133 ;; Defined at:
  4134 ;;		line 862 in file "/Applications/microchip/xc8/v2.41/pic/sources/c99/common/doprnt.c"
  4135 ;; Parameters:    Size  Location     Type
  4136 ;;  fp              2    9[COMRAM] PTR struct _IO_FILE
  4137 ;;		 -> sprintf@f(12), 
  4138 ;;  s               2   11[COMRAM] PTR unsigned char 
  4139 ;;		 -> ?_sprintf(2), STR_11(5), STR_10(5), 
  4140 ;; Auto vars:     Size  Location     Type
  4141 ;;  nuls            7   14[COMRAM] unsigned char [7]
  4142 ;;  l               2   29[COMRAM] int 
  4143 ;;  p               2   27[COMRAM] int 
  4144 ;;  cp              2   25[COMRAM] PTR unsigned char 
  4145 ;;		 -> stoa@nuls(7), ?_sprintf(2), STR_11(5), STR_10(5), 
  4146 ;;  w               2   23[COMRAM] int 
  4147 ;;  i               2   21[COMRAM] int 
  4148 ;; Return value:  Size  Location     Type
  4149 ;;                  1    wreg      void 
  4150 ;; Registers used:
  4151 ;;		wreg, fsr1l, fsr1h, fsr2l, fsr2h, status,2, status,0, tblptrl, tblptrh, tblptru, cstack
  4152 ;; Tracked objects:
  4153 ;;		On entry : 0/0
  4154 ;;		On exit  : 0/0
  4155 ;;		Unchanged: 0/0
  4156 ;; Data sizes:     COMRAM   BANK0   BANK1   BANK2   BANK3   BANK4   BANK5   BANK6   BANK7
  4157 ;;      Params:         4       0       0       0       0       0       0       0       0
  4158 ;;      Locals:        17       0       0       0       0       0       0       0       0
  4159 ;;      Temps:          1       0       0       0       0       0       0       0       0
  4160 ;;      Totals:        22       0       0       0       0       0       0       0       0
  4161 ;;Total ram usage:       22 bytes
  4162 ;; Hardware stack levels used: 1
  4163 ;; Hardware stack levels required when called: 2
  4164 ;; This function calls:
  4165 ;;		_fputc
  4166 ;;		_strlen
  4167 ;; This function is called by:
  4168 ;;		_vfpfcnvrt
  4169 ;; This function uses a non-reentrant model
  4170 ;;
  4171                           
  4172                           	psect	text18
  4173   00145E                     __ptext18:
  4174                           	callstack 0
  4175   00145E                     _stoa:
  4176                           	callstack 24
  4177   00145E                     
  4178                           ;/Applications/microchip/xc8/v2.41/pic/sources/c99/common/doprnt.c: 862: static void sto
      +                          a(FILE *fp, char *s);/Applications/microchip/xc8/v2.41/pic/sources/c99/common/doprnt.c: 
      +                          863: {;/Applications/microchip/xc8/v2.41/pic/sources/c99/common/doprnt.c: 864:     char 
      +                          *cp, nuls[] = "(null)";
  4179   00145E  EE20  F0B0         	lfsr	2,stoa@F1156
  4180   001462  EE10  F00F         	lfsr	1,stoa@nuls
  4181   001466  0E06               	movlw	6
  4182   001468                     u1771:
  4183   001468  CFDB FFE3          	movff	plusw2,plusw1
  4184   00146C  06E8               	decf	wreg,f,c
  4185   00146E  E2FC               	bc	u1771
  4186   001470                     
  4187                           ;/Applications/microchip/xc8/v2.41/pic/sources/c99/common/doprnt.c: 865:     int i, l, p
      +                          , w;;/Applications/microchip/xc8/v2.41/pic/sources/c99/common/doprnt.c: 868:     cp = s;
  4188   001470  C00C  F01A         	movff	stoa@s,stoa@cp
  4189   001474  C00D  F01B         	movff	stoa@s+1,stoa@cp+1
  4190   001478                     
  4191                           ;/Applications/microchip/xc8/v2.41/pic/sources/c99/common/doprnt.c: 869:     if (!cp) {
  4192   001478  501A               	movf	stoa@cp^0,w,c
  4193   00147A  101B               	iorwf	(stoa@cp+1)^0,w,c
  4194   00147C  A4D8               	btfss	status,2,c
  4195   00147E  EF43  F00A         	goto	u1781
  4196   001482  EF45  F00A         	goto	u1780
  4197   001486                     u1781:
  4198   001486  EF49  F00A         	goto	l2524
  4199   00148A                     u1780:
  4200   00148A                     
  4201                           ;/Applications/microchip/xc8/v2.41/pic/sources/c99/common/doprnt.c: 870:         cp = nu
      +                          ls;
  4202   00148A  0E0F               	movlw	low stoa@nuls
  4203   00148C  6E1A               	movwf	stoa@cp^0,c
  4204   00148E  0E00               	movlw	high stoa@nuls
  4205   001490  6E1B               	movwf	(stoa@cp+1)^0,c
  4206   001492                     l2524:
  4207                           
  4208                           ;/Applications/microchip/xc8/v2.41/pic/sources/c99/common/doprnt.c: 874:     l = (int)st
      +                          rlen(cp);
  4209   001492  C01A  F001         	movff	stoa@cp,strlen@s
  4210   001496  C01B  F002         	movff	stoa@cp+1,strlen@s+1
  4211   00149A  EC2B  F010         	call	_strlen	;wreg free
  4212   00149E  C001  F01E         	movff	?_strlen,stoa@l
  4213   0014A2  C002  F01F         	movff	?_strlen+1,stoa@l+1
  4214   0014A6                     
  4215                           ;/Applications/microchip/xc8/v2.41/pic/sources/c99/common/doprnt.c: 875:     p = prec;
  4216   0014A6  C062  F01C         	movff	_prec,stoa@p
  4217   0014AA  C063  F01D         	movff	_prec+1,stoa@p+1
  4218   0014AE                     
  4219                           ;/Applications/microchip/xc8/v2.41/pic/sources/c99/common/doprnt.c: 876:     l = (!(p < 
      +                          0) && (p < l)) ? p : l;
  4220   0014AE  BE1D               	btfsc	(stoa@p+1)^0,7,c
  4221   0014B0  EF5C  F00A         	goto	u1791
  4222   0014B4  EF5E  F00A         	goto	u1790
  4223   0014B8                     u1791:
  4224   0014B8  EF73  F00A         	goto	l1144
  4225   0014BC                     u1790:
  4226   0014BC  501E               	movf	stoa@l^0,w,c
  4227   0014BE  5C1C               	subwf	stoa@p^0,w,c
  4228   0014C0  501D               	movf	(stoa@p+1)^0,w,c
  4229   0014C2  0A80               	xorlw	128
  4230   0014C4  6E0E               	movwf	??_stoa^0,c
  4231   0014C6  501F               	movf	(stoa@l+1)^0,w,c
  4232   0014C8  0A80               	xorlw	128
  4233   0014CA  580E               	subwfb	??_stoa^0,w,c
  4234   0014CC  A0D8               	btfss	status,0,c
  4235   0014CE  EF6B  F00A         	goto	u1801
  4236   0014D2  EF6D  F00A         	goto	u1800
  4237   0014D6                     u1801:
  4238   0014D6  EF6F  F00A         	goto	l1142
  4239   0014DA                     u1800:
  4240   0014DA  EF73  F00A         	goto	l1144
  4241   0014DE                     l1142:
  4242   0014DE  C01C  F01E         	movff	stoa@p,stoa@l
  4243   0014E2  C01D  F01F         	movff	stoa@p+1,stoa@l+1
  4244   0014E6                     l1144:
  4245                           
  4246                           ;/Applications/microchip/xc8/v2.41/pic/sources/c99/common/doprnt.c: 877:     p = l;
  4247   0014E6  C01E  F01C         	movff	stoa@l,stoa@p
  4248   0014EA  C01F  F01D         	movff	stoa@l+1,stoa@p+1
  4249                           
  4250                           ;/Applications/microchip/xc8/v2.41/pic/sources/c99/common/doprnt.c: 878:     w = width;
  4251   0014EE  C060  F018         	movff	_width,stoa@w
  4252   0014F2  C061  F019         	movff	_width+1,stoa@w+1
  4253                           
  4254                           ;/Applications/microchip/xc8/v2.41/pic/sources/c99/common/doprnt.c: 882:     if (!(flags
      +                           & (1 << 0))) {
  4255   0014F6  0100               	movlb	0	; () banked
  4256   0014F8  B170               	btfsc	_flags& (0+255),0,b
  4257   0014FA  EF81  F00A         	goto	u1811
  4258   0014FE  EF83  F00A         	goto	u1810
  4259   001502                     u1811:
  4260   001502  EFA0  F00A         	goto	l2540
  4261   001506                     u1810:
  4262   001506  EF91  F00A         	goto	l2538
  4263   00150A                     l2534:
  4264                           
  4265                           ;/Applications/microchip/xc8/v2.41/pic/sources/c99/common/doprnt.c: 885:             fpu
      +                          tc(' ', fp);
  4266   00150A  0E00               	movlw	0
  4267   00150C  6E02               	movwf	(fputc@c+1)^0,c
  4268   00150E  0E20               	movlw	32
  4269   001510  6E01               	movwf	fputc@c^0,c
  4270   001512  C00A  F003         	movff	stoa@fp,fputc@fp
  4271   001516  C00B  F004         	movff	stoa@fp+1,fputc@fp+1
  4272   00151A  ECCD  F00C         	call	_fputc	;wreg free
  4273   00151E                     
  4274                           ;/Applications/microchip/xc8/v2.41/pic/sources/c99/common/doprnt.c: 886:             ++l
      +                          ;
  4275   00151E  4A1E               	infsnz	stoa@l^0,f,c
  4276   001520  2A1F               	incf	(stoa@l+1)^0,f,c
  4277   001522                     l2538:
  4278                           
  4279                           ;/Applications/microchip/xc8/v2.41/pic/sources/c99/common/doprnt.c: 884:         while (
      +                          l < w) {
  4280   001522  5018               	movf	stoa@w^0,w,c
  4281   001524  5C1E               	subwf	stoa@l^0,w,c
  4282   001526  501F               	movf	(stoa@l+1)^0,w,c
  4283   001528  0A80               	xorlw	128
  4284   00152A  6E0E               	movwf	??_stoa^0,c
  4285   00152C  5019               	movf	(stoa@w+1)^0,w,c
  4286   00152E  0A80               	xorlw	128
  4287   001530  580E               	subwfb	??_stoa^0,w,c
  4288   001532  A0D8               	btfss	status,0,c
  4289   001534  EF9E  F00A         	goto	u1821
  4290   001538  EFA0  F00A         	goto	u1820
  4291   00153C                     u1821:
  4292   00153C  EF85  F00A         	goto	l2534
  4293   001540                     u1820:
  4294   001540                     l2540:
  4295                           
  4296                           ;/Applications/microchip/xc8/v2.41/pic/sources/c99/common/doprnt.c: 893:     i = 0;
  4297   001540  0E00               	movlw	0
  4298   001542  6E17               	movwf	(stoa@i+1)^0,c
  4299   001544  0E00               	movlw	0
  4300   001546  6E16               	movwf	stoa@i^0,c
  4301                           
  4302                           ;/Applications/microchip/xc8/v2.41/pic/sources/c99/common/doprnt.c: 894:     while (i < 
      +                          p) {
  4303   001548  EFC4  F00A         	goto	l2548
  4304   00154C                     l2542:
  4305                           
  4306                           ;/Applications/microchip/xc8/v2.41/pic/sources/c99/common/doprnt.c: 895:         fputc(*
      +                          cp, fp);
  4307   00154C  C01A  FFF6         	movff	stoa@cp,tblptrl
  4308   001550  C01B  FFF7         	movff	stoa@cp+1,tblptrh
  4309   001554  6AF8               	clrf	tblptru,c
  4310   001556  0E07               	movlw	(high __ramtop+-1)
  4311   001558  64F7               	cpfsgt	tblptrh,c
  4312   00155A  D003               	bra	u1837
  4313   00155C  0008               	tblrd		*
  4314   00155E  50F5               	movf	tablat,w,c
  4315   001560  D005               	bra	u1830
  4316   001562                     u1837:
  4317   001562  CFF6 FFE1          	movff	tblptrl,fsr1l
  4318   001566  CFF7 FFE2          	movff	tblptrh,fsr1h
  4319   00156A  50E7               	movf	indf1,w,c
  4320   00156C                     u1830:
  4321   00156C  6E0E               	movwf	??_stoa^0,c
  4322   00156E  500E               	movf	??_stoa^0,w,c
  4323   001570  6E01               	movwf	fputc@c^0,c
  4324   001572  6A02               	clrf	(fputc@c+1)^0,c
  4325   001574  C00A  F003         	movff	stoa@fp,fputc@fp
  4326   001578  C00B  F004         	movff	stoa@fp+1,fputc@fp+1
  4327   00157C  ECCD  F00C         	call	_fputc	;wreg free
  4328   001580                     
  4329                           ;/Applications/microchip/xc8/v2.41/pic/sources/c99/common/doprnt.c: 896:         ++cp;
  4330   001580  4A1A               	infsnz	stoa@cp^0,f,c
  4331   001582  2A1B               	incf	(stoa@cp+1)^0,f,c
  4332   001584                     
  4333                           ;/Applications/microchip/xc8/v2.41/pic/sources/c99/common/doprnt.c: 897:         ++i;
  4334   001584  4A16               	infsnz	stoa@i^0,f,c
  4335   001586  2A17               	incf	(stoa@i+1)^0,f,c
  4336   001588                     l2548:
  4337                           
  4338                           ;/Applications/microchip/xc8/v2.41/pic/sources/c99/common/doprnt.c: 894:     while (i < 
      +                          p) {
  4339   001588  501C               	movf	stoa@p^0,w,c
  4340   00158A  5C16               	subwf	stoa@i^0,w,c
  4341   00158C  5017               	movf	(stoa@i+1)^0,w,c
  4342   00158E  0A80               	xorlw	128
  4343   001590  6E0E               	movwf	??_stoa^0,c
  4344   001592  501D               	movf	(stoa@p+1)^0,w,c
  4345   001594  0A80               	xorlw	128
  4346   001596  580E               	subwfb	??_stoa^0,w,c
  4347   001598  A0D8               	btfss	status,0,c
  4348   00159A  EFD1  F00A         	goto	u1841
  4349   00159E  EFD3  F00A         	goto	u1840
  4350   0015A2                     u1841:
  4351   0015A2  EFA6  F00A         	goto	l2542
  4352   0015A6                     u1840:
  4353   0015A6                     
  4354                           ;/Applications/microchip/xc8/v2.41/pic/sources/c99/common/doprnt.c: 902:     if (flags &
      +                           (1 << 0)) {
  4355   0015A6  0100               	movlb	0	; () banked
  4356   0015A8  A170               	btfss	_flags& (0+255),0,b
  4357   0015AA  EFD9  F00A         	goto	u1851
  4358   0015AE  EFDB  F00A         	goto	u1850
  4359   0015B2                     u1851:
  4360   0015B2  EFF8  F00A         	goto	l1158
  4361   0015B6                     u1850:
  4362   0015B6  EFE9  F00A         	goto	l2556
  4363   0015BA                     l2552:
  4364                           
  4365                           ;/Applications/microchip/xc8/v2.41/pic/sources/c99/common/doprnt.c: 904:             fpu
      +                          tc(' ', fp);
  4366   0015BA  0E00               	movlw	0
  4367   0015BC  6E02               	movwf	(fputc@c+1)^0,c
  4368   0015BE  0E20               	movlw	32
  4369   0015C0  6E01               	movwf	fputc@c^0,c
  4370   0015C2  C00A  F003         	movff	stoa@fp,fputc@fp
  4371   0015C6  C00B  F004         	movff	stoa@fp+1,fputc@fp+1
  4372   0015CA  ECCD  F00C         	call	_fputc	;wreg free
  4373   0015CE                     
  4374                           ;/Applications/microchip/xc8/v2.41/pic/sources/c99/common/doprnt.c: 905:             ++l
      +                          ;
  4375   0015CE  4A1E               	infsnz	stoa@l^0,f,c
  4376   0015D0  2A1F               	incf	(stoa@l+1)^0,f,c
  4377   0015D2                     l2556:
  4378                           
  4379                           ;/Applications/microchip/xc8/v2.41/pic/sources/c99/common/doprnt.c: 903:         while (
      +                          l < w) {
  4380   0015D2  5018               	movf	stoa@w^0,w,c
  4381   0015D4  5C1E               	subwf	stoa@l^0,w,c
  4382   0015D6  501F               	movf	(stoa@l+1)^0,w,c
  4383   0015D8  0A80               	xorlw	128
  4384   0015DA  6E0E               	movwf	??_stoa^0,c
  4385   0015DC  5019               	movf	(stoa@w+1)^0,w,c
  4386   0015DE  0A80               	xorlw	128
  4387   0015E0  580E               	subwfb	??_stoa^0,w,c
  4388   0015E2  A0D8               	btfss	status,0,c
  4389   0015E4  EFF6  F00A         	goto	u1861
  4390   0015E8  EFF8  F00A         	goto	u1860
  4391   0015EC                     u1861:
  4392   0015EC  EFDD  F00A         	goto	l2552
  4393   0015F0                     u1860:
  4394   0015F0                     l1158:
  4395   0015F0  0012               	return		;funcret
  4396   0015F2                     __end_of_stoa:
  4397                           	callstack 0
  4398                           
  4399 ;; *************** function _strlen *****************
  4400 ;; Defined at:
  4401 ;;		line 5 in file "/Applications/microchip/xc8/v2.41/pic/sources/c99/common/strlen.c"
  4402 ;; Parameters:    Size  Location     Type
  4403 ;;  s               2    0[COMRAM] PTR const unsigned char 
  4404 ;;		 -> stoa@nuls(7), ?_sprintf(2), STR_11(5), STR_10(5), 
  4405 ;; Auto vars:     Size  Location     Type
  4406 ;;  a               2    2[COMRAM] PTR const unsigned char 
  4407 ;;		 -> stoa@nuls(7), ?_sprintf(2), STR_11(5), STR_10(5), 
  4408 ;; Return value:  Size  Location     Type
  4409 ;;                  2    0[COMRAM] unsigned int 
  4410 ;; Registers used:
  4411 ;;		wreg, fsr1l, fsr1h, status,2, status,0, tblptrl, tblptrh, tblptru
  4412 ;; Tracked objects:
  4413 ;;		On entry : 0/0
  4414 ;;		On exit  : 0/0
  4415 ;;		Unchanged: 0/0
  4416 ;; Data sizes:     COMRAM   BANK0   BANK1   BANK2   BANK3   BANK4   BANK5   BANK6   BANK7
  4417 ;;      Params:         2       0       0       0       0       0       0       0       0
  4418 ;;      Locals:         2       0       0       0       0       0       0       0       0
  4419 ;;      Temps:          0       0       0       0       0       0       0       0       0
  4420 ;;      Totals:         4       0       0       0       0       0       0       0       0
  4421 ;;Total ram usage:        4 bytes
  4422 ;; Hardware stack levels used: 1
  4423 ;; This function calls:
  4424 ;;		Nothing
  4425 ;; This function is called by:
  4426 ;;		_stoa
  4427 ;; This function uses a non-reentrant model
  4428 ;;
  4429                           
  4430                           	psect	text19
  4431   002056                     __ptext19:
  4432                           	callstack 0
  4433   002056                     _strlen:
  4434                           	callstack 25
  4435   002056  C001  F003         	movff	strlen@s,strlen@a
  4436   00205A  C002  F004         	movff	strlen@s+1,strlen@a+1
  4437   00205E  EF33  F010         	goto	l2426
  4438   002062                     l2424:
  4439   002062  4A01               	infsnz	strlen@s^0,f,c
  4440   002064  2A02               	incf	(strlen@s+1)^0,f,c
  4441   002066                     l2426:
  4442   002066  C001  FFF6         	movff	strlen@s,tblptrl
  4443   00206A  C002  FFF7         	movff	strlen@s+1,tblptrh
  4444   00206E  6AF8               	clrf	tblptru,c
  4445   002070  0E07               	movlw	(high __ramtop+-1)
  4446   002072  64F7               	cpfsgt	tblptrh,c
  4447   002074  D003               	bra	u1557
  4448   002076  0008               	tblrd		*
  4449   002078  50F5               	movf	tablat,w,c
  4450   00207A  D005               	bra	u1550
  4451   00207C                     u1557:
  4452   00207C  CFF6 FFE1          	movff	tblptrl,fsr1l
  4453   002080  CFF7 FFE2          	movff	tblptrh,fsr1h
  4454   002084  50E7               	movf	indf1,w,c
  4455   002086                     u1550:
  4456   002086  0900               	iorlw	0
  4457   002088  A4D8               	btfss	status,2,c
  4458   00208A  EF49  F010         	goto	u1561
  4459   00208E  EF4B  F010         	goto	u1560
  4460   002092                     u1561:
  4461   002092  EF31  F010         	goto	l2424
  4462   002096                     u1560:
  4463   002096  5003               	movf	strlen@a^0,w,c
  4464   002098  5C01               	subwf	strlen@s^0,w,c
  4465   00209A  6E01               	movwf	?_strlen^0,c
  4466   00209C  5004               	movf	(strlen@a+1)^0,w,c
  4467   00209E  5802               	subwfb	(strlen@s+1)^0,w,c
  4468   0020A0  6E02               	movwf	(?_strlen+1)^0,c
  4469   0020A2  0012               	return		;funcret
  4470   0020A4                     __end_of_strlen:
  4471                           	callstack 0
  4472                           
  4473 ;; *************** function _read_prec_or_width *****************
  4474 ;; Defined at:
  4475 ;;		line 1029 in file "/Applications/microchip/xc8/v2.41/pic/sources/c99/common/doprnt.c"
  4476 ;; Parameters:    Size  Location     Type
  4477 ;;  fmt             2    6[COMRAM] PTR PTR const unsigned c
  4478 ;;		 -> vfprintf@cfmt(2), 
  4479 ;;  ap              2    8[COMRAM] PTR PTR void [1]
  4480 ;;		 -> sprintf@ap(2), 
  4481 ;; Auto vars:     Size  Location     Type
  4482 ;;  c               1   12[COMRAM] unsigned char 
  4483 ;;  n               2   13[COMRAM] int 
  4484 ;; Return value:  Size  Location     Type
  4485 ;;                  2    6[COMRAM] int 
  4486 ;; Registers used:
  4487 ;;		wreg, fsr2l, fsr2h, status,2, status,0, tblptrl, tblptrh, tblptru, prodl, prodh, cstack
  4488 ;; Tracked objects:
  4489 ;;		On entry : 0/0
  4490 ;;		On exit  : 0/0
  4491 ;;		Unchanged: 0/0
  4492 ;; Data sizes:     COMRAM   BANK0   BANK1   BANK2   BANK3   BANK4   BANK5   BANK6   BANK7
  4493 ;;      Params:         4       0       0       0       0       0       0       0       0
  4494 ;;      Locals:         3       0       0       0       0       0       0       0       0
  4495 ;;      Temps:          2       0       0       0       0       0       0       0       0
  4496 ;;      Totals:         9       0       0       0       0       0       0       0       0
  4497 ;;Total ram usage:        9 bytes
  4498 ;; Hardware stack levels used: 1
  4499 ;; Hardware stack levels required when called: 1
  4500 ;; This function calls:
  4501 ;;		___wmul
  4502 ;; This function is called by:
  4503 ;;		_vfpfcnvrt
  4504 ;; This function uses a non-reentrant model
  4505 ;;
  4506                           
  4507                           	psect	text20
  4508   001A64                     __ptext20:
  4509                           	callstack 0
  4510   001A64                     _read_prec_or_width:
  4511                           	callstack 25
  4512   001A64                     
  4513                           ;/Applications/microchip/xc8/v2.41/pic/sources/c99/common/doprnt.c: 1030:     int n = 0;
  4514   001A64  0E00               	movlw	0
  4515   001A66  6E0F               	movwf	(read_prec_or_width@n+1)^0,c
  4516   001A68  0E00               	movlw	0
  4517   001A6A  6E0E               	movwf	read_prec_or_width@n^0,c
  4518   001A6C                     
  4519                           ;/Applications/microchip/xc8/v2.41/pic/sources/c99/common/doprnt.c: 1031:     if ((*fmt)
      +                          [0] == '*') {
  4520   001A6C  C007  FFD9         	movff	read_prec_or_width@fmt,fsr2l
  4521   001A70  C008  FFDA         	movff	read_prec_or_width@fmt+1,fsr2h
  4522   001A74  CFDE FFF6          	movff	postinc2,tblptrl
  4523   001A78  CFDD FFF7          	movff	postdec2,tblptrh
  4524   001A7C                     	if	0	;tblptru may be non-zero
  4525   001A7C                     	endif
  4526   001A7C                     	if	0	;tblptru may be non-zero
  4527   001A7C                     	endif
  4528   001A7C  0008               	tblrd		*
  4529   001A7E  50F5               	movf	tablat,w,c
  4530   001A80  0A2A               	xorlw	42
  4531   001A82  A4D8               	btfss	status,2,c
  4532   001A84  EF46  F00D         	goto	u1961
  4533   001A88  EF48  F00D         	goto	u1960
  4534   001A8C                     u1961:
  4535   001A8C  EF7C  F00D         	goto	l2614
  4536   001A90                     u1960:
  4537   001A90                     
  4538                           ;/Applications/microchip/xc8/v2.41/pic/sources/c99/common/doprnt.c: 1032:         ++*fmt
      +                          ;
  4539   001A90  C007  FFD9         	movff	read_prec_or_width@fmt,fsr2l
  4540   001A94  C008  FFDA         	movff	read_prec_or_width@fmt+1,fsr2h
  4541   001A98  2ADE               	incf	postinc2,f,c
  4542   001A9A  0E00               	movlw	0
  4543   001A9C  22DD               	addwfc	postdec2,f,c
  4544                           
  4545                           ;/Applications/microchip/xc8/v2.41/pic/sources/c99/common/doprnt.c: 1033:         n = (*
      +                          (int *)__va_arg(*(int **)*ap, (int)0));
  4546   001A9E  C009  FFD9         	movff	read_prec_or_width@ap,fsr2l
  4547   001AA2  C00A  FFDA         	movff	read_prec_or_width@ap+1,fsr2h
  4548   001AA6  CFDF F00B          	movff	indf2,??_read_prec_or_width
  4549   001AAA  0E02               	movlw	2
  4550   001AAC  26DE               	addwf	postinc2,f,c
  4551   001AAE  CFDF F00C          	movff	indf2,??_read_prec_or_width+1
  4552   001AB2  0E00               	movlw	0
  4553   001AB4  22DD               	addwfc	postdec2,f,c
  4554   001AB6  C00B  FFD9         	movff	??_read_prec_or_width,fsr2l
  4555   001ABA  C00C  FFDA         	movff	??_read_prec_or_width+1,fsr2h
  4556   001ABE  CFDE F00E          	movff	postinc2,read_prec_or_width@n
  4557   001AC2  CFDD F00F          	movff	postdec2,read_prec_or_width@n+1
  4558                           
  4559                           ;/Applications/microchip/xc8/v2.41/pic/sources/c99/common/doprnt.c: 1034:     } else {
  4560   001AC6  EF90  F00D         	goto	l1181
  4561   001ACA                     l2610:
  4562                           
  4563                           ;/Applications/microchip/xc8/v2.41/pic/sources/c99/common/doprnt.c: 1037:             n 
      +                          = n * 10 + c;
  4564   001ACA  C00E  F001         	movff	read_prec_or_width@n,___wmul@multiplier
  4565   001ACE  C00F  F002         	movff	read_prec_or_width@n+1,___wmul@multiplier+1
  4566   001AD2  0E00               	movlw	0
  4567   001AD4  6E04               	movwf	(___wmul@multiplicand+1)^0,c
  4568   001AD6  0E0A               	movlw	10
  4569   001AD8  6E03               	movwf	___wmul@multiplicand^0,c
  4570   001ADA  EC1E  F012         	call	___wmul	;wreg free
  4571   001ADE  500D               	movf	read_prec_or_width@c^0,w,c
  4572   001AE0  2401               	addwf	?___wmul^0,w,c
  4573   001AE2  6E0E               	movwf	read_prec_or_width@n^0,c
  4574   001AE4  0E00               	movlw	0
  4575   001AE6  2002               	addwfc	(?___wmul+1)^0,w,c
  4576   001AE8  6E0F               	movwf	(read_prec_or_width@n+1)^0,c
  4577   001AEA                     
  4578                           ;/Applications/microchip/xc8/v2.41/pic/sources/c99/common/doprnt.c: 1038:             ++
      +                          *fmt;
  4579   001AEA  C007  FFD9         	movff	read_prec_or_width@fmt,fsr2l
  4580   001AEE  C008  FFDA         	movff	read_prec_or_width@fmt+1,fsr2h
  4581   001AF2  2ADE               	incf	postinc2,f,c
  4582   001AF4  0E00               	movlw	0
  4583   001AF6  22DD               	addwfc	postdec2,f,c
  4584   001AF8                     l2614:
  4585                           
  4586                           ;/Applications/microchip/xc8/v2.41/pic/sources/c99/common/doprnt.c: 1036:         while 
      +                          ((c = ((unsigned)(*fmt)[0]) - '0') < 10) {
  4587   001AF8  C007  FFD9         	movff	read_prec_or_width@fmt,fsr2l
  4588   001AFC  C008  FFDA         	movff	read_prec_or_width@fmt+1,fsr2h
  4589   001B00  CFDE FFF6          	movff	postinc2,tblptrl
  4590   001B04  CFDD FFF7          	movff	postdec2,tblptrh
  4591   001B08                     	if	0	;tblptru may be non-zero
  4592   001B08                     	endif
  4593   001B08                     	if	0	;tblptru may be non-zero
  4594   001B08                     	endif
  4595   001B08  0008               	tblrd		*
  4596   001B0A  50F5               	movf	tablat,w,c
  4597   001B0C  0FD0               	addlw	208
  4598   001B0E  6E0D               	movwf	read_prec_or_width@c^0,c
  4599   001B10  0E09               	movlw	9
  4600   001B12  640D               	cpfsgt	read_prec_or_width@c^0,c
  4601   001B14  EF8E  F00D         	goto	u1971
  4602   001B18  EF90  F00D         	goto	u1970
  4603   001B1C                     u1971:
  4604   001B1C  EF65  F00D         	goto	l2610
  4605   001B20                     u1970:
  4606   001B20                     l1181:
  4607                           
  4608                           ;/Applications/microchip/xc8/v2.41/pic/sources/c99/common/doprnt.c: 1041:     return n;
  4609   001B20  C00E  F007         	movff	read_prec_or_width@n,?_read_prec_or_width
  4610   001B24  C00F  F008         	movff	read_prec_or_width@n+1,?_read_prec_or_width+1
  4611   001B28  0012               	return		;funcret
  4612   001B2A                     __end_of_read_prec_or_width:
  4613                           	callstack 0
  4614                           
  4615 ;; *************** function ___wmul *****************
  4616 ;; Defined at:
  4617 ;;		line 15 in file "/Applications/microchip/xc8/v2.41/pic/sources/c99/common/Umul16.c"
  4618 ;; Parameters:    Size  Location     Type
  4619 ;;  multiplier      2    0[COMRAM] unsigned int 
  4620 ;;  multiplicand    2    2[COMRAM] unsigned int 
  4621 ;; Auto vars:     Size  Location     Type
  4622 ;;  product         2    4[COMRAM] unsigned int 
  4623 ;; Return value:  Size  Location     Type
  4624 ;;                  2    0[COMRAM] unsigned int 
  4625 ;; Registers used:
  4626 ;;		wreg, status,2, status,0, prodl, prodh
  4627 ;; Tracked objects:
  4628 ;;		On entry : 0/0
  4629 ;;		On exit  : 0/0
  4630 ;;		Unchanged: 0/0
  4631 ;; Data sizes:     COMRAM   BANK0   BANK1   BANK2   BANK3   BANK4   BANK5   BANK6   BANK7
  4632 ;;      Params:         4       0       0       0       0       0       0       0       0
  4633 ;;      Locals:         2       0       0       0       0       0       0       0       0
  4634 ;;      Temps:          0       0       0       0       0       0       0       0       0
  4635 ;;      Totals:         6       0       0       0       0       0       0       0       0
  4636 ;;Total ram usage:        6 bytes
  4637 ;; Hardware stack levels used: 1
  4638 ;; This function calls:
  4639 ;;		Nothing
  4640 ;; This function is called by:
  4641 ;;		_Display_Menu_Principal
  4642 ;;		_read_prec_or_width
  4643 ;; This function uses a non-reentrant model
  4644 ;;
  4645                           
  4646                           	psect	text21
  4647   00243C                     __ptext21:
  4648                           	callstack 0
  4649   00243C                     ___wmul:
  4650                           	callstack 25
  4651   00243C  5001               	movf	___wmul@multiplier^0,w,c
  4652   00243E  0203               	mulwf	___wmul@multiplicand^0,c
  4653   002440  CFF3 F005          	movff	prodl,___wmul@product
  4654   002444  CFF4 F006          	movff	prodh,___wmul@product+1
  4655   002448  5001               	movf	___wmul@multiplier^0,w,c
  4656   00244A  0204               	mulwf	(___wmul@multiplicand+1)^0,c
  4657   00244C  50F3               	movf	243,w,c
  4658   00244E  2606               	addwf	(___wmul@product+1)^0,f,c
  4659   002450  5002               	movf	(___wmul@multiplier+1)^0,w,c
  4660   002452  0203               	mulwf	___wmul@multiplicand^0,c
  4661   002454  50F3               	movf	243,w,c
  4662   002456  2606               	addwf	(___wmul@product+1)^0,f,c
  4663   002458  C005  F001         	movff	___wmul@product,?___wmul
  4664   00245C  C006  F002         	movff	___wmul@product+1,?___wmul+1
  4665   002460  0012               	return		;funcret
  4666   002462                     __end_of___wmul:
  4667                           	callstack 0
  4668                           
  4669 ;; *************** function _dtoa *****************
  4670 ;; Defined at:
  4671 ;;		line 470 in file "/Applications/microchip/xc8/v2.41/pic/sources/c99/common/doprnt.c"
  4672 ;; Parameters:    Size  Location     Type
  4673 ;;  fp              2   27[COMRAM] PTR struct _IO_FILE
  4674 ;;		 -> sprintf@f(12), 
  4675 ;;  d               2   29[COMRAM] int 
  4676 ;; Auto vars:     Size  Location     Type
  4677 ;;  i               2   37[COMRAM] int 
  4678 ;;  w               2   35[COMRAM] int 
  4679 ;;  p               2   33[COMRAM] int 
  4680 ;;  s               1   39[COMRAM] unsigned char 
  4681 ;; Return value:  Size  Location     Type
  4682 ;;                  1    wreg      void 
  4683 ;; Registers used:
  4684 ;;		wreg, fsr1l, fsr1h, fsr2l, fsr2h, status,2, status,0, cstack
  4685 ;; Tracked objects:
  4686 ;;		On entry : 0/0
  4687 ;;		On exit  : 0/0
  4688 ;;		Unchanged: 0/0
  4689 ;; Data sizes:     COMRAM   BANK0   BANK1   BANK2   BANK3   BANK4   BANK5   BANK6   BANK7
  4690 ;;      Params:         4       0       0       0       0       0       0       0       0
  4691 ;;      Locals:         9       0       0       0       0       0       0       0       0
  4692 ;;      Temps:          0       0       0       0       0       0       0       0       0
  4693 ;;      Totals:        13       0       0       0       0       0       0       0       0
  4694 ;;Total ram usage:       13 bytes
  4695 ;; Hardware stack levels used: 1
  4696 ;; Hardware stack levels required when called: 4
  4697 ;; This function calls:
  4698 ;;		___awdiv
  4699 ;;		___awmod
  4700 ;;		_abs
  4701 ;;		_pad
  4702 ;; This function is called by:
  4703 ;;		_vfpfcnvrt
  4704 ;; This function uses a non-reentrant model
  4705 ;;
  4706                           
  4707                           	psect	text22
  4708   0010D6                     __ptext22:
  4709                           	callstack 0
  4710   0010D6                     _dtoa:
  4711                           	callstack 22
  4712   0010D6                     
  4713                           ;/Applications/microchip/xc8/v2.41/pic/sources/c99/common/doprnt.c: 470: static void dto
      +                          a(FILE *fp, vfpf_sint_t d);/Applications/microchip/xc8/v2.41/pic/sources/c99/common/dopr
      +                          nt.c: 471: {;/Applications/microchip/xc8/v2.41/pic/sources/c99/common/doprnt.c: 472:  ch
      +                          ar s;;/Applications/microchip/xc8/v2.41/pic/sources/c99/common/doprnt.c: 473:     int i,
      +                           p, w;;/Applications/microchip/xc8/v2.41/pic/sources/c99/common/doprnt.c: 476:     s = d
      +                           < 0 ? 1 : 0;
  4714   0010D6  BE1F               	btfsc	(dtoa@d+1)^0,7,c
  4715   0010D8  EF70  F008         	goto	u1641
  4716   0010DC  EF73  F008         	goto	u1640
  4717   0010E0                     u1641:
  4718   0010E0  0E01               	movlw	1
  4719   0010E2  EF74  F008         	goto	u1650
  4720   0010E6                     u1640:
  4721   0010E6  0E00               	movlw	0
  4722   0010E8                     u1650:
  4723   0010E8  6E28               	movwf	dtoa@s^0,c
  4724   0010EA                     
  4725                           ;/Applications/microchip/xc8/v2.41/pic/sources/c99/common/doprnt.c: 477:     if (s) {
  4726   0010EA  5028               	movf	dtoa@s^0,w,c
  4727   0010EC  B4D8               	btfsc	status,2,c
  4728   0010EE  EF7B  F008         	goto	u1661
  4729   0010F2  EF7D  F008         	goto	u1660
  4730   0010F6                     u1661:
  4731   0010F6  EF81  F008         	goto	l2464
  4732   0010FA                     u1660:
  4733   0010FA                     
  4734                           ;/Applications/microchip/xc8/v2.41/pic/sources/c99/common/doprnt.c: 478:         d = -d;
  4735   0010FA  6C1E               	negf	dtoa@d^0,c
  4736   0010FC  1E1F               	comf	(dtoa@d+1)^0,f,c
  4737   0010FE  B0D8               	btfsc	status,0,c
  4738   001100  2A1F               	incf	(dtoa@d+1)^0,f,c
  4739   001102                     l2464:
  4740                           
  4741                           ;/Applications/microchip/xc8/v2.41/pic/sources/c99/common/doprnt.c: 483:     if (!(prec 
      +                          < 0)) {
  4742   001102  0100               	movlb	0	; () banked
  4743   001104  BF63               	btfsc	(_prec+1)& (0+255),7,b
  4744   001106  EF87  F008         	goto	u1671
  4745   00110A  EF89  F008         	goto	u1670
  4746   00110E                     u1671:
  4747   00110E  EF8A  F008         	goto	l2468
  4748   001112                     u1670:
  4749   001112                     
  4750                           ; BSR set to: 0
  4751                           ;/Applications/microchip/xc8/v2.41/pic/sources/c99/common/doprnt.c: 484:         flags &
      +                          = ~(1 << 1);
  4752   001112  9370               	bcf	_flags& (0+255),1,b
  4753   001114                     l2468:
  4754                           
  4755                           ; BSR set to: 0
  4756                           ;/Applications/microchip/xc8/v2.41/pic/sources/c99/common/doprnt.c: 487:     p = (0 <= p
      +                          rec) ? prec : 1;
  4757   001114  BF63               	btfsc	(_prec+1)& (0+255),7,b
  4758   001116  EF91  F008         	goto	u1680
  4759   00111A  EF8F  F008         	goto	u1681
  4760   00111E                     u1681:
  4761   00111E  EF97  F008         	goto	l1119
  4762   001122                     u1680:
  4763   001122                     
  4764                           ; BSR set to: 0
  4765   001122  0E00               	movlw	0
  4766   001124  6E23               	movwf	(dtoa@p+1)^0,c
  4767   001126  0E01               	movlw	1
  4768   001128  6E22               	movwf	dtoa@p^0,c
  4769   00112A  EF9B  F008         	goto	l1121
  4770   00112E                     l1119:
  4771                           
  4772                           ; BSR set to: 0
  4773   00112E  C062  F022         	movff	_prec,dtoa@p
  4774   001132  C063  F023         	movff	_prec+1,dtoa@p+1
  4775   001136                     l1121:
  4776                           
  4777                           ; BSR set to: 0
  4778                           ;/Applications/microchip/xc8/v2.41/pic/sources/c99/common/doprnt.c: 488:     w = width;
  4779   001136  C060  F024         	movff	_width,dtoa@w
  4780   00113A  C061  F025         	movff	_width+1,dtoa@w+1
  4781   00113E                     
  4782                           ; BSR set to: 0
  4783                           ;/Applications/microchip/xc8/v2.41/pic/sources/c99/common/doprnt.c: 489:     if (s
  4784   00113E  5028               	movf	dtoa@s^0,w,c
  4785   001140  B4D8               	btfsc	status,2,c
  4786   001142  EFA5  F008         	goto	u1691
  4787   001146  EFA7  F008         	goto	u1690
  4788   00114A                     u1691:
  4789   00114A  EFBE  F008         	goto	l1122
  4790   00114E                     u1690:
  4791   00114E                     
  4792                           ; BSR set to: 0
  4793                           ;/Applications/microchip/xc8/v2.41/pic/sources/c99/common/doprnt.c: 493:     ) {;/Applic
      +                          ations/microchip/xc8/v2.41/pic/sources/c99/common/doprnt.c: 494:         --w;
  4794   00114E  0624               	decf	dtoa@w^0,f,c
  4795   001150  A0D8               	btfss	status,0,c
  4796   001152  0625               	decf	(dtoa@w+1)^0,f,c
  4797   001154                     
  4798                           ; BSR set to: 0
  4799                           ;/Applications/microchip/xc8/v2.41/pic/sources/c99/common/doprnt.c: 495:   s = s ? '-' :
      +                           '+';
  4800   001154  5028               	movf	dtoa@s^0,w,c
  4801   001156  A4D8               	btfss	status,2,c
  4802   001158  EFB0  F008         	goto	u1701
  4803   00115C  EFB2  F008         	goto	u1700
  4804   001160                     u1701:
  4805   001160  EFB8  F008         	goto	l2480
  4806   001164                     u1700:
  4807   001164                     
  4808                           ; BSR set to: 0
  4809   001164  0E00               	movlw	0
  4810   001166  6E21               	movwf	(_dtoa$1244+1)^0,c
  4811   001168  0E2B               	movlw	43
  4812   00116A  6E20               	movwf	_dtoa$1244^0,c
  4813   00116C  EFBC  F008         	goto	l2482
  4814   001170                     l2480:
  4815                           
  4816                           ; BSR set to: 0
  4817   001170  0E00               	movlw	0
  4818   001172  6E21               	movwf	(_dtoa$1244+1)^0,c
  4819   001174  0E2D               	movlw	45
  4820   001176  6E20               	movwf	_dtoa$1244^0,c
  4821   001178                     l2482:
  4822                           
  4823                           ; BSR set to: 0
  4824   001178  C020  F028         	movff	_dtoa$1244,dtoa@s
  4825   00117C                     l1122:
  4826                           
  4827                           ; BSR set to: 0
  4828                           ;/Applications/microchip/xc8/v2.41/pic/sources/c99/common/doprnt.c: 505:     i = sizeof(
      +                          dbuf) - 1;
  4829   00117C  0E00               	movlw	0
  4830   00117E  6E27               	movwf	(dtoa@i+1)^0,c
  4831   001180  0E1F               	movlw	31
  4832   001182  6E26               	movwf	dtoa@i^0,c
  4833   001184                     
  4834                           ; BSR set to: 0
  4835                           ;/Applications/microchip/xc8/v2.41/pic/sources/c99/common/doprnt.c: 506:     dbuf[i] = '
      +                          \0';
  4836   001184  0E00               	movlw	0
  4837   001186  6F97               	movwf	(_dbuf+31)& (0+255),b
  4838                           
  4839                           ;/Applications/microchip/xc8/v2.41/pic/sources/c99/common/doprnt.c: 507:     while (!(i 
      +                          < 1) && (d || (0 < p)
  4840   001188  EFF6  F008         	goto	l2496
  4841   00118C                     l2486:
  4842                           
  4843                           ;/Applications/microchip/xc8/v2.41/pic/sources/c99/common/doprnt.c: 511:     )) {;/Appli
      +                          cations/microchip/xc8/v2.41/pic/sources/c99/common/doprnt.c: 512:         --i;
  4844   00118C  0626               	decf	dtoa@i^0,f,c
  4845   00118E  A0D8               	btfss	status,0,c
  4846   001190  0627               	decf	(dtoa@i+1)^0,f,c
  4847   001192                     
  4848                           ;/Applications/microchip/xc8/v2.41/pic/sources/c99/common/doprnt.c: 513:         dbuf[i]
      +                           = (char)((int)'0' + abs(d % 10));
  4849   001192  0E78               	movlw	low _dbuf
  4850   001194  2426               	addwf	dtoa@i^0,w,c
  4851   001196  6ED9               	movwf	fsr2l,c
  4852   001198  0E00               	movlw	high _dbuf
  4853   00119A  2027               	addwfc	(dtoa@i+1)^0,w,c
  4854   00119C  6EDA               	movwf	fsr2h,c
  4855   00119E  C01E  F001         	movff	dtoa@d,___awmod@dividend
  4856   0011A2  C01F  F002         	movff	dtoa@d+1,___awmod@dividend+1
  4857   0011A6  0E00               	movlw	0
  4858   0011A8  6E04               	movwf	(___awmod@divisor+1)^0,c
  4859   0011AA  0E0A               	movlw	10
  4860   0011AC  6E03               	movwf	___awmod@divisor^0,c
  4861   0011AE  EC57  F00E         	call	___awmod	;wreg free
  4862   0011B2  C001  F007         	movff	?___awmod,abs@a
  4863   0011B6  C002  F008         	movff	?___awmod+1,abs@a+1
  4864   0011BA  EC4F  F011         	call	_abs	;wreg free
  4865   0011BE  5007               	movf	?_abs^0,w,c
  4866   0011C0  0F30               	addlw	48
  4867   0011C2  6EDF               	movwf	indf2,c
  4868   0011C4                     
  4869                           ;/Applications/microchip/xc8/v2.41/pic/sources/c99/common/doprnt.c: 514:         --p;
  4870   0011C4  0622               	decf	dtoa@p^0,f,c
  4871   0011C6  A0D8               	btfss	status,0,c
  4872   0011C8  0623               	decf	(dtoa@p+1)^0,f,c
  4873   0011CA                     
  4874                           ;/Applications/microchip/xc8/v2.41/pic/sources/c99/common/doprnt.c: 515:         --w;
  4875   0011CA  0624               	decf	dtoa@w^0,f,c
  4876   0011CC  A0D8               	btfss	status,0,c
  4877   0011CE  0625               	decf	(dtoa@w+1)^0,f,c
  4878   0011D0                     
  4879                           ;/Applications/microchip/xc8/v2.41/pic/sources/c99/common/doprnt.c: 516:         d = d /
      +                           10;
  4880   0011D0  C01E  F001         	movff	dtoa@d,___awdiv@dividend
  4881   0011D4  C01F  F002         	movff	dtoa@d+1,___awdiv@dividend+1
  4882   0011D8  0E00               	movlw	0
  4883   0011DA  6E04               	movwf	(___awdiv@divisor+1)^0,c
  4884   0011DC  0E0A               	movlw	10
  4885   0011DE  6E03               	movwf	___awdiv@divisor^0,c
  4886   0011E0  EC95  F00D         	call	___awdiv	;wreg free
  4887   0011E4  C001  F01E         	movff	?___awdiv,dtoa@d
  4888   0011E8  C002  F01F         	movff	?___awdiv+1,dtoa@d+1
  4889   0011EC                     l2496:
  4890                           
  4891                           ;/Applications/microchip/xc8/v2.41/pic/sources/c99/common/doprnt.c: 507:     while (!(i 
      +                          < 1) && (d || (0 < p)
  4892   0011EC  BE27               	btfsc	(dtoa@i+1)^0,7,c
  4893   0011EE  EF01  F009         	goto	u1711
  4894   0011F2  5027               	movf	(dtoa@i+1)^0,w,c
  4895   0011F4  E108               	bnz	u1710
  4896   0011F6  0426               	decf	dtoa@i^0,w,c
  4897   0011F8  A0D8               	btfss	status,0,c
  4898   0011FA  EF01  F009         	goto	u1711
  4899   0011FE  EF03  F009         	goto	u1710
  4900   001202                     u1711:
  4901   001202  EF2E  F009         	goto	l2506
  4902   001206                     u1710:
  4903   001206  501E               	movf	dtoa@d^0,w,c
  4904   001208  101F               	iorwf	(dtoa@d+1)^0,w,c
  4905   00120A  A4D8               	btfss	status,2,c
  4906   00120C  EF0A  F009         	goto	u1721
  4907   001210  EF0C  F009         	goto	u1720
  4908   001214                     u1721:
  4909   001214  EFC6  F008         	goto	l2486
  4910   001218                     u1720:
  4911   001218  BE23               	btfsc	(dtoa@p+1)^0,7,c
  4912   00121A  EF19  F009         	goto	u1730
  4913   00121E  5023               	movf	(dtoa@p+1)^0,w,c
  4914   001220  E106               	bnz	u1731
  4915   001222  0422               	decf	dtoa@p^0,w,c
  4916   001224  B0D8               	btfsc	status,0,c
  4917   001226  EF17  F009         	goto	u1731
  4918   00122A  EF19  F009         	goto	u1730
  4919   00122E                     u1731:
  4920   00122E  EFC6  F008         	goto	l2486
  4921   001232                     u1730:
  4922   001232  BE25               	btfsc	(dtoa@w+1)^0,7,c
  4923   001234  EF24  F009         	goto	u1741
  4924   001238  5025               	movf	(dtoa@w+1)^0,w,c
  4925   00123A  E108               	bnz	u1740
  4926   00123C  0424               	decf	dtoa@w^0,w,c
  4927   00123E  A0D8               	btfss	status,0,c
  4928   001240  EF24  F009         	goto	u1741
  4929   001244  EF26  F009         	goto	u1740
  4930   001248                     u1741:
  4931   001248  EF2E  F009         	goto	l2506
  4932   00124C                     u1740:
  4933   00124C  0100               	movlb	0	; () banked
  4934   00124E  B370               	btfsc	_flags& (0+255),1,b
  4935   001250  EF2C  F009         	goto	u1751
  4936   001254  EF2E  F009         	goto	u1750
  4937   001258                     u1751:
  4938   001258  EFC6  F008         	goto	l2486
  4939   00125C                     u1750:
  4940   00125C                     l2506:
  4941                           
  4942                           ;/Applications/microchip/xc8/v2.41/pic/sources/c99/common/doprnt.c: 520:     if (s != 0)
      +                           {
  4943   00125C  5028               	movf	dtoa@s^0,w,c
  4944   00125E  B4D8               	btfsc	status,2,c
  4945   001260  EF34  F009         	goto	u1761
  4946   001264  EF36  F009         	goto	u1760
  4947   001268                     u1761:
  4948   001268  EF41  F009         	goto	l2512
  4949   00126C                     u1760:
  4950   00126C                     
  4951                           ;/Applications/microchip/xc8/v2.41/pic/sources/c99/common/doprnt.c: 521:         --i;
  4952   00126C  0626               	decf	dtoa@i^0,f,c
  4953   00126E  A0D8               	btfss	status,0,c
  4954   001270  0627               	decf	(dtoa@i+1)^0,f,c
  4955   001272                     
  4956                           ;/Applications/microchip/xc8/v2.41/pic/sources/c99/common/doprnt.c: 522:         dbuf[i]
      +                           = s;
  4957   001272  0E78               	movlw	low _dbuf
  4958   001274  2426               	addwf	dtoa@i^0,w,c
  4959   001276  6ED9               	movwf	fsr2l,c
  4960   001278  0E00               	movlw	high _dbuf
  4961   00127A  2027               	addwfc	(dtoa@i+1)^0,w,c
  4962   00127C  6EDA               	movwf	fsr2h,c
  4963   00127E  C028  FFDF         	movff	dtoa@s,indf2
  4964   001282                     l2512:
  4965                           
  4966                           ;/Applications/microchip/xc8/v2.41/pic/sources/c99/common/doprnt.c: 526:     return (voi
      +                          d) pad(fp, &dbuf[i], w);
  4967   001282  C01C  F011         	movff	dtoa@fp,pad@fp
  4968   001286  C01D  F012         	movff	dtoa@fp+1,pad@fp+1
  4969   00128A  0E78               	movlw	low _dbuf
  4970   00128C  2426               	addwf	dtoa@i^0,w,c
  4971   00128E  6E13               	movwf	pad@buf^0,c
  4972   001290  0E00               	movlw	high _dbuf
  4973   001292  2027               	addwfc	(dtoa@i+1)^0,w,c
  4974   001294  6E14               	movwf	(pad@buf+1)^0,c
  4975   001296  C024  F015         	movff	dtoa@w,pad@p
  4976   00129A  C025  F016         	movff	dtoa@w+1,pad@p+1
  4977   00129E  ECAF  F00E         	call	_pad	;wreg free
  4978   0012A2  0012               	return		;funcret
  4979   0012A4                     __end_of_dtoa:
  4980                           	callstack 0
  4981                           
  4982 ;; *************** function _pad *****************
  4983 ;; Defined at:
  4984 ;;		line 152 in file "/Applications/microchip/xc8/v2.41/pic/sources/c99/common/doprnt.c"
  4985 ;; Parameters:    Size  Location     Type
  4986 ;;  fp              2   16[COMRAM] PTR struct _IO_FILE
  4987 ;;		 -> sprintf@f(12), 
  4988 ;;  buf             2   18[COMRAM] PTR unsigned char 
  4989 ;;		 -> dbuf(32), 
  4990 ;;  p               2   20[COMRAM] int 
  4991 ;; Auto vars:     Size  Location     Type
  4992 ;;  w               2   25[COMRAM] int 
  4993 ;;  i               2   23[COMRAM] int 
  4994 ;; Return value:  Size  Location     Type
  4995 ;;                  1    wreg      void 
  4996 ;; Registers used:
  4997 ;;		wreg, fsr1l, fsr1h, fsr2l, fsr2h, status,2, status,0, cstack
  4998 ;; Tracked objects:
  4999 ;;		On entry : 0/0
  5000 ;;		On exit  : 0/0
  5001 ;;		Unchanged: 0/0
  5002 ;; Data sizes:     COMRAM   BANK0   BANK1   BANK2   BANK3   BANK4   BANK5   BANK6   BANK7
  5003 ;;      Params:         6       0       0       0       0       0       0       0       0
  5004 ;;      Locals:         4       0       0       0       0       0       0       0       0
  5005 ;;      Temps:          1       0       0       0       0       0       0       0       0
  5006 ;;      Totals:        11       0       0       0       0       0       0       0       0
  5007 ;;Total ram usage:       11 bytes
  5008 ;; Hardware stack levels used: 1
  5009 ;; Hardware stack levels required when called: 3
  5010 ;; This function calls:
  5011 ;;		_fputc
  5012 ;;		_fputs
  5013 ;; This function is called by:
  5014 ;;		_dtoa
  5015 ;;		_xtoa
  5016 ;; This function uses a non-reentrant model
  5017 ;;
  5018                           
  5019                           	psect	text23
  5020   001D5E                     __ptext23:
  5021                           	callstack 0
  5022   001D5E                     _pad:
  5023                           	callstack 22
  5024   001D5E                     
  5025                           ;/Applications/microchip/xc8/v2.41/pic/sources/c99/common/doprnt.c: 152: static void pad
      +                          (FILE *fp, char *buf, int p);/Applications/microchip/xc8/v2.41/pic/sources/c99/common/do
      +                          prnt.c: 153: {;/Applications/microchip/xc8/v2.41/pic/sources/c99/common/doprnt.c: 154:  
      +                             int i, w;;/Applications/microchip/xc8/v2.41/pic/sources/c99/common/doprnt.c: 158:    
      +                           if (flags & (1 << 0)) {
  5026   001D5E  0100               	movlb	0	; () banked
  5027   001D60  A170               	btfss	_flags& (0+255),0,b
  5028   001D62  EFB5  F00E         	goto	u1501
  5029   001D66  EFB7  F00E         	goto	u1500
  5030   001D6A                     u1501:
  5031   001D6A  EFC1  F00E         	goto	l2404
  5032   001D6E                     u1500:
  5033   001D6E                     
  5034                           ; BSR set to: 0
  5035                           ;/Applications/microchip/xc8/v2.41/pic/sources/c99/common/doprnt.c: 159:         fputs((
      +                          const char *)buf, fp);
  5036   001D6E  C013  F00A         	movff	pad@buf,fputs@s
  5037   001D72  C014  F00B         	movff	pad@buf+1,fputs@s+1
  5038   001D76  C011  F00C         	movff	pad@fp,fputs@fp
  5039   001D7A  C012  F00D         	movff	pad@fp+1,fputs@fp+1
  5040   001D7E  EC0D  F011         	call	_fputs	;wreg free
  5041   001D82                     l2404:
  5042                           
  5043                           ;/Applications/microchip/xc8/v2.41/pic/sources/c99/common/doprnt.c: 164:     w = (p < 0)
      +                           ? 0 : p;
  5044   001D82  BE16               	btfsc	(pad@p+1)^0,7,c
  5045   001D84  EFC6  F00E         	goto	u1511
  5046   001D88  EFC8  F00E         	goto	u1510
  5047   001D8C                     u1511:
  5048   001D8C  EFCE  F00E         	goto	l2408
  5049   001D90                     u1510:
  5050   001D90  C015  F01A         	movff	pad@p,pad@w
  5051   001D94  C016  F01B         	movff	pad@p+1,pad@w+1
  5052   001D98  EFD2  F00E         	goto	l1108
  5053   001D9C                     l2408:
  5054   001D9C  0E00               	movlw	0
  5055   001D9E  6E1B               	movwf	(pad@w+1)^0,c
  5056   001DA0  0E00               	movlw	0
  5057   001DA2  6E1A               	movwf	pad@w^0,c
  5058   001DA4                     l1108:
  5059                           
  5060                           ;/Applications/microchip/xc8/v2.41/pic/sources/c99/common/doprnt.c: 165:     i = 0;
  5061   001DA4  0E00               	movlw	0
  5062   001DA6  6E19               	movwf	(pad@i+1)^0,c
  5063   001DA8  0E00               	movlw	0
  5064   001DAA  6E18               	movwf	pad@i^0,c
  5065                           
  5066                           ;/Applications/microchip/xc8/v2.41/pic/sources/c99/common/doprnt.c: 166:     while (i < 
      +                          w) {
  5067   001DAC  EFE4  F00E         	goto	l2414
  5068   001DB0                     l2410:
  5069                           
  5070                           ;/Applications/microchip/xc8/v2.41/pic/sources/c99/common/doprnt.c: 167:         fputc('
      +                           ', fp);
  5071   001DB0  0E00               	movlw	0
  5072   001DB2  6E02               	movwf	(fputc@c+1)^0,c
  5073   001DB4  0E20               	movlw	32
  5074   001DB6  6E01               	movwf	fputc@c^0,c
  5075   001DB8  C011  F003         	movff	pad@fp,fputc@fp
  5076   001DBC  C012  F004         	movff	pad@fp+1,fputc@fp+1
  5077   001DC0  ECCD  F00C         	call	_fputc	;wreg free
  5078   001DC4                     
  5079                           ;/Applications/microchip/xc8/v2.41/pic/sources/c99/common/doprnt.c: 168:         ++i;
  5080   001DC4  4A18               	infsnz	pad@i^0,f,c
  5081   001DC6  2A19               	incf	(pad@i+1)^0,f,c
  5082   001DC8                     l2414:
  5083                           
  5084                           ;/Applications/microchip/xc8/v2.41/pic/sources/c99/common/doprnt.c: 166:     while (i < 
      +                          w) {
  5085   001DC8  501A               	movf	pad@w^0,w,c
  5086   001DCA  5C18               	subwf	pad@i^0,w,c
  5087   001DCC  5019               	movf	(pad@i+1)^0,w,c
  5088   001DCE  0A80               	xorlw	128
  5089   001DD0  6E17               	movwf	??_pad^0,c
  5090   001DD2  501B               	movf	(pad@w+1)^0,w,c
  5091   001DD4  0A80               	xorlw	128
  5092   001DD6  5817               	subwfb	??_pad^0,w,c
  5093   001DD8  A0D8               	btfss	status,0,c
  5094   001DDA  EFF1  F00E         	goto	u1521
  5095   001DDE  EFF3  F00E         	goto	u1520
  5096   001DE2                     u1521:
  5097   001DE2  EFD8  F00E         	goto	l2410
  5098   001DE6                     u1520:
  5099   001DE6                     
  5100                           ;/Applications/microchip/xc8/v2.41/pic/sources/c99/common/doprnt.c: 173:     if (!(flags
      +                           & (1 << 0))) {
  5101   001DE6  0100               	movlb	0	; () banked
  5102   001DE8  B170               	btfsc	_flags& (0+255),0,b
  5103   001DEA  EFF9  F00E         	goto	u1531
  5104   001DEE  EFFB  F00E         	goto	u1530
  5105   001DF2                     u1531:
  5106   001DF2  EF05  F00F         	goto	l1113
  5107   001DF6                     u1530:
  5108   001DF6                     
  5109                           ; BSR set to: 0
  5110                           ;/Applications/microchip/xc8/v2.41/pic/sources/c99/common/doprnt.c: 175:         fputs((
      +                          const char *)buf, fp);
  5111   001DF6  C013  F00A         	movff	pad@buf,fputs@s
  5112   001DFA  C014  F00B         	movff	pad@buf+1,fputs@s+1
  5113   001DFE  C011  F00C         	movff	pad@fp,fputs@fp
  5114   001E02  C012  F00D         	movff	pad@fp+1,fputs@fp+1
  5115   001E06  EC0D  F011         	call	_fputs	;wreg free
  5116   001E0A                     l1113:
  5117   001E0A  0012               	return		;funcret
  5118   001E0C                     __end_of_pad:
  5119                           	callstack 0
  5120                           
  5121 ;; *************** function _fputs *****************
  5122 ;; Defined at:
  5123 ;;		line 8 in file "/Applications/microchip/xc8/v2.41/pic/sources/c99/common/nf_fputs.c"
  5124 ;; Parameters:    Size  Location     Type
  5125 ;;  s               2    9[COMRAM] PTR const unsigned char 
  5126 ;;		 -> dbuf(32), 
  5127 ;;  fp              2   11[COMRAM] PTR struct _IO_FILE
  5128 ;;		 -> sprintf@f(12), 
  5129 ;; Auto vars:     Size  Location     Type
  5130 ;;  i               2   14[COMRAM] int 
  5131 ;;  c               1   13[COMRAM] unsigned char 
  5132 ;; Return value:  Size  Location     Type
  5133 ;;                  2    9[COMRAM] int 
  5134 ;; Registers used:
  5135 ;;		wreg, fsr1l, fsr1h, fsr2l, fsr2h, status,2, status,0, cstack
  5136 ;; Tracked objects:
  5137 ;;		On entry : 0/0
  5138 ;;		On exit  : 0/0
  5139 ;;		Unchanged: 0/0
  5140 ;; Data sizes:     COMRAM   BANK0   BANK1   BANK2   BANK3   BANK4   BANK5   BANK6   BANK7
  5141 ;;      Params:         4       0       0       0       0       0       0       0       0
  5142 ;;      Locals:         3       0       0       0       0       0       0       0       0
  5143 ;;      Temps:          0       0       0       0       0       0       0       0       0
  5144 ;;      Totals:         7       0       0       0       0       0       0       0       0
  5145 ;;Total ram usage:        7 bytes
  5146 ;; Hardware stack levels used: 1
  5147 ;; Hardware stack levels required when called: 2
  5148 ;; This function calls:
  5149 ;;		_fputc
  5150 ;; This function is called by:
  5151 ;;		_pad
  5152 ;; This function uses a non-reentrant model
  5153 ;;
  5154                           
  5155                           	psect	text24
  5156   00221A                     __ptext24:
  5157                           	callstack 0
  5158   00221A                     _fputs:
  5159                           	callstack 22
  5160   00221A  0E00               	movlw	0
  5161   00221C  6E10               	movwf	(fputs@i+1)^0,c
  5162   00221E  0E00               	movlw	0
  5163   002220  6E0F               	movwf	fputs@i^0,c
  5164   002222  EF1E  F011         	goto	l2312
  5165   002226                     l2308:
  5166   002226  C00E  F001         	movff	fputs@c,fputc@c
  5167   00222A  6A02               	clrf	(fputc@c+1)^0,c
  5168   00222C  C00C  F003         	movff	fputs@fp,fputc@fp
  5169   002230  C00D  F004         	movff	fputs@fp+1,fputc@fp+1
  5170   002234  ECCD  F00C         	call	_fputc	;wreg free
  5171   002238  4A0F               	infsnz	fputs@i^0,f,c
  5172   00223A  2A10               	incf	(fputs@i+1)^0,f,c
  5173   00223C                     l2312:
  5174   00223C  500F               	movf	fputs@i^0,w,c
  5175   00223E  240A               	addwf	fputs@s^0,w,c
  5176   002240  6ED9               	movwf	fsr2l,c
  5177   002242  5010               	movf	(fputs@i+1)^0,w,c
  5178   002244  200B               	addwfc	(fputs@s+1)^0,w,c
  5179   002246  6EDA               	movwf	fsr2h,c
  5180   002248  50DF               	movf	indf2,w,c
  5181   00224A  6E0E               	movwf	fputs@c^0,c
  5182   00224C  500E               	movf	fputs@c^0,w,c
  5183   00224E  A4D8               	btfss	status,2,c
  5184   002250  EF2C  F011         	goto	u1371
  5185   002254  EF2E  F011         	goto	u1370
  5186   002258                     u1371:
  5187   002258  EF13  F011         	goto	l2308
  5188   00225C                     u1370:
  5189   00225C  0012               	return		;funcret
  5190   00225E                     __end_of_fputs:
  5191                           	callstack 0
  5192                           
  5193 ;; *************** function _fputc *****************
  5194 ;; Defined at:
  5195 ;;		line 8 in file "/Applications/microchip/xc8/v2.41/pic/sources/c99/common/nf_fputc.c"
  5196 ;; Parameters:    Size  Location     Type
  5197 ;;  c               2    0[COMRAM] int 
  5198 ;;  fp              2    2[COMRAM] PTR struct _IO_FILE
  5199 ;;		 -> sprintf@f(12), 
  5200 ;; Auto vars:     Size  Location     Type
  5201 ;;		None
  5202 ;; Return value:  Size  Location     Type
  5203 ;;                  2    0[COMRAM] int 
  5204 ;; Registers used:
  5205 ;;		wreg, fsr1l, fsr1h, fsr2l, fsr2h, status,2, status,0, cstack
  5206 ;; Tracked objects:
  5207 ;;		On entry : 0/0
  5208 ;;		On exit  : 0/0
  5209 ;;		Unchanged: 0/0
  5210 ;; Data sizes:     COMRAM   BANK0   BANK1   BANK2   BANK3   BANK4   BANK5   BANK6   BANK7
  5211 ;;      Params:         4       0       0       0       0       0       0       0       0
  5212 ;;      Locals:         0       0       0       0       0       0       0       0       0
  5213 ;;      Temps:          5       0       0       0       0       0       0       0       0
  5214 ;;      Totals:         9       0       0       0       0       0       0       0       0
  5215 ;;Total ram usage:        9 bytes
  5216 ;; Hardware stack levels used: 1
  5217 ;; Hardware stack levels required when called: 1
  5218 ;; This function calls:
  5219 ;;		_putch
  5220 ;; This function is called by:
  5221 ;;		_pad
  5222 ;;		_stoa
  5223 ;;		_vfpfcnvrt
  5224 ;;		_fputs
  5225 ;; This function uses a non-reentrant model
  5226 ;;
  5227                           
  5228                           	psect	text25
  5229   00199A                     __ptext25:
  5230                           	callstack 0
  5231   00199A                     _fputc:
  5232                           	callstack 22
  5233   00199A  5003               	movf	fputc@fp^0,w,c
  5234   00199C  1004               	iorwf	(fputc@fp+1)^0,w,c
  5235   00199E  B4D8               	btfsc	status,2,c
  5236   0019A0  EFD4  F00C         	goto	u1331
  5237   0019A4  EFD6  F00C         	goto	u1330
  5238   0019A8                     u1331:
  5239   0019A8  EFDF  F00C         	goto	l2296
  5240   0019AC                     u1330:
  5241   0019AC  5003               	movf	fputc@fp^0,w,c
  5242   0019AE  1004               	iorwf	(fputc@fp+1)^0,w,c
  5243   0019B0  A4D8               	btfss	status,2,c
  5244   0019B2  EFDD  F00C         	goto	u1341
  5245   0019B6  EFDF  F00C         	goto	u1340
  5246   0019BA                     u1341:
  5247   0019BA  EFE4  F00C         	goto	l2298
  5248   0019BE                     u1340:
  5249   0019BE                     l2296:
  5250   0019BE  5001               	movf	fputc@c^0,w,c
  5251   0019C0  ECAE  F012         	call	_putch
  5252   0019C4  EF31  F00D         	goto	l1238
  5253   0019C8                     l2298:
  5254   0019C8  EE20 F00A          	lfsr	2,10
  5255   0019CC  5003               	movf	fputc@fp^0,w,c
  5256   0019CE  26D9               	addwf	fsr2l,f,c
  5257   0019D0  5004               	movf	(fputc@fp+1)^0,w,c
  5258   0019D2  22DA               	addwfc	fsr2h,f,c
  5259   0019D4  50DE               	movf	postinc2,w,c
  5260   0019D6  10DE               	iorwf	postinc2,w,c
  5261   0019D8  B4D8               	btfsc	status,2,c
  5262   0019DA  EFF1  F00C         	goto	u1351
  5263   0019DE  EFF3  F00C         	goto	u1350
  5264   0019E2                     u1351:
  5265   0019E2  EF0E  F00D         	goto	l2302
  5266   0019E6                     u1350:
  5267   0019E6  EE20 F00A          	lfsr	2,10
  5268   0019EA  5003               	movf	fputc@fp^0,w,c
  5269   0019EC  26D9               	addwf	fsr2l,f,c
  5270   0019EE  5004               	movf	(fputc@fp+1)^0,w,c
  5271   0019F0  22DA               	addwfc	fsr2h,f,c
  5272   0019F2  EE10 F003          	lfsr	1,3
  5273   0019F6  5003               	movf	fputc@fp^0,w,c
  5274   0019F8  26E1               	addwf	fsr1l,f,c
  5275   0019FA  5004               	movf	(fputc@fp+1)^0,w,c
  5276   0019FC  22E2               	addwfc	fsr1h,f,c
  5277   0019FE  50DE               	movf	postinc2,w,c
  5278   001A00  5CE6               	subwf	postinc1,w,c
  5279   001A02  50E6               	movf	postinc1,w,c
  5280   001A04  0A80               	xorlw	128
  5281   001A06  6E09               	movwf	(??_fputc+4)^0,c
  5282   001A08  50DE               	movf	postinc2,w,c
  5283   001A0A  0A80               	xorlw	128
  5284   001A0C  5809               	subwfb	(??_fputc+4)^0,w,c
  5285   001A0E  B0D8               	btfsc	status,0,c
  5286   001A10  EF0C  F00D         	goto	u1361
  5287   001A14  EF0E  F00D         	goto	u1360
  5288   001A18                     u1361:
  5289   001A18  EF31  F00D         	goto	l1238
  5290   001A1C                     u1360:
  5291   001A1C                     l2302:
  5292   001A1C  EE20 F003          	lfsr	2,3
  5293   001A20  5003               	movf	fputc@fp^0,w,c
  5294   001A22  26D9               	addwf	fsr2l,f,c
  5295   001A24  5004               	movf	(fputc@fp+1)^0,w,c
  5296   001A26  22DA               	addwfc	fsr2h,f,c
  5297   001A28  CFDE F005          	movff	postinc2,??_fputc
  5298   001A2C  CFDD F006          	movff	postdec2,??_fputc+1
  5299   001A30  C003  FFD9         	movff	fputc@fp,fsr2l
  5300   001A34  C004  FFDA         	movff	fputc@fp+1,fsr2h
  5301   001A38  CFDE F007          	movff	postinc2,??_fputc+2
  5302   001A3C  CFDD F008          	movff	postdec2,??_fputc+3
  5303   001A40  5005               	movf	??_fputc^0,w,c
  5304   001A42  2407               	addwf	(??_fputc+2)^0,w,c
  5305   001A44  6ED9               	movwf	fsr2l,c
  5306   001A46  5006               	movf	(??_fputc+1)^0,w,c
  5307   001A48  2008               	addwfc	(??_fputc+3)^0,w,c
  5308   001A4A  6EDA               	movwf	fsr2h,c
  5309   001A4C  C001  FFDF         	movff	fputc@c,indf2
  5310   001A50  EE20 F003          	lfsr	2,3
  5311   001A54  5003               	movf	fputc@fp^0,w,c
  5312   001A56  26D9               	addwf	fsr2l,f,c
  5313   001A58  5004               	movf	(fputc@fp+1)^0,w,c
  5314   001A5A  22DA               	addwfc	fsr2h,f,c
  5315   001A5C  2ADE               	incf	postinc2,f,c
  5316   001A5E  0E00               	movlw	0
  5317   001A60  22DD               	addwfc	postdec2,f,c
  5318   001A62                     l1238:
  5319   001A62  0012               	return		;funcret
  5320   001A64                     __end_of_fputc:
  5321                           	callstack 0
  5322                           
  5323 ;; *************** function _putch *****************
  5324 ;; Defined at:
  5325 ;;		line 7 in file "/Applications/microchip/xc8/v2.41/pic/sources/c99/common/putch.c"
  5326 ;; Parameters:    Size  Location     Type
  5327 ;;  c               1    wreg     unsigned char 
  5328 ;; Auto vars:     Size  Location     Type
  5329 ;;  c               1    0[COMRAM] unsigned char 
  5330 ;; Return value:  Size  Location     Type
  5331 ;;                  1    wreg      void 
  5332 ;; Registers used:
  5333 ;;		wreg
  5334 ;; Tracked objects:
  5335 ;;		On entry : 0/0
  5336 ;;		On exit  : 0/0
  5337 ;;		Unchanged: 0/0
  5338 ;; Data sizes:     COMRAM   BANK0   BANK1   BANK2   BANK3   BANK4   BANK5   BANK6   BANK7
  5339 ;;      Params:         0       0       0       0       0       0       0       0       0
  5340 ;;      Locals:         0       0       0       0       0       0       0       0       0
  5341 ;;      Temps:          0       0       0       0       0       0       0       0       0
  5342 ;;      Totals:         0       0       0       0       0       0       0       0       0
  5343 ;;Total ram usage:        0 bytes
  5344 ;; Hardware stack levels used: 1
  5345 ;; This function calls:
  5346 ;;		Nothing
  5347 ;; This function is called by:
  5348 ;;		_fputc
  5349 ;; This function uses a non-reentrant model
  5350 ;;
  5351                           
  5352                           	psect	text26
  5353   00255C                     __ptext26:
  5354                           	callstack 0
  5355   00255C                     _putch:
  5356                           	callstack 22
  5357   00255C  0012               	return		;funcret
  5358   00255E                     __end_of_putch:
  5359                           	callstack 0
  5360                           
  5361 ;; *************** function _abs *****************
  5362 ;; Defined at:
  5363 ;;		line 1 in file "/Applications/microchip/xc8/v2.41/pic/sources/c99/common/abs.c"
  5364 ;; Parameters:    Size  Location     Type
  5365 ;;  a               2    6[COMRAM] int 
  5366 ;; Auto vars:     Size  Location     Type
  5367 ;;		None
  5368 ;; Return value:  Size  Location     Type
  5369 ;;                  2    6[COMRAM] int 
  5370 ;; Registers used:
  5371 ;;		wreg, status,2, status,0
  5372 ;; Tracked objects:
  5373 ;;		On entry : 0/0
  5374 ;;		On exit  : 0/0
  5375 ;;		Unchanged: 0/0
  5376 ;; Data sizes:     COMRAM   BANK0   BANK1   BANK2   BANK3   BANK4   BANK5   BANK6   BANK7
  5377 ;;      Params:         2       0       0       0       0       0       0       0       0
  5378 ;;      Locals:         0       0       0       0       0       0       0       0       0
  5379 ;;      Temps:          2       0       0       0       0       0       0       0       0
  5380 ;;      Totals:         4       0       0       0       0       0       0       0       0
  5381 ;;Total ram usage:        4 bytes
  5382 ;; Hardware stack levels used: 1
  5383 ;; This function calls:
  5384 ;;		Nothing
  5385 ;; This function is called by:
  5386 ;;		_dtoa
  5387 ;; This function uses a non-reentrant model
  5388 ;;
  5389                           
  5390                           	psect	text27
  5391   00229E                     __ptext27:
  5392                           	callstack 0
  5393   00229E                     _abs:
  5394                           	callstack 25
  5395   00229E  BE08               	btfsc	(abs@a+1)^0,7,c
  5396   0022A0  EF5C  F011         	goto	u1540
  5397   0022A4  5008               	movf	(abs@a+1)^0,w,c
  5398   0022A6  E106               	bnz	u1541
  5399   0022A8  0407               	decf	abs@a^0,w,c
  5400   0022AA  B0D8               	btfsc	status,0,c
  5401   0022AC  EF5A  F011         	goto	u1541
  5402   0022B0  EF5C  F011         	goto	u1540
  5403   0022B4                     u1541:
  5404   0022B4  EF6A  F011         	goto	l1223
  5405   0022B8                     u1540:
  5406   0022B8  C007  F009         	movff	abs@a,??_abs
  5407   0022BC  C008  F00A         	movff	abs@a+1,??_abs+1
  5408   0022C0  1E09               	comf	??_abs^0,f,c
  5409   0022C2  1E0A               	comf	(??_abs+1)^0,f,c
  5410   0022C4  4A09               	infsnz	??_abs^0,f,c
  5411   0022C6  2A0A               	incf	(??_abs+1)^0,f,c
  5412   0022C8  C009  F007         	movff	??_abs,?_abs
  5413   0022CC  C00A  F008         	movff	??_abs+1,?_abs+1
  5414   0022D0  EF6E  F011         	goto	l1226
  5415   0022D4                     l1223:
  5416   0022D4  C007  F007         	movff	abs@a,?_abs
  5417   0022D8  C008  F008         	movff	abs@a+1,?_abs+1
  5418   0022DC                     l1226:
  5419   0022DC  0012               	return		;funcret
  5420   0022DE                     __end_of_abs:
  5421                           	callstack 0
  5422                           
  5423 ;; *************** function ___awmod *****************
  5424 ;; Defined at:
  5425 ;;		line 7 in file "/Applications/microchip/xc8/v2.41/pic/sources/c99/common/awmod.c"
  5426 ;; Parameters:    Size  Location     Type
  5427 ;;  dividend        2    0[COMRAM] int 
  5428 ;;  divisor         2    2[COMRAM] int 
  5429 ;; Auto vars:     Size  Location     Type
  5430 ;;  sign            1    5[COMRAM] unsigned char 
  5431 ;;  counter         1    4[COMRAM] unsigned char 
  5432 ;; Return value:  Size  Location     Type
  5433 ;;                  2    0[COMRAM] int 
  5434 ;; Registers used:
  5435 ;;		wreg, status,2, status,0
  5436 ;; Tracked objects:
  5437 ;;		On entry : 0/0
  5438 ;;		On exit  : 0/0
  5439 ;;		Unchanged: 0/0
  5440 ;; Data sizes:     COMRAM   BANK0   BANK1   BANK2   BANK3   BANK4   BANK5   BANK6   BANK7
  5441 ;;      Params:         4       0       0       0       0       0       0       0       0
  5442 ;;      Locals:         2       0       0       0       0       0       0       0       0
  5443 ;;      Temps:          0       0       0       0       0       0       0       0       0
  5444 ;;      Totals:         6       0       0       0       0       0       0       0       0
  5445 ;;Total ram usage:        6 bytes
  5446 ;; Hardware stack levels used: 1
  5447 ;; This function calls:
  5448 ;;		Nothing
  5449 ;; This function is called by:
  5450 ;;		_dtoa
  5451 ;; This function uses a non-reentrant model
  5452 ;;
  5453                           
  5454                           	psect	text28
  5455   001CAE                     __ptext28:
  5456                           	callstack 0
  5457   001CAE                     ___awmod:
  5458                           	callstack 25
  5459   001CAE  0E00               	movlw	0
  5460   001CB0  6E06               	movwf	___awmod@sign^0,c
  5461   001CB2  BE02               	btfsc	(___awmod@dividend+1)^0,7,c
  5462   001CB4  EF60  F00E         	goto	u1440
  5463   001CB8  EF5E  F00E         	goto	u1441
  5464   001CBC                     u1441:
  5465   001CBC  EF66  F00E         	goto	l2372
  5466   001CC0                     u1440:
  5467   001CC0  6C01               	negf	___awmod@dividend^0,c
  5468   001CC2  1E02               	comf	(___awmod@dividend+1)^0,f,c
  5469   001CC4  B0D8               	btfsc	status,0,c
  5470   001CC6  2A02               	incf	(___awmod@dividend+1)^0,f,c
  5471   001CC8  0E01               	movlw	1
  5472   001CCA  6E06               	movwf	___awmod@sign^0,c
  5473   001CCC                     l2372:
  5474   001CCC  BE04               	btfsc	(___awmod@divisor+1)^0,7,c
  5475   001CCE  EF6D  F00E         	goto	u1450
  5476   001CD2  EF6B  F00E         	goto	u1451
  5477   001CD6                     u1451:
  5478   001CD6  EF71  F00E         	goto	l2376
  5479   001CDA                     u1450:
  5480   001CDA  6C03               	negf	___awmod@divisor^0,c
  5481   001CDC  1E04               	comf	(___awmod@divisor+1)^0,f,c
  5482   001CDE  B0D8               	btfsc	status,0,c
  5483   001CE0  2A04               	incf	(___awmod@divisor+1)^0,f,c
  5484   001CE2                     l2376:
  5485   001CE2  5003               	movf	___awmod@divisor^0,w,c
  5486   001CE4  1004               	iorwf	(___awmod@divisor+1)^0,w,c
  5487   001CE6  B4D8               	btfsc	status,2,c
  5488   001CE8  EF78  F00E         	goto	u1461
  5489   001CEC  EF7A  F00E         	goto	u1460
  5490   001CF0                     u1461:
  5491   001CF0  EF9E  F00E         	goto	l2392
  5492   001CF4                     u1460:
  5493   001CF4  0E01               	movlw	1
  5494   001CF6  6E05               	movwf	___awmod@counter^0,c
  5495   001CF8  EF82  F00E         	goto	l2382
  5496   001CFC                     l2380:
  5497   001CFC  90D8               	bcf	status,0,c
  5498   001CFE  3603               	rlcf	___awmod@divisor^0,f,c
  5499   001D00  3604               	rlcf	(___awmod@divisor+1)^0,f,c
  5500   001D02  2A05               	incf	___awmod@counter^0,f,c
  5501   001D04                     l2382:
  5502   001D04  AE04               	btfss	(___awmod@divisor+1)^0,7,c
  5503   001D06  EF87  F00E         	goto	u1471
  5504   001D0A  EF89  F00E         	goto	u1470
  5505   001D0E                     u1471:
  5506   001D0E  EF7E  F00E         	goto	l2380
  5507   001D12                     u1470:
  5508   001D12                     l2384:
  5509   001D12  5003               	movf	___awmod@divisor^0,w,c
  5510   001D14  5C01               	subwf	___awmod@dividend^0,w,c
  5511   001D16  5004               	movf	(___awmod@divisor+1)^0,w,c
  5512   001D18  5802               	subwfb	(___awmod@dividend+1)^0,w,c
  5513   001D1A  A0D8               	btfss	status,0,c
  5514   001D1C  EF92  F00E         	goto	u1481
  5515   001D20  EF94  F00E         	goto	u1480
  5516   001D24                     u1481:
  5517   001D24  EF98  F00E         	goto	l2388
  5518   001D28                     u1480:
  5519   001D28  5003               	movf	___awmod@divisor^0,w,c
  5520   001D2A  5E01               	subwf	___awmod@dividend^0,f,c
  5521   001D2C  5004               	movf	(___awmod@divisor+1)^0,w,c
  5522   001D2E  5A02               	subwfb	(___awmod@dividend+1)^0,f,c
  5523   001D30                     l2388:
  5524   001D30  90D8               	bcf	status,0,c
  5525   001D32  3204               	rrcf	(___awmod@divisor+1)^0,f,c
  5526   001D34  3203               	rrcf	___awmod@divisor^0,f,c
  5527   001D36  2E05               	decfsz	___awmod@counter^0,f,c
  5528   001D38  EF89  F00E         	goto	l2384
  5529   001D3C                     l2392:
  5530   001D3C  5006               	movf	___awmod@sign^0,w,c
  5531   001D3E  B4D8               	btfsc	status,2,c
  5532   001D40  EFA4  F00E         	goto	u1491
  5533   001D44  EFA6  F00E         	goto	u1490
  5534   001D48                     u1491:
  5535   001D48  EFAA  F00E         	goto	l2396
  5536   001D4C                     u1490:
  5537   001D4C  6C01               	negf	___awmod@dividend^0,c
  5538   001D4E  1E02               	comf	(___awmod@dividend+1)^0,f,c
  5539   001D50  B0D8               	btfsc	status,0,c
  5540   001D52  2A02               	incf	(___awmod@dividend+1)^0,f,c
  5541   001D54                     l2396:
  5542   001D54  C001  F001         	movff	___awmod@dividend,?___awmod
  5543   001D58  C002  F002         	movff	___awmod@dividend+1,?___awmod+1
  5544   001D5C  0012               	return		;funcret
  5545   001D5E                     __end_of___awmod:
  5546                           	callstack 0
  5547                           
  5548 ;; *************** function ___awdiv *****************
  5549 ;; Defined at:
  5550 ;;		line 7 in file "/Applications/microchip/xc8/v2.41/pic/sources/c99/common/awdiv.c"
  5551 ;; Parameters:    Size  Location     Type
  5552 ;;  dividend        2    0[COMRAM] int 
  5553 ;;  divisor         2    2[COMRAM] int 
  5554 ;; Auto vars:     Size  Location     Type
  5555 ;;  quotient        2    6[COMRAM] int 
  5556 ;;  sign            1    5[COMRAM] unsigned char 
  5557 ;;  counter         1    4[COMRAM] unsigned char 
  5558 ;; Return value:  Size  Location     Type
  5559 ;;                  2    0[COMRAM] int 
  5560 ;; Registers used:
  5561 ;;		wreg, status,2, status,0
  5562 ;; Tracked objects:
  5563 ;;		On entry : 0/0
  5564 ;;		On exit  : 0/0
  5565 ;;		Unchanged: 0/0
  5566 ;; Data sizes:     COMRAM   BANK0   BANK1   BANK2   BANK3   BANK4   BANK5   BANK6   BANK7
  5567 ;;      Params:         4       0       0       0       0       0       0       0       0
  5568 ;;      Locals:         4       0       0       0       0       0       0       0       0
  5569 ;;      Temps:          0       0       0       0       0       0       0       0       0
  5570 ;;      Totals:         8       0       0       0       0       0       0       0       0
  5571 ;;Total ram usage:        8 bytes
  5572 ;; Hardware stack levels used: 1
  5573 ;; This function calls:
  5574 ;;		Nothing
  5575 ;; This function is called by:
  5576 ;;		_dtoa
  5577 ;; This function uses a non-reentrant model
  5578 ;;
  5579                           
  5580                           	psect	text29
  5581   001B2A                     __ptext29:
  5582                           	callstack 0
  5583   001B2A                     ___awdiv:
  5584                           	callstack 25
  5585   001B2A  0E00               	movlw	0
  5586   001B2C  6E06               	movwf	___awdiv@sign^0,c
  5587   001B2E  BE04               	btfsc	(___awdiv@divisor+1)^0,7,c
  5588   001B30  EF9E  F00D         	goto	u1380
  5589   001B34  EF9C  F00D         	goto	u1381
  5590   001B38                     u1381:
  5591   001B38  EFA4  F00D         	goto	l2328
  5592   001B3C                     u1380:
  5593   001B3C  6C03               	negf	___awdiv@divisor^0,c
  5594   001B3E  1E04               	comf	(___awdiv@divisor+1)^0,f,c
  5595   001B40  B0D8               	btfsc	status,0,c
  5596   001B42  2A04               	incf	(___awdiv@divisor+1)^0,f,c
  5597   001B44  0E01               	movlw	1
  5598   001B46  6E06               	movwf	___awdiv@sign^0,c
  5599   001B48                     l2328:
  5600   001B48  BE02               	btfsc	(___awdiv@dividend+1)^0,7,c
  5601   001B4A  EFAB  F00D         	goto	u1390
  5602   001B4E  EFA9  F00D         	goto	u1391
  5603   001B52                     u1391:
  5604   001B52  EFB1  F00D         	goto	l2334
  5605   001B56                     u1390:
  5606   001B56  6C01               	negf	___awdiv@dividend^0,c
  5607   001B58  1E02               	comf	(___awdiv@dividend+1)^0,f,c
  5608   001B5A  B0D8               	btfsc	status,0,c
  5609   001B5C  2A02               	incf	(___awdiv@dividend+1)^0,f,c
  5610   001B5E  0E01               	movlw	1
  5611   001B60  1A06               	xorwf	___awdiv@sign^0,f,c
  5612   001B62                     l2334:
  5613   001B62  0E00               	movlw	0
  5614   001B64  6E08               	movwf	(___awdiv@quotient+1)^0,c
  5615   001B66  0E00               	movlw	0
  5616   001B68  6E07               	movwf	___awdiv@quotient^0,c
  5617   001B6A  5003               	movf	___awdiv@divisor^0,w,c
  5618   001B6C  1004               	iorwf	(___awdiv@divisor+1)^0,w,c
  5619   001B6E  B4D8               	btfsc	status,2,c
  5620   001B70  EFBC  F00D         	goto	u1401
  5621   001B74  EFBE  F00D         	goto	u1400
  5622   001B78                     u1401:
  5623   001B78  EFE6  F00D         	goto	l2356
  5624   001B7C                     u1400:
  5625   001B7C  0E01               	movlw	1
  5626   001B7E  6E05               	movwf	___awdiv@counter^0,c
  5627   001B80  EFC6  F00D         	goto	l2342
  5628   001B84                     l2340:
  5629   001B84  90D8               	bcf	status,0,c
  5630   001B86  3603               	rlcf	___awdiv@divisor^0,f,c
  5631   001B88  3604               	rlcf	(___awdiv@divisor+1)^0,f,c
  5632   001B8A  2A05               	incf	___awdiv@counter^0,f,c
  5633   001B8C                     l2342:
  5634   001B8C  AE04               	btfss	(___awdiv@divisor+1)^0,7,c
  5635   001B8E  EFCB  F00D         	goto	u1411
  5636   001B92  EFCD  F00D         	goto	u1410
  5637   001B96                     u1411:
  5638   001B96  EFC2  F00D         	goto	l2340
  5639   001B9A                     u1410:
  5640   001B9A                     l2344:
  5641   001B9A  90D8               	bcf	status,0,c
  5642   001B9C  3607               	rlcf	___awdiv@quotient^0,f,c
  5643   001B9E  3608               	rlcf	(___awdiv@quotient+1)^0,f,c
  5644   001BA0  5003               	movf	___awdiv@divisor^0,w,c
  5645   001BA2  5C01               	subwf	___awdiv@dividend^0,w,c
  5646   001BA4  5004               	movf	(___awdiv@divisor+1)^0,w,c
  5647   001BA6  5802               	subwfb	(___awdiv@dividend+1)^0,w,c
  5648   001BA8  A0D8               	btfss	status,0,c
  5649   001BAA  EFD9  F00D         	goto	u1421
  5650   001BAE  EFDB  F00D         	goto	u1420
  5651   001BB2                     u1421:
  5652   001BB2  EFE0  F00D         	goto	l2352
  5653   001BB6                     u1420:
  5654   001BB6  5003               	movf	___awdiv@divisor^0,w,c
  5655   001BB8  5E01               	subwf	___awdiv@dividend^0,f,c
  5656   001BBA  5004               	movf	(___awdiv@divisor+1)^0,w,c
  5657   001BBC  5A02               	subwfb	(___awdiv@dividend+1)^0,f,c
  5658   001BBE  8007               	bsf	___awdiv@quotient^0,0,c
  5659   001BC0                     l2352:
  5660   001BC0  90D8               	bcf	status,0,c
  5661   001BC2  3204               	rrcf	(___awdiv@divisor+1)^0,f,c
  5662   001BC4  3203               	rrcf	___awdiv@divisor^0,f,c
  5663   001BC6  2E05               	decfsz	___awdiv@counter^0,f,c
  5664   001BC8  EFCD  F00D         	goto	l2344
  5665   001BCC                     l2356:
  5666   001BCC  5006               	movf	___awdiv@sign^0,w,c
  5667   001BCE  B4D8               	btfsc	status,2,c
  5668   001BD0  EFEC  F00D         	goto	u1431
  5669   001BD4  EFEE  F00D         	goto	u1430
  5670   001BD8                     u1431:
  5671   001BD8  EFF2  F00D         	goto	l2360
  5672   001BDC                     u1430:
  5673   001BDC  6C07               	negf	___awdiv@quotient^0,c
  5674   001BDE  1E08               	comf	(___awdiv@quotient+1)^0,f,c
  5675   001BE0  B0D8               	btfsc	status,0,c
  5676   001BE2  2A08               	incf	(___awdiv@quotient+1)^0,f,c
  5677   001BE4                     l2360:
  5678   001BE4  C007  F001         	movff	___awdiv@quotient,?___awdiv
  5679   001BE8  C008  F002         	movff	___awdiv@quotient+1,?___awdiv+1
  5680   001BEC  0012               	return		;funcret
  5681   001BEE                     __end_of___awdiv:
  5682                           	callstack 0
  5683                           
  5684 ;; *************** function _RTC_GetDateTime *****************
  5685 ;; Defined at:
  5686 ;;		line 468 in file "main_piee2.c"
  5687 ;; Parameters:    Size  Location     Type
  5688 ;;  rtc             2    2[COMRAM] PTR struct .
  5689 ;;		 -> rtc(7), 
  5690 ;; Auto vars:     Size  Location     Type
  5691 ;;		None
  5692 ;; Return value:  Size  Location     Type
  5693 ;;                  1    wreg      void 
  5694 ;; Registers used:
  5695 ;;		wreg, fsr2l, fsr2h, status,2, status,0, cstack
  5696 ;; Tracked objects:
  5697 ;;		On entry : 0/0
  5698 ;;		On exit  : 0/0
  5699 ;;		Unchanged: 0/0
  5700 ;; Data sizes:     COMRAM   BANK0   BANK1   BANK2   BANK3   BANK4   BANK5   BANK6   BANK7
  5701 ;;      Params:         2       0       0       0       0       0       0       0       0
  5702 ;;      Locals:         0       0       0       0       0       0       0       0       0
  5703 ;;      Temps:          0       0       0       0       0       0       0       0       0
  5704 ;;      Totals:         2       0       0       0       0       0       0       0       0
  5705 ;;Total ram usage:        2 bytes
  5706 ;; Hardware stack levels used: 1
  5707 ;; Hardware stack levels required when called: 2
  5708 ;; This function calls:
  5709 ;;		_I2C_Read
  5710 ;;		_I2C_Restart
  5711 ;;		_I2C_Start
  5712 ;;		_I2C_Stop
  5713 ;;		_I2C_Write
  5714 ;; This function is called by:
  5715 ;;		_Display_Menu_Principal
  5716 ;; This function uses a non-reentrant model
  5717 ;;
  5718                           
  5719                           	psect	text30
  5720   001E0C                     __ptext30:
  5721                           	callstack 0
  5722   001E0C                     _RTC_GetDateTime:
  5723                           	callstack 27
  5724   001E0C                     
  5725                           ;main_piee2.c: 469:     I2C_Start();
  5726   001E0C  EC92  F012         	call	_I2C_Start	;wreg free
  5727   001E10                     
  5728                           ;main_piee2.c: 470:     I2C_Write(0xD0);
  5729   001E10  0ED0               	movlw	208
  5730   001E12  EC53  F012         	call	_I2C_Write
  5731   001E16                     
  5732                           ;main_piee2.c: 471:     I2C_Write(0x00);
  5733   001E16  0E00               	movlw	0
  5734   001E18  EC53  F012         	call	_I2C_Write
  5735                           
  5736                           ;main_piee2.c: 472:     I2C_Restart();
  5737   001E1C  EC9B  F012         	call	_I2C_Restart	;wreg free
  5738   001E20                     
  5739                           ;main_piee2.c: 473:     I2C_Write(0xD1);
  5740   001E20  0ED1               	movlw	209
  5741   001E22  EC53  F012         	call	_I2C_Write
  5742   001E26                     
  5743                           ;main_piee2.c: 475:     rtc->sec = I2C_Read(1);
  5744   001E26  0E01               	movlw	1
  5745   001E28  EC6F  F011         	call	_I2C_Read
  5746   001E2C  C003  FFD9         	movff	RTC_GetDateTime@rtc,fsr2l
  5747   001E30  C004  FFDA         	movff	RTC_GetDateTime@rtc+1,fsr2h
  5748   001E34  6EDF               	movwf	indf2,c
  5749   001E36                     
  5750                           ;main_piee2.c: 476:     rtc->min = I2C_Read(1);
  5751   001E36  EE20 F001          	lfsr	2,1
  5752   001E3A  5003               	movf	RTC_GetDateTime@rtc^0,w,c
  5753   001E3C  26D9               	addwf	fsr2l,f,c
  5754   001E3E  5004               	movf	(RTC_GetDateTime@rtc+1)^0,w,c
  5755   001E40  22DA               	addwfc	fsr2h,f,c
  5756   001E42  0E01               	movlw	1
  5757   001E44  EC6F  F011         	call	_I2C_Read
  5758   001E48  6EDF               	movwf	indf2,c
  5759   001E4A                     
  5760                           ;main_piee2.c: 477:     rtc->hour = I2C_Read(1);
  5761   001E4A  EE20 F002          	lfsr	2,2
  5762   001E4E  5003               	movf	RTC_GetDateTime@rtc^0,w,c
  5763   001E50  26D9               	addwf	fsr2l,f,c
  5764   001E52  5004               	movf	(RTC_GetDateTime@rtc+1)^0,w,c
  5765   001E54  22DA               	addwfc	fsr2h,f,c
  5766   001E56  0E01               	movlw	1
  5767   001E58  EC6F  F011         	call	_I2C_Read
  5768   001E5C  6EDF               	movwf	indf2,c
  5769   001E5E                     
  5770                           ;main_piee2.c: 478:     rtc->weekDay = I2C_Read(1);
  5771   001E5E  EE20 F003          	lfsr	2,3
  5772   001E62  5003               	movf	RTC_GetDateTime@rtc^0,w,c
  5773   001E64  26D9               	addwf	fsr2l,f,c
  5774   001E66  5004               	movf	(RTC_GetDateTime@rtc+1)^0,w,c
  5775   001E68  22DA               	addwfc	fsr2h,f,c
  5776   001E6A  0E01               	movlw	1
  5777   001E6C  EC6F  F011         	call	_I2C_Read
  5778   001E70  6EDF               	movwf	indf2,c
  5779   001E72                     
  5780                           ;main_piee2.c: 479:     rtc->date = I2C_Read(1);
  5781   001E72  EE20 F004          	lfsr	2,4
  5782   001E76  5003               	movf	RTC_GetDateTime@rtc^0,w,c
  5783   001E78  26D9               	addwf	fsr2l,f,c
  5784   001E7A  5004               	movf	(RTC_GetDateTime@rtc+1)^0,w,c
  5785   001E7C  22DA               	addwfc	fsr2h,f,c
  5786   001E7E  0E01               	movlw	1
  5787   001E80  EC6F  F011         	call	_I2C_Read
  5788   001E84  6EDF               	movwf	indf2,c
  5789   001E86                     
  5790                           ;main_piee2.c: 480:     rtc->month = I2C_Read(1);
  5791   001E86  EE20 F005          	lfsr	2,5
  5792   001E8A  5003               	movf	RTC_GetDateTime@rtc^0,w,c
  5793   001E8C  26D9               	addwf	fsr2l,f,c
  5794   001E8E  5004               	movf	(RTC_GetDateTime@rtc+1)^0,w,c
  5795   001E90  22DA               	addwfc	fsr2h,f,c
  5796   001E92  0E01               	movlw	1
  5797   001E94  EC6F  F011         	call	_I2C_Read
  5798   001E98  6EDF               	movwf	indf2,c
  5799   001E9A                     
  5800                           ;main_piee2.c: 481:     rtc->year = I2C_Read(0);
  5801   001E9A  EE20 F006          	lfsr	2,6
  5802   001E9E  5003               	movf	RTC_GetDateTime@rtc^0,w,c
  5803   001EA0  26D9               	addwf	fsr2l,f,c
  5804   001EA2  5004               	movf	(RTC_GetDateTime@rtc+1)^0,w,c
  5805   001EA4  22DA               	addwfc	fsr2h,f,c
  5806   001EA6  0E00               	movlw	0
  5807   001EA8  EC6F  F011         	call	_I2C_Read
  5808   001EAC  6EDF               	movwf	indf2,c
  5809   001EAE                     
  5810                           ;main_piee2.c: 483:     I2C_Stop();
  5811   001EAE  EC89  F012         	call	_I2C_Stop	;wreg free
  5812   001EB2  0012               	return		;funcret
  5813   001EB4                     __end_of_RTC_GetDateTime:
  5814                           	callstack 0
  5815                           
  5816 ;; *************** function _I2C_Write *****************
  5817 ;; Defined at:
  5818 ;;		line 126 in file "i2c.c"
  5819 ;; Parameters:    Size  Location     Type
  5820 ;;  v_i2cData_u8    1    wreg     unsigned char 
  5821 ;; Auto vars:     Size  Location     Type
  5822 ;;  v_i2cData_u8    1    0[COMRAM] unsigned char 
  5823 ;; Return value:  Size  Location     Type
  5824 ;;                  1    wreg      void 
  5825 ;; Registers used:
  5826 ;;		wreg, cstack
  5827 ;; Tracked objects:
  5828 ;;		On entry : 0/0
  5829 ;;		On exit  : 0/0
  5830 ;;		Unchanged: 0/0
  5831 ;; Data sizes:     COMRAM   BANK0   BANK1   BANK2   BANK3   BANK4   BANK5   BANK6   BANK7
  5832 ;;      Params:         0       0       0       0       0       0       0       0       0
  5833 ;;      Locals:         1       0       0       0       0       0       0       0       0
  5834 ;;      Temps:          0       0       0       0       0       0       0       0       0
  5835 ;;      Totals:         1       0       0       0       0       0       0       0       0
  5836 ;;Total ram usage:        1 bytes
  5837 ;; Hardware stack levels used: 1
  5838 ;; Hardware stack levels required when called: 1
  5839 ;; This function calls:
  5840 ;;		_i2c_WaitForIdle
  5841 ;; This function is called by:
  5842 ;;		_Ler_EEPROM
  5843 ;;		_Escrever_EEPROM
  5844 ;;		_RTC_Init
  5845 ;;		_RTC_GetDateTime
  5846 ;; This function uses a non-reentrant model
  5847 ;;
  5848                           
  5849                           	psect	text31
  5850   0024A6                     __ptext31:
  5851                           	callstack 0
  5852   0024A6                     _I2C_Write:
  5853                           	callstack 26
  5854                           
  5855                           ;incstack = 0
  5856                           ;I2C_Write@v_i2cData_u8 stored from wreg
  5857   0024A6  6E01               	movwf	I2C_Write@v_i2cData_u8^0,c
  5858   0024A8                     
  5859                           ;i2c.c: 126: void I2C_Write(uint8_t v_i2cData_u8);i2c.c: 127: {;i2c.c: 130:     SSPBUF =
      +                           v_i2cData_u8;
  5860   0024A8  C001  FFC9         	movff	I2C_Write@v_i2cData_u8,4041	;volatile
  5861   0024AC                     l324:
  5862   0024AC  B0C7               	btfsc	4039,0,c	;volatile
  5863   0024AE  EF5B  F012         	goto	u2041
  5864   0024B2  EF5D  F012         	goto	u2040
  5865   0024B6                     u2041:
  5866   0024B6  EF56  F012         	goto	l324
  5867   0024BA                     u2040:
  5868   0024BA                     
  5869                           ;i2c.c: 132:     i2c_WaitForIdle();
  5870   0024BA  ECE9  F010         	call	_i2c_WaitForIdle	;wreg free
  5871   0024BE  0012               	return		;funcret
  5872   0024C0                     __end_of_I2C_Write:
  5873                           	callstack 0
  5874                           
  5875 ;; *************** function _I2C_Stop *****************
  5876 ;; Defined at:
  5877 ;;		line 102 in file "i2c.c"
  5878 ;; Parameters:    Size  Location     Type
  5879 ;;		None
  5880 ;; Auto vars:     Size  Location     Type
  5881 ;;		None
  5882 ;; Return value:  Size  Location     Type
  5883 ;;                  1    wreg      void 
  5884 ;; Registers used:
  5885 ;;		None
  5886 ;; Tracked objects:
  5887 ;;		On entry : 0/0
  5888 ;;		On exit  : 0/0
  5889 ;;		Unchanged: 0/0
  5890 ;; Data sizes:     COMRAM   BANK0   BANK1   BANK2   BANK3   BANK4   BANK5   BANK6   BANK7
  5891 ;;      Params:         0       0       0       0       0       0       0       0       0
  5892 ;;      Locals:         0       0       0       0       0       0       0       0       0
  5893 ;;      Temps:          0       0       0       0       0       0       0       0       0
  5894 ;;      Totals:         0       0       0       0       0       0       0       0       0
  5895 ;;Total ram usage:        0 bytes
  5896 ;; Hardware stack levels used: 1
  5897 ;; This function calls:
  5898 ;;		Nothing
  5899 ;; This function is called by:
  5900 ;;		_Ler_EEPROM
  5901 ;;		_Escrever_EEPROM
  5902 ;;		_RTC_Init
  5903 ;;		_RTC_GetDateTime
  5904 ;; This function uses a non-reentrant model
  5905 ;;
  5906                           
  5907                           	psect	text32
  5908   002512                     __ptext32:
  5909                           	callstack 0
  5910   002512                     _I2C_Stop:
  5911                           	callstack 27
  5912   002512                     
  5913                           ;i2c.c: 104:  PEN = 1;
  5914   002512  84C5               	bsf	4037,2,c	;volatile
  5915   002514                     l318:
  5916   002514  B4C5               	btfsc	4037,2,c	;volatile
  5917   002516  EF8F  F012         	goto	u2051
  5918   00251A  EF91  F012         	goto	u2050
  5919   00251E                     u2051:
  5920   00251E  EF8A  F012         	goto	l318
  5921   002522                     u2050:
  5922   002522  0012               	return		;funcret
  5923   002524                     __end_of_I2C_Stop:
  5924                           	callstack 0
  5925                           
  5926 ;; *************** function _I2C_Start *****************
  5927 ;; Defined at:
  5928 ;;		line 78 in file "i2c.c"
  5929 ;; Parameters:    Size  Location     Type
  5930 ;;		None
  5931 ;; Auto vars:     Size  Location     Type
  5932 ;;		None
  5933 ;; Return value:  Size  Location     Type
  5934 ;;                  1    wreg      void 
  5935 ;; Registers used:
  5936 ;;		None
  5937 ;; Tracked objects:
  5938 ;;		On entry : 0/0
  5939 ;;		On exit  : 0/0
  5940 ;;		Unchanged: 0/0
  5941 ;; Data sizes:     COMRAM   BANK0   BANK1   BANK2   BANK3   BANK4   BANK5   BANK6   BANK7
  5942 ;;      Params:         0       0       0       0       0       0       0       0       0
  5943 ;;      Locals:         0       0       0       0       0       0       0       0       0
  5944 ;;      Temps:          0       0       0       0       0       0       0       0       0
  5945 ;;      Totals:         0       0       0       0       0       0       0       0       0
  5946 ;;Total ram usage:        0 bytes
  5947 ;; Hardware stack levels used: 1
  5948 ;; This function calls:
  5949 ;;		Nothing
  5950 ;; This function is called by:
  5951 ;;		_Ler_EEPROM
  5952 ;;		_Escrever_EEPROM
  5953 ;;		_RTC_Init
  5954 ;;		_RTC_GetDateTime
  5955 ;; This function uses a non-reentrant model
  5956 ;;
  5957                           
  5958                           	psect	text33
  5959   002524                     __ptext33:
  5960                           	callstack 0
  5961   002524                     _I2C_Start:
  5962                           	callstack 27
  5963   002524                     
  5964                           ;i2c.c: 80:  SSPCON2bits.SEN = 1;
  5965   002524  80C5               	bsf	197,0,c	;volatile
  5966   002526                     l312:
  5967   002526  B0C5               	btfsc	197,0,c	;volatile
  5968   002528  EF98  F012         	goto	u2031
  5969   00252C  EF9A  F012         	goto	u2030
  5970   002530                     u2031:
  5971   002530  EF93  F012         	goto	l312
  5972   002534                     u2030:
  5973   002534  0012               	return		;funcret
  5974   002536                     __end_of_I2C_Start:
  5975                           	callstack 0
  5976                           
  5977 ;; *************** function _I2C_Restart *****************
  5978 ;; Defined at:
  5979 ;;		line 33 in file "i2c.c"
  5980 ;; Parameters:    Size  Location     Type
  5981 ;;		None
  5982 ;; Auto vars:     Size  Location     Type
  5983 ;;		None
  5984 ;; Return value:  Size  Location     Type
  5985 ;;                  1    wreg      void 
  5986 ;; Registers used:
  5987 ;;		None
  5988 ;; Tracked objects:
  5989 ;;		On entry : 0/0
  5990 ;;		On exit  : 0/0
  5991 ;;		Unchanged: 0/0
  5992 ;; Data sizes:     COMRAM   BANK0   BANK1   BANK2   BANK3   BANK4   BANK5   BANK6   BANK7
  5993 ;;      Params:         0       0       0       0       0       0       0       0       0
  5994 ;;      Locals:         0       0       0       0       0       0       0       0       0
  5995 ;;      Temps:          0       0       0       0       0       0       0       0       0
  5996 ;;      Totals:         0       0       0       0       0       0       0       0       0
  5997 ;;Total ram usage:        0 bytes
  5998 ;; Hardware stack levels used: 1
  5999 ;; This function calls:
  6000 ;;		Nothing
  6001 ;; This function is called by:
  6002 ;;		_Ler_EEPROM
  6003 ;;		_RTC_GetDateTime
  6004 ;; This function uses a non-reentrant model
  6005 ;;
  6006                           
  6007                           	psect	text34
  6008   002536                     __ptext34:
  6009                           	callstack 0
  6010   002536                     _I2C_Restart:
  6011                           	callstack 28
  6012   002536                     
  6013                           ;i2c.c: 35:  RSEN = 1;
  6014   002536  82C5               	bsf	4037,1,c	;volatile
  6015   002538                     l303:
  6016   002538  B2C5               	btfsc	4037,1,c	;volatile
  6017   00253A  EFA1  F012         	goto	u2171
  6018   00253E  EFA3  F012         	goto	u2170
  6019   002542                     u2171:
  6020   002542  EF9C  F012         	goto	l303
  6021   002546                     u2170:
  6022   002546  0012               	return		;funcret
  6023   002548                     __end_of_I2C_Restart:
  6024                           	callstack 0
  6025                           
  6026 ;; *************** function _I2C_Read *****************
  6027 ;; Defined at:
  6028 ;;		line 155 in file "i2c.c"
  6029 ;; Parameters:    Size  Location     Type
  6030 ;;  v_ackOption_    1    wreg     unsigned char 
  6031 ;; Auto vars:     Size  Location     Type
  6032 ;;  v_ackOption_    1    0[COMRAM] unsigned char 
  6033 ;;  v_i2cData_u8    1    1[COMRAM] unsigned char 
  6034 ;; Return value:  Size  Location     Type
  6035 ;;                  1    wreg      unsigned char 
  6036 ;; Registers used:
  6037 ;;		wreg, status,2, status,0, cstack
  6038 ;; Tracked objects:
  6039 ;;		On entry : 0/0
  6040 ;;		On exit  : 0/0
  6041 ;;		Unchanged: 0/0
  6042 ;; Data sizes:     COMRAM   BANK0   BANK1   BANK2   BANK3   BANK4   BANK5   BANK6   BANK7
  6043 ;;      Params:         0       0       0       0       0       0       0       0       0
  6044 ;;      Locals:         2       0       0       0       0       0       0       0       0
  6045 ;;      Temps:          0       0       0       0       0       0       0       0       0
  6046 ;;      Totals:         2       0       0       0       0       0       0       0       0
  6047 ;;Total ram usage:        2 bytes
  6048 ;; Hardware stack levels used: 1
  6049 ;; Hardware stack levels required when called: 1
  6050 ;; This function calls:
  6051 ;;		_i2c_Ack
  6052 ;;		_i2c_NoAck
  6053 ;;		_i2c_WaitForIdle
  6054 ;; This function is called by:
  6055 ;;		_Ler_EEPROM
  6056 ;;		_RTC_GetDateTime
  6057 ;; This function uses a non-reentrant model
  6058 ;;
  6059                           
  6060                           	psect	text35
  6061   0022DE                     __ptext35:
  6062                           	callstack 0
  6063   0022DE                     _I2C_Read:
  6064                           	callstack 27
  6065                           
  6066                           ;incstack = 0
  6067                           ;I2C_Read@v_ackOption_u8 stored from wreg
  6068   0022DE  6E01               	movwf	I2C_Read@v_ackOption_u8^0,c
  6069   0022E0                     
  6070                           ;i2c.c: 159:  RCEN = 1;
  6071   0022E0  86C5               	bsf	4037,3,c	;volatile
  6072   0022E2                     l330:
  6073   0022E2  A0C7               	btfss	199,0,c	;volatile
  6074   0022E4  EF76  F011         	goto	u2181
  6075   0022E8  EF78  F011         	goto	u2180
  6076   0022EC                     u2181:
  6077   0022EC  EF71  F011         	goto	l330
  6078   0022F0                     u2180:
  6079   0022F0                     
  6080                           ;i2c.c: 161:  v_i2cData_u8 = SSPBUF;
  6081   0022F0  CFC9 F002          	movff	4041,I2C_Read@v_i2cData_u8	;volatile
  6082   0022F4                     
  6083                           ;i2c.c: 162:  i2c_WaitForIdle();
  6084   0022F4  ECE9  F010         	call	_i2c_WaitForIdle	;wreg free
  6085   0022F8                     
  6086                           ;i2c.c: 164:  if(v_ackOption_u8==1)
  6087   0022F8  0401               	decf	I2C_Read@v_ackOption_u8^0,w,c
  6088   0022FA  A4D8               	btfss	status,2,c
  6089   0022FC  EF82  F011         	goto	u2191
  6090   002300  EF84  F011         	goto	u2190
  6091   002304                     u2191:
  6092   002304  EF88  F011         	goto	l2766
  6093   002308                     u2190:
  6094   002308                     
  6095                           ;i2c.c: 165:  {;i2c.c: 166:   i2c_Ack();
  6096   002308  EC75  F012         	call	_i2c_Ack	;wreg free
  6097                           
  6098                           ;i2c.c: 167:  }
  6099   00230C  EF8A  F011         	goto	l2768
  6100   002310                     l2766:
  6101                           
  6102                           ;i2c.c: 169:  {;i2c.c: 170:   i2c_NoAck();
  6103   002310  EC6B  F012         	call	_i2c_NoAck	;wreg free
  6104   002314                     l2768:
  6105                           
  6106                           ;i2c.c: 173:  return v_i2cData_u8;
  6107   002314  5002               	movf	I2C_Read@v_i2cData_u8^0,w,c
  6108   002316  0012               	return		;funcret
  6109   002318                     __end_of_I2C_Read:
  6110                           	callstack 0
  6111                           
  6112 ;; *************** function _i2c_WaitForIdle *****************
  6113 ;; Defined at:
  6114 ;;		line 186 in file "i2c.c"
  6115 ;; Parameters:    Size  Location     Type
  6116 ;;		None
  6117 ;; Auto vars:     Size  Location     Type
  6118 ;;		None
  6119 ;; Return value:  Size  Location     Type
  6120 ;;                  1    wreg      void 
  6121 ;; Registers used:
  6122 ;;		None
  6123 ;; Tracked objects:
  6124 ;;		On entry : 0/0
  6125 ;;		On exit  : 0/0
  6126 ;;		Unchanged: 0/0
  6127 ;; Data sizes:     COMRAM   BANK0   BANK1   BANK2   BANK3   BANK4   BANK5   BANK6   BANK7
  6128 ;;      Params:         0       0       0       0       0       0       0       0       0
  6129 ;;      Locals:         0       0       0       0       0       0       0       0       0
  6130 ;;      Temps:          0       0       0       0       0       0       0       0       0
  6131 ;;      Totals:         0       0       0       0       0       0       0       0       0
  6132 ;;Total ram usage:        0 bytes
  6133 ;; Hardware stack levels used: 1
  6134 ;; This function calls:
  6135 ;;		Nothing
  6136 ;; This function is called by:
  6137 ;;		_I2C_Write
  6138 ;;		_I2C_Read
  6139 ;; This function uses a non-reentrant model
  6140 ;;
  6141                           
  6142                           	psect	text36
  6143   0021D2                     __ptext36:
  6144                           	callstack 0
  6145   0021D2                     _i2c_WaitForIdle:
  6146                           	callstack 26
  6147   0021D2                     l338:
  6148   0021D2  B0C5               	btfsc	4037,0,c	;volatile
  6149   0021D4  EFEE  F010         	goto	u1591
  6150   0021D8  EFF0  F010         	goto	u1590
  6151   0021DC                     u1591:
  6152   0021DC  EFE9  F010         	goto	l338
  6153   0021E0                     u1590:
  6154   0021E0  B2C5               	btfsc	4037,1,c	;volatile
  6155   0021E2  EFF5  F010         	goto	u1601
  6156   0021E6  EFF7  F010         	goto	u1600
  6157   0021EA                     u1601:
  6158   0021EA  EFE9  F010         	goto	l338
  6159   0021EE                     u1600:
  6160   0021EE  B4C5               	btfsc	4037,2,c	;volatile
  6161   0021F0  EFFC  F010         	goto	u1611
  6162   0021F4  EFFE  F010         	goto	u1610
  6163   0021F8                     u1611:
  6164   0021F8  EFE9  F010         	goto	l338
  6165   0021FC                     u1610:
  6166   0021FC  B6C5               	btfsc	4037,3,c	;volatile
  6167   0021FE  EF03  F011         	goto	u1621
  6168   002202  EF05  F011         	goto	u1620
  6169   002206                     u1621:
  6170   002206  EFE9  F010         	goto	l338
  6171   00220A                     u1620:
  6172   00220A  B4C7               	btfsc	4039,2,c	;volatile
  6173   00220C  EF0A  F011         	goto	u1631
  6174   002210  EF0C  F011         	goto	u1630
  6175   002214                     u1631:
  6176   002214  EFE9  F010         	goto	l338
  6177   002218                     u1630:
  6178   002218  0012               	return		;funcret
  6179   00221A                     __end_of_i2c_WaitForIdle:
  6180                           	callstack 0
  6181                           
  6182 ;; *************** function _i2c_NoAck *****************
  6183 ;; Defined at:
  6184 ;;		line 218 in file "i2c.c"
  6185 ;; Parameters:    Size  Location     Type
  6186 ;;		None
  6187 ;; Auto vars:     Size  Location     Type
  6188 ;;		None
  6189 ;; Return value:  Size  Location     Type
  6190 ;;                  1    wreg      void 
  6191 ;; Registers used:
  6192 ;;		None
  6193 ;; Tracked objects:
  6194 ;;		On entry : 0/0
  6195 ;;		On exit  : 0/0
  6196 ;;		Unchanged: 0/0
  6197 ;; Data sizes:     COMRAM   BANK0   BANK1   BANK2   BANK3   BANK4   BANK5   BANK6   BANK7
  6198 ;;      Params:         0       0       0       0       0       0       0       0       0
  6199 ;;      Locals:         0       0       0       0       0       0       0       0       0
  6200 ;;      Temps:          0       0       0       0       0       0       0       0       0
  6201 ;;      Totals:         0       0       0       0       0       0       0       0       0
  6202 ;;Total ram usage:        0 bytes
  6203 ;; Hardware stack levels used: 1
  6204 ;; This function calls:
  6205 ;;		Nothing
  6206 ;; This function is called by:
  6207 ;;		_I2C_Read
  6208 ;; This function uses a non-reentrant model
  6209 ;;
  6210                           
  6211                           	psect	text37
  6212   0024D6                     __ptext37:
  6213                           	callstack 0
  6214   0024D6                     _i2c_NoAck:
  6215                           	callstack 27
  6216   0024D6                     
  6217                           ;i2c.c: 220:  ACKDT = 1;
  6218   0024D6  8AC5               	bsf	4037,5,c	;volatile
  6219                           
  6220                           ;i2c.c: 221:  ACKEN = 1;
  6221   0024D8  88C5               	bsf	4037,4,c	;volatile
  6222   0024DA                     l350:
  6223   0024DA  B8C5               	btfsc	4037,4,c	;volatile
  6224   0024DC  EF72  F012         	goto	u2071
  6225   0024E0  EF74  F012         	goto	u2070
  6226   0024E4                     u2071:
  6227   0024E4  EF6D  F012         	goto	l350
  6228   0024E8                     u2070:
  6229   0024E8  0012               	return		;funcret
  6230   0024EA                     __end_of_i2c_NoAck:
  6231                           	callstack 0
  6232                           
  6233 ;; *************** function _i2c_Ack *****************
  6234 ;; Defined at:
  6235 ;;		line 203 in file "i2c.c"
  6236 ;; Parameters:    Size  Location     Type
  6237 ;;		None
  6238 ;; Auto vars:     Size  Location     Type
  6239 ;;		None
  6240 ;; Return value:  Size  Location     Type
  6241 ;;                  1    wreg      void 
  6242 ;; Registers used:
  6243 ;;		None
  6244 ;; Tracked objects:
  6245 ;;		On entry : 0/0
  6246 ;;		On exit  : 0/0
  6247 ;;		Unchanged: 0/0
  6248 ;; Data sizes:     COMRAM   BANK0   BANK1   BANK2   BANK3   BANK4   BANK5   BANK6   BANK7
  6249 ;;      Params:         0       0       0       0       0       0       0       0       0
  6250 ;;      Locals:         0       0       0       0       0       0       0       0       0
  6251 ;;      Temps:          0       0       0       0       0       0       0       0       0
  6252 ;;      Totals:         0       0       0       0       0       0       0       0       0
  6253 ;;Total ram usage:        0 bytes
  6254 ;; Hardware stack levels used: 1
  6255 ;; This function calls:
  6256 ;;		Nothing
  6257 ;; This function is called by:
  6258 ;;		_I2C_Read
  6259 ;; This function uses a non-reentrant model
  6260 ;;
  6261                           
  6262                           	psect	text38
  6263   0024EA                     __ptext38:
  6264                           	callstack 0
  6265   0024EA                     _i2c_Ack:
  6266                           	callstack 27
  6267   0024EA                     
  6268                           ;i2c.c: 205:  ACKDT = 0;
  6269   0024EA  9AC5               	bcf	4037,5,c	;volatile
  6270                           
  6271                           ;i2c.c: 206:  ACKEN = 1;
  6272   0024EC  88C5               	bsf	4037,4,c	;volatile
  6273   0024EE                     l344:
  6274   0024EE  B8C5               	btfsc	4037,4,c	;volatile
  6275   0024F0  EF7C  F012         	goto	u2061
  6276   0024F4  EF7E  F012         	goto	u2060
  6277   0024F8                     u2061:
  6278   0024F8  EF77  F012         	goto	l344
  6279   0024FC                     u2060:
  6280   0024FC  0012               	return		;funcret
  6281   0024FE                     __end_of_i2c_Ack:
  6282                           	callstack 0
  6283                           
  6284 ;; *************** function _Display_Mensagens_Iniciais *****************
  6285 ;; Defined at:
  6286 ;;		line 200 in file "main_piee2.c"
  6287 ;; Parameters:    Size  Location     Type
  6288 ;;		None
  6289 ;; Auto vars:     Size  Location     Type
  6290 ;;		None
  6291 ;; Return value:  Size  Location     Type
  6292 ;;                  1    wreg      void 
  6293 ;; Registers used:
  6294 ;;		wreg, fsr1l, fsr1h, status,2, status,0, tblptrl, tblptrh, tblptru, cstack
  6295 ;; Tracked objects:
  6296 ;;		On entry : 0/0
  6297 ;;		On exit  : 0/0
  6298 ;;		Unchanged: 0/0
  6299 ;; Data sizes:     COMRAM   BANK0   BANK1   BANK2   BANK3   BANK4   BANK5   BANK6   BANK7
  6300 ;;      Params:         0       0       0       0       0       0       0       0       0
  6301 ;;      Locals:         0       0       0       0       0       0       0       0       0
  6302 ;;      Temps:          0       0       0       0       0       0       0       0       0
  6303 ;;      Totals:         0       0       0       0       0       0       0       0       0
  6304 ;;Total ram usage:        0 bytes
  6305 ;; Hardware stack levels used: 1
  6306 ;; Hardware stack levels required when called: 4
  6307 ;; This function calls:
  6308 ;;		_LCD_Clear
  6309 ;;		_LCD_String_xy
  6310 ;;		_MSdelay
  6311 ;; This function is called by:
  6312 ;;		_main
  6313 ;; This function uses a non-reentrant model
  6314 ;;
  6315                           
  6316                           	psect	text39
  6317   001BEE                     __ptext39:
  6318                           	callstack 0
  6319   001BEE                     _Display_Mensagens_Iniciais:
  6320                           	callstack 26
  6321   001BEE                     
  6322                           ;main_piee2.c: 202:     LCD_Clear();
  6323   001BEE  EC7F  F012         	call	_LCD_Clear	;wreg free
  6324   001BF2                     
  6325                           ;main_piee2.c: 203:     LCD_String_xy(1, 4, "UNIUBE");
  6326   001BF2  0E04               	movlw	4
  6327   001BF4  6E0B               	movwf	LCD_String_xy@pos^0,c
  6328   001BF6  0EDC               	movlw	low STR_1
  6329   001BF8  6E0C               	movwf	LCD_String_xy@msg^0,c
  6330   001BFA  0E08               	movlw	high STR_1
  6331   001BFC  6E0D               	movwf	(LCD_String_xy@msg+1)^0,c
  6332   001BFE  0E01               	movlw	1
  6333   001C00  EC5A  F00F         	call	_LCD_String_xy
  6334   001C04                     
  6335                           ;main_piee2.c: 204:     LCD_String_xy(2, 1, "Engenharia Eletrica");
  6336   001C04  0E01               	movlw	1
  6337   001C06  6E0B               	movwf	LCD_String_xy@pos^0,c
  6338   001C08  0E01               	movlw	low STR_2
  6339   001C0A  6E0C               	movwf	LCD_String_xy@msg^0,c
  6340   001C0C  0E08               	movlw	high STR_2
  6341   001C0E  6E0D               	movwf	(LCD_String_xy@msg+1)^0,c
  6342   001C10  0E02               	movlw	2
  6343   001C12  EC5A  F00F         	call	_LCD_String_xy
  6344                           
  6345                           ;main_piee2.c: 205:     MSdelay(3000);
  6346   001C16  0E0B               	movlw	11
  6347   001C18  6E02               	movwf	(MSdelay@val+1)^0,c
  6348   001C1A  0EB8               	movlw	184
  6349   001C1C  6E01               	movwf	MSdelay@val^0,c
  6350   001C1E  ECC4  F010         	call	_MSdelay	;wreg free
  6351                           
  6352                           ;main_piee2.c: 208:     LCD_Clear();
  6353   001C22  EC7F  F012         	call	_LCD_Clear	;wreg free
  6354   001C26                     
  6355                           ;main_piee2.c: 209:     LCD_String_xy(1, 2, "Welington Correia");
  6356   001C26  0E02               	movlw	2
  6357   001C28  6E0B               	movwf	LCD_String_xy@pos^0,c
  6358   001C2A  0E29               	movlw	low STR_3
  6359   001C2C  6E0C               	movwf	LCD_String_xy@msg^0,c
  6360   001C2E  0E08               	movlw	high STR_3
  6361   001C30  6E0D               	movwf	(LCD_String_xy@msg+1)^0,c
  6362   001C32  0E01               	movlw	1
  6363   001C34  EC5A  F00F         	call	_LCD_String_xy
  6364   001C38                     
  6365                           ;main_piee2.c: 210:     LCD_String_xy(2, 4, "RA: 1063677");
  6366   001C38  0E04               	movlw	4
  6367   001C3A  6E0B               	movwf	LCD_String_xy@pos^0,c
  6368   001C3C  0EAD               	movlw	low STR_4
  6369   001C3E  6E0C               	movwf	LCD_String_xy@msg^0,c
  6370   001C40  0E08               	movlw	high STR_4
  6371   001C42  6E0D               	movwf	(LCD_String_xy@msg+1)^0,c
  6372   001C44  0E02               	movlw	2
  6373   001C46  EC5A  F00F         	call	_LCD_String_xy
  6374                           
  6375                           ;main_piee2.c: 211:     MSdelay(3000);
  6376   001C4A  0E0B               	movlw	11
  6377   001C4C  6E02               	movwf	(MSdelay@val+1)^0,c
  6378   001C4E  0EB8               	movlw	184
  6379   001C50  6E01               	movwf	MSdelay@val^0,c
  6380   001C52  ECC4  F010         	call	_MSdelay	;wreg free
  6381                           
  6382                           ;main_piee2.c: 214:     LCD_Clear();
  6383   001C56  EC7F  F012         	call	_LCD_Clear	;wreg free
  6384   001C5A                     
  6385                           ;main_piee2.c: 215:     LCD_String_xy(1, 1, "Seq. Limpeza");
  6386   001C5A  0E01               	movlw	1
  6387   001C5C  6E0B               	movwf	LCD_String_xy@pos^0,c
  6388   001C5E  0EA0               	movlw	low STR_5
  6389   001C60  6E0C               	movwf	LCD_String_xy@msg^0,c
  6390   001C62  0E08               	movlw	high STR_5
  6391   001C64  6E0D               	movwf	(LCD_String_xy@msg+1)^0,c
  6392   001C66  0E01               	movlw	1
  6393   001C68  EC5A  F00F         	call	_LCD_String_xy
  6394   001C6C                     
  6395                           ;main_piee2.c: 216:     LCD_String_xy(2, 1, "Filtro de Manga");
  6396   001C6C  0E01               	movlw	1
  6397   001C6E  6E0B               	movwf	LCD_String_xy@pos^0,c
  6398   001C70  0E90               	movlw	low STR_6
  6399   001C72  6E0C               	movwf	LCD_String_xy@msg^0,c
  6400   001C74  0E08               	movlw	high STR_6
  6401   001C76  6E0D               	movwf	(LCD_String_xy@msg+1)^0,c
  6402   001C78  0E02               	movlw	2
  6403   001C7A  EC5A  F00F         	call	_LCD_String_xy
  6404                           
  6405                           ;main_piee2.c: 217:     MSdelay(3000);
  6406   001C7E  0E0B               	movlw	11
  6407   001C80  6E02               	movwf	(MSdelay@val+1)^0,c
  6408   001C82  0EB8               	movlw	184
  6409   001C84  6E01               	movwf	MSdelay@val^0,c
  6410   001C86  ECC4  F010         	call	_MSdelay	;wreg free
  6411                           
  6412                           ;main_piee2.c: 220:     LCD_Clear();
  6413   001C8A  EC7F  F012         	call	_LCD_Clear	;wreg free
  6414   001C8E                     
  6415                           ;main_piee2.c: 221:     LCD_String_xy(1, 4, "Bem-vindo!");
  6416   001C8E  0E04               	movlw	4
  6417   001C90  6E0B               	movwf	LCD_String_xy@pos^0,c
  6418   001C92  0ED1               	movlw	low STR_7
  6419   001C94  6E0C               	movwf	LCD_String_xy@msg^0,c
  6420   001C96  0E08               	movlw	high STR_7
  6421   001C98  6E0D               	movwf	(LCD_String_xy@msg+1)^0,c
  6422   001C9A  0E01               	movlw	1
  6423   001C9C  EC5A  F00F         	call	_LCD_String_xy
  6424   001CA0                     
  6425                           ;main_piee2.c: 222:     MSdelay(3000);
  6426   001CA0  0E0B               	movlw	11
  6427   001CA2  6E02               	movwf	(MSdelay@val+1)^0,c
  6428   001CA4  0EB8               	movlw	184
  6429   001CA6  6E01               	movwf	MSdelay@val^0,c
  6430   001CA8  ECC4  F010         	call	_MSdelay	;wreg free
  6431   001CAC  0012               	return		;funcret
  6432   001CAE                     __end_of_Display_Mensagens_Iniciais:
  6433                           	callstack 0
  6434                           
  6435 ;; *************** function _LCD_String_xy *****************
  6436 ;; Defined at:
  6437 ;;		line 66 in file "lcd_4b.c"
  6438 ;; Parameters:    Size  Location     Type
  6439 ;;  row             1    wreg     unsigned char 
  6440 ;;  pos             1   10[COMRAM] unsigned char 
  6441 ;;  msg             2   11[COMRAM] PTR const unsigned char 
  6442 ;;		 -> STR_16(17), STR_15(17), STR_14(18), lcd_buffer(17), 
  6443 ;;		 -> STR_8(17), STR_7(11), STR_6(16), STR_5(13), 
  6444 ;;		 -> STR_4(12), STR_3(18), STR_2(20), STR_1(7), 
  6445 ;; Auto vars:     Size  Location     Type
  6446 ;;  row             1   13[COMRAM] unsigned char 
  6447 ;;  location        1   14[COMRAM] unsigned char 
  6448 ;; Return value:  Size  Location     Type
  6449 ;;                  1    wreg      void 
  6450 ;; Registers used:
  6451 ;;		wreg, fsr1l, fsr1h, status,2, status,0, tblptrl, tblptrh, tblptru, cstack
  6452 ;; Tracked objects:
  6453 ;;		On entry : 0/0
  6454 ;;		On exit  : 0/0
  6455 ;;		Unchanged: 0/0
  6456 ;; Data sizes:     COMRAM   BANK0   BANK1   BANK2   BANK3   BANK4   BANK5   BANK6   BANK7
  6457 ;;      Params:         3       0       0       0       0       0       0       0       0
  6458 ;;      Locals:         2       0       0       0       0       0       0       0       0
  6459 ;;      Temps:          0       0       0       0       0       0       0       0       0
  6460 ;;      Totals:         5       0       0       0       0       0       0       0       0
  6461 ;;Total ram usage:        5 bytes
  6462 ;; Hardware stack levels used: 1
  6463 ;; Hardware stack levels required when called: 3
  6464 ;; This function calls:
  6465 ;;		_LCD_Command
  6466 ;;		_LCD_String
  6467 ;; This function is called by:
  6468 ;;		_Display_Mensagens_Iniciais
  6469 ;;		_Display_Menu_Principal
  6470 ;;		_Modo_Manual
  6471 ;; This function uses a non-reentrant model
  6472 ;;
  6473                           
  6474                           	psect	text40
  6475   001EB4                     __ptext40:
  6476                           	callstack 0
  6477   001EB4                     _LCD_String_xy:
  6478                           	callstack 26
  6479                           
  6480                           ;incstack = 0
  6481                           ;LCD_String_xy@row stored from wreg
  6482   001EB4  6E0E               	movwf	LCD_String_xy@row^0,c
  6483   001EB6                     
  6484                           ;lcd_4b.c: 69:     if(row==1)
  6485   001EB6  040E               	decf	LCD_String_xy@row^0,w,c
  6486   001EB8  A4D8               	btfss	status,2,c
  6487   001EBA  EF61  F00F         	goto	u2241
  6488   001EBE  EF63  F00F         	goto	u2240
  6489   001EC2                     u2241:
  6490   001EC2  EF6A  F00F         	goto	l2840
  6491   001EC6                     u2240:
  6492   001EC6                     
  6493                           ;lcd_4b.c: 70:     {;lcd_4b.c: 71:         location=(0x80) | ((pos) & 0x0f);
  6494   001EC6  500B               	movf	LCD_String_xy@pos^0,w,c
  6495   001EC8  0B0F               	andlw	15
  6496   001ECA  0980               	iorlw	128
  6497   001ECC  6E0F               	movwf	LCD_String_xy@location^0,c
  6498   001ECE                     
  6499                           ;lcd_4b.c: 72:         LCD_Command(location);
  6500   001ECE  500F               	movf	LCD_String_xy@location^0,w,c
  6501   001ED0  EC9E  F010         	call	_LCD_Command
  6502   001ED4                     l2840:
  6503                           
  6504                           ;lcd_4b.c: 74:     if(row==2)
  6505   001ED4  0E02               	movlw	2
  6506   001ED6  180E               	xorwf	LCD_String_xy@row^0,w,c
  6507   001ED8  A4D8               	btfss	status,2,c
  6508   001EDA  EF71  F00F         	goto	u2251
  6509   001EDE  EF73  F00F         	goto	u2250
  6510   001EE2                     u2251:
  6511   001EE2  EF7A  F00F         	goto	l2846
  6512   001EE6                     u2250:
  6513   001EE6                     
  6514                           ;lcd_4b.c: 75:     {;lcd_4b.c: 76:         location=(0xC0) | ((pos) & 0x0f);
  6515   001EE6  500B               	movf	LCD_String_xy@pos^0,w,c
  6516   001EE8  0B0F               	andlw	15
  6517   001EEA  09C0               	iorlw	192
  6518   001EEC  6E0F               	movwf	LCD_String_xy@location^0,c
  6519   001EEE                     
  6520                           ;lcd_4b.c: 77:         LCD_Command(location);
  6521   001EEE  500F               	movf	LCD_String_xy@location^0,w,c
  6522   001EF0  EC9E  F010         	call	_LCD_Command
  6523   001EF4                     l2846:
  6524                           
  6525                           ;lcd_4b.c: 79:     if(row==3)
  6526   001EF4  0E03               	movlw	3
  6527   001EF6  180E               	xorwf	LCD_String_xy@row^0,w,c
  6528   001EF8  A4D8               	btfss	status,2,c
  6529   001EFA  EF81  F00F         	goto	u2261
  6530   001EFE  EF83  F00F         	goto	u2260
  6531   001F02                     u2261:
  6532   001F02  EF8A  F00F         	goto	l2852
  6533   001F06                     u2260:
  6534   001F06                     
  6535                           ;lcd_4b.c: 80:     {;lcd_4b.c: 81:         location=(0x94) | ((pos) & 0x0f);
  6536   001F06  500B               	movf	LCD_String_xy@pos^0,w,c
  6537   001F08  0B0F               	andlw	15
  6538   001F0A  0994               	iorlw	148
  6539   001F0C  6E0F               	movwf	LCD_String_xy@location^0,c
  6540   001F0E                     
  6541                           ;lcd_4b.c: 82:         LCD_Command(location);
  6542   001F0E  500F               	movf	LCD_String_xy@location^0,w,c
  6543   001F10  EC9E  F010         	call	_LCD_Command
  6544   001F14                     l2852:
  6545                           
  6546                           ;lcd_4b.c: 84:     if(row==4)
  6547   001F14  0E04               	movlw	4
  6548   001F16  180E               	xorwf	LCD_String_xy@row^0,w,c
  6549   001F18  A4D8               	btfss	status,2,c
  6550   001F1A  EF91  F00F         	goto	u2271
  6551   001F1E  EF93  F00F         	goto	u2270
  6552   001F22                     u2271:
  6553   001F22  EF9A  F00F         	goto	l2858
  6554   001F26                     u2270:
  6555   001F26                     
  6556                           ;lcd_4b.c: 85:     {;lcd_4b.c: 86:         location=(0xD4) | ((pos) & 0x0f);
  6557   001F26  500B               	movf	LCD_String_xy@pos^0,w,c
  6558   001F28  0B0F               	andlw	15
  6559   001F2A  09D4               	iorlw	212
  6560   001F2C  6E0F               	movwf	LCD_String_xy@location^0,c
  6561   001F2E                     
  6562                           ;lcd_4b.c: 87:         LCD_Command(location);
  6563   001F2E  500F               	movf	LCD_String_xy@location^0,w,c
  6564   001F30  EC9E  F010         	call	_LCD_Command
  6565   001F34                     l2858:
  6566                           
  6567                           ;lcd_4b.c: 90:     LCD_String(msg);
  6568   001F34  C00C  F009         	movff	LCD_String_xy@msg,LCD_String@msg
  6569   001F38  C00D  F00A         	movff	LCD_String_xy@msg+1,LCD_String@msg+1
  6570   001F3C  ECD5  F00F         	call	_LCD_String	;wreg free
  6571   001F40  0012               	return		;funcret
  6572   001F42                     __end_of_LCD_String_xy:
  6573                           	callstack 0
  6574                           
  6575 ;; *************** function _LCD_String *****************
  6576 ;; Defined at:
  6577 ;;		line 57 in file "lcd_4b.c"
  6578 ;; Parameters:    Size  Location     Type
  6579 ;;  msg             2    8[COMRAM] PTR const unsigned char 
  6580 ;;		 -> STR_16(17), STR_15(17), STR_14(18), lcd_buffer(17), 
  6581 ;;		 -> STR_8(17), STR_7(11), STR_6(16), STR_5(13), 
  6582 ;;		 -> STR_4(12), STR_3(18), STR_2(20), STR_1(7), 
  6583 ;; Auto vars:     Size  Location     Type
  6584 ;;		None
  6585 ;; Return value:  Size  Location     Type
  6586 ;;                  1    wreg      void 
  6587 ;; Registers used:
  6588 ;;		wreg, fsr1l, fsr1h, status,2, status,0, tblptrl, tblptrh, tblptru, cstack
  6589 ;; Tracked objects:
  6590 ;;		On entry : 0/0
  6591 ;;		On exit  : 0/0
  6592 ;;		Unchanged: 0/0
  6593 ;; Data sizes:     COMRAM   BANK0   BANK1   BANK2   BANK3   BANK4   BANK5   BANK6   BANK7
  6594 ;;      Params:         2       0       0       0       0       0       0       0       0
  6595 ;;      Locals:         0       0       0       0       0       0       0       0       0
  6596 ;;      Temps:          0       0       0       0       0       0       0       0       0
  6597 ;;      Totals:         2       0       0       0       0       0       0       0       0
  6598 ;;Total ram usage:        2 bytes
  6599 ;; Hardware stack levels used: 1
  6600 ;; Hardware stack levels required when called: 2
  6601 ;; This function calls:
  6602 ;;		_LCD_Char
  6603 ;; This function is called by:
  6604 ;;		_LCD_String_xy
  6605 ;; This function uses a non-reentrant model
  6606 ;;
  6607                           
  6608                           	psect	text41
  6609   001FAA                     __ptext41:
  6610                           	callstack 0
  6611   001FAA                     _LCD_String:
  6612                           	callstack 26
  6613   001FAA                     
  6614                           ;lcd_4b.c: 57: void LCD_String(const char *msg);lcd_4b.c: 58: {;lcd_4b.c: 59:  while((*m
      +                          sg)!=0)
  6615   001FAA  EFEB  F00F         	goto	l2812
  6616   001FAE                     l2808:
  6617                           
  6618                           ;lcd_4b.c: 60:  {;lcd_4b.c: 61:    LCD_Char(*msg);
  6619   001FAE  C009  FFF6         	movff	LCD_String@msg,tblptrl
  6620   001FB2  C00A  FFF7         	movff	LCD_String@msg+1,tblptrh
  6621   001FB6  6AF8               	clrf	tblptru,c
  6622   001FB8  0E07               	movlw	(high __ramtop+-1)
  6623   001FBA  64F7               	cpfsgt	tblptrh,c
  6624   001FBC  D003               	bra	u2207
  6625   001FBE  0008               	tblrd		*
  6626   001FC0  50F5               	movf	tablat,w,c
  6627   001FC2  D005               	bra	u2200
  6628   001FC4                     u2207:
  6629   001FC4  CFF6 FFE1          	movff	tblptrl,fsr1l
  6630   001FC8  CFF7 FFE2          	movff	tblptrh,fsr1h
  6631   001FCC  50E7               	movf	indf1,w,c
  6632   001FCE                     u2200:
  6633   001FCE  EC78  F010         	call	_LCD_Char
  6634   001FD2                     
  6635                           ;lcd_4b.c: 62:    msg++;
  6636   001FD2  4A09               	infsnz	LCD_String@msg^0,f,c
  6637   001FD4  2A0A               	incf	(LCD_String@msg+1)^0,f,c
  6638   001FD6                     l2812:
  6639                           
  6640                           ;lcd_4b.c: 59:  while((*msg)!=0)
  6641   001FD6  C009  FFF6         	movff	LCD_String@msg,tblptrl
  6642   001FDA  C00A  FFF7         	movff	LCD_String@msg+1,tblptrh
  6643   001FDE  6AF8               	clrf	tblptru,c
  6644   001FE0  0E07               	movlw	(high __ramtop+-1)
  6645   001FE2  64F7               	cpfsgt	tblptrh,c
  6646   001FE4  D003               	bra	u2217
  6647   001FE6  0008               	tblrd		*
  6648   001FE8  50F5               	movf	tablat,w,c
  6649   001FEA  D005               	bra	u2210
  6650   001FEC                     u2217:
  6651   001FEC  CFF6 FFE1          	movff	tblptrl,fsr1l
  6652   001FF0  CFF7 FFE2          	movff	tblptrh,fsr1h
  6653   001FF4  50E7               	movf	indf1,w,c
  6654   001FF6                     u2210:
  6655   001FF6  0900               	iorlw	0
  6656   001FF8  A4D8               	btfss	status,2,c
  6657   001FFA  EF01  F010         	goto	u2221
  6658   001FFE  EF03  F010         	goto	u2220
  6659   002002                     u2221:
  6660   002002  EFD7  F00F         	goto	l2808
  6661   002006                     u2220:
  6662   002006  0012               	return		;funcret
  6663   002008                     __end_of_LCD_String:
  6664                           	callstack 0
  6665                           
  6666 ;; *************** function _LCD_Char *****************
  6667 ;; Defined at:
  6668 ;;		line 42 in file "lcd_4b.c"
  6669 ;; Parameters:    Size  Location     Type
  6670 ;;  dat             1    wreg     unsigned char 
  6671 ;; Auto vars:     Size  Location     Type
  6672 ;;  dat             1    7[COMRAM] unsigned char 
  6673 ;; Return value:  Size  Location     Type
  6674 ;;                  1    wreg      void 
  6675 ;; Registers used:
  6676 ;;		wreg, status,2, status,0, cstack
  6677 ;; Tracked objects:
  6678 ;;		On entry : 0/0
  6679 ;;		On exit  : 0/0
  6680 ;;		Unchanged: 0/0
  6681 ;; Data sizes:     COMRAM   BANK0   BANK1   BANK2   BANK3   BANK4   BANK5   BANK6   BANK7
  6682 ;;      Params:         0       0       0       0       0       0       0       0       0
  6683 ;;      Locals:         1       0       0       0       0       0       0       0       0
  6684 ;;      Temps:          1       0       0       0       0       0       0       0       0
  6685 ;;      Totals:         2       0       0       0       0       0       0       0       0
  6686 ;;Total ram usage:        2 bytes
  6687 ;; Hardware stack levels used: 1
  6688 ;; Hardware stack levels required when called: 1
  6689 ;; This function calls:
  6690 ;;		_MSdelay
  6691 ;; This function is called by:
  6692 ;;		_LCD_String
  6693 ;; This function uses a non-reentrant model
  6694 ;;
  6695                           
  6696                           	psect	text42
  6697   0020F0                     __ptext42:
  6698                           	callstack 0
  6699   0020F0                     _LCD_Char:
  6700                           	callstack 26
  6701                           
  6702                           ;incstack = 0
  6703                           ;LCD_Char@dat stored from wreg
  6704   0020F0  6E08               	movwf	LCD_Char@dat^0,c
  6705   0020F2                     
  6706                           ;lcd_4b.c: 42: void LCD_Char(unsigned char dat);lcd_4b.c: 43: {;lcd_4b.c: 44:  LATB = (L
      +                          ATB & 0x0f) | (0xF0 & dat);
  6707   0020F2  C008  F007         	movff	LCD_Char@dat,??_LCD_Char
  6708   0020F6  0EF0               	movlw	240
  6709   0020F8  1607               	andwf	??_LCD_Char^0,f,c
  6710   0020FA  508A               	movf	138,w,c	;volatile
  6711   0020FC  0B0F               	andlw	15
  6712   0020FE  1007               	iorwf	??_LCD_Char^0,w,c
  6713   002100  6E8A               	movwf	138,c	;volatile
  6714   002102                     
  6715                           ;lcd_4b.c: 45:  LATB2 = 1;
  6716   002102  848A               	bsf	3978,2,c	;volatile
  6717   002104                     
  6718                           ;lcd_4b.c: 46:  LATB3 = 1;
  6719   002104  868A               	bsf	3978,3,c	;volatile
  6720   002106                     
  6721                           ;lcd_4b.c: 47:  __nop();
  6722   002106  F000               	nop	
  6723   002108                     
  6724                           ;lcd_4b.c: 48:  LATB3 = 0;
  6725   002108  968A               	bcf	3978,3,c	;volatile
  6726   00210A                     
  6727                           ;lcd_4b.c: 49:  MSdelay(1);
  6728   00210A  0E00               	movlw	0
  6729   00210C  6E02               	movwf	(MSdelay@val+1)^0,c
  6730   00210E  0E01               	movlw	1
  6731   002110  6E01               	movwf	MSdelay@val^0,c
  6732   002112  ECC4  F010         	call	_MSdelay	;wreg free
  6733   002116                     
  6734                           ;lcd_4b.c: 50:     LATB = (LATB & 0x0f) | (dat<<4);
  6735   002116  C008  F007         	movff	LCD_Char@dat,??_LCD_Char
  6736   00211A  3A07               	swapf	??_LCD_Char^0,f,c
  6737   00211C  0EF0               	movlw	240
  6738   00211E  1607               	andwf	??_LCD_Char^0,f,c
  6739   002120  508A               	movf	138,w,c	;volatile
  6740   002122  0B0F               	andlw	15
  6741   002124  1007               	iorwf	??_LCD_Char^0,w,c
  6742   002126  6E8A               	movwf	138,c	;volatile
  6743   002128                     
  6744                           ;lcd_4b.c: 51:  LATB3 = 1;
  6745   002128  868A               	bsf	3978,3,c	;volatile
  6746   00212A                     
  6747                           ;lcd_4b.c: 52:  __nop();
  6748   00212A  F000               	nop	
  6749   00212C                     
  6750                           ;lcd_4b.c: 53:  LATB3 = 0;
  6751   00212C  968A               	bcf	3978,3,c	;volatile
  6752                           
  6753                           ;lcd_4b.c: 54:  MSdelay(3);
  6754   00212E  0E00               	movlw	0
  6755   002130  6E02               	movwf	(MSdelay@val+1)^0,c
  6756   002132  0E03               	movlw	3
  6757   002134  6E01               	movwf	MSdelay@val^0,c
  6758   002136  ECC4  F010         	call	_MSdelay	;wreg free
  6759   00213A  0012               	return		;funcret
  6760   00213C                     __end_of_LCD_Char:
  6761                           	callstack 0
  6762                           
  6763 ;; *************** function _LCD_Clear *****************
  6764 ;; Defined at:
  6765 ;;		line 93 in file "lcd_4b.c"
  6766 ;; Parameters:    Size  Location     Type
  6767 ;;		None
  6768 ;; Auto vars:     Size  Location     Type
  6769 ;;		None
  6770 ;; Return value:  Size  Location     Type
  6771 ;;                  1    wreg      void 
  6772 ;; Registers used:
  6773 ;;		wreg, status,2, status,0, cstack
  6774 ;; Tracked objects:
  6775 ;;		On entry : 0/0
  6776 ;;		On exit  : 0/0
  6777 ;;		Unchanged: 0/0
  6778 ;; Data sizes:     COMRAM   BANK0   BANK1   BANK2   BANK3   BANK4   BANK5   BANK6   BANK7
  6779 ;;      Params:         0       0       0       0       0       0       0       0       0
  6780 ;;      Locals:         0       0       0       0       0       0       0       0       0
  6781 ;;      Temps:          0       0       0       0       0       0       0       0       0
  6782 ;;      Totals:         0       0       0       0       0       0       0       0       0
  6783 ;;Total ram usage:        0 bytes
  6784 ;; Hardware stack levels used: 1
  6785 ;; Hardware stack levels required when called: 2
  6786 ;; This function calls:
  6787 ;;		_LCD_Command
  6788 ;;		_MSdelay
  6789 ;; This function is called by:
  6790 ;;		_Display_Mensagens_Iniciais
  6791 ;; This function uses a non-reentrant model
  6792 ;;
  6793                           
  6794                           	psect	text43
  6795   0024FE                     __ptext43:
  6796                           	callstack 0
  6797   0024FE                     _LCD_Clear:
  6798                           	callstack 27
  6799   0024FE                     
  6800                           ;lcd_4b.c: 95:     LCD_Command(0x01);
  6801   0024FE  0E01               	movlw	1
  6802   002500  EC9E  F010         	call	_LCD_Command
  6803                           
  6804                           ;lcd_4b.c: 96:     MSdelay(3);
  6805   002504  0E00               	movlw	0
  6806   002506  6E02               	movwf	(MSdelay@val+1)^0,c
  6807   002508  0E03               	movlw	3
  6808   00250A  6E01               	movwf	MSdelay@val^0,c
  6809   00250C  ECC4  F010         	call	_MSdelay	;wreg free
  6810   002510  0012               	return		;funcret
  6811   002512                     __end_of_LCD_Clear:
  6812                           	callstack 0
  6813                           
  6814 ;; *************** function _LCD_Command *****************
  6815 ;; Defined at:
  6816 ;;		line 26 in file "lcd_4b.c"
  6817 ;; Parameters:    Size  Location     Type
  6818 ;;  cmd             1    wreg     unsigned char 
  6819 ;; Auto vars:     Size  Location     Type
  6820 ;;  cmd             1    7[COMRAM] unsigned char 
  6821 ;; Return value:  Size  Location     Type
  6822 ;;                  1    wreg      void 
  6823 ;; Registers used:
  6824 ;;		wreg, status,2, status,0, cstack
  6825 ;; Tracked objects:
  6826 ;;		On entry : 0/0
  6827 ;;		On exit  : 0/0
  6828 ;;		Unchanged: 0/0
  6829 ;; Data sizes:     COMRAM   BANK0   BANK1   BANK2   BANK3   BANK4   BANK5   BANK6   BANK7
  6830 ;;      Params:         0       0       0       0       0       0       0       0       0
  6831 ;;      Locals:         1       0       0       0       0       0       0       0       0
  6832 ;;      Temps:          1       0       0       0       0       0       0       0       0
  6833 ;;      Totals:         2       0       0       0       0       0       0       0       0
  6834 ;;Total ram usage:        2 bytes
  6835 ;; Hardware stack levels used: 1
  6836 ;; Hardware stack levels required when called: 1
  6837 ;; This function calls:
  6838 ;;		_MSdelay
  6839 ;; This function is called by:
  6840 ;;		_LCD_Init
  6841 ;;		_LCD_String_xy
  6842 ;;		_LCD_Clear
  6843 ;; This function uses a non-reentrant model
  6844 ;;
  6845                           
  6846                           	psect	text44
  6847   00213C                     __ptext44:
  6848                           	callstack 0
  6849   00213C                     _LCD_Command:
  6850                           	callstack 27
  6851                           
  6852                           ;incstack = 0
  6853                           ;LCD_Command@cmd stored from wreg
  6854   00213C  6E08               	movwf	LCD_Command@cmd^0,c
  6855   00213E                     
  6856                           ;lcd_4b.c: 26: void LCD_Command(unsigned char cmd );lcd_4b.c: 27: {;lcd_4b.c: 28:  LATB 
      +                          = (LATB & 0x0f) |(0xF0 & cmd);
  6857   00213E  C008  F007         	movff	LCD_Command@cmd,??_LCD_Command
  6858   002142  0EF0               	movlw	240
  6859   002144  1607               	andwf	??_LCD_Command^0,f,c
  6860   002146  508A               	movf	138,w,c	;volatile
  6861   002148  0B0F               	andlw	15
  6862   00214A  1007               	iorwf	??_LCD_Command^0,w,c
  6863   00214C  6E8A               	movwf	138,c	;volatile
  6864   00214E                     
  6865                           ;lcd_4b.c: 29:  LATB2 = 0;
  6866   00214E  948A               	bcf	3978,2,c	;volatile
  6867   002150                     
  6868                           ;lcd_4b.c: 30:  LATB3 = 1;
  6869   002150  868A               	bsf	3978,3,c	;volatile
  6870   002152                     
  6871                           ;lcd_4b.c: 31:  __nop();
  6872   002152  F000               	nop	
  6873   002154                     
  6874                           ;lcd_4b.c: 32:  LATB3 = 0;
  6875   002154  968A               	bcf	3978,3,c	;volatile
  6876   002156                     
  6877                           ;lcd_4b.c: 33:  MSdelay(1);
  6878   002156  0E00               	movlw	0
  6879   002158  6E02               	movwf	(MSdelay@val+1)^0,c
  6880   00215A  0E01               	movlw	1
  6881   00215C  6E01               	movwf	MSdelay@val^0,c
  6882   00215E  ECC4  F010         	call	_MSdelay	;wreg free
  6883   002162                     
  6884                           ;lcd_4b.c: 34:     LATB = (LATB & 0x0f) | (cmd<<4);
  6885   002162  C008  F007         	movff	LCD_Command@cmd,??_LCD_Command
  6886   002166  3A07               	swapf	??_LCD_Command^0,f,c
  6887   002168  0EF0               	movlw	240
  6888   00216A  1607               	andwf	??_LCD_Command^0,f,c
  6889   00216C  508A               	movf	138,w,c	;volatile
  6890   00216E  0B0F               	andlw	15
  6891   002170  1007               	iorwf	??_LCD_Command^0,w,c
  6892   002172  6E8A               	movwf	138,c	;volatile
  6893   002174                     
  6894                           ;lcd_4b.c: 35:  LATB3 = 1;
  6895   002174  868A               	bsf	3978,3,c	;volatile
  6896   002176                     
  6897                           ;lcd_4b.c: 36:  __nop();
  6898   002176  F000               	nop	
  6899   002178                     
  6900                           ;lcd_4b.c: 37:  LATB3 = 0;
  6901   002178  968A               	bcf	3978,3,c	;volatile
  6902                           
  6903                           ;lcd_4b.c: 38:  MSdelay(3);
  6904   00217A  0E00               	movlw	0
  6905   00217C  6E02               	movwf	(MSdelay@val+1)^0,c
  6906   00217E  0E03               	movlw	3
  6907   002180  6E01               	movwf	MSdelay@val^0,c
  6908   002182  ECC4  F010         	call	_MSdelay	;wreg free
  6909   002186  0012               	return		;funcret
  6910   002188                     __end_of_LCD_Command:
  6911                           	callstack 0
  6912                           
  6913 ;; *************** function _Beep *****************
  6914 ;; Defined at:
  6915 ;;		line 266 in file "main_piee2.c"
  6916 ;; Parameters:    Size  Location     Type
  6917 ;;  tipo            1    wreg     unsigned char 
  6918 ;; Auto vars:     Size  Location     Type
  6919 ;;  tipo            1    6[COMRAM] unsigned char 
  6920 ;; Return value:  Size  Location     Type
  6921 ;;                  1    wreg      void 
  6922 ;; Registers used:
  6923 ;;		wreg, status,2, status,0, cstack
  6924 ;; Tracked objects:
  6925 ;;		On entry : 0/0
  6926 ;;		On exit  : 0/0
  6927 ;;		Unchanged: 0/0
  6928 ;; Data sizes:     COMRAM   BANK0   BANK1   BANK2   BANK3   BANK4   BANK5   BANK6   BANK7
  6929 ;;      Params:         0       0       0       0       0       0       0       0       0
  6930 ;;      Locals:         1       0       0       0       0       0       0       0       0
  6931 ;;      Temps:          0       0       0       0       0       0       0       0       0
  6932 ;;      Totals:         1       0       0       0       0       0       0       0       0
  6933 ;;Total ram usage:        1 bytes
  6934 ;; Hardware stack levels used: 1
  6935 ;; Hardware stack levels required when called: 1
  6936 ;; This function calls:
  6937 ;;		_MSdelay
  6938 ;; This function is called by:
  6939 ;;		_main
  6940 ;; This function uses a non-reentrant model
  6941 ;;
  6942                           
  6943                           	psect	text45
  6944   001F42                     __ptext45:
  6945                           	callstack 0
  6946   001F42                     _Beep:
  6947                           	callstack 29
  6948                           
  6949                           ;incstack = 0
  6950                           ;Beep@tipo stored from wreg
  6951   001F42  6E07               	movwf	Beep@tipo^0,c
  6952   001F44                     
  6953                           ;main_piee2.c: 267:     if(tipo == 1) {
  6954   001F44  0407               	decf	Beep@tipo^0,w,c
  6955   001F46  A4D8               	btfss	status,2,c
  6956   001F48  EFA8  F00F         	goto	u2281
  6957   001F4C  EFAA  F00F         	goto	u2280
  6958   001F50                     u2281:
  6959   001F50  EFB4  F00F         	goto	l2954
  6960   001F54                     u2280:
  6961   001F54                     
  6962                           ;main_piee2.c: 268:         LATD0 = 1;
  6963   001F54  808C               	bsf	3980,0,c	;volatile
  6964   001F56                     
  6965                           ;main_piee2.c: 269:         MSdelay(2000);
  6966   001F56  0E07               	movlw	7
  6967   001F58  6E02               	movwf	(MSdelay@val+1)^0,c
  6968   001F5A  0ED0               	movlw	208
  6969   001F5C  6E01               	movwf	MSdelay@val^0,c
  6970   001F5E  ECC4  F010         	call	_MSdelay	;wreg free
  6971   001F62                     l2952:
  6972                           
  6973                           ;main_piee2.c: 270:         LATD0 = 0;
  6974   001F62  908C               	bcf	3980,0,c	;volatile
  6975                           
  6976                           ;main_piee2.c: 271:     } else if(tipo == 2) {
  6977   001F64  EFD4  F00F         	goto	l158
  6978   001F68                     l2954:
  6979   001F68  0E02               	movlw	2
  6980   001F6A  1807               	xorwf	Beep@tipo^0,w,c
  6981   001F6C  A4D8               	btfss	status,2,c
  6982   001F6E  EFBB  F00F         	goto	u2291
  6983   001F72  EFBD  F00F         	goto	u2290
  6984   001F76                     u2291:
  6985   001F76  EFD4  F00F         	goto	l158
  6986   001F7A                     u2290:
  6987   001F7A                     
  6988                           ;main_piee2.c: 272:         LATD0 = 1; MSdelay(250); LATD0 = 0; MSdelay(100);
  6989   001F7A  808C               	bsf	3980,0,c	;volatile
  6990   001F7C  0E00               	movlw	0
  6991   001F7E  6E02               	movwf	(MSdelay@val+1)^0,c
  6992   001F80  0EFA               	movlw	250
  6993   001F82  6E01               	movwf	MSdelay@val^0,c
  6994   001F84  ECC4  F010         	call	_MSdelay	;wreg free
  6995   001F88  908C               	bcf	3980,0,c	;volatile
  6996   001F8A  0E00               	movlw	0
  6997   001F8C  6E02               	movwf	(MSdelay@val+1)^0,c
  6998   001F8E  0E64               	movlw	100
  6999   001F90  6E01               	movwf	MSdelay@val^0,c
  7000   001F92  ECC4  F010         	call	_MSdelay	;wreg free
  7001   001F96                     
  7002                           ;main_piee2.c: 273:         LATD0 = 1; MSdelay(250); LATD0 = 0;
  7003   001F96  808C               	bsf	3980,0,c	;volatile
  7004   001F98  0E00               	movlw	0
  7005   001F9A  6E02               	movwf	(MSdelay@val+1)^0,c
  7006   001F9C  0EFA               	movlw	250
  7007   001F9E  6E01               	movwf	MSdelay@val^0,c
  7008   001FA0  ECC4  F010         	call	_MSdelay	;wreg free
  7009   001FA4  EFB1  F00F         	goto	l2952
  7010   001FA8                     l158:
  7011   001FA8  0012               	return		;funcret
  7012   001FAA                     __end_of_Beep:
  7013                           	callstack 0
  7014                           
  7015 ;; *************** function _MSdelay *****************
  7016 ;; Defined at:
  7017 ;;		line 10 in file "msdelay.c"
  7018 ;; Parameters:    Size  Location     Type
  7019 ;;  val             2    0[COMRAM] unsigned int 
  7020 ;; Auto vars:     Size  Location     Type
  7021 ;;  j               2    4[COMRAM] unsigned int 
  7022 ;;  i               2    2[COMRAM] unsigned int 
  7023 ;; Return value:  Size  Location     Type
  7024 ;;                  1    wreg      void 
  7025 ;; Registers used:
  7026 ;;		wreg, status,2, status,0
  7027 ;; Tracked objects:
  7028 ;;		On entry : 0/0
  7029 ;;		On exit  : 0/0
  7030 ;;		Unchanged: 0/0
  7031 ;; Data sizes:     COMRAM   BANK0   BANK1   BANK2   BANK3   BANK4   BANK5   BANK6   BANK7
  7032 ;;      Params:         2       0       0       0       0       0       0       0       0
  7033 ;;      Locals:         4       0       0       0       0       0       0       0       0
  7034 ;;      Temps:          0       0       0       0       0       0       0       0       0
  7035 ;;      Totals:         6       0       0       0       0       0       0       0       0
  7036 ;;Total ram usage:        6 bytes
  7037 ;; Hardware stack levels used: 1
  7038 ;; This function calls:
  7039 ;;		Nothing
  7040 ;; This function is called by:
  7041 ;;		_main
  7042 ;;		_Display_Mensagens_Iniciais
  7043 ;;		_Beep
  7044 ;;		_Modo_Manual
  7045 ;;		_Escrever_EEPROM
  7046 ;;		_Ler_ADC
  7047 ;;		_LCD_Init
  7048 ;;		_LCD_Command
  7049 ;;		_LCD_Char
  7050 ;;		_LCD_Clear
  7051 ;; This function uses a non-reentrant model
  7052 ;;
  7053                           
  7054                           	psect	text46
  7055   002188                     __ptext46:
  7056                           	callstack 0
  7057   002188                     _MSdelay:
  7058                           	callstack 27
  7059   002188                     
  7060                           ;msdelay.c: 11:     unsigned int i, j;;msdelay.c: 12:     for(i = 0; i < val; i++)
  7061   002188  0E00               	movlw	0
  7062   00218A  6E04               	movwf	(MSdelay@i+1)^0,c
  7063   00218C  0E00               	movlw	0
  7064   00218E  6E03               	movwf	MSdelay@i^0,c
  7065   002190  EFDD  F010         	goto	l2446
  7066   002194                     l2434:
  7067                           
  7068                           ;msdelay.c: 13:         for(j = 0; j < 165; j++);
  7069   002194  0E00               	movlw	0
  7070   002196  6E06               	movwf	(MSdelay@j+1)^0,c
  7071   002198  0E00               	movlw	0
  7072   00219A  6E05               	movwf	MSdelay@j^0,c
  7073   00219C                     l2440:
  7074   00219C  4A05               	infsnz	MSdelay@j^0,f,c
  7075   00219E  2A06               	incf	(MSdelay@j+1)^0,f,c
  7076   0021A0  5006               	movf	(MSdelay@j+1)^0,w,c
  7077   0021A2  E109               	bnz	u1570
  7078   0021A4  0EA5               	movlw	165
  7079   0021A6  5C05               	subwf	MSdelay@j^0,w,c
  7080   0021A8  A0D8               	btfss	status,0,c
  7081   0021AA  EFD9  F010         	goto	u1571
  7082   0021AE  EFDB  F010         	goto	u1570
  7083   0021B2                     u1571:
  7084   0021B2  EFCE  F010         	goto	l2440
  7085   0021B6                     u1570:
  7086   0021B6  4A03               	infsnz	MSdelay@i^0,f,c
  7087   0021B8  2A04               	incf	(MSdelay@i+1)^0,f,c
  7088   0021BA                     l2446:
  7089   0021BA  5001               	movf	MSdelay@val^0,w,c
  7090   0021BC  5C03               	subwf	MSdelay@i^0,w,c
  7091   0021BE  5002               	movf	(MSdelay@val+1)^0,w,c
  7092   0021C0  5804               	subwfb	(MSdelay@i+1)^0,w,c
  7093   0021C2  A0D8               	btfss	status,0,c
  7094   0021C4  EFE6  F010         	goto	u1581
  7095   0021C8  EFE8  F010         	goto	u1580
  7096   0021CC                     u1581:
  7097   0021CC  EFCA  F010         	goto	l2434
  7098   0021D0                     u1580:
  7099   0021D0  0012               	return		;funcret
  7100   0021D2                     __end_of_MSdelay:
  7101                           	callstack 0
  7102                           
  7103 ;; *************** function _ADC_Init *****************
  7104 ;; Defined at:
  7105 ;;		line 487 in file "main_piee2.c"
  7106 ;; Parameters:    Size  Location     Type
  7107 ;;		None
  7108 ;; Auto vars:     Size  Location     Type
  7109 ;;		None
  7110 ;; Return value:  Size  Location     Type
  7111 ;;                  1    wreg      void 
  7112 ;; Registers used:
  7113 ;;		wreg, status,2
  7114 ;; Tracked objects:
  7115 ;;		On entry : 0/0
  7116 ;;		On exit  : 0/0
  7117 ;;		Unchanged: 0/0
  7118 ;; Data sizes:     COMRAM   BANK0   BANK1   BANK2   BANK3   BANK4   BANK5   BANK6   BANK7
  7119 ;;      Params:         0       0       0       0       0       0       0       0       0
  7120 ;;      Locals:         0       0       0       0       0       0       0       0       0
  7121 ;;      Temps:          0       0       0       0       0       0       0       0       0
  7122 ;;      Totals:         0       0       0       0       0       0       0       0       0
  7123 ;;Total ram usage:        0 bytes
  7124 ;; Hardware stack levels used: 1
  7125 ;; This function calls:
  7126 ;;		Nothing
  7127 ;; This function is called by:
  7128 ;;		_main
  7129 ;; This function uses a non-reentrant model
  7130 ;;
  7131                           
  7132                           	psect	text47
  7133   002552                     __ptext47:
  7134                           	callstack 0
  7135   002552                     _ADC_Init:
  7136                           	callstack 30
  7137   002552                     
  7138                           ;main_piee2.c: 488:     ADCON1 = 0x0E;
  7139   002552  0E0E               	movlw	14
  7140   002554  6EC1               	movwf	193,c	;volatile
  7141                           
  7142                           ;main_piee2.c: 489:     ADCON2 = 0xBE;
  7143   002556  0EBE               	movlw	190
  7144   002558  6EC0               	movwf	192,c	;volatile
  7145   00255A  0012               	return		;funcret
  7146   00255C                     __end_of_ADC_Init:
  7147                           	callstack 0
  7148                           
  7149                           	psect	rparam
  7150   000000                     
  7151                           	psect	config
  7152                           
  7153                           ;Config register CONFIG1L @ 0x300000
  7154                           ;	PLL Prescaler Selection bits
  7155                           ;	PLLDIV = 1, No prescale (4 MHz oscillator input drives PLL directly)
  7156                           ;	System Clock Postscaler Selection bits
  7157                           ;	CPUDIV = OSC1_PLL2, [Primary Oscillator Src: /1][96 MHz PLL Src: /2]
  7158                           ;	USB Clock Selection bit (used in Full-Speed USB mode only; UCFG:FSEN = 1)
  7159                           ;	USBDIV = 1, USB clock source comes directly from the primary oscillator block with no 
      +                          postscale
  7160   300000                     	org	3145728
  7161   300000  00                 	db	0
  7162                           
  7163                           ;Config register CONFIG1H @ 0x300001
  7164                           ;	Oscillator Selection bits
  7165                           ;	FOSC = INTOSC_EC, Internal oscillator, CLKO function on RA6, EC used by USB (INTCKO)
  7166                           ;	Fail-Safe Clock Monitor Enable bit
  7167                           ;	FCMEN = OFF, Fail-Safe Clock Monitor disabled
  7168                           ;	Internal/External Oscillator Switchover bit
  7169                           ;	IESO = OFF, Oscillator Switchover mode disabled
  7170   300001                     	org	3145729
  7171   300001  09                 	db	9
  7172                           
  7173                           ;Config register CONFIG2L @ 0x300002
  7174                           ;	Power-up Timer Enable bit
  7175                           ;	PWRT = OFF, PWRT disabled
  7176                           ;	Brown-out Reset Enable bits
  7177                           ;	BOR = OFF, Brown-out Reset disabled in hardware and software
  7178                           ;	Brown-out Reset Voltage bits
  7179                           ;	BORV = 3, Minimum setting 2.05V
  7180                           ;	USB Voltage Regulator Enable bit
  7181                           ;	VREGEN = OFF, USB voltage regulator disabled
  7182   300002                     	org	3145730
  7183   300002  19                 	db	25
  7184                           
  7185                           ;Config register CONFIG2H @ 0x300003
  7186                           ;	Watchdog Timer Enable bit
  7187                           ;	WDT = OFF, WDT disabled (control is placed on the SWDTEN bit)
  7188                           ;	Watchdog Timer Postscale Select bits
  7189                           ;	WDTPS = 32768, 1:32768
  7190   300003                     	org	3145731
  7191   300003  1E                 	db	30
  7192                           
  7193                           ; Padding undefined space
  7194   300004                     	org	3145732
  7195   300004  FF                 	db	255
  7196                           
  7197                           ;Config register CONFIG3H @ 0x300005
  7198                           ;	CCP2 MUX bit
  7199                           ;	CCP2MX = ON, CCP2 input/output is multiplexed with RC1
  7200                           ;	PORTB A/D Enable bit
  7201                           ;	PBADEN = OFF, PORTB<4:0> pins are configured as digital I/O on Reset
  7202                           ;	Low-Power Timer 1 Oscillator Enable bit
  7203                           ;	LPT1OSC = OFF, Timer1 configured for higher power operation
  7204                           ;	MCLR Pin Enable bit
  7205                           ;	MCLRE = OFF, RE3 input pin enabled; MCLR pin disabled
  7206   300005                     	org	3145733
  7207   300005  01                 	db	1
  7208                           
  7209                           ;Config register CONFIG4L @ 0x300006
  7210                           ;	Stack Full/Underflow Reset Enable bit
  7211                           ;	STVREN = ON, Stack full/underflow will cause Reset
  7212                           ;	Single-Supply ICSP Enable bit
  7213                           ;	LVP = OFF, Single-Supply ICSP disabled
  7214                           ;	Dedicated In-Circuit Debug/Programming Port (ICPORT) Enable bit
  7215                           ;	ICPRT = OFF, ICPORT disabled
  7216                           ;	Extended Instruction Set Enable bit
  7217                           ;	XINST = OFF, Instruction set extension and Indexed Addressing mode disabled (Legacy mo
      +                          de)
  7218                           ;	Background Debugger Enable bit
  7219                           ;	DEBUG = 0x1, unprogrammed default
  7220   300006                     	org	3145734
  7221   300006  81                 	db	129
  7222                           
  7223                           ; Padding undefined space
  7224   300007                     	org	3145735
  7225   300007  FF                 	db	255
  7226                           
  7227                           ;Config register CONFIG5L @ 0x300008
  7228                           ;	Code Protection bit
  7229                           ;	CP0 = OFF, Block 0 (000800-001FFFh) is not code-protected
  7230                           ;	Code Protection bit
  7231                           ;	CP1 = OFF, Block 1 (002000-003FFFh) is not code-protected
  7232                           ;	Code Protection bit
  7233                           ;	CP2 = OFF, Block 2 (004000-005FFFh) is not code-protected
  7234                           ;	Code Protection bit
  7235                           ;	CP3 = OFF, Block 3 (006000-007FFFh) is not code-protected
  7236   300008                     	org	3145736
  7237   300008  0F                 	db	15
  7238                           
  7239                           ;Config register CONFIG5H @ 0x300009
  7240                           ;	Boot Block Code Protection bit
  7241                           ;	CPB = OFF, Boot block (000000-0007FFh) is not code-protected
  7242                           ;	Data EEPROM Code Protection bit
  7243                           ;	CPD = OFF, Data EEPROM is not code-protected
  7244   300009                     	org	3145737
  7245   300009  C0                 	db	192
  7246                           
  7247                           ;Config register CONFIG6L @ 0x30000A
  7248                           ;	Write Protection bit
  7249                           ;	WRT0 = OFF, Block 0 (000800-001FFFh) is not write-protected
  7250                           ;	Write Protection bit
  7251                           ;	WRT1 = OFF, Block 1 (002000-003FFFh) is not write-protected
  7252                           ;	Write Protection bit
  7253                           ;	WRT2 = OFF, Block 2 (004000-005FFFh) is not write-protected
  7254                           ;	Write Protection bit
  7255                           ;	WRT3 = OFF, Block 3 (006000-007FFFh) is not write-protected
  7256   30000A                     	org	3145738
  7257   30000A  0F                 	db	15
  7258                           
  7259                           ;Config register CONFIG6H @ 0x30000B
  7260                           ;	Configuration Register Write Protection bit
  7261                           ;	WRTC = OFF, Configuration registers (300000-3000FFh) are not write-protected
  7262                           ;	Boot Block Write Protection bit
  7263                           ;	WRTB = OFF, Boot block (000000-0007FFh) is not write-protected
  7264                           ;	Data EEPROM Write Protection bit
  7265                           ;	WRTD = OFF, Data EEPROM is not write-protected
  7266   30000B                     	org	3145739
  7267   30000B  E0                 	db	224
  7268                           
  7269                           ;Config register CONFIG7L @ 0x30000C
  7270                           ;	Table Read Protection bit
  7271                           ;	EBTR0 = OFF, Block 0 (000800-001FFFh) is not protected from table reads executed in ot
      +                          her blocks
  7272                           ;	Table Read Protection bit
  7273                           ;	EBTR1 = OFF, Block 1 (002000-003FFFh) is not protected from table reads executed in ot
      +                          her blocks
  7274                           ;	Table Read Protection bit
  7275                           ;	EBTR2 = OFF, Block 2 (004000-005FFFh) is not protected from table reads executed in ot
      +                          her blocks
  7276                           ;	Table Read Protection bit
  7277                           ;	EBTR3 = OFF, Block 3 (006000-007FFFh) is not protected from table reads executed in ot
      +                          her blocks
  7278   30000C                     	org	3145740
  7279   30000C  0F                 	db	15
  7280                           
  7281                           ;Config register CONFIG7H @ 0x30000D
  7282                           ;	Boot Block Table Read Protection bit
  7283                           ;	EBTRB = OFF, Boot block (000000-0007FFh) is not protected from table reads executed in
      +                           other blocks
  7284   30000D                     	org	3145741
  7285   30000D  40                 	db	64
  7286                           tosu	equ	0xFFF
  7287                           tosh	equ	0xFFE
  7288                           tosl	equ	0xFFD
  7289                           stkptr	equ	0xFFC
  7290                           pclatu	equ	0xFFB
  7291                           pclath	equ	0xFFA
  7292                           pcl	equ	0xFF9
  7293                           tblptru	equ	0xFF8
  7294                           tblptrh	equ	0xFF7
  7295                           tblptrl	equ	0xFF6
  7296                           tablat	equ	0xFF5
  7297                           prodh	equ	0xFF4
  7298                           prodl	equ	0xFF3
  7299                           indf0	equ	0xFEF
  7300                           postinc0	equ	0xFEE
  7301                           postdec0	equ	0xFED
  7302                           preinc0	equ	0xFEC
  7303                           plusw0	equ	0xFEB
  7304                           fsr0h	equ	0xFEA
  7305                           fsr0l	equ	0xFE9
  7306                           wreg	equ	0xFE8
  7307                           indf1	equ	0xFE7
  7308                           postinc1	equ	0xFE6
  7309                           postdec1	equ	0xFE5
  7310                           preinc1	equ	0xFE4
  7311                           plusw1	equ	0xFE3
  7312                           fsr1h	equ	0xFE2
  7313                           fsr1l	equ	0xFE1
  7314                           bsr	equ	0xFE0
  7315                           indf2	equ	0xFDF
  7316                           postinc2	equ	0xFDE
  7317                           postdec2	equ	0xFDD
  7318                           preinc2	equ	0xFDC
  7319                           plusw2	equ	0xFDB
  7320                           fsr2h	equ	0xFDA
  7321                           fsr2l	equ	0xFD9
  7322                           status	equ	0xFD8

Data Sizes:
    Strings     240
    Constant    0
    Data        10
    BSS         80
    Persistent  0
    Stack       0

Auto Spaces:
    Space          Size  Autos    Used
    COMRAM           95     95      95
    BANK0           160      6      96
    BANK1           256      0       0
    BANK2           256      0       0
    BANK3           256      0       0
    BANK4           256      0       0
    BANK5           256      0       0
    BANK6           256      0       0
    BANK7           256      0       0

Pointer List with Targets:

    strncmp@_r	PTR const unsigned char  size(2) Largest target is 4
		 -> STR_20(CODE[4]), 

    strncmp@r	PTR const unsigned char  size(2) Largest target is 4
		 -> STR_20(CODE[4]), 

    strncmp@_l	PTR const unsigned char  size(2) Largest target is 20
		 -> STR_17(CODE[16]), STR_13(CODE[20]), STR_12(CODE[12]), STR_9(CODE[12]), 

    strncmp@l	PTR const unsigned char  size(2) Largest target is 20
		 -> STR_17(CODE[16]), STR_13(CODE[20]), STR_12(CODE[12]), STR_9(CODE[12]), 

    strlen@s	PTR const unsigned char  size(2) Largest target is 7
		 -> stoa@nuls(COMRAM[7]), ?_sprintf(COMRAM[2]), STR_11(CODE[5]), STR_10(CODE[5]), 

    strlen@a	PTR const unsigned char  size(2) Largest target is 7
		 -> stoa@nuls(COMRAM[7]), ?_sprintf(COMRAM[2]), STR_11(CODE[5]), STR_10(CODE[5]), 

    fputs@s	PTR const unsigned char  size(2) Largest target is 32
		 -> dbuf(BANK0[32]), 

    fputs@fp	PTR struct _IO_FILE size(2) Largest target is 12
		 -> sprintf@f(COMRAM[12]), 

    fputc@fp...source	PTR const unsigned char  size(2) Largest target is 0

    fputc@fp...buffer	PTR unsigned char  size(2) Largest target is 0

    fputc@fp	PTR struct _IO_FILE size(2) Largest target is 12
		 -> sprintf@f(COMRAM[12]), 

    vfprintf@ap	PTR PTR void  size(2) Largest target is 2
		 -> sprintf@ap(COMRAM[2]), 

    vfprintf@fp	PTR struct _IO_FILE size(2) Largest target is 12
		 -> sprintf@f(COMRAM[12]), 

    vfprintf@fmt	PTR const unsigned char  size(2) Largest target is 20
		 -> STR_17(CODE[16]), STR_13(CODE[20]), STR_12(CODE[12]), STR_9(CODE[12]), 

    vfprintf@cfmt	PTR unsigned char  size(2) Largest target is 20
		 -> STR_17(CODE[16]), STR_13(CODE[20]), STR_12(CODE[12]), STR_9(CODE[12]), 

    vfpfcnvrt@fp	PTR struct _IO_FILE size(2) Largest target is 12
		 -> sprintf@f(COMRAM[12]), 

    vfpfcnvrt@cp	PTR unsigned char  size(2) Largest target is 20
		 -> STR_17(CODE[16]), STR_13(CODE[20]), STR_12(CODE[12]), STR_9(CODE[12]), 

    vfpfcnvrt@ap	PTR PTR void  size(2) Largest target is 2
		 -> sprintf@ap(COMRAM[2]), 

    vfpfcnvrt@fmt	PTR PTR unsigned char  size(2) Largest target is 2
		 -> vfprintf@cfmt(COMRAM[2]), 

    S1215$vp	PTR void  size(2) Largest target is 0

    convarg.vp	PTR void  size(2) Largest target is 0

    read_prec_or_width@ap	PTR PTR void [1] size(2) Largest target is 2
		 -> sprintf@ap(COMRAM[2]), 

    read_prec_or_width@fmt	PTR PTR const unsigned char  size(2) Largest target is 2
		 -> vfprintf@cfmt(COMRAM[2]), 

    xtoa@fp	PTR struct _IO_FILE size(2) Largest target is 12
		 -> sprintf@f(COMRAM[12]), 

    stoa@fp	PTR struct _IO_FILE size(2) Largest target is 12
		 -> sprintf@f(COMRAM[12]), 

    stoa@s	PTR unsigned char  size(2) Largest target is 2
		 -> ?_sprintf(COMRAM[2]), STR_11(CODE[5]), STR_10(CODE[5]), 

    stoa@cp	PTR unsigned char  size(2) Largest target is 7
		 -> stoa@nuls(COMRAM[7]), ?_sprintf(COMRAM[2]), STR_11(CODE[5]), STR_10(CODE[5]), 

    dtoa@fp	PTR struct _IO_FILE size(2) Largest target is 12
		 -> sprintf@f(COMRAM[12]), 

    pad@fp	PTR struct _IO_FILE size(2) Largest target is 12
		 -> sprintf@f(COMRAM[12]), 

    pad@buf	PTR unsigned char  size(2) Largest target is 32
		 -> dbuf(BANK0[32]), 

    sprintf@fmt	PTR const unsigned char  size(2) Largest target is 20
		 -> STR_17(CODE[16]), STR_13(CODE[20]), STR_12(CODE[12]), STR_9(CODE[12]), 

    sprintf@s	PTR unsigned char  size(2) Largest target is 17
		 -> lcd_buffer(BANK0[17]), 

    sprintf@ap	PTR void [1] size(2) Largest target is 2
		 -> ?_sprintf(COMRAM[2]), 

    S1151$source	PTR const unsigned char  size(2) Largest target is 0

    f...source	PTR const unsigned char  size(2) Largest target is 0

    S1151$buffer	PTR unsigned char  size(2) Largest target is 0

    f...buffer	PTR unsigned char  size(2) Largest target is 0

    LCD_String_xy@msg	PTR const unsigned char  size(2) Largest target is 20
		 -> STR_16(CODE[17]), STR_15(CODE[17]), STR_14(CODE[18]), lcd_buffer(BANK0[17]), 
		 -> STR_8(CODE[17]), STR_7(CODE[11]), STR_6(CODE[16]), STR_5(CODE[13]), 
		 -> STR_4(CODE[12]), STR_3(CODE[18]), STR_2(CODE[20]), STR_1(CODE[7]), 

    LCD_String@msg	PTR const unsigned char  size(2) Largest target is 20
		 -> STR_16(CODE[17]), STR_15(CODE[17]), STR_14(CODE[18]), lcd_buffer(BANK0[17]), 
		 -> STR_8(CODE[17]), STR_7(CODE[11]), STR_6(CODE[16]), STR_5(CODE[13]), 
		 -> STR_4(CODE[12]), STR_3(CODE[18]), STR_2(CODE[20]), STR_1(CODE[7]), 

    RTC_GetDateTime@rtc	PTR struct . size(2) Largest target is 7
		 -> rtc(BANK0[7]), 

    Display_Menu_Principal$371	PTR const unsigned char  size(2) Largest target is 5
		 -> STR_11(CODE[5]), STR_10(CODE[5]), 


Critical Paths under _main in COMRAM

    _Salvar_Contador_EEPROM->_Escrever_EEPROM
    _Escrever_EEPROM->_MSdelay
    _RTC_Init->_I2C_Write
    _Modo_Manual->_sprintf
    _Ler_Contador_EEPROM->_Ler_EEPROM
    _Ler_EEPROM->_I2C_Read
    _Ler_ADC->_MSdelay
    _LCD_Init->_LCD_Command
    _Display_Menu_Principal->_sprintf
    _sprintf->_vfprintf
    _vfprintf->_vfpfcnvrt
    _vfpfcnvrt->_xtoa
    _xtoa->_pad
    _stoa->_fputc
    _read_prec_or_width->___wmul
    _dtoa->_pad
    _pad->_fputs
    _fputs->_fputc
    _abs->___awmod
    _RTC_GetDateTime->_I2C_Read
    _Display_Mensagens_Iniciais->_LCD_String_xy
    _LCD_String_xy->_LCD_String
    _LCD_String->_LCD_Char
    _LCD_Char->_MSdelay
    _LCD_Clear->_LCD_Command
    _LCD_Command->_MSdelay
    _Beep->_MSdelay

Critical Paths under _main in BANK0

    _main->_Display_Menu_Principal

Critical Paths under _main in BANK1

    None.

Critical Paths under _main in BANK2

    None.

Critical Paths under _main in BANK3

    None.

Critical Paths under _main in BANK4

    None.

Critical Paths under _main in BANK5

    None.

Critical Paths under _main in BANK6

    None.

Critical Paths under _main in BANK7

    None.

Call Graph Tables:

 ---------------------------------------------------------------------------------
 (Depth) Function   	        Calls       Base Space   Used Autos Params    Refs
 ---------------------------------------------------------------------------------
 (0) _main                                                 0     0      0   81541
                           _ADC_Init
                               _Beep
         _Display_Mensagens_Iniciais
             _Display_Menu_Principal
                           _I2C_Init
                           _LCD_Init
                            _Ler_ADC
                _Ler_Contador_EEPROM
                            _MSdelay
                        _Modo_Manual
                           _RTC_Init
             _Salvar_Contador_EEPROM
            _Sequenciador_Automatico
            _Verificar_Falha_Pressao
 ---------------------------------------------------------------------------------
 (1) _Verificar_Falha_Pressao                              0     0      0       0
 ---------------------------------------------------------------------------------
 (1) _Sequenciador_Automatico                              2     2      0    2764
                                              9 COMRAM     2     2      0
             _Salvar_Contador_EEPROM
 ---------------------------------------------------------------------------------
 (2) _Salvar_Contador_EEPROM                               0     0      0    2764
                    _Escrever_EEPROM
 ---------------------------------------------------------------------------------
 (3) _Escrever_EEPROM                                      3     0      3    2764
                                              6 COMRAM     3     0      3
                          _I2C_Start
                           _I2C_Stop
                          _I2C_Write
                            _MSdelay
 ---------------------------------------------------------------------------------
 (1) _RTC_Init                                             0     0      0      22
                           _I2C_Init
                          _I2C_Start
                           _I2C_Stop
                          _I2C_Write
 ---------------------------------------------------------------------------------
 (2) _I2C_Init                                             0     0      0       0
 ---------------------------------------------------------------------------------
 (1) _Modo_Manual                                          2     2      0   25238
                                              0 BANK0      2     2      0
                      _LCD_String_xy
                            _MSdelay
                            _sprintf
 ---------------------------------------------------------------------------------
 (1) _Ler_Contador_EEPROM                                  4     4      0     333
                                              5 COMRAM     4     4      0
                         _Ler_EEPROM
 ---------------------------------------------------------------------------------
 (2) _Ler_EEPROM                                           3     1      2     287
                                              2 COMRAM     3     1      2
                           _I2C_Read
                        _I2C_Restart
                          _I2C_Start
                           _I2C_Stop
                          _I2C_Write
 ---------------------------------------------------------------------------------
 (1) _Ler_ADC                                              5     3      2    2394
                                              6 COMRAM     5     3      2
                            _MSdelay
 ---------------------------------------------------------------------------------
 (1) _LCD_Init                                             0     0      0    4788
                        _LCD_Command
                            _MSdelay
 ---------------------------------------------------------------------------------
 (1) _Display_Menu_Principal                               6     6      0   23766
                                              0 BANK0      6     6      0
                      _LCD_String_xy
                    _RTC_GetDateTime
                             ___wmul
                            _sprintf
 ---------------------------------------------------------------------------------
 (2) _sprintf                                             28    16     12   15342
                                             69 COMRAM    26    14     12
                           _vfprintf
 ---------------------------------------------------------------------------------
 (3) _vfprintf                                             8     2      6   14529
                                             61 COMRAM     8     2      6
                          _vfpfcnvrt
 ---------------------------------------------------------------------------------
 (4) _vfpfcnvrt                                           21    15      6   14163
                                             43 COMRAM    18    12      6
                               _dtoa
                              _fputc
                 _read_prec_or_width
                               _stoa
                            _strncmp
                               _xtoa
 ---------------------------------------------------------------------------------
 (5) _xtoa                                                16    12      4    3851
                                             27 COMRAM    16    12      4
                                _pad
 ---------------------------------------------------------------------------------
 (5) _strncmp                                             11     5      6     453
                                              0 COMRAM    11     5      6
 ---------------------------------------------------------------------------------
 (5) _stoa                                                22    18      4    1889
                                              9 COMRAM    22    18      4
                              _fputc
                             _strlen
 ---------------------------------------------------------------------------------
 (6) _strlen                                               4     2      2     166
                                              0 COMRAM     4     2      2
 ---------------------------------------------------------------------------------
 (5) _read_prec_or_width                                   9     5      4     887
                                              6 COMRAM     9     5      4
                             ___wmul
 ---------------------------------------------------------------------------------
 (6) ___wmul                                               6     2      4     555
                                              0 COMRAM     6     2      4
 ---------------------------------------------------------------------------------
 (5) _dtoa                                                13     9      4    4984
                                             27 COMRAM    13     9      4
                            ___awdiv
                            ___awmod
                                _abs
                                _pad
 ---------------------------------------------------------------------------------
 (6) _pad                                                 11     5      6    3335
                                             16 COMRAM    11     5      6
                              _fputc
                              _fputs
 ---------------------------------------------------------------------------------
 (7) _fputs                                                7     3      4    1539
                                              9 COMRAM     7     3      4
                              _fputc
 ---------------------------------------------------------------------------------
 (8) _fputc                                                9     5      4    1138
                                              0 COMRAM     9     5      4
                              _putch
 ---------------------------------------------------------------------------------
 (9) _putch                                                1     1      0       0
 ---------------------------------------------------------------------------------
 (6) _abs                                                  4     2      2     142
                                              6 COMRAM     4     2      2
                            ___awmod (ARG)
 ---------------------------------------------------------------------------------
 (6) ___awmod                                              6     2      4     448
                                              0 COMRAM     6     2      4
 ---------------------------------------------------------------------------------
 (6) ___awdiv                                              8     4      4     452
                                              0 COMRAM     8     4      4
 ---------------------------------------------------------------------------------
 (2) _RTC_GetDateTime                                      2     0      2     298
                                              2 COMRAM     2     0      2
                           _I2C_Read
                        _I2C_Restart
                          _I2C_Start
                           _I2C_Stop
                          _I2C_Write
 ---------------------------------------------------------------------------------
 (4) _I2C_Write                                            1     1      0      22
                                              0 COMRAM     1     1      0
                    _i2c_WaitForIdle
 ---------------------------------------------------------------------------------
 (4) _I2C_Stop                                             0     0      0       0
 ---------------------------------------------------------------------------------
 (4) _I2C_Start                                            0     0      0       0
 ---------------------------------------------------------------------------------
 (3) _I2C_Restart                                          0     0      0       0
 ---------------------------------------------------------------------------------
 (3) _I2C_Read                                             2     2      0      46
                                              0 COMRAM     2     2      0
                            _i2c_Ack
                          _i2c_NoAck
                    _i2c_WaitForIdle
 ---------------------------------------------------------------------------------
 (5) _i2c_WaitForIdle                                      0     0      0       0
 ---------------------------------------------------------------------------------
 (4) _i2c_NoAck                                            0     0      0       0
 ---------------------------------------------------------------------------------
 (4) _i2c_Ack                                              0     0      0       0
 ---------------------------------------------------------------------------------
 (1) _Display_Mensagens_Iniciais                           0     0      0   14684
                          _LCD_Clear
                      _LCD_String_xy
                            _MSdelay
 ---------------------------------------------------------------------------------
 (2) _LCD_String_xy                                        5     2      3    7524
                                             10 COMRAM     5     2      3
                        _LCD_Command
                         _LCD_String
 ---------------------------------------------------------------------------------
 (3) _LCD_String                                           2     0      2    2537
                                              8 COMRAM     2     0      2
                           _LCD_Char
 ---------------------------------------------------------------------------------
 (4) _LCD_Char                                             2     2      0    2416
                                              6 COMRAM     2     2      0
                            _MSdelay
 ---------------------------------------------------------------------------------
 (2) _LCD_Clear                                            0     0      0    4788
                        _LCD_Command
                            _MSdelay
 ---------------------------------------------------------------------------------
 (3) _LCD_Command                                          2     2      0    2416
                                              6 COMRAM     2     2      0
                            _MSdelay
 ---------------------------------------------------------------------------------
 (1) _Beep                                                 1     1      0    2416
                                              6 COMRAM     1     1      0
                            _MSdelay
 ---------------------------------------------------------------------------------
 (4) _MSdelay                                              6     4      2    2372
                                              0 COMRAM     6     4      2
 ---------------------------------------------------------------------------------
 (1) _ADC_Init                                             0     0      0       0
 ---------------------------------------------------------------------------------
 Estimated maximum stack depth 9
 ---------------------------------------------------------------------------------

 Call Graph Graphs:

 _main (ROOT)
   _ADC_Init
   _Beep
     _MSdelay
   _Display_Mensagens_Iniciais
     _LCD_Clear
       _LCD_Command
         _MSdelay
       _MSdelay
     _LCD_String_xy
       _LCD_Command
       _LCD_String
         _LCD_Char
           _MSdelay
     _MSdelay
   _Display_Menu_Principal
     _LCD_String_xy
     _RTC_GetDateTime
       _I2C_Read
         _i2c_Ack
         _i2c_NoAck
         _i2c_WaitForIdle
       _I2C_Restart
       _I2C_Start
       _I2C_Stop
       _I2C_Write
         _i2c_WaitForIdle
     ___wmul
     _sprintf
       _vfprintf
         _vfpfcnvrt
           _dtoa
             ___awdiv
             ___awmod
             _abs
               ___awmod (ARG)
             _pad
               _fputc
                 _putch
               _fputs
                 _fputc
           _fputc
           _read_prec_or_width
             ___wmul
           _stoa
             _fputc
             _strlen
           _strncmp
           _xtoa
             _pad
   _I2C_Init
   _LCD_Init
     _LCD_Command
     _MSdelay
   _Ler_ADC
     _MSdelay
   _Ler_Contador_EEPROM
     _Ler_EEPROM
       _I2C_Read
       _I2C_Restart
       _I2C_Start
       _I2C_Stop
       _I2C_Write
   _MSdelay
   _Modo_Manual
     _LCD_String_xy
     _MSdelay
     _sprintf
   _RTC_Init
     _I2C_Init
     _I2C_Start
     _I2C_Stop
     _I2C_Write
   _Salvar_Contador_EEPROM
     _Escrever_EEPROM
       _I2C_Start
       _I2C_Stop
       _I2C_Write
       _MSdelay
   _Sequenciador_Automatico
     _Salvar_Contador_EEPROM
   _Verificar_Falha_Pressao

 Address spaces:
Name               Size   Autos  Total    Cost      Usage
BIGRAM             7FF      0       0      28        0.0%
EEDATA             100      0       0       0        0.0%
BITBANK7           100      0       0      18        0.0%
BANK7              100      0       0      19        0.0%
BITBANK6           100      0       0      16        0.0%
BANK6              100      0       0      17        0.0%
BITBANK5           100      0       0      14        0.0%
BANK5              100      0       0      15        0.0%
BITBANK4           100      0       0      12        0.0%
BANK4              100      0       0      13        0.0%
BITBANK3           100      0       0      10        0.0%
BANK3              100      0       0      11        0.0%
BITBANK2           100      0       0       8        0.0%
BANK2              100      0       0       9        0.0%
BITBANK1           100      0       0       6        0.0%
BANK1              100      0       0       7        0.0%
BITBANK0            A0      0       0       4        0.0%
BANK0               A0      6      60       5       60.0%
BITCOMRAM           5F      0       0       0        0.0%
COMRAM              5F     5F      5F       1      100.0%
BITBIGSFRh          2C      0       0      20        0.0%
BITBIGSFRlhl        2A      0       0      22        0.0%
BITBIGSFRllll       20      0       0      26        0.0%
BITBIGSFRlhhhh       9      0       0      21        0.0%
BITBIGSFRllhll       6      0       0      24        0.0%
BITBIGSFRllhlh       5      0       0      23        0.0%
BITBIGSFRlllh        1      0       0      25        0.0%
BIGSFR               0      0       0     200        0.0%
BITSFR               0      0       0     200        0.0%
SFR                  0      0       0     200        0.0%
STACK                0      0       0       2        0.0%
NULL                 0      0       0       0        0.0%
ABS                  0      0      BF      27        0.0%
DATA                 0      0      BF       3        0.0%
CODE                 0      0       0       0        0.0%


Microchip Technology PIC18 Macro Assembler V2.41 build 20230208172133 
Symbol Table                                                                                   Sun Dec  7 16:21:44 2025

                    ?_i2c_WaitForIdle 0001                          ?_LCD_Command 0001  
                         _SSPSTATbits 0FC7                                    _BF 7E38  
          _Display_Menu_Principal$371 00BE                          ___awdiv@sign 0006  
                 ___wmul@multiplicand 0003                           ?_LCD_String 0009  
                                 l121 1704                                   l122 1728  
                                 l114 16D0                                   l220 0FAE  
                                 l116 16AC                                   l221 0FC2  
                                 l134 1CAC                                   l230 10D4  
                                 l118 16C2                                   l303 2538  
                                 l400 21D0                                   l312 2526  
                                 l152 145C                                   l224 0FD6  
                                 l321 2522                                   l233 23B2  
                                 l225 0FEA                                   l330 22E2  
                                 l306 2546                                   l226 0FFE  
                                 l218 0F9A                                   l242 2484  
                                 l251 255A                                   l315 2534  
                                 l403 2460                                   l332 22F0  
                                 l324 24AC                                   l236 2410  
                                 l341 2218                                   l309 24D4  
                                 l245 24A4                                   l181 0CC0  
                                 l158 1FA8                                   l350 24DA  
                                 l318 2514                                   l254 2278  
                                 l182 0CC6                                   l262 243A  
                                 l335 2316                                   l327 24BE  
                                 l239 2382                                   l183 0CCC  
                                 l175 0CAE                                   l344 24EE  
                                 l248 1EB2                                   l192 0D64  
                                 l168 0EA2                                   l353 24E8  
                                 l257 229C                                   l193 0D6A  
                                 l177 0CB4                                   l338 21D2  
                                 l370 23E2                                   l194 0D70  
                                 l186 0D52                                   l178 0CBA  
                                 l347 24FC                                   l188 0D58  
                                 l373 2186                                   l189 0D5E  
                                 l382 2006                                   l392 2510  
                                 l376 213A                                   l634 1BEC  
                                 l389 1F40                                   l647 1D5C  
                                 _PEN 7E2A                                   _SEN 7E28  
                                 _R_W 7E3A                                   _abs 229E  
                                 _pad 1D5E                                   _rtc 00A9  
                        ___awmod@sign 0006                                   wreg 0FE8  
                         LCD_Char@dat 0008                                  l1111 1DE6  
                                l1200 0C40                                  l1113 1E0A  
                                l1121 1136                                  l1122 117C  
                                ?_abs 0007                                  l1108 1DA4  
                                l1142 14DE                                  l1223 22D4  
                                l1135 12A2                                  l1119 112E  
                                l1144 14E6                                  l3000 2434  
                                l1153 15A6                                  l1081 20EE  
                                l1226 22DC                                  l3010 0ED0  
                                l3002 2438                                  l1163 1790  
                                l1219 2054                                  l2300 19E6  
                                l3020 0F00                                  l3012 0EDE  
                                l3004 0EA4                                  l3100 0C54  
                                l1181 1B20                                  l1165 1798  
                                l2302 1A1C                                  l1238 1A62  
                                l1246 225C                                  l2310 2238  
                                l1158 15F0                                  l3030 0F4A  
                                l3022 0F0E                                  l3014 0EE2  
                                l3006 0EB2                                  l3110 0C68  
                                l3102 0C58                                  l1255 20A2  
                                l2320 1B2A                                  l2312 223C  
                                l2400 1D5E                                  l3200 13B2  
                                l3040 0F7C                                  l3032 0F52  
                                l3024 0F1E                                  l3016 0EF2  
                                l3008 0EC4                                  l3120 0CA6  
                                l3112 0C6A                                  l3104 0C5E  
                                l1249 255C                                  l1185 1B28  
                                l1177 18BA                                  l2330 1B56  
                                l2322 1B2E                                  l2306 221A  
                                l2410 1DB0                                  l2402 1D6E  
                                l2314 243C                                  l3210 1424  
                                l3202 13BE                                  l3050 0FB0  
                                l3042 0F88                                  l3026 0F2A  
                                l3034 0F54                                  l3018 0EF6  
                                l3114 0C8C                                  l1259 1998  
                                l2340 1B84                                  l2332 1B5E  
                                l2324 1B3C                                  l2420 22B8  
                                l2308 2226                                  l2412 1DC4  
                                l2404 1D82                                  l2500 1218  
                                l2316 2458                                  l3212 1434  
                                l3204 13EA                                  l3052 0FBC  
                                l3036 0F5E                                  l3028 0F38  
                                l3140 0E0E                                  l3132 0D76  
                                l3124 0CD2                                  l3116 0CA0  
                                l3108 0C64                                  l3300 1756  
                                l3220 1608                                  l2350 1BBE  
                                l2342 1B8C                                  l2334 1B62  
                                l2326 1B44                                  l2414 1DC8  
                                l2406 1D90                                  l2510 1272  
                                l2502 1232                                  l2422 2056  
                                l3214 144A                                  l3206 13FC  
                                l3070 0FEC                                  l3054 0FC4  
                                l3046 0F9C                                  l3038 0F6C  
                                l3150 0E58                                  l3142 0E10  
                                l3134 0DD0                                  l3126 0D2C  
                                l3118 0CA2                                  l3230 1612  
                                l3222 160A                                  l2440 219C  
                                l2432 2188                                  l2360 1BE4  
                                l2352 1BC0                                  l2344 1B9A  
                                l2336 1B6A                                  l2328 1B48  
                                l2416 1DF6                                  l2408 1D9C  
                                l2512 1282                                  l2504 124C  
                                l2424 2062                                  l2520 1478  
                                l2600 189A                                  l3208 140E  
                                l3072 0FF8                                  l3056 0FD0  
                                l3048 0FA8                                  l3080 1012  
                                l3144 0E20                                  l3136 0DE0  
                                l3240 1626                                  l3232 1616  
                                l3224 160C                                  l3216 15F2  
                                l2442 21A0                                  l2434 2194  
                                l2450 21E0                                  l2354 1BC6  
                                l2346 1BA0                                  l2338 1B7C  
                                l2370 1CC8                                  l2418 229E  
                                l2506 125C                                  l2610 1ACA  
                                l2426 2066                                  l2530 14BC  
                                l2522 148A                                  l3090 10C2  
                                l3074 1000                                  l3066 0FD8  
                                l3082 106E                                  l3146 0E30  
                                l3138 0E02                                  l3154 0E68  
                                l3250 1640                                  l3242 162C  
                                l3234 161A                                  l3226 160E  
                                l3218 1606                                  l2444 21B6  
                                l2452 21EE                                  l2348 1BB6  
                                l2356 1BCC                                  l2380 1CFC  
                                l2372 1CCC                                  l2364 1CAE  
                                l2292 199A                                  l2508 126C  
                                l2460 10EA                                  l2612 1AEA  
                                l2604 1A64                                  l2428 2096  
                                l2540 1540                                  l2524 1492  
                                l2516 145E                                  l2700 0A0C  
                                l3180 12D4                                  l3084 1078  
                                l3076 100C                                  l3068 0FE4  
                                l3148 0E36                                  l3260 165E  
                                l3252 1644                                  l3244 1630  
                                l3236 161E                                  l3228 1610  
                                l2446 21BA                                  l2454 21FC  
                                l2358 1BDC                                  l2390 1D36  
                                l2382 1D04                                  l2374 1CDA  
                                l2366 1CB2                                  l2294 19AC  
                                l2470 1122                                  l2462 10FA  
                                l2614 1AF8                                  l2606 1A6C  
                                l2542 154C                                  l2534 150A  
                                l2526 14A6                                  l2518 1470  
                                l2630 194A                                  l2622 18F2  
                                l2710 0AA0                                  l2702 0A28  
                                l3190 131C                                  l3182 12E6  
                                l3174 12A4                                  l3086 109A  
                                l3270 169C                                  l3262 1662  
                                l3254 1648                                  l3246 1636  
                                l3238 1622                                  l2800 2174  
                                l2456 220A                                  l2448 21D2  
                                l2640 24BA                                  l2384 1D12  
                                l2392 1D3C                                  l2376 1CE2  
                                l2368 1CC0                                  l2296 19BE  
                                l2480 1170                                  l2472 113E  
                                l2464 1102                                  l2608 1A90  
                                l2552 15BA                                  l2544 1580  
                                l2536 151E                                  l2528 14AE  
                                l2632 1974                                  l2624 1900  
                                l2616 18BC                                  l2560 1774  
                                l2712 0AE8                                  l2720 0B2C  
                                l2704 0A6C                                  l3192 1340  
                                l3184 12F8                                  l3176 12C8  
                                l3088 10A2                                  l3280 16DE  
                                l3272 16A4                                  l3264 1670  
                                l3256 164C                                  l3248 163C  
                                l2802 2176                                  l2650 2102  
                                l2810 1FD2                                  l2642 2512  
                                l2394 1D4C                                  l2386 1D28  
                                l2378 1CF4                                  l2298 19C8  
                                l2490 11C4                                  l2482 1178  
                                l2474 114E                                  l2466 1112  
                                l2458 10D6                                  l2554 15CE  
                                l2546 1584                                  l2538 1522  
                                l2626 191C                                  l2618 18E6  
                                l2570 17B0                                  l2562 1776  
                                l2730 0BBE                                  l2722 0B50  
                                l3194 1352                                  l3186 1308  
                                l3178 12D0                                  l3098 0C42  
                                l3290 1724                                  l3282 16F0  
                                l3274 16B0                                  l3266 167C  
                                l3258 1650                                  l2804 2178  
                                l2660 2116                                  l2652 2104  
                                l2812 1FD6                                  l2644 24EA  
                                l2636 2524                                  l2396 1D54  
                                l2388 1D30                                  l2492 11CA  
                                l2484 1184                                  l2476 1154  
                                l2468 1114                                  l2556 15D2  
                                l2548 1588                                  l2628 1938  
                                l2580 17E8                                  l2572 17B6  
                                l2564 1784                                  l2732 0BCE  
                                l2724 0B86                                  l2708 0A84  
                                l2740 0C18                                  l2820 204C  
                                l3196 1380                                  l3188 1314  
                                l2900 238E                                  l3292 173A  
                                l3284 16FC                                  l3276 16BC  
                                l3268 168A                                  l2830 24FE  
                                l2662 2128                                  l2654 2106  
                                l2806 1FAA                                  l2646 24D6  
                                l2638 24A8                                  l2494 11D0  
                                l2486 118C                                  l2478 1164  
                                l2582 17EC                                  l2574 17BC  
                                l2590 1828                                  l2566 17A0  
                                l2558 1764                                  l2726 0BAA  
                                l2718 0B00                                  l3470 098A  
                                l2670 0916                                  l2814 2008  
                                l3198 139C                                  l2910 23B0  
                                l2902 2394                                  l3462 0CE6  
                                l3294 1742                                  l3286 16FE  
                                l3278 16C0                                  l2664 212A  
                                l2656 2108                                  l2648 20F2  
                                l2808 1FAE                                  l2840 1ED4  
                                l2832 1EB6                                  l2760 22F4  
                                l2488 1192                                  l2496 11EC  
                                l2592 1844                                  l2584 17FC  
                                l2576 17CC                                  l2568 17A8  
                                l2728 0BB6                                  l2736 0C06  
                                l3472 0B1E                                  l2680 0946  
                                l2672 0924                                  l2816 2014  
                                l2920 23CA                                  l2904 239A  
                                l2824 24C0                                  l3464 0D8A  
                                l3296 1746                                  l3288 1712  
                                l2666 212C                                  l2658 210A  
                                l2850 1F0E                                  l2842 1EE6  
                                l2834 1EB6                                  l2762 22F8  
                                l2754 2536                                  l2498 1206  
                                l2594 1856                                  l2586 1802  
                                l2578 17DC                                  l2690 09AA  
                                l2682 0958                                  l2674 0932  
                                l2818 2030                                  l2922 23D0  
                                l2914 23B4                                  l2906 23A4  
                                l2826 24C4                                  l2930 248A  
                                l3466 0E7C                                  l3298 174A  
                                l2940 2552                                  l2852 1F14  
                                l2844 1EEE                                  l2836 1EC6  
                                l2764 2308                                  l2756 22E0  
                                l2596 1870                                  l2588 1808  
                                l2692 09C6                                  l2676 0936  
                                l2668 08F2                                  l2860 20A4  
                                l2924 23D6                                  l2916 23B8  
                                l2908 23AC                                  l3468 1028  
                                l2932 248E                                  l2780 23FA  
                                l2772 23E4                                  l2828 2462  
                                l2950 1F56                                  l2790 2150  
                                l2854 1F26                                  l2846 1EF4  
                                l2838 1ECE                                  l2766 2310  
                                l2758 22E0                                  l2598 188A  
                                l2694 09D6                                  l2686 0964  
                                l2678 0942                                  l2862 20B4  
                                l2926 23DC                                  l2918 23C4  
                                l2942 234E                                  l2934 2494  
                                l2782 2400                                  l2774 23E8  
                                ?_pad 0011                                  l2960 1F88  
                                l2952 1F62                                  l2792 2152  
                                l2856 1F2E                                  l2848 1F06  
                                l2768 2314                                  l2880 1E26  
                                l2872 1E0C                                  l2696 09E0  
                                l2688 0998                                  l2864 20BC  
                                l2944 236A                                  l2936 249A  
                                l2928 2486                                  l2784 2404  
                                l2776 23EE                                  l2962 1F96  
                                l2954 1F68                                  l2946 1F44  
                                l2794 2154                                  l2786 213E  
                                l2858 1F34                                  l2970 1C04  
                                l2890 1E86                                  l2882 1E36  
                                l2874 1E10                                  l2698 09F0  
                                l2866 20C4                                  l2938 24A0  
                                l2778 23F4                                  l2956 1F7A  
                                l2948 1F54                                  l2796 2156  
                                l2788 214E                                  l2980 1C8E  
                                l2972 1C26                                  l2892 1E9A  
                                l2884 1E4A                                  l2876 1E16  
                                l2868 20E0                                  l2958 1F7C  
                                l2798 2162                                  l2982 1CA0  
                                l2974 1C38                                  l2966 1BEE  
                                l2894 1EAE                                  l2886 1E5E  
                                l2878 1E20                                  l2990 2286  
                                l2976 1C5A                                  l2968 1BF2  
                                l2888 1E72                                  l2984 2260  
                                l2896 2384                                  l2978 1C6C  
                                l2986 226A                                  l2898 2388  
                                l2994 2412                                  l2988 2276  
                                l2996 242A                                  l2998 242E  
                                STR_1 08DC                                  STR_2 0801  
                                STR_3 0829                                  STR_4 08AD  
                                STR_5 08A0                                  STR_6 0890  
                                STR_7 08D1                                  STR_8 084D  
                                STR_9 08C5                                  u2000 1938  
                                u2001 1934                                  u2010 194A  
                                u2011 1946                                  u2020 1974  
                                u2100 09D6                                  u2021 1970  
                                u2101 09D2                                  u2030 2534  
                                u2110 0A0C                                  u2031 2530  
                                u2111 0A08                                  u2200 1FCE  
                                u2040 24BA                                  u1400 1B7C  
                                u2120 0A28                                  u2041 24B6  
                                u1401 1B78                                  u2121 0A24  
                                u2210 1FF6                                  u2050 2522  
                                u1410 1B9A                                  u1330 19AC  
                                u2130 0AA0                                  u2051 251E  
                                u1411 1B96                                  u1331 19A8  
                                u2131 0A9C                                  u2220 2006  
                                u2060 24FC                                  u1420 1BB6  
                                u1340 19BE                                  u1500 1D6E  
                                u2140 0B50                                  u2300 2286  
                                u2221 2002                                  u2061 24F8  
                                u1421 1BB2                                  u1341 19BA  
                                u1501 1D6A                                  u2141 0B4C  
                                u2301 2282                                  u2070 24E8  
                                u1430 1BDC                                  u1350 19E6  
                                u1510 1D90                                  u2150 0B86  
                                u2230 204C                                  u2310 242A  
                                _LATB 0F8A                                  u2207 1FC4  
                                u2071 24E4                                  u1431 1BD8  
                                u1351 19E2                                  u1511 1D8C  
                                u2151 0B82                                  u2231 2048  
                                u2311 2426                                  u2240 1EC6  
                                u1600 21EE                                  u1440 1CC0  
                                u1360 1A1C                                  u1520 1DE6  
                                u2160 0BAA                                  u2080 0916  
                                u2400 0F6C                                  u2320 0EB2  
                                u2217 1FEC                                  u2241 1EC2  
                                u1601 21EA                                  u1441 1CBC  
                                u1361 1A18                                  u1521 1DE2  
                                u2161 0BA6                                  u2081 0912  
                                u2401 0F68                                  u2321 0EAE  
                                u2250 1EE6                                  u1610 21FC  
                                u2170 2546                                  u1450 1CDA  
                                u1370 225C                                  u1530 1DF6  
                                u2090 09AA                                  u2410 0F7C  
                                u2330 0EC4                                  u2251 1EE2  
                                u1611 21F8                                  u2171 2542  
                                u1451 1CD6                                  u1371 2258  
                                u1531 1DF2                                  u2091 09A6  
                                u2411 0F78                                  u2331 0EC0  
                                u2260 1F06                                  u1620 220A  
                                u2180 22F0                                  u1380 1B3C  
                                u1460 1CF4                                  u1540 22B8  
                                u1700 1164                                  u2500 12C8  
                                u2420 0F96                                  u2340 0EDE  
                                u2261 1F02                                  u1621 2206  
                                u2181 22EC                                  u1381 1B38  
                                u1461 1CF0                                  u1541 22B4  
                                u1701 1160                                  u2501 12C4  
                                u2421 0F92                                  u2341 0EDA  
                                u2270 1F26                                  u1630 2218  
                                u2190 2308                                  u1390 1B56  
                                u1470 1D12                                  u1710 1206  
                                u1550 2086                                  u2510 12F8  
                                u2430 109A                                  u2350 0EF2  
                                u2271 1F22                                  u1631 2214  
                                u2191 2304                                  u1391 1B52  
                                u1471 1D0E                                  u1711 1202  
                                u2511 12F4                                  u2431 1096  
                                u2351 0EEE                                  u2280 1F54  
                                u1480 1D28                                  u1720 1218  
                                u1640 10E6                                  u1560 2096  
                                u1800 14DA                                  u2520 1308  
                                u2360 0F0E                                  u2440 0C54  
                                u2600 16DE                                  u2281 1F50  
                                u1481 1D24                                  u1721 1214  
                                u1641 10E0                                  u1561 2092  
                                u1801 14D6                                  u2521 1304  
                                u2361 0F0A                                  u2441 0C50  
                                u2601 16DA                                  u1570 21B6  
                                u2290 1F7A                                  u1490 1D4C  
                                u1730 1232                                  u1650 10E8  
                                u1810 1506                                  u2370 0F1E  
                                u2450 0C8C                                  u2610 16F0  
                                u1571 21B2                                  u2291 1F76  
                                u1491 1D48                                  u1731 122E  
                                u1811 1502                                  u2371 0F1A  
                                u2451 0C88                                  u2611 16EC  
                                u1580 21D0                                  u1740 124C  
                                u1660 10FA                                  u1820 1540  
                                u2540 140E                                  u2380 0F38  
                                u2460 0D4E                                  u2620 1712  
                                u1581 21CC                                  u1741 1248  
                                u1661 10F6                                  u1557 207C  
                                u1821 153C                                  u2541 140A  
                                u2381 0F34                                  u2461 0D4A  
                                u2621 170E                                  u1590 21E0  
                                u1750 125C                                  u1670 1112  
                                u1830 156C                                  u1910 1844  
                                u2550 1434                                  u2390 0F4A  
                                u2470 0E02                                  u2630 1724  
                                u1591 21DC                                  u1751 1258  
                                u1671 110E                                  u1911 1840  
                                u2551 1430                                  u2535 136C  
                                u2391 0F46                                  u2471 0DFE  
                                u2631 1720                                  u1760 126C  
                                u1680 1122                                  u1840 15A6  
                                u1920 1856                                  u2480 0E20  
                                u2640 173A                                  u2560 1670  
                                u1761 1268                                  u1681 111E  
                                u1841 15A2                                  u1921 1852  
                                u1905 1814                                  u2481 0E1C  
                                u2641 1736                                  u2561 166C  
                                u1690 114E                                  u1850 15B6  
                                u1930 1870                                  u2490 0E58  
                                u2570 168A                                  u1691 114A  
                                u1851 15B2                                  u1771 1468  
                                u1931 186C                                  u2491 0E54  
                                u2571 1686                                  u1860 15F0  
                                u1780 148A                                  u1940 188A  
                                u2580 169C                                  u1861 15EC  
                                u1837 1562                                  u1781 1486  
                                u1941 1886                                  u2581 1698  
                                u1790 14BC                                  u1950 189A  
                                u1870 1774                                  u2590 16D0  
                                u1791 14B8                                  u1951 1896  
                                u1871 1770                                  u2591 16CC  
                                u1960 1A90                                  u1880 1784  
                                u1961 1A8C                                  u1881 1780  
                                u1970 1B20                                  u1890 17CC  
                                u1971 1B1C                                  u1891 17C8  
                                u1980 18E6                                  u1981 18E2  
                                u1990 191C                                  u1991 1918  
                                _RCEN 7E2B                                  _RSEN 7E29  
                                _Beep 1F42                                  abs@a 0007  
                                _dbuf 0078                                  _main 15F2  
                                _dtoa 10D6                                  _prec 0062  
                    __end_of_I2C_Init 24D6                      __end_of_I2C_Read 2318  
                                pad@i 0018                                  pad@p 0015  
                                fsr1h 0FE2                                  fsr2h 0FDA  
                                indf1 0FE7                                  indf2 0FDF  
                                fsr1l 0FE1                                  pad@w 001A  
                                fsr2l 0FD9                                  _stoa 145E  
                                _xtoa 1764                      __end_of_I2C_Stop 2524  
                    __end_of_ADC_Init 255C                                  prodh 0FF4  
                                prodl 0FF3                                  start 0000  
                     __end_of_MSdelay 21D2                         _LCD_String_xy 1EB4  
                     __end_of_Ler_ADC 229E                          ___param_bank 0000  
                     __end_of_i2c_Ack 24FE                    Ler_EEPROM@endereco 0003  
            ??_Display_Menu_Principal 00BA                                 ??_abs 0009  
                               ??_pad 0017                      __end_of_LCD_Char 213C  
                    __end_of_LCD_Init 23E4                                 ?_Beep 0001  
                               ?_main 0001                                 ?_dtoa 001C  
                               _ACKEN 7E2C                                 _ACKDT 7E2D  
                     __end_of___awdiv 1BEE                                 STR_10 08E8  
                               STR_11 08E3                                 STR_20 08ED  
                               STR_12 08B9                                 STR_13 0815  
                               STR_14 083B                                 STR_15 086F  
                               STR_16 085E                                 STR_17 0880  
                               STR_18 08ED                       __end_of___awmod 1D5E  
                     _contador_ciclos 006E                                 ?_stoa 000A  
                     ___awdiv@divisor 0003                                 ?_xtoa 001C  
                 Escrever_EEPROM@dado 0009                                 _LATC0 7C58  
                               _LATB2 7C52                                 _LATC1 7C59  
                               _LATB3 7C53                                 _LATD0 7C60  
                               _LATC2 7C5A                                 _LATD2 7C62  
                               _LATD3 7C63                                 _LATC6 7C5E  
                               _LATC7 7C5F                                 _LATD7 7C67  
                    ?_Escrever_EEPROM 0007                       ___awdiv@counter 0005  
                        vfpfcnvrt@fmt 002E                                 _PORTC 0F82  
                               _PORTD 0F83                                 _TRISB 0F93  
                               _TRISC 0F94                                 _TRISD 0F95  
                          _Ler_EEPROM 2384                _Salvar_Contador_EEPROM 2462  
                               _flags 0070                   read_prec_or_width@c 000D  
                 read_prec_or_width@n 000E                                 _fputc 199A  
                               _fputs 221A                      __end_of_RTC_Init 24A6  
                               pad@fp 0011                                 _width 0060  
                               _putch 255C                                 dtoa@d 001E  
                               dtoa@i 0026                         ??_Modo_Manual 00BA  
                               dtoa@p 0022                                 dtoa@s 0028  
                               dtoa@w 0024                     __end_of_I2C_Start 2536  
                   __end_of_I2C_Write 24C0                                 tablat 0FF5  
                               plusw1 0FE3                                 plusw2 0FDB  
                               stoa@i 0016                                 stoa@l 001E  
                               stoa@p 001C                                 stoa@s 000C  
                               stoa@w 0018                                 status 0FD8  
                     __end_of_sprintf 20F0                                 xtoa@c 002B  
                               xtoa@d 001E                                 xtoa@i 0029  
                               xtoa@p 0025                                 xtoa@w 0027  
 Display_Menu_Principal@display_timer 0068                       __end_of_strncmp 199A  
                      ?_LCD_String_xy 000B                          __end_of_Beep 1FAA  
                     __initialization 2318                          __end_of_main 1764  
                        __end_of_dtoa 12A4                          __end_of_stoa 15F2  
                        __end_of_xtoa 18BC                                ??_Beep 0007  
                              ??_main 0060                                ??_dtoa 0020  
                              ??_stoa 000E                                ??_xtoa 0020  
                   __end_of_LCD_Clear 2512                         __activetblptr 0002  
          __end_of_read_prec_or_width 1B2A                                _ADCON0 0FC2  
                              _ADCON1 0FC1                                _ADCON2 0FC0  
 Sequenciador_Automatico@estado_timer 0066                                ?_fputc 0001  
                              ?_fputs 000A                                _ADRESH 0FC4  
                              _ADRESL 0FC3                      ___awdiv@dividend 0001  
                              ?_putch 0001                      LCD_String_xy@msg 000C  
                    LCD_String_xy@pos 000B                      LCD_String_xy@row 000E  
                           ??_MSdelay 0003                                _OSCCON 0FD3  
         ?_Display_Mensagens_Iniciais 0001                         vfpfcnvrt@done 0034  
                              _SSPADD 0FC8                             ??_Ler_ADC 0009  
                              _SSPBUF 0FC9                             ??_i2c_Ack 0001  
            ?_Verificar_Falha_Pressao 0001                   __end_of_Modo_Manual 10D6  
                        vfprintf@cfmt 0044                 I2C_Write@v_i2cData_u8 0001  
                  _ciclo_em_andamento 0075                                ___wmul 243C  
                           ??___awdiv 0005                Ler_Contador_EEPROM@low 0009  
                           ??___awmod 0005               _Sequenciador_Automatico 0C42  
                read_prec_or_width@ap 0009                                clear_0 233E  
                    ___awdiv@quotient 0007                       ___awmod@divisor 0003  
                              isa$std 0001                       ___awmod@counter 0005  
                              pad@buf 0013                                dtoa@fp 001C  
                              _strlen 2056                                fputc@c 0001  
                              fputs@c 000E                                fputs@i 000F  
                              fputs@s 000A                             ?_I2C_Init 0001  
                           ?_I2C_Read 0001                             ?_I2C_Stop 0001  
                           ?_ADC_Init 0001                           ?_Ler_EEPROM 0003  
                        __mediumconst 0000                                tblptrh 0FF7  
                              tblptrl 0FF6                                tblptru 0FF8  
                              stoa@cp 001A                                stoa@fp 000A  
                              putch@c 0001                      __end_of_vfprintf 2056  
                           ??_sprintf 0052                                xtoa@fp 001C  
                           ??_strncmp 0007                             ?_LCD_Char 0001  
                          __accesstop 0060               __end_of__initialization 2344  
                           ?_LCD_Init 0001                       ??_LCD_String_xy 000E  
                       ___rparam_used 0001                        __pcstackCOMRAM 0001  
                        __pidataBANK0 2548                     __end_of_i2c_NoAck 24EA  
                       __end_of_fputc 1A64                         __end_of_fputs 225E  
                       __end_of_putch 255E                          ??_LCD_String 000B  
                           ?_RTC_Init 0001                            ??_I2C_Init 0001  
                          ??_I2C_Read 0001                            ??_I2C_Stop 0001  
                          ??_ADC_Init 0001                _Display_Menu_Principal 12A4  
                             ??_fputc 0005                               ??_fputs 000E  
                             ??_putch 0001                            __pbssBANK0 0060  
     __end_of_Verificar_Falha_Pressao 243C                           _Modo_Manual 0EA4  
                          ??_LCD_Char 0007                            ??_LCD_Init 0009  
                  __end_of_LCD_String 2008             ??_Sequenciador_Automatico 000A  
                             ?___wmul 0001                            ??_RTC_Init 0002  
                             ?_strlen 0001               ?_Salvar_Contador_EEPROM 0001  
                       ??_I2C_Restart 0001                            _lcd_buffer 0098  
                             _SSPCON1 0FC6                               _SSPCON2 0FC5  
                             _SSPSTAT 0FC7                               _MSdelay 2188  
                             _Ler_ADC 225E                               _i2c_Ack 24EA  
                           _I2C_Start 2524                             _I2C_Write 24A6  
                       LCD_String@msg 0009                               __Hparam 0000  
                             __Lparam 0000                               ___awdiv 1B2A  
                             ___awmod 1CAE                             ?_vfprintf 003E  
                        __psmallconst 0800               Ler_Contador_EEPROM@high 0008  
                             __pcinit 2318        __end_of_Salvar_Contador_EEPROM 2486  
                             __ramtop 0800                               __ptext0 15F2  
                             __ptext1 2412                               __ptext2 0C42  
                             __ptext3 2462                               __ptext4 23E4  
                             __ptext5 2486                               __ptext6 24C0  
                             __ptext7 0EA4                               __ptext8 234E  
                             __ptext9 2384                 read_prec_or_width@fmt 0007  
                    ___awmod@dividend 0001                   Modo_Manual@last_inc 00B9  
                 Modo_Manual@last_ent 00B7                   Modo_Manual@last_dow 00B8  
                 _Ler_Contador_EEPROM 234E                             _LCD_Clear 24FE  
             Escrever_EEPROM@endereco 0007                               _sprintf 20A4  
                 __end_of_I2C_Restart 2548                               _strncmp 18BC  
                end_of_initialization 2344                I2C_Read@v_ackOption_u8 0001  
                             fputc@fp 0003                        LCD_Command@cmd 0008  
                       __Lmediumconst 0000                               fputs@fp 000C  
                  _read_prec_or_width 1A64                            ?_I2C_Start 0001  
                          ?_I2C_Write 0001         Sequenciador_Automatico@estado 0071  
                   ??_RTC_GetDateTime 0005                  ?_Ler_Contador_EEPROM 0001  
                   __end_of_vfpfcnvrt 0C42                               postdec1 0FE5  
                             postdec2 0FDD                   ?_read_prec_or_width 0007  
                             postinc0 0FEE                               postinc1 0FE6  
                             postinc2 0FDE                      vfpfcnvrt@convarg 0038  
                          ??_vfprintf 0044                               strlen@a 0003  
                             strlen@s 0001                             _PORTAbits 0F80  
     Modo_Manual@manual_display_timer 0064                          ??_Ler_EEPROM 0005  
                           _TRISAbits 0F92                             _TRISBbits 0F93  
                       _modo_operacao 0077                            ?_LCD_Clear 0001  
                ??_read_prec_or_width 000B                     ??_i2c_WaitForIdle 0001  
               ??_Ler_Contador_EEPROM 0006                    __end_of_Ler_EEPROM 23B4  
                       ??_LCD_Command 0007                           vfpfcnvrt@ap 0030  
                         vfpfcnvrt@cp 003C                           vfpfcnvrt@fp 002C  
                      __end_of___wmul 2462                             _i2c_NoAck 24D6  
             ?_Display_Menu_Principal 0001                           _I2C_Restart 2536  
                         _adc_pressao 006A                        __end_of_strlen 20A4  
                 start_initialization 2318                           __end_of_abs 22DE  
                         __end_of_pad 1E0C                          ?_Modo_Manual 0001  
                 _valvula_selecionada 0076                           ??_I2C_Start 0001  
                         ??_I2C_Write 0001                 __end_of_LCD_String_xy 1F42  
                   ??_Escrever_EEPROM 000A                           vfprintf@fmt 0040  
                            ??___wmul 0005                         _falha_pressao 0074  
                         __pdataBANK0 00B0        __end_of_Display_Menu_Principal 145E  
                            ??_strlen 0003                            ?_i2c_NoAck 0001  
                 __end_of_LCD_Command 2188                        Ler_EEPROM@dado 0005  
                       __pcstackBANK0 00BA                           ??_LCD_Clear 0009  
                            ?_MSdelay 0001                              ?_Ler_ADC 0007  
                            ?_i2c_Ack 0001                             _dtoa$1244 0020  
                            ?___awdiv 0001                              ?___awmod 0001  
             _Verificar_Falha_Pressao 2412                  I2C_Read@v_i2cData_u8 0002  
                         __smallconst 0800                              _I2C_Init 24C0  
                            _I2C_Read 22DE                              _I2C_Stop 2512  
                            _ADC_Init 2552                       _RTC_GetDateTime 1E0C  
                            Beep@tipo 0007                 LCD_String_xy@location 000F  
                            ?_sprintf 0046                              ?_strncmp 0001  
                            MSdelay@i 0003                              MSdelay@j 0005  
                            _LCD_Char 20F0                              _LCD_Init 23B4  
                      ___wmul@product 0005          ??_Display_Mensagens_Iniciais 0010  
            ?_Sequenciador_Automatico 0001    Display_Menu_Principal@linha_toggle 0073  
                         _LCD_Command 213C                             _vfpfcnvrt 08F2  
                            _RTC_Init 2486                             _xtoa$1264 0023  
                          _ADCON0bits 0FC2                     ___wmul@multiplier 0001  
                         ??_i2c_NoAck 0001                       _i2c_WaitForIdle 21D2  
                           copy_data0 232C                              __Hrparam 0000  
                          vfprintf@ap 0042                              __Lrparam 0000  
                          vfprintf@fp 003E             ??_Verificar_Falha_Pressao 0001  
                          ?_vfpfcnvrt 002C               __end_of_RTC_GetDateTime 1EB4  
                        ?_I2C_Restart 0001                            sprintf@fmt 0048  
                            __ptext10 225E                              __ptext11 23B4  
                            __ptext20 1A64                              __ptext12 12A4  
                            __ptext21 243C                              __ptext13 20A4  
                            __ptext30 1E0C                              __ptext22 10D6  
                            __ptext14 2008                              __ptext31 24A6  
                            __ptext23 1D5E                              __ptext15 08F2  
                            __ptext40 1EB4                              __ptext32 2512  
                            __ptext24 221A                              __ptext16 1764  
                            __ptext41 1FAA                              __ptext33 2524  
                            __ptext25 199A                              __ptext17 18BC  
                            __ptext42 20F0                              __ptext34 2536  
                            __ptext26 255C                              __ptext18 145E  
                            __ptext43 24FE                              __ptext35 22DE  
                            __ptext27 229E                              __ptext19 2056  
                            __ptext44 213C                              __ptext36 21D2  
                            __ptext28 1CAE                              __ptext45 1F42  
                            __ptext37 24D6                              __ptext29 1B2A  
                            __ptext46 2188                              __ptext38 24EA  
                            __ptext47 2552                              __ptext39 1BEE  
                     _Escrever_EEPROM 23E4       __end_of_Sequenciador_Automatico 0EA4  
         __end_of_Ler_Contador_EEPROM 2384      Display_Menu_Principal@pressao_mv 00BC  
                          MSdelay@val 0001              ??_Salvar_Contador_EEPROM 000A  
                           stoa@F1156 00B0                              isa$xinst 0000  
             __end_of_i2c_WaitForIdle 221A                          Ler_ADC@canal 000B  
                            _vfprintf 2008                            _LCD_String 1FAA  
                      _vfpfcnvrt$1291 0036                    RTC_GetDateTime@rtc 0003  
                           sprintf@ap 0052    __end_of_Display_Mensagens_Iniciais 1CAE  
          _Display_Mensagens_Iniciais 1BEE                             strncmp@_l 0001  
                           strncmp@_r 0003                          _temporizador 006C  
                         ??_vfpfcnvrt 0032                              stoa@nuls 000F  
             __end_of_Escrever_EEPROM 2412                      ?_RTC_GetDateTime 0003  
                            sprintf@f 0054                              sprintf@s 0046  
                            strncmp@l 0008                              strncmp@n 0005  
                            strncmp@r 000A                           _SSPCON2bits 0FC5  
Sequenciador_Automatico@valvula_atual 0072  
